0000000000400990 <_init>:
0 (function _init):	
  400990:	48 83 ec 08                 	(arith) 	sub	$0x8,%rsp
  400994:	48 8b 05 5d 06 21 00        	(move)  	mov	0x21065d(%rip),%rax
  40099b:	48 85 c0                    	(arith) 	test	%rax,%rax
  40099e:	74 05                       	(control)	je	4009a5 <_init+0x15>	; ↲ label 1
2:	
  4009a0:	e8 3b 01 00 00              	(control)	call	400ae0 <.plt.got@start>	; ⇄ .plt.got@start
1:	
  4009a5:	48 83 c4 08                 	(arith) 	add	$0x8,%rsp
  4009a9:	c3                          	(control)	ret


0000000000400af0 <_start>:
4 (function _start):	
  400af0:	31 ed                       	(logic) 	xor	%ebp,%ebp
  400af2:	49 89 d1                    	(move)  	mov	%rdx,%r9
  400af5:	5e                          	(move)  	pop	%rsi
  400af6:	48 89 e2                    	(move)  	mov	%rsp,%rdx
  400af9:	48 83 e4 f0                 	(logic) 	and	$-0x10,%rsp
  400afd:	50                          	(move)  	push	%rax
  400afe:	54                          	(move)  	push	%rsp
  400aff:	49 c7 c0 70 eb 40 00        	(move)  	mov	$0x40eb70,%r8
  400b06:	48 c7 c1 00 eb 40 00        	(move)  	mov	$0x40eb00,%rcx
  400b0d:	48 c7 c7 5e 1a 40 00        	(move)  	mov	$0x401a5e,%rdi
  400b14:	e8 e7 fe ff ff              	(control)	call	400a00 <__libc_start_main@plt>	; ⇄ __libc_start_main
6:	
  400b19:	f4                          	(control)	hlt
  400b1a:	66 0f 1f 44 00 00           	(other) 	nopw	(%rax,%rax,1)


0000000000400b20 <deregister_tm_clones>:
7 (function deregister_tm_clones):	
  400b20:	b8 c7 10 61 00              	(move)  	mov	$0x6110c7,%eax
  400b25:	55                          	(move)  	push	%rbp
  400b26:	48 2d c0 10 61 00           	(arith) 	sub	$0x6110c0,%rax
  400b2c:	48 83 f8 0e                 	(arith) 	cmp	$0xe,%rax
  400b30:	48 89 e5                    	(move)  	mov	%rsp,%rbp
  400b33:	76 1b                       	(control)	jbe	400b50 <deregister_tm_clones+0x30>	; ↲ label 8
9:	
  400b35:	b8 00 00 00 00              	(move)  	mov	$0,%eax
  400b3a:	48 85 c0                    	(arith) 	test	%rax,%rax
  400b3d:	74 11                       	(control)	je	400b50 <deregister_tm_clones+0x30>	; ↲ label 8
10:	
  400b3f:	5d                          	(move)  	pop	%rbp
  400b40:	bf c0 10 61 00              	(move)  	mov	$0x6110c0,%edi
  400b45:	ff e0                       	(control)	jmp	%rax
11:	
  400b47:	66 0f 1f 84 00 00 00 00 00  	(other) 	nopw	(%rax,%rax,1)
8:	
  400b50:	5d                          	(move)  	pop	%rbp
  400b51:	c3                          	(control)	ret
12:	
  400b52:	0f 1f 40 00                 	(other) 	nopl	(%rax)
  400b56:	66 2e 0f 1f 84 00 00 00 00 00	(other) 	nopw	%cs:(%rax,%rax,1)


0000000000400b60 <register_tm_clones>:
13 (function register_tm_clones):	
  400b60:	be c0 10 61 00              	(move)  	mov	$0x6110c0,%esi
  400b65:	55                          	(move)  	push	%rbp
  400b66:	48 81 ee c0 10 61 00        	(arith) 	sub	$0x6110c0,%rsi
  400b6d:	48 c1 fe 03                 	(logic) 	sar	$0x3,%rsi
  400b71:	48 89 e5                    	(move)  	mov	%rsp,%rbp
  400b74:	48 89 f0                    	(move)  	mov	%rsi,%rax
  400b77:	48 c1 e8 3f                 	(logic) 	shr	$0x3f,%rax
  400b7b:	48 01 c6                    	(arith) 	add	%rax,%rsi
  400b7e:	48 d1 fe                    	(logic) 	sar	$0x1,%rsi
  400b81:	74 15                       	(control)	je	400b98 <register_tm_clones+0x38>	; ↲ label 14
15:	
  400b83:	b8 00 00 00 00              	(move)  	mov	$0,%eax
  400b88:	48 85 c0                    	(arith) 	test	%rax,%rax
  400b8b:	74 0b                       	(control)	je	400b98 <register_tm_clones+0x38>	; ↲ label 14
16:	
  400b8d:	5d                          	(move)  	pop	%rbp
  400b8e:	bf c0 10 61 00              	(move)  	mov	$0x6110c0,%edi
  400b93:	ff e0                       	(control)	jmp	%rax
17:	
  400b95:	0f 1f 00                    	(other) 	nopl	(%rax)
14:	
  400b98:	5d                          	(move)  	pop	%rbp
  400b99:	c3                          	(control)	ret
18:	
  400b9a:	66 0f 1f 44 00 00           	(other) 	nopw	(%rax,%rax,1)


0000000000400ba0 <__do_global_dtors_aux>:
19 (function __do_global_dtors_aux):	
  400ba0:	80 3d 19 05 21 00 00        	(arith) 	cmpb	$0,0x210519(%rip)
  400ba7:	75 11                       	(control)	jne	400bba <__do_global_dtors_aux+0x1a>	; ↲ label 20
21:	
  400ba9:	55                          	(move)  	push	%rbp
  400baa:	48 89 e5                    	(move)  	mov	%rsp,%rbp
  400bad:	e8 6e ff ff ff              	(control)	call	400b20 <deregister_tm_clones>	; ⇄ deregister_tm_clones
22:	
  400bb2:	5d                          	(move)  	pop	%rbp
  400bb3:	c6 05 06 05 21 00 01        	(move)  	movb	$0x1,0x210506(%rip)
20:	
  400bba:	f3 c3                       	(control)	ret
23:	
  400bbc:	0f 1f 40 00                 	(other) 	nopl	(%rax)


0000000000400bc0 <frame_dummy>:
24 (function frame_dummy):	
  400bc0:	bf 00 0e 61 00              	(move)  	mov	$0x610e00,%edi
  400bc5:	48 83 3f 00                 	(arith) 	cmpq	$0,(%rdi)
  400bc9:	75 05                       	(control)	jne	400bd0 <frame_dummy+0x10>	; ↲ label 25
26:	
  400bcb:	eb 93                       	(control)	jmp	400b60 <register_tm_clones>	; ↰ register_tm_clones
27:	
  400bcd:	0f 1f 00                    	(other) 	nopl	(%rax)
25:	
  400bd0:	b8 00 00 00 00              	(move)  	mov	$0,%eax
  400bd5:	48 85 c0                    	(arith) 	test	%rax,%rax
  400bd8:	74 f1                       	(control)	je	400bcb <frame_dummy+0xb>	; ↰ label 26
28:	
  400bda:	55                          	(move)  	push	%rbp
  400bdb:	48 89 e5                    	(move)  	mov	%rsp,%rbp
  400bde:	ff d0                       	(control)	call	%rax
29:	
  400be0:	5d                          	(move)  	pop	%rbp
  400be1:	e9 7a ff ff ff              	(control)	jmp	400b60 <register_tm_clones>	; ↰ register_tm_clones


0000000000400be6 <bt>:
30 (function MAIN__):	
/home/jcsalinas/Documents/pruebas/inst_estimation_module/BT/bt.f:48
  400be6:	41 54                       	(move)  	push	%r12
  400be8:	55                          	(move)  	push	%rbp
  400be9:	53                          	(move)  	push	%rbx
  400bea:	48 81 ec 10 03 00 00        	(arith) 	sub	$0x310,%rsp
/home/jcsalinas/Documents/pruebas/inst_estimation_module/BT/bt.f:67
  400bf1:	48 c7 44 24 18 84 eb 40 00  	(move)  	movq	$0x40eb84,0x18(%rsp)
  400bfa:	c7 44 24 20 43 00 00 00     	(move)  	movl	$0x43,0x20(%rsp)
  400c02:	c7 84 24 e0 02 00 00 00 00 00 00	(move)  	movl	$0,0x2e0(%rsp)
  400c0d:	48 8d 84 24 e0 02 00 00     	(arith) 	lea	0x2e0(%rsp),%rax
  400c15:	48 89 44 24 30              	(move)  	mov	%rax,0x30(%rsp)
  400c1a:	48 c7 44 24 40 a0 eb 40 00  	(move)  	movq	$0x40eba0,0x40(%rsp)
  400c23:	c7 44 24 3c 0a 00 00 00     	(move)  	movl	$0xa,0x3c(%rsp)
  400c2b:	48 c7 44 24 48 aa eb 40 00  	(move)  	movq	$0x40ebaa,0x48(%rsp)
  400c34:	c7 44 24 50 03 00 00 00     	(move)  	movl	$0x3,0x50(%rsp)
  400c3c:	c7 44 24 10 20 03 00 00     	(move)  	movl	$0x320,0x10(%rsp)
  400c44:	c7 44 24 14 02 00 00 00     	(move)  	movl	$0x2,0x14(%rsp)
  400c4c:	48 8d 7c 24 10              	(arith) 	lea	0x10(%rsp),%rdi
  400c51:	e8 7a fd ff ff              	(control)	call	4009d0 <_gfortran_st_open@plt>	; ⇄ _gfortran_st_open
32:	
/home/jcsalinas/Documents/pruebas/inst_estimation_module/BT/bt.f:68
  400c56:	83 bc 24 e0 02 00 00 00     	(arith) 	cmpl	$0,0x2e0(%rsp)
  400c5e:	0f 85 fd 00 00 00           	(control)	jne	400d61 <main__+0x17b>	; ↲ label 33
34:	
/home/jcsalinas/Documents/pruebas/inst_estimation_module/BT/bt.f:69
  400c64:	c7 05 86 09 21 00 01 00 00 00	(move)  	movl	$0x1,0x210986(%rip)
/home/jcsalinas/Documents/pruebas/inst_estimation_module/BT/bt.f:70
  400c6e:	48 b8 74 6f 74 61 6c 20 20 20	(move)  	mov	$0x2020206c61746f74,%rax
  400c78:	48 89 84 24 60 02 00 00     	(move)  	mov	%rax,0x260(%rsp)
/home/jcsalinas/Documents/pruebas/inst_estimation_module/BT/bt.f:71
  400c80:	48 b8 72 68 73 78 20 20 20 20	(move)  	mov	$0x2020202078736872,%rax
  400c8a:	48 89 84 24 68 02 00 00     	(move)  	mov	%rax,0x268(%rsp)
/home/jcsalinas/Documents/pruebas/inst_estimation_module/BT/bt.f:72
  400c92:	48 b8 72 68 73 79 20 20 20 20	(move)  	mov	$0x2020202079736872,%rax
  400c9c:	48 89 84 24 70 02 00 00     	(move)  	mov	%rax,0x270(%rsp)
/home/jcsalinas/Documents/pruebas/inst_estimation_module/BT/bt.f:73
  400ca4:	48 b8 72 68 73 7a 20 20 20 20	(move)  	mov	$0x202020207a736872,%rax
  400cae:	48 89 84 24 78 02 00 00     	(move)  	mov	%rax,0x278(%rsp)
/home/jcsalinas/Documents/pruebas/inst_estimation_module/BT/bt.f:74
  400cb6:	48 b8 72 68 73 20 20 20 20 20	(move)  	mov	$0x2020202020736872,%rax
  400cc0:	48 89 84 24 80 02 00 00     	(move)  	mov	%rax,0x280(%rsp)
/home/jcsalinas/Documents/pruebas/inst_estimation_module/BT/bt.f:75
  400cc8:	48 b8 78 73 6f 6c 76 65 20 20	(move)  	mov	$0x202065766c6f7378,%rax
  400cd2:	48 89 84 24 88 02 00 00     	(move)  	mov	%rax,0x288(%rsp)
/home/jcsalinas/Documents/pruebas/inst_estimation_module/BT/bt.f:76
  400cda:	48 b8 79 73 6f 6c 76 65 20 20	(move)  	mov	$0x202065766c6f7379,%rax
  400ce4:	48 89 84 24 90 02 00 00     	(move)  	mov	%rax,0x290(%rsp)
/home/jcsalinas/Documents/pruebas/inst_estimation_module/BT/bt.f:77
  400cec:	48 b8 7a 73 6f 6c 76 65 20 20	(move)  	mov	$0x202065766c6f737a,%rax
  400cf6:	48 89 84 24 98 02 00 00     	(move)  	mov	%rax,0x298(%rsp)
/home/jcsalinas/Documents/pruebas/inst_estimation_module/BT/bt.f:78
  400cfe:	48 b8 72 65 64 69 73 74 31 20	(move)  	mov	$0x2031747369646572,%rax
  400d08:	48 89 84 24 a0 02 00 00     	(move)  	mov	%rax,0x2a0(%rsp)
/home/jcsalinas/Documents/pruebas/inst_estimation_module/BT/bt.f:79
  400d10:	48 b8 72 65 64 69 73 74 32 20	(move)  	mov	$0x2032747369646572,%rax
  400d1a:	48 89 84 24 a8 02 00 00     	(move)  	mov	%rax,0x2a8(%rsp)
/home/jcsalinas/Documents/pruebas/inst_estimation_module/BT/bt.f:80
  400d22:	48 b8 61 64 64 20 20 20 20 20	(move)  	mov	$0x2020202020646461,%rax
  400d2c:	48 89 84 24 b0 02 00 00     	(move)  	mov	%rax,0x2b0(%rsp)
/home/jcsalinas/Documents/pruebas/inst_estimation_module/BT/bt.f:81
  400d34:	48 c7 44 24 18 84 eb 40 00  	(move)  	movq	$0x40eb84,0x18(%rsp)
  400d3d:	c7 44 24 20 51 00 00 00     	(move)  	movl	$0x51,0x20(%rsp)
  400d45:	c7 44 24 10 00 00 00 00     	(move)  	movl	$0,0x10(%rsp)
  400d4d:	c7 44 24 14 02 00 00 00     	(move)  	movl	$0x2,0x14(%rsp)
  400d55:	48 8d 7c 24 10              	(arith) 	lea	0x10(%rsp),%rdi
  400d5a:	e8 f1 fc ff ff              	(control)	call	400a50 <_gfortran_st_close@plt>	; ⇄ _gfortran_st_close
36:	
  400d5f:	eb 0a                       	(control)	jmp	400d6b <main__+0x185>	; ↲ label 37
33:	
/home/jcsalinas/Documents/pruebas/inst_estimation_module/BT/bt.f:83
  400d61:	c7 05 89 08 21 00 00 00 00 00	(move)  	movl	$0,0x210889(%rip)
37:	
/home/jcsalinas/Documents/pruebas/inst_estimation_module/BT/bt.f:86
  400d6b:	48 c7 44 24 18 84 eb 40 00  	(move)  	movq	$0x40eb84,0x18(%rsp)
  400d74:	c7 44 24 20 56 00 00 00     	(move)  	movl	$0x56,0x20(%rsp)
  400d7c:	48 c7 44 24 58 b0 eb 40 00  	(move)  	movq	$0x40ebb0,0x58(%rsp)
  400d85:	c7 44 24 60 5b 00 00 00     	(move)  	movl	$0x5b,0x60(%rsp)
  400d8d:	c7 44 24 10 00 10 00 00     	(move)  	movl	$0x1000,0x10(%rsp)
  400d95:	c7 44 24 14 06 00 00 00     	(move)  	movl	$0x6,0x14(%rsp)
  400d9d:	48 8d 7c 24 10              	(arith) 	lea	0x10(%rsp),%rdi
  400da2:	e8 e9 fc ff ff              	(control)	call	400a90 <_gfortran_st_write@plt>	; ⇄ _gfortran_st_write
39:	
  400da7:	48 8d 7c 24 10              	(arith) 	lea	0x10(%rsp),%rdi
  400dac:	e8 2f fc ff ff              	(control)	call	4009e0 <_gfortran_st_write_done@plt>	; ⇄ _gfortran_st_write_done
41:	
/home/jcsalinas/Documents/pruebas/inst_estimation_module/BT/bt.f:87
  400db1:	48 c7 44 24 18 84 eb 40 00  	(move)  	movq	$0x40eb84,0x18(%rsp)
  400dba:	c7 44 24 20 57 00 00 00     	(move)  	movl	$0x57,0x20(%rsp)
  400dc2:	c7 84 24 e0 02 00 00 00 00 00 00	(move)  	movl	$0,0x2e0(%rsp)
  400dcd:	48 8d 84 24 e0 02 00 00     	(arith) 	lea	0x2e0(%rsp),%rax
  400dd5:	48 89 44 24 30              	(move)  	mov	%rax,0x30(%rsp)
  400dda:	48 c7 44 24 40 0b ec 40 00  	(move)  	movq	$0x40ec0b,0x40(%rsp)
  400de3:	c7 44 24 3c 0c 00 00 00     	(move)  	movl	$0xc,0x3c(%rsp)
  400deb:	48 c7 44 24 48 aa eb 40 00  	(move)  	movq	$0x40ebaa,0x48(%rsp)
  400df4:	c7 44 24 50 03 00 00 00     	(move)  	movl	$0x3,0x50(%rsp)
  400dfc:	c7 44 24 10 20 03 00 00     	(move)  	movl	$0x320,0x10(%rsp)
  400e04:	c7 44 24 14 02 00 00 00     	(move)  	movl	$0x2,0x14(%rsp)
  400e0c:	48 8d 7c 24 10              	(arith) 	lea	0x10(%rsp),%rdi
  400e11:	e8 ba fb ff ff              	(control)	call	4009d0 <_gfortran_st_open@plt>	; ⇄ _gfortran_st_open
42:	
/home/jcsalinas/Documents/pruebas/inst_estimation_module/BT/bt.f:89
  400e16:	83 bc 24 e0 02 00 00 00     	(arith) 	cmpl	$0,0x2e0(%rsp)
  400e1e:	0f 85 79 01 00 00           	(control)	jne	400f9d <main__+0x3b7>	; ↲ label 43
44:	
/home/jcsalinas/Documents/pruebas/inst_estimation_module/BT/bt.f:90
  400e24:	48 c7 44 24 18 84 eb 40 00  	(move)  	movq	$0x40eb84,0x18(%rsp)
  400e2d:	c7 44 24 20 5a 00 00 00     	(move)  	movl	$0x5a,0x20(%rsp)
  400e35:	48 c7 44 24 58 18 ec 40 00  	(move)  	movq	$0x40ec18,0x58(%rsp)
  400e3e:	c7 44 24 60 29 00 00 00     	(move)  	movl	$0x29,0x60(%rsp)
  400e46:	c7 44 24 10 00 10 00 00     	(move)  	movl	$0x1000,0x10(%rsp)
  400e4e:	c7 44 24 14 06 00 00 00     	(move)  	movl	$0x6,0x14(%rsp)
  400e56:	48 8d 7c 24 10              	(arith) 	lea	0x10(%rsp),%rdi
  400e5b:	e8 30 fc ff ff              	(control)	call	400a90 <_gfortran_st_write@plt>	; ⇄ _gfortran_st_write
45:	
  400e60:	48 8d 7c 24 10              	(arith) 	lea	0x10(%rsp),%rdi
  400e65:	e8 76 fb ff ff              	(control)	call	4009e0 <_gfortran_st_write_done@plt>	; ⇄ _gfortran_st_write_done
46:	
/home/jcsalinas/Documents/pruebas/inst_estimation_module/BT/bt.f:92
  400e6a:	48 c7 44 24 18 84 eb 40 00  	(move)  	movq	$0x40eb84,0x18(%rsp)
  400e73:	c7 44 24 20 5c 00 00 00     	(move)  	movl	$0x5c,0x20(%rsp)
  400e7b:	c7 44 24 10 80 00 00 00     	(move)  	movl	$0x80,0x10(%rsp)
  400e83:	c7 44 24 14 02 00 00 00     	(move)  	movl	$0x2,0x14(%rsp)
  400e8b:	48 8d 7c 24 10              	(arith) 	lea	0x10(%rsp),%rdi
  400e90:	e8 2b fc ff ff              	(control)	call	400ac0 <_gfortran_st_read@plt>	; ⇄ _gfortran_st_read
48:	
  400e95:	ba 04 00 00 00              	(move)  	mov	$0x4,%edx
  400e9a:	48 8d b4 24 cc 02 00 00     	(arith) 	lea	0x2cc(%rsp),%rsi
  400ea2:	48 8d 7c 24 10              	(arith) 	lea	0x10(%rsp),%rdi
  400ea7:	e8 94 fb ff ff              	(control)	call	400a40 <_gfortran_transfer_integer@plt>	; ⇄ _gfortran_transfer_integer
50:	
  400eac:	48 8d 7c 24 10              	(arith) 	lea	0x10(%rsp),%rdi
  400eb1:	e8 5a fb ff ff              	(control)	call	400a10 <_gfortran_st_read_done@plt>	; ⇄ _gfortran_st_read_done
52:	
/home/jcsalinas/Documents/pruebas/inst_estimation_module/BT/bt.f:93
  400eb6:	48 c7 44 24 18 84 eb 40 00  	(move)  	movq	$0x40eb84,0x18(%rsp)
  400ebf:	c7 44 24 20 5d 00 00 00     	(move)  	movl	$0x5d,0x20(%rsp)
  400ec7:	c7 44 24 10 80 00 00 00     	(move)  	movl	$0x80,0x10(%rsp)
  400ecf:	c7 44 24 14 02 00 00 00     	(move)  	movl	$0x2,0x14(%rsp)
  400ed7:	48 8d 7c 24 10              	(arith) 	lea	0x10(%rsp),%rdi
  400edc:	e8 df fb ff ff              	(control)	call	400ac0 <_gfortran_st_read@plt>	; ⇄ _gfortran_st_read
53:	
  400ee1:	ba 08 00 00 00              	(move)  	mov	$0x8,%edx
  400ee6:	be a8 11 61 00              	(move)  	mov	$0x6111a8,%esi
  400eeb:	48 8d 7c 24 10              	(arith) 	lea	0x10(%rsp),%rdi
  400ef0:	e8 db fb ff ff              	(control)	call	400ad0 <_gfortran_transfer_real@plt>	; ⇄ _gfortran_transfer_real
55:	
  400ef5:	48 8d 7c 24 10              	(arith) 	lea	0x10(%rsp),%rdi
  400efa:	e8 11 fb ff ff              	(control)	call	400a10 <_gfortran_st_read_done@plt>	; ⇄ _gfortran_st_read_done
56:	
/home/jcsalinas/Documents/pruebas/inst_estimation_module/BT/bt.f:94
  400eff:	48 c7 44 24 18 84 eb 40 00  	(move)  	movq	$0x40eb84,0x18(%rsp)
  400f08:	c7 44 24 20 5e 00 00 00     	(move)  	movl	$0x5e,0x20(%rsp)
  400f10:	c7 44 24 10 80 00 00 00     	(move)  	movl	$0x80,0x10(%rsp)
  400f18:	c7 44 24 14 02 00 00 00     	(move)  	movl	$0x2,0x14(%rsp)
  400f20:	48 8d 7c 24 10              	(arith) 	lea	0x10(%rsp),%rdi
  400f25:	e8 96 fb ff ff              	(control)	call	400ac0 <_gfortran_st_read@plt>	; ⇄ _gfortran_st_read
57:	
  400f2a:	ba 04 00 00 00              	(move)  	mov	$0x4,%edx
  400f2f:	be e8 15 61 00              	(move)  	mov	$0x6115e8,%esi
  400f34:	48 8d 7c 24 10              	(arith) 	lea	0x10(%rsp),%rdi
  400f39:	e8 02 fb ff ff              	(control)	call	400a40 <_gfortran_transfer_integer@plt>	; ⇄ _gfortran_transfer_integer
58:	
  400f3e:	ba 04 00 00 00              	(move)  	mov	$0x4,%edx
  400f43:	be ec 15 61 00              	(move)  	mov	$0x6115ec,%esi
  400f48:	48 8d 7c 24 10              	(arith) 	lea	0x10(%rsp),%rdi
  400f4d:	e8 ee fa ff ff              	(control)	call	400a40 <_gfortran_transfer_integer@plt>	; ⇄ _gfortran_transfer_integer
59:	
  400f52:	ba 04 00 00 00              	(move)  	mov	$0x4,%edx
  400f57:	be f0 15 61 00              	(move)  	mov	$0x6115f0,%esi
  400f5c:	48 8d 7c 24 10              	(arith) 	lea	0x10(%rsp),%rdi
  400f61:	e8 da fa ff ff              	(control)	call	400a40 <_gfortran_transfer_integer@plt>	; ⇄ _gfortran_transfer_integer
60:	
  400f66:	48 8d 7c 24 10              	(arith) 	lea	0x10(%rsp),%rdi
  400f6b:	e8 a0 fa ff ff              	(control)	call	400a10 <_gfortran_st_read_done@plt>	; ⇄ _gfortran_st_read_done
61:	
/home/jcsalinas/Documents/pruebas/inst_estimation_module/BT/bt.f:95
  400f70:	48 c7 44 24 18 84 eb 40 00  	(move)  	movq	$0x40eb84,0x18(%rsp)
  400f79:	c7 44 24 20 5f 00 00 00     	(move)  	movl	$0x5f,0x20(%rsp)
  400f81:	c7 44 24 10 00 00 00 00     	(move)  	movl	$0,0x10(%rsp)
  400f89:	c7 44 24 14 02 00 00 00     	(move)  	movl	$0x2,0x14(%rsp)
  400f91:	48 8d 7c 24 10              	(arith) 	lea	0x10(%rsp),%rdi
  400f96:	e8 b5 fa ff ff              	(control)	call	400a50 <_gfortran_st_close@plt>	; ⇄ _gfortran_st_close
62:	
  400f9b:	eb 7f                       	(control)	jmp	40101c <main__+0x436>	; ↲ label 63
43:	
/home/jcsalinas/Documents/pruebas/inst_estimation_module/BT/bt.f:97
  400f9d:	48 c7 44 24 18 84 eb 40 00  	(move)  	movq	$0x40eb84,0x18(%rsp)
  400fa6:	c7 44 24 20 61 00 00 00     	(move)  	movl	$0x61,0x20(%rsp)
  400fae:	48 c7 44 24 58 48 ec 40 00  	(move)  	movq	$0x40ec48,0x58(%rsp)
  400fb7:	c7 44 24 60 38 00 00 00     	(move)  	movl	$0x38,0x60(%rsp)
  400fbf:	c7 44 24 10 00 10 00 00     	(move)  	movl	$0x1000,0x10(%rsp)
  400fc7:	c7 44 24 14 06 00 00 00     	(move)  	movl	$0x6,0x14(%rsp)
  400fcf:	48 8d 7c 24 10              	(arith) 	lea	0x10(%rsp),%rdi
  400fd4:	e8 b7 fa ff ff              	(control)	call	400a90 <_gfortran_st_write@plt>	; ⇄ _gfortran_st_write
64:	
  400fd9:	48 8d 7c 24 10              	(arith) 	lea	0x10(%rsp),%rdi
  400fde:	e8 fd f9 ff ff              	(control)	call	4009e0 <_gfortran_st_write_done@plt>	; ⇄ _gfortran_st_write_done
65:	
/home/jcsalinas/Documents/pruebas/inst_estimation_module/BT/bt.f:98
  400fe3:	c7 84 24 cc 02 00 00 c8 00 00 00	(move)  	movl	$0xc8,0x2cc(%rsp)
/home/jcsalinas/Documents/pruebas/inst_estimation_module/BT/bt.f:99
  400fee:	f2 0f 10 25 12 de 00 00     	(move)  	movsd	0xde12(%rip),%xmm4
  400ff6:	f2 0f 11 25 aa 01 21 00     	(move)  	movsd	%xmm4,0x2101aa(%rip)
/home/jcsalinas/Documents/pruebas/inst_estimation_module/BT/bt.f:100
  400ffe:	c7 05 e0 05 21 00 66 00 00 00	(move)  	movl	$0x66,0x2105e0(%rip)
/home/jcsalinas/Documents/pruebas/inst_estimation_module/BT/bt.f:101
  401008:	c7 05 da 05 21 00 66 00 00 00	(move)  	movl	$0x66,0x2105da(%rip)
/home/jcsalinas/Documents/pruebas/inst_estimation_module/BT/bt.f:102
  401012:	c7 05 d4 05 21 00 66 00 00 00	(move)  	movl	$0x66,0x2105d4(%rip)
63:	
/home/jcsalinas/Documents/pruebas/inst_estimation_module/BT/bt.f:106
  40101c:	48 c7 44 24 18 84 eb 40 00  	(move)  	movq	$0x40eb84,0x18(%rsp)
  401025:	c7 44 24 20 6a 00 00 00     	(move)  	movl	$0x6a,0x20(%rsp)
  40102d:	48 c7 44 24 58 80 ec 40 00  	(move)  	movq	$0x40ec80,0x58(%rsp)
  401036:	c7 44 24 60 21 00 00 00     	(move)  	movl	$0x21,0x60(%rsp)
  40103e:	c7 44 24 10 00 10 00 00     	(move)  	movl	$0x1000,0x10(%rsp)
  401046:	c7 44 24 14 06 00 00 00     	(move)  	movl	$0x6,0x14(%rsp)
  40104e:	48 8d 7c 24 10              	(arith) 	lea	0x10(%rsp),%rdi
  401053:	e8 38 fa ff ff              	(control)	call	400a90 <_gfortran_st_write@plt>	; ⇄ _gfortran_st_write
66:	
  401058:	ba 04 00 00 00              	(move)  	mov	$0x4,%edx
  40105d:	be e8 15 61 00              	(move)  	mov	$0x6115e8,%esi
  401062:	48 8d 7c 24 10              	(arith) 	lea	0x10(%rsp),%rdi
  401067:	e8 14 fa ff ff              	(control)	call	400a80 <_gfortran_transfer_integer_write@plt>	; ⇄ _gfortran_transfer_integer_write
68:	
  40106c:	ba 04 00 00 00              	(move)  	mov	$0x4,%edx
  401071:	be ec 15 61 00              	(move)  	mov	$0x6115ec,%esi
  401076:	48 8d 7c 24 10              	(arith) 	lea	0x10(%rsp),%rdi
  40107b:	e8 00 fa ff ff              	(control)	call	400a80 <_gfortran_transfer_integer_write@plt>	; ⇄ _gfortran_transfer_integer_write
69:	
  401080:	ba 04 00 00 00              	(move)  	mov	$0x4,%edx
  401085:	be f0 15 61 00              	(move)  	mov	$0x6115f0,%esi
  40108a:	48 8d 7c 24 10              	(arith) 	lea	0x10(%rsp),%rdi
  40108f:	e8 ec f9 ff ff              	(control)	call	400a80 <_gfortran_transfer_integer_write@plt>	; ⇄ _gfortran_transfer_integer_write
70:	
  401094:	48 8d 7c 24 10              	(arith) 	lea	0x10(%rsp),%rdi
  401099:	e8 42 f9 ff ff              	(control)	call	4009e0 <_gfortran_st_write_done@plt>	; ⇄ _gfortran_st_write_done
71:	
/home/jcsalinas/Documents/pruebas/inst_estimation_module/BT/bt.f:107
  40109e:	48 c7 44 24 18 84 eb 40 00  	(move)  	movq	$0x40eb84,0x18(%rsp)
  4010a7:	c7 44 24 20 6b 00 00 00     	(move)  	movl	$0x6b,0x20(%rsp)
  4010af:	48 c7 44 24 58 a8 ec 40 00  	(move)  	movq	$0x40eca8,0x58(%rsp)
  4010b8:	c7 44 24 60 28 00 00 00     	(move)  	movl	$0x28,0x60(%rsp)
  4010c0:	c7 44 24 10 00 10 00 00     	(move)  	movl	$0x1000,0x10(%rsp)
  4010c8:	c7 44 24 14 06 00 00 00     	(move)  	movl	$0x6,0x14(%rsp)
  4010d0:	48 8d 7c 24 10              	(arith) 	lea	0x10(%rsp),%rdi
  4010d5:	e8 b6 f9 ff ff              	(control)	call	400a90 <_gfortran_st_write@plt>	; ⇄ _gfortran_st_write
72:	
  4010da:	ba 04 00 00 00              	(move)  	mov	$0x4,%edx
  4010df:	48 8d b4 24 cc 02 00 00     	(arith) 	lea	0x2cc(%rsp),%rsi
  4010e7:	48 8d 7c 24 10              	(arith) 	lea	0x10(%rsp),%rdi
  4010ec:	e8 8f f9 ff ff              	(control)	call	400a80 <_gfortran_transfer_integer_write@plt>	; ⇄ _gfortran_transfer_integer_write
73:	
  4010f1:	ba 08 00 00 00              	(move)  	mov	$0x8,%edx
  4010f6:	be a8 11 61 00              	(move)  	mov	$0x6111a8,%esi
  4010fb:	48 8d 7c 24 10              	(arith) 	lea	0x10(%rsp),%rdi
  401100:	e8 6b f9 ff ff              	(control)	call	400a70 <_gfortran_transfer_real_write@plt>	; ⇄ _gfortran_transfer_real_write
75:	
  401105:	48 8d 7c 24 10              	(arith) 	lea	0x10(%rsp),%rdi
  40110a:	e8 d1 f8 ff ff              	(control)	call	4009e0 <_gfortran_st_write_done@plt>	; ⇄ _gfortran_st_write_done
76:	
/home/jcsalinas/Documents/pruebas/inst_estimation_module/BT/bt.f:108
  40110f:	48 c7 44 24 18 84 eb 40 00  	(move)  	movq	$0x40eb84,0x18(%rsp)
  401118:	c7 44 24 20 6c 00 00 00     	(move)  	movl	$0x6c,0x20(%rsp)
  401120:	c7 44 24 10 80 00 00 00     	(move)  	movl	$0x80,0x10(%rsp)
  401128:	c7 44 24 14 06 00 00 00     	(move)  	movl	$0x6,0x14(%rsp)
  401130:	48 8d 7c 24 10              	(arith) 	lea	0x10(%rsp),%rdi
  401135:	e8 56 f9 ff ff              	(control)	call	400a90 <_gfortran_st_write@plt>	; ⇄ _gfortran_st_write
77:	
  40113a:	48 8d 7c 24 10              	(arith) 	lea	0x10(%rsp),%rdi
  40113f:	e8 9c f8 ff ff              	(control)	call	4009e0 <_gfortran_st_write_done@plt>	; ⇄ _gfortran_st_write_done
78:	
/home/jcsalinas/Documents/pruebas/inst_estimation_module/BT/bt.f:116
  401144:	83 3d 9d 04 21 00 66        	(arith) 	cmpl	$0x66,0x21049d(%rip)
  40114b:	7f 16                       	(control)	jg	401163 <main__+0x57d>	; ↲ label 79
80:	
  40114d:	83 3d 98 04 21 00 66        	(arith) 	cmpl	$0x66,0x210498(%rip)
  401154:	7f 0d                       	(control)	jg	401163 <main__+0x57d>	; ↲ label 79
81:	
/home/jcsalinas/Documents/pruebas/inst_estimation_module/BT/bt.f:118
  401156:	83 3d 93 04 21 00 66        	(arith) 	cmpl	$0x66,0x210493(%rip)
  40115d:	0f 8e ca 00 00 00           	(control)	jle	40122d <main__+0x647>	; ↲ label 82
79:	
/home/jcsalinas/Documents/pruebas/inst_estimation_module/BT/bt.f:118
  401163:	48 c7 44 24 18 84 eb 40 00  	(move)  	movq	$0x40eb84,0x18(%rsp)
  40116c:	c7 44 24 20 76 00 00 00     	(move)  	movl	$0x76,0x20(%rsp)
  401174:	c7 44 24 10 80 00 00 00     	(move)  	movl	$0x80,0x10(%rsp)
  40117c:	c7 44 24 14 06 00 00 00     	(move)  	movl	$0x6,0x14(%rsp)
  401184:	48 8d 7c 24 10              	(arith) 	lea	0x10(%rsp),%rdi
  401189:	e8 02 f9 ff ff              	(control)	call	400a90 <_gfortran_st_write@plt>	; ⇄ _gfortran_st_write
83:	
  40118e:	c7 84 24 dc 02 00 00 01 00 00 00	(move)  	movl	$0x1,0x2dc(%rsp)
; ------- Loop 0 entry
84 (loop 0):	
  401199:	48 63 84 24 dc 02 00 00     	(move)  	movsxd	0x2dc(%rsp),%rax
  4011a1:	48 8d 34 85 e4 15 61 00     	(arith) 	lea	0x6115e4(,%rax,4),%rsi
  4011a9:	ba 04 00 00 00              	(move)  	mov	$0x4,%edx
  4011ae:	48 8d 7c 24 10              	(arith) 	lea	0x10(%rsp),%rdi
  4011b3:	e8 c8 f8 ff ff              	(control)	call	400a80 <_gfortran_transfer_integer_write@plt>	; ⇄ _gfortran_transfer_integer_write
85:	
  4011b8:	f6 44 24 10 01              	(arith) 	testb	$0x1,0x10(%rsp)
  4011bd:	75 16                       	(control)	jne	4011d5 <main__+0x5ef>	; ↲ label 86
87:	
/home/jcsalinas/Documents/pruebas/inst_estimation_module/BT/bt.f:118
  4011bf:	8b 84 24 dc 02 00 00        	(move)  	mov	0x2dc(%rsp),%eax
  4011c6:	8d 50 01                    	(arith) 	lea	0x1(%rax),%edx
  4011c9:	89 94 24 dc 02 00 00        	(move)  	mov	%edx,0x2dc(%rsp)
  4011d0:	83 f8 03                    	(arith) 	cmp	$0x3,%eax
  4011d3:	75 c4                       	(control)	jne	401199 <main__+0x5b3>	; ↰ label 84 (loop 0)
; ------- Loop 0 exit
86:	
/home/jcsalinas/Documents/pruebas/inst_estimation_module/BT/bt.f:119
  4011d5:	48 8d 7c 24 10              	(arith) 	lea	0x10(%rsp),%rdi
  4011da:	e8 01 f8 ff ff              	(control)	call	4009e0 <_gfortran_st_write_done@plt>	; ⇄ _gfortran_st_write_done
88:	
/home/jcsalinas/Documents/pruebas/inst_estimation_module/BT/bt.f:119
  4011df:	48 c7 44 24 18 84 eb 40 00  	(move)  	movq	$0x40eb84,0x18(%rsp)
  4011e8:	c7 44 24 20 77 00 00 00     	(move)  	movl	$0x77,0x20(%rsp)
  4011f0:	c7 44 24 10 80 00 00 00     	(move)  	movl	$0x80,0x10(%rsp)
  4011f8:	c7 44 24 14 06 00 00 00     	(move)  	movl	$0x6,0x14(%rsp)
  401200:	48 8d 7c 24 10              	(arith) 	lea	0x10(%rsp),%rdi
  401205:	e8 86 f8 ff ff              	(control)	call	400a90 <_gfortran_st_write@plt>	; ⇄ _gfortran_st_write
89:	
  40120a:	ba 2e 00 00 00              	(move)  	mov	$0x2e,%edx
  40120f:	be d0 ec 40 00              	(move)  	mov	$0x40ecd0,%esi
  401214:	48 8d 7c 24 10              	(arith) 	lea	0x10(%rsp),%rdi
  401219:	e8 a2 f7 ff ff              	(control)	call	4009c0 <_gfortran_transfer_character_write@plt>	; ⇄ _gfortran_transfer_character_write
91:	
  40121e:	48 8d 7c 24 10              	(arith) 	lea	0x10(%rsp),%rdi
  401223:	e8 b8 f7 ff ff              	(control)	call	4009e0 <_gfortran_st_write_done@plt>	; ⇄ _gfortran_st_write_done
92:	
/home/jcsalinas/Documents/pruebas/inst_estimation_module/BT/bt.f:120
  401228:	e9 25 08 00 00              	(control)	jmp	401a52 <main__+0xe6c>	; ↲ label 93
82:	
/home/jcsalinas/Documents/pruebas/inst_estimation_module/BT/bt.f:124
  40122d:	b8 00 00 00 00              	(move)  	mov	$0,%eax
  401232:	e8 ad 2f 00 00              	(control)	call	4041e4 <set_constants_>	; ⇄ set_constants
95:	
/home/jcsalinas/Documents/pruebas/inst_estimation_module/BT/bt.f:126
  401237:	c7 84 24 dc 02 00 00 01 00 00 00	(move)  	movl	$0x1,0x2dc(%rsp)
; ------- Loop 1 entry
96 (loop 1):	
/home/jcsalinas/Documents/pruebas/inst_estimation_module/BT/bt.f:127
  401242:	48 8d bc 24 dc 02 00 00     	(arith) 	lea	0x2dc(%rsp),%rdi
  40124a:	b8 00 00 00 00              	(move)  	mov	$0,%eax
  40124f:	e8 bf d7 00 00              	(control)	call	40ea13 <timer_clear_>	; ⇄ timer_clear
98:	
/home/jcsalinas/Documents/pruebas/inst_estimation_module/BT/bt.f:126
  401254:	8b 84 24 dc 02 00 00        	(move)  	mov	0x2dc(%rsp),%eax
  40125b:	8d 50 01                    	(arith) 	lea	0x1(%rax),%edx
  40125e:	89 94 24 dc 02 00 00        	(move)  	mov	%edx,0x2dc(%rsp)
  401265:	83 f8 0b                    	(arith) 	cmp	$0xb,%eax
  401268:	75 d8                       	(control)	jne	401242 <main__+0x65c>	; ↰ label 96 (loop 1)
; ------- Loop 1 exit
99:	
/home/jcsalinas/Documents/pruebas/inst_estimation_module/BT/bt.f:130
  40126a:	b8 00 00 00 00              	(move)  	mov	$0,%eax
  40126f:	e8 11 08 00 00              	(control)	call	401a85 <initialize_>	; ⇄ initialize
101:	
/home/jcsalinas/Documents/pruebas/inst_estimation_module/BT/bt.f:132
  401274:	b8 00 00 00 00              	(move)  	mov	$0,%eax
  401279:	e8 91 12 00 00              	(control)	call	40250f <exact_rhs_>	; ⇄ exact_rhs
103:	
/home/jcsalinas/Documents/pruebas/inst_estimation_module/BT/bt.f:137
  40127e:	b8 00 00 00 00              	(move)  	mov	$0,%eax
  401283:	e8 55 37 00 00              	(control)	call	4049dd <adi_>	; ⇄ adi
105:	
/home/jcsalinas/Documents/pruebas/inst_estimation_module/BT/bt.f:138
  401288:	b8 00 00 00 00              	(move)  	mov	$0,%eax
  40128d:	e8 f3 07 00 00              	(control)	call	401a85 <initialize_>	; ⇄ initialize
106:	
/home/jcsalinas/Documents/pruebas/inst_estimation_module/BT/bt.f:140
  401292:	c7 84 24 dc 02 00 00 01 00 00 00	(move)  	movl	$0x1,0x2dc(%rsp)
; ------- Loop 2 entry
107 (loop 2):	
/home/jcsalinas/Documents/pruebas/inst_estimation_module/BT/bt.f:141
  40129d:	48 8d bc 24 dc 02 00 00     	(arith) 	lea	0x2dc(%rsp),%rdi
  4012a5:	b8 00 00 00 00              	(move)  	mov	$0,%eax
  4012aa:	e8 64 d7 00 00              	(control)	call	40ea13 <timer_clear_>	; ⇄ timer_clear
108:	
/home/jcsalinas/Documents/pruebas/inst_estimation_module/BT/bt.f:140
  4012af:	8b 84 24 dc 02 00 00        	(move)  	mov	0x2dc(%rsp),%eax
  4012b6:	8d 50 01                    	(arith) 	lea	0x1(%rax),%edx
  4012b9:	89 94 24 dc 02 00 00        	(move)  	mov	%edx,0x2dc(%rsp)
  4012c0:	83 f8 0b                    	(arith) 	cmp	$0xb,%eax
  4012c3:	75 d8                       	(control)	jne	40129d <main__+0x6b7>	; ↰ label 107 (loop 2)
; ------- Loop 2 exit
109:	
/home/jcsalinas/Documents/pruebas/inst_estimation_module/BT/bt.f:143
  4012c5:	bf 00 ed 40 00              	(move)  	mov	$0x40ed00,%edi
  4012ca:	b8 00 00 00 00              	(move)  	mov	$0,%eax
  4012cf:	e8 4f d7 00 00              	(control)	call	40ea23 <timer_start_>	; ⇄ timer_start
111:	
/home/jcsalinas/Documents/pruebas/inst_estimation_module/BT/bt.f:145
  4012d4:	8b ac 24 cc 02 00 00        	(move)  	mov	0x2cc(%rsp),%ebp
  4012db:	c7 84 24 c8 02 00 00 01 00 00 00	(move)  	movl	$0x1,0x2c8(%rsp)
  4012e6:	85 ed                       	(arith) 	test	%ebp,%ebp
  4012e8:	0f 8e a4 00 00 00           	(control)	jle	401392 <main__+0x7ac>	; ↲ label 112
113:	
/home/jcsalinas/Documents/pruebas/inst_estimation_module/BT/bt.f:147
  4012ee:	41 bc 67 66 66 66           	(move)  	mov	$0x66666667,%r12d
; ------- Loop 5 entry
114 (loop 5):	
  4012f4:	8b 9c 24 c8 02 00 00        	(move)  	mov	0x2c8(%rsp),%ebx
  4012fb:	89 d8                       	(move)  	mov	%ebx,%eax
  4012fd:	41 f7 ec                    	(arith) 	imul	%r12d
  401300:	c1 fa 03                    	(logic) 	sar	$0x3,%edx
  401303:	89 d8                       	(move)  	mov	%ebx,%eax
  401305:	c1 f8 1f                    	(logic) 	sar	$0x1f,%eax
  401308:	29 c2                       	(arith) 	sub	%eax,%edx
  40130a:	8d 04 92                    	(arith) 	lea	(%rdx,%rdx,4),%eax
  40130d:	c1 e0 02                    	(logic) 	sal	$0x2,%eax
  401310:	39 c3                       	(arith) 	cmp	%eax,%ebx
  401312:	74 05                       	(control)	je	401319 <main__+0x733>	; ↲ label 115
116:	
  401314:	83 fb 01                    	(arith) 	cmp	$0x1,%ebx
  401317:	75 5d                       	(control)	jne	401376 <main__+0x790>	; ↲ label 117
115:	
/home/jcsalinas/Documents/pruebas/inst_estimation_module/BT/bt.f:149
  401319:	48 c7 44 24 18 84 eb 40 00  	(move)  	movq	$0x40eb84,0x18(%rsp)
  401322:	c7 44 24 20 95 00 00 00     	(move)  	movl	$0x95,0x20(%rsp)
  40132a:	48 c7 44 24 58 04 ed 40 00  	(move)  	movq	$0x40ed04,0x58(%rsp)
  401333:	c7 44 24 60 13 00 00 00     	(move)  	movl	$0x13,0x60(%rsp)
  40133b:	c7 44 24 10 00 10 00 00     	(move)  	movl	$0x1000,0x10(%rsp)
  401343:	c7 44 24 14 06 00 00 00     	(move)  	movl	$0x6,0x14(%rsp)
  40134b:	48 8d 7c 24 10              	(arith) 	lea	0x10(%rsp),%rdi
  401350:	e8 3b f7 ff ff              	(control)	call	400a90 <_gfortran_st_write@plt>	; ⇄ _gfortran_st_write
118:	
  401355:	ba 04 00 00 00              	(move)  	mov	$0x4,%edx
  40135a:	48 8d b4 24 c8 02 00 00     	(arith) 	lea	0x2c8(%rsp),%rsi
  401362:	48 8d 7c 24 10              	(arith) 	lea	0x10(%rsp),%rdi
  401367:	e8 14 f7 ff ff              	(control)	call	400a80 <_gfortran_transfer_integer_write@plt>	; ⇄ _gfortran_transfer_integer_write
119:	
  40136c:	48 8d 7c 24 10              	(arith) 	lea	0x10(%rsp),%rdi
  401371:	e8 6a f6 ff ff              	(control)	call	4009e0 <_gfortran_st_write_done@plt>	; ⇄ _gfortran_st_write_done
117:	
/home/jcsalinas/Documents/pruebas/inst_estimation_module/BT/bt.f:153
  401376:	b8 00 00 00 00              	(move)  	mov	$0,%eax
  40137b:	e8 5d 36 00 00              	(control)	call	4049dd <adi_>	; ⇄ adi
120:	
/home/jcsalinas/Documents/pruebas/inst_estimation_module/BT/bt.f:145
  401380:	8d 43 01                    	(arith) 	lea	0x1(%rbx),%eax
  401383:	89 84 24 c8 02 00 00        	(move)  	mov	%eax,0x2c8(%rsp)
  40138a:	39 dd                       	(arith) 	cmp	%ebx,%ebp
  40138c:	0f 85 62 ff ff ff           	(control)	jne	4012f4 <main__+0x70e>	; ↰ label 114 (loop 5)
; ------- Loop 5 exit
112:	
/home/jcsalinas/Documents/pruebas/inst_estimation_module/BT/bt.f:157
  401392:	bf 00 ed 40 00              	(move)  	mov	$0x40ed00,%edi
  401397:	b8 00 00 00 00              	(move)  	mov	$0,%eax
  40139c:	e8 9a d6 00 00              	(control)	call	40ea3b <timer_stop_>	; ⇄ timer_stop
122:	
/home/jcsalinas/Documents/pruebas/inst_estimation_module/BT/bt.f:158
  4013a1:	bf 00 ed 40 00              	(move)  	mov	$0x40ed00,%edi
  4013a6:	b8 00 00 00 00              	(move)  	mov	$0,%eax
  4013ab:	e8 b8 d6 00 00              	(control)	call	40ea68 <timer_read_>	; ⇄ timer_read
124:	
  4013b0:	f2 0f 11 84 24 58 02 00 00  	(move)  	movsd	%xmm0,0x258(%rsp)
/home/jcsalinas/Documents/pruebas/inst_estimation_module/BT/bt.f:160
  4013b9:	b9 01 00 00 00              	(move)  	mov	$0x1,%ecx
  4013be:	48 8d 94 24 fc 01 00 00     	(arith) 	lea	0x1fc(%rsp),%rdx
  4013c6:	48 8d b4 24 e7 02 00 00     	(arith) 	lea	0x2e7(%rsp),%rsi
  4013ce:	48 8d bc 24 cc 02 00 00     	(arith) 	lea	0x2cc(%rsp),%rdi
  4013d6:	b8 00 00 00 00              	(move)  	mov	$0,%eax
  4013db:	e8 ef bd 00 00              	(control)	call	40d1cf <verify_>	; ⇄ verify
126:	
/home/jcsalinas/Documents/pruebas/inst_estimation_module/BT/bt.f:164
  4013e0:	f2 0f 10 94 24 58 02 00 00  	(move)  	movsd	0x258(%rsp),%xmm2
  4013e9:	66 0f 2e 15 1f da 00 00     	(arith) 	ucomisd	0xda1f(%rip),%xmm2
  4013f1:	7a 06                       	(control)	jp	4013f9 <main__+0x813>	; ↲ label 127
128:	
  4013f3:	0f 84 9f 00 00 00           	(control)	je	401498 <main__+0x8b2>	; ↲ label 129
127:	
/home/jcsalinas/Documents/pruebas/inst_estimation_module/BT/bt.f:162
  4013f9:	8b 35 e9 01 21 00           	(move)  	mov	0x2101e9(%rip),%esi
  4013ff:	8b 0d e7 01 21 00           	(move)  	mov	0x2101e7(%rip),%ecx
  401405:	8b 15 e5 01 21 00           	(move)  	mov	0x2101e5(%rip),%edx
/home/jcsalinas/Documents/pruebas/inst_estimation_module/BT/bt.f:163
  40140b:	8d 04 0e                    	(arith) 	lea	(%rsi,%rcx,1),%eax
  40140e:	01 d0                       	(arith) 	add	%edx,%eax
  401410:	66 0f ef c0                 	(logic) 	pxor	%xmm0,%xmm0
  401414:	f3 0f 2a c0                 	(conv)  	cvtsi2ss	%eax,%xmm0
  401418:	f3 0f 5e 05 20 da 00 00     	(arith) 	divss	0xda20(%rip),%xmm0
  401420:	f3 0f 5a c0                 	(conv)  	cvtss2sd	%xmm0,%xmm0
/home/jcsalinas/Documents/pruebas/inst_estimation_module/BT/bt.f:167
  401424:	66 0f ef db                 	(logic) 	pxor	%xmm3,%xmm3
  401428:	f2 0f 2a de                 	(conv)  	cvtsi2sd	%esi,%xmm3
  40142c:	66 0f ef c9                 	(logic) 	pxor	%xmm1,%xmm1
  401430:	f2 0f 2a c9                 	(conv)  	cvtsi2sd	%ecx,%xmm1
  401434:	f2 0f 59 d9                 	(arith) 	mulsd	%xmm1,%xmm3
  401438:	66 0f ef c9                 	(logic) 	pxor	%xmm1,%xmm1
  40143c:	f2 0f 2a ca                 	(conv)  	cvtsi2sd	%edx,%xmm1
  401440:	f2 0f 59 cb                 	(arith) 	mulsd	%xmm3,%xmm1
  401444:	f2 0f 59 0d cc d9 00 00     	(arith) 	mulsd	0xd9cc(%rip),%xmm1
  40144c:	66 0f 28 d8                 	(move)  	movapd	%xmm0,%xmm3
  401450:	f2 0f 59 d8                 	(arith) 	mulsd	%xmm0,%xmm3
  401454:	f2 0f 59 1d c4 d9 00 00     	(arith) 	mulsd	0xd9c4(%rip),%xmm3
  40145c:	f2 0f 5c cb                 	(arith) 	subsd	%xmm3,%xmm1
  401460:	f2 0f 59 05 c0 d9 00 00     	(arith) 	mulsd	0xd9c0(%rip),%xmm0
  401468:	f2 0f 58 c1                 	(arith) 	addsd	%xmm1,%xmm0
  40146c:	66 0f ef c9                 	(logic) 	pxor	%xmm1,%xmm1
  401470:	f3 0f 2a 8c 24 cc 02 00 00  	(conv)  	cvtsi2ssl	0x2cc(%rsp),%xmm1
  401479:	f3 0f 59 0d c3 d9 00 00     	(arith) 	mulss	0xd9c3(%rip),%xmm1
  401481:	f3 0f 5a c9                 	(conv)  	cvtss2sd	%xmm1,%xmm1
  401485:	f2 0f 59 c1                 	(arith) 	mulsd	%xmm1,%xmm0
  401489:	f2 0f 5e c2                 	(arith) 	divsd	%xmm2,%xmm0
  40148d:	f2 0f 11 84 24 d0 02 00 00  	(move)  	movsd	%xmm0,0x2d0(%rsp)
  401496:	eb 0c                       	(control)	jmp	4014a4 <main__+0x8be>	; ↲ label 130
129:	
/home/jcsalinas/Documents/pruebas/inst_estimation_module/BT/bt.f:169
  401498:	48 c7 84 24 d0 02 00 00 00 00 00 00	(move)  	movq	$0,0x2d0(%rsp)
130:	
/home/jcsalinas/Documents/pruebas/inst_estimation_module/BT/bt.f:175
  4014a4:	48 83 ec 08                 	(arith) 	sub	$0x8,%rsp
  4014a8:	6a 06                       	(move)  	push	$0x6
  4014aa:	6a 06                       	(move)  	push	$0x6
  4014ac:	6a 06                       	(move)  	push	$0x6
  4014ae:	6a 06                       	(move)  	push	$0x6
  4014b0:	6a 06                       	(move)  	push	$0x6
  4014b2:	6a 06                       	(move)  	push	$0x6
  4014b4:	6a 08                       	(move)  	push	$0x8
  4014b6:	6a 0b                       	(move)  	push	$0xb
  4014b8:	6a 05                       	(move)  	push	$0x5
  4014ba:	6a 18                       	(move)  	push	$0x18
  4014bc:	6a 01                       	(move)  	push	$0x1
  4014be:	6a 02                       	(move)  	push	$0x2
  4014c0:	68 19 ed 40 00              	(move)  	push	$0x40ed19
  4014c5:	68 1f ed 40 00              	(move)  	push	$0x40ed1f
  4014ca:	68 1f ed 40 00              	(move)  	push	$0x40ed1f
  4014cf:	68 19 ed 40 00              	(move)  	push	$0x40ed19
  4014d4:	68 19 ed 40 00              	(move)  	push	$0x40ed19
  4014d9:	68 25 ed 40 00              	(move)  	push	$0x40ed25
  4014de:	68 2b ed 40 00              	(move)  	push	$0x40ed2b
  4014e3:	68 33 ed 40 00              	(move)  	push	$0x40ed33
  4014e8:	68 3e ed 40 00              	(move)  	push	$0x40ed3e
  4014ed:	48 8d 84 24 ac 02 00 00     	(arith) 	lea	0x2ac(%rsp),%rax
  4014f5:	50                          	(move)  	push	%rax
  4014f6:	68 43 ed 40 00              	(move)  	push	$0x40ed43
  4014fb:	48 8d 84 24 90 03 00 00     	(arith) 	lea	0x390(%rsp),%rax
  401503:	50                          	(move)  	push	%rax
  401504:	48 8d 84 24 20 03 00 00     	(arith) 	lea	0x320(%rsp),%rax
  40150c:	50                          	(move)  	push	%rax
  40150d:	4c 8d 8c 24 9c 03 00 00     	(arith) 	lea	0x39c(%rsp),%r9
  401515:	41 b8 f0 15 61 00           	(move)  	mov	$0x6115f0,%r8d
  40151b:	b9 ec 15 61 00              	(move)  	mov	$0x6115ec,%ecx
  401520:	ba e8 15 61 00              	(move)  	mov	$0x6115e8,%edx
  401525:	48 8d b4 24 b7 03 00 00     	(arith) 	lea	0x3b7(%rsp),%rsi
  40152d:	bf 17 ed 40 00              	(move)  	mov	$0x40ed17,%edi
  401532:	b8 00 00 00 00              	(move)  	mov	$0,%eax
  401537:	e8 8d cc 00 00              	(control)	call	40e1c9 <print_results_>	; ⇄ print_results
132:	
/home/jcsalinas/Documents/pruebas/inst_estimation_module/BT/bt.f:180
  40153c:	48 81 c4 d0 00 00 00        	(arith) 	add	$0xd0,%rsp
  401543:	83 3d aa 00 21 00 00        	(arith) 	cmpl	$0,0x2100aa(%rip)
  40154a:	0f 84 02 05 00 00           	(control)	je	401a52 <main__+0xe6c>	; ↲ label 93
133:	
/home/jcsalinas/Documents/pruebas/inst_estimation_module/BT/bt.f:182
  401550:	c7 84 24 dc 02 00 00 01 00 00 00	(move)  	movl	$0x1,0x2dc(%rsp)
; ------- Loop 3 entry
134 (loop 3):	
/home/jcsalinas/Documents/pruebas/inst_estimation_module/BT/bt.f:183
  40155b:	48 63 9c 24 dc 02 00 00     	(move)  	movsxd	0x2dc(%rsp),%rbx
  401563:	48 83 eb 01                 	(arith) 	sub	$0x1,%rbx
  401567:	48 8d bc 24 dc 02 00 00     	(arith) 	lea	0x2dc(%rsp),%rdi
  40156f:	b8 00 00 00 00              	(move)  	mov	$0,%eax
  401574:	e8 ef d4 00 00              	(control)	call	40ea68 <timer_read_>	; ⇄ timer_read
135:	
  401579:	f2 0f 11 84 dc 00 02 00 00  	(move)  	movsd	%xmm0,0x200(%rsp,%rbx,8)
/home/jcsalinas/Documents/pruebas/inst_estimation_module/BT/bt.f:182
  401582:	8b 84 24 dc 02 00 00        	(move)  	mov	0x2dc(%rsp),%eax
  401589:	8d 50 01                    	(arith) 	lea	0x1(%rax),%edx
  40158c:	89 94 24 dc 02 00 00        	(move)  	mov	%edx,0x2dc(%rsp)
  401593:	83 f8 0b                    	(arith) 	cmp	$0xb,%eax
  401596:	75 c3                       	(control)	jne	40155b <main__+0x975>	; ↰ label 134 (loop 3)
; ------- Loop 3 exit
136:	
/home/jcsalinas/Documents/pruebas/inst_estimation_module/BT/bt.f:186
  401598:	66 0f ef c0                 	(logic) 	pxor	%xmm0,%xmm0
  40159c:	66 0f 2e 84 24 58 02 00 00  	(arith) 	ucomisd	0x258(%rsp),%xmm0
  4015a5:	7a 13                       	(control)	jp	4015ba <main__+0x9d4>	; ↲ label 137
138:	
  4015a7:	75 11                       	(control)	jne	4015ba <main__+0x9d4>	; ↲ label 137
139:	
/home/jcsalinas/Documents/pruebas/inst_estimation_module/BT/bt.f:187
  4015a9:	f2 0f 10 3d 7f d8 00 00     	(move)  	movsd	0xd87f(%rip),%xmm7
  4015b1:	f2 0f 11 bc 24 58 02 00 00  	(move)  	movsd	%xmm7,0x258(%rsp)
137:	
/home/jcsalinas/Documents/pruebas/inst_estimation_module/BT/bt.f:187
  4015ba:	48 c7 44 24 18 84 eb 40 00  	(move)  	movq	$0x40eb84,0x18(%rsp)
  4015c3:	c7 44 24 20 bb 00 00 00     	(move)  	movl	$0xbb,0x20(%rsp)
  4015cb:	48 c7 44 24 58 5b ed 40 00  	(move)  	movq	$0x40ed5b,0x58(%rsp)
  4015d4:	c7 44 24 60 1b 00 00 00     	(move)  	movl	$0x1b,0x60(%rsp)
  4015dc:	c7 44 24 10 00 10 00 00     	(move)  	movl	$0x1000,0x10(%rsp)
  4015e4:	c7 44 24 14 06 00 00 00     	(move)  	movl	$0x6,0x14(%rsp)
  4015ec:	48 8d 7c 24 10              	(arith) 	lea	0x10(%rsp),%rdi
  4015f1:	e8 9a f4 ff ff              	(control)	call	400a90 <_gfortran_st_write@plt>	; ⇄ _gfortran_st_write
140:	
  4015f6:	48 8d 7c 24 10              	(arith) 	lea	0x10(%rsp),%rdi
  4015fb:	e8 e0 f3 ff ff              	(control)	call	4009e0 <_gfortran_st_write_done@plt>	; ⇄ _gfortran_st_write_done
141:	
/home/jcsalinas/Documents/pruebas/inst_estimation_module/BT/bt.f:189
  401600:	c7 84 24 dc 02 00 00 01 00 00 00	(move)  	movl	$0x1,0x2dc(%rsp)
; ------- Loop 4 entry
142 (loop 4):	
/home/jcsalinas/Documents/pruebas/inst_estimation_module/BT/bt.f:190
  40160b:	48 c7 44 24 18 84 eb 40 00  	(move)  	movq	$0x40eb84,0x18(%rsp)
  401614:	c7 44 24 20 be 00 00 00     	(move)  	movl	$0xbe,0x20(%rsp)
  40161c:	48 c7 44 24 58 78 ed 40 00  	(move)  	movq	$0x40ed78,0x58(%rsp)
  401625:	c7 44 24 60 20 00 00 00     	(move)  	movl	$0x20,0x60(%rsp)
  40162d:	c7 44 24 10 00 10 00 00     	(move)  	movl	$0x1000,0x10(%rsp)
  401635:	c7 44 24 14 06 00 00 00     	(move)  	movl	$0x6,0x14(%rsp)
  40163d:	48 8d 7c 24 10              	(arith) 	lea	0x10(%rsp),%rdi
  401642:	e8 49 f4 ff ff              	(control)	call	400a90 <_gfortran_st_write@plt>	; ⇄ _gfortran_st_write
143:	
  401647:	48 63 84 24 dc 02 00 00     	(move)  	movsxd	0x2dc(%rsp),%rax
  40164f:	48 8d b4 c4 58 02 00 00     	(arith) 	lea	0x258(%rsp,%rax,8),%rsi
  401657:	ba 08 00 00 00              	(move)  	mov	$0x8,%edx
  40165c:	48 8d 7c 24 10              	(arith) 	lea	0x10(%rsp),%rdi
  401661:	e8 5a f3 ff ff              	(control)	call	4009c0 <_gfortran_transfer_character_write@plt>	; ⇄ _gfortran_transfer_character_write
144:	
  401666:	48 63 84 24 dc 02 00 00     	(move)  	movsxd	0x2dc(%rsp),%rax
  40166e:	48 8d b4 c4 f8 01 00 00     	(arith) 	lea	0x1f8(%rsp,%rax,8),%rsi
  401676:	ba 08 00 00 00              	(move)  	mov	$0x8,%edx
  40167b:	48 8d 7c 24 10              	(arith) 	lea	0x10(%rsp),%rdi
  401680:	e8 eb f3 ff ff              	(control)	call	400a70 <_gfortran_transfer_real_write@plt>	; ⇄ _gfortran_transfer_real_write
145:	
  401685:	48 63 84 24 dc 02 00 00     	(move)  	movsxd	0x2dc(%rsp),%rax
  40168d:	f2 0f 10 05 a3 d7 00 00     	(move)  	movsd	0xd7a3(%rip),%xmm0
  401695:	f2 0f 59 84 c4 f8 01 00 00  	(arith) 	mulsd	0x1f8(%rsp,%rax,8),%xmm0
  40169e:	f2 0f 5e 84 24 58 02 00 00  	(arith) 	divsd	0x258(%rsp),%xmm0
  4016a7:	f2 0f 11 84 24 e8 02 00 00  	(move)  	movsd	%xmm0,0x2e8(%rsp)
  4016b0:	ba 08 00 00 00              	(move)  	mov	$0x8,%edx
  4016b5:	48 8d b4 24 e8 02 00 00     	(arith) 	lea	0x2e8(%rsp),%rsi
  4016bd:	48 8d 7c 24 10              	(arith) 	lea	0x10(%rsp),%rdi
  4016c2:	e8 a9 f3 ff ff              	(control)	call	400a70 <_gfortran_transfer_real_write@plt>	; ⇄ _gfortran_transfer_real_write
146:	
  4016c7:	48 8d 7c 24 10              	(arith) 	lea	0x10(%rsp),%rdi
  4016cc:	e8 0f f3 ff ff              	(control)	call	4009e0 <_gfortran_st_write_done@plt>	; ⇄ _gfortran_st_write_done
147:	
/home/jcsalinas/Documents/pruebas/inst_estimation_module/BT/bt.f:191
  4016d1:	8b 84 24 dc 02 00 00        	(move)  	mov	0x2dc(%rsp),%eax
  4016d8:	83 f8 05                    	(arith) 	cmp	$0x5,%eax
  4016db:	0f 85 a5 01 00 00           	(control)	jne	401886 <main__+0xca0>	; ↲ label 148
149:	
/home/jcsalinas/Documents/pruebas/inst_estimation_module/BT/bt.f:192
  4016e1:	f2 0f 10 84 24 08 02 00 00  	(move)  	movsd	0x208(%rsp),%xmm0
  4016ea:	f2 0f 58 84 24 10 02 00 00  	(arith) 	addsd	0x210(%rsp),%xmm0
  4016f3:	f2 0f 58 84 24 18 02 00 00  	(arith) 	addsd	0x218(%rsp),%xmm0
  4016fc:	f2 0f 11 44 24 08           	(move)  	movsd	%xmm0,0x8(%rsp)
  401702:	f2 0f 11 84 24 c0 02 00 00  	(move)  	movsd	%xmm0,0x2c0(%rsp)
/home/jcsalinas/Documents/pruebas/inst_estimation_module/BT/bt.f:193
  40170b:	48 c7 44 24 18 84 eb 40 00  	(move)  	movq	$0x40eb84,0x18(%rsp)
  401714:	c7 44 24 20 c1 00 00 00     	(move)  	movl	$0xc1,0x20(%rsp)
  40171c:	48 c7 44 24 58 98 ed 40 00  	(move)  	movq	$0x40ed98,0x58(%rsp)
  401725:	c7 44 24 60 28 00 00 00     	(move)  	movl	$0x28,0x60(%rsp)
  40172d:	c7 44 24 10 00 10 00 00     	(move)  	movl	$0x1000,0x10(%rsp)
  401735:	c7 44 24 14 06 00 00 00     	(move)  	movl	$0x6,0x14(%rsp)
  40173d:	48 8d 7c 24 10              	(arith) 	lea	0x10(%rsp),%rdi
  401742:	e8 49 f3 ff ff              	(control)	call	400a90 <_gfortran_st_write@plt>	; ⇄ _gfortran_st_write
150:	
  401747:	ba 07 00 00 00              	(move)  	mov	$0x7,%edx
  40174c:	be c0 ed 40 00              	(move)  	mov	$0x40edc0,%esi
  401751:	48 8d 7c 24 10              	(arith) 	lea	0x10(%rsp),%rdi
  401756:	e8 65 f2 ff ff              	(control)	call	4009c0 <_gfortran_transfer_character_write@plt>	; ⇄ _gfortran_transfer_character_write
151:	
  40175b:	ba 08 00 00 00              	(move)  	mov	$0x8,%edx
  401760:	48 8d b4 24 c0 02 00 00     	(arith) 	lea	0x2c0(%rsp),%rsi
  401768:	48 8d 7c 24 10              	(arith) 	lea	0x10(%rsp),%rdi
  40176d:	e8 fe f2 ff ff              	(control)	call	400a70 <_gfortran_transfer_real_write@plt>	; ⇄ _gfortran_transfer_real_write
152:	
  401772:	f2 0f 10 3d be d6 00 00     	(move)  	movsd	0xd6be(%rip),%xmm7
  40177a:	f2 0f 59 7c 24 08           	(arith) 	mulsd	0x8(%rsp),%xmm7
  401780:	66 0f 28 c7                 	(move)  	movapd	%xmm7,%xmm0
  401784:	f2 0f 5e 84 24 58 02 00 00  	(arith) 	divsd	0x258(%rsp),%xmm0
  40178d:	f2 0f 11 84 24 f0 02 00 00  	(move)  	movsd	%xmm0,0x2f0(%rsp)
  401796:	ba 08 00 00 00              	(move)  	mov	$0x8,%edx
  40179b:	48 8d b4 24 f0 02 00 00     	(arith) 	lea	0x2f0(%rsp),%rsi
  4017a3:	48 8d 7c 24 10              	(arith) 	lea	0x10(%rsp),%rdi
  4017a8:	e8 c3 f2 ff ff              	(control)	call	400a70 <_gfortran_transfer_real_write@plt>	; ⇄ _gfortran_transfer_real_write
153:	
  4017ad:	48 8d 7c 24 10              	(arith) 	lea	0x10(%rsp),%rdi
  4017b2:	e8 29 f2 ff ff              	(control)	call	4009e0 <_gfortran_st_write_done@plt>	; ⇄ _gfortran_st_write_done
154:	
/home/jcsalinas/Documents/pruebas/inst_estimation_module/BT/bt.f:194
  4017b7:	f2 0f 10 84 24 20 02 00 00  	(move)  	movsd	0x220(%rsp),%xmm0
  4017c0:	66 0f 28 f0                 	(move)  	movapd	%xmm0,%xmm6
  4017c4:	f2 0f 5c 74 24 08           	(arith) 	subsd	0x8(%rsp),%xmm6
  4017ca:	f2 0f 11 74 24 08           	(move)  	movsd	%xmm6,0x8(%rsp)
  4017d0:	f2 0f 11 b4 24 c0 02 00 00  	(move)  	movsd	%xmm6,0x2c0(%rsp)
/home/jcsalinas/Documents/pruebas/inst_estimation_module/BT/bt.f:195
  4017d9:	48 c7 44 24 18 84 eb 40 00  	(move)  	movq	$0x40eb84,0x18(%rsp)
  4017e2:	c7 44 24 20 c3 00 00 00     	(move)  	movl	$0xc3,0x20(%rsp)
  4017ea:	48 c7 44 24 58 98 ed 40 00  	(move)  	movq	$0x40ed98,0x58(%rsp)
  4017f3:	c7 44 24 60 28 00 00 00     	(move)  	movl	$0x28,0x60(%rsp)
  4017fb:	c7 44 24 10 00 10 00 00     	(move)  	movl	$0x1000,0x10(%rsp)
  401803:	c7 44 24 14 06 00 00 00     	(move)  	movl	$0x6,0x14(%rsp)
  40180b:	48 8d 7c 24 10              	(arith) 	lea	0x10(%rsp),%rdi
  401810:	e8 7b f2 ff ff              	(control)	call	400a90 <_gfortran_st_write@plt>	; ⇄ _gfortran_st_write
155:	
  401815:	ba 08 00 00 00              	(move)  	mov	$0x8,%edx
  40181a:	be c7 ed 40 00              	(move)  	mov	$0x40edc7,%esi
  40181f:	48 8d 7c 24 10              	(arith) 	lea	0x10(%rsp),%rdi
  401824:	e8 97 f1 ff ff              	(control)	call	4009c0 <_gfortran_transfer_character_write@plt>	; ⇄ _gfortran_transfer_character_write
156:	
  401829:	ba 08 00 00 00              	(move)  	mov	$0x8,%edx
  40182e:	48 8d b4 24 c0 02 00 00     	(arith) 	lea	0x2c0(%rsp),%rsi
  401836:	48 8d 7c 24 10              	(arith) 	lea	0x10(%rsp),%rdi
  40183b:	e8 30 f2 ff ff              	(control)	call	400a70 <_gfortran_transfer_real_write@plt>	; ⇄ _gfortran_transfer_real_write
157:	
  401840:	f2 0f 10 05 f0 d5 00 00     	(move)  	movsd	0xd5f0(%rip),%xmm0
  401848:	f2 0f 59 44 24 08           	(arith) 	mulsd	0x8(%rsp),%xmm0
  40184e:	f2 0f 5e 84 24 58 02 00 00  	(arith) 	divsd	0x258(%rsp),%xmm0
  401857:	f2 0f 11 84 24 f8 02 00 00  	(move)  	movsd	%xmm0,0x2f8(%rsp)
  401860:	ba 08 00 00 00              	(move)  	mov	$0x8,%edx
  401865:	48 8d b4 24 f8 02 00 00     	(arith) 	lea	0x2f8(%rsp),%rsi
  40186d:	48 8d 7c 24 10              	(arith) 	lea	0x10(%rsp),%rdi
  401872:	e8 f9 f1 ff ff              	(control)	call	400a70 <_gfortran_transfer_real_write@plt>	; ⇄ _gfortran_transfer_real_write
158:	
  401877:	48 8d 7c 24 10              	(arith) 	lea	0x10(%rsp),%rdi
  40187c:	e8 5f f1 ff ff              	(control)	call	4009e0 <_gfortran_st_write_done@plt>	; ⇄ _gfortran_st_write_done
159:	
  401881:	e9 b2 01 00 00              	(control)	jmp	401a38 <main__+0xe52>	; ↲ label 160
148:	
/home/jcsalinas/Documents/pruebas/inst_estimation_module/BT/bt.f:196
  401886:	83 f8 08                    	(arith) 	cmp	$0x8,%eax
  401889:	0f 85 d7 00 00 00           	(control)	jne	401966 <main__+0xd80>	; ↲ label 161
162:	
/home/jcsalinas/Documents/pruebas/inst_estimation_module/BT/bt.f:197
  40188f:	f2 0f 10 84 24 38 02 00 00  	(move)  	movsd	0x238(%rsp),%xmm0
  401898:	f2 0f 5c 84 24 40 02 00 00  	(arith) 	subsd	0x240(%rsp),%xmm0
  4018a1:	f2 0f 5c 84 24 48 02 00 00  	(arith) 	subsd	0x248(%rsp),%xmm0
  4018aa:	f2 0f 11 44 24 08           	(move)  	movsd	%xmm0,0x8(%rsp)
  4018b0:	f2 0f 11 84 24 c0 02 00 00  	(move)  	movsd	%xmm0,0x2c0(%rsp)
/home/jcsalinas/Documents/pruebas/inst_estimation_module/BT/bt.f:198
  4018b9:	48 c7 44 24 18 84 eb 40 00  	(move)  	movq	$0x40eb84,0x18(%rsp)
  4018c2:	c7 44 24 20 c6 00 00 00     	(move)  	movl	$0xc6,0x20(%rsp)
  4018ca:	48 c7 44 24 58 98 ed 40 00  	(move)  	movq	$0x40ed98,0x58(%rsp)
  4018d3:	c7 44 24 60 28 00 00 00     	(move)  	movl	$0x28,0x60(%rsp)
  4018db:	c7 44 24 10 00 10 00 00     	(move)  	movl	$0x1000,0x10(%rsp)
  4018e3:	c7 44 24 14 06 00 00 00     	(move)  	movl	$0x6,0x14(%rsp)
  4018eb:	48 8d 7c 24 10              	(arith) 	lea	0x10(%rsp),%rdi
  4018f0:	e8 9b f1 ff ff              	(control)	call	400a90 <_gfortran_st_write@plt>	; ⇄ _gfortran_st_write
163:	
  4018f5:	ba 08 00 00 00              	(move)  	mov	$0x8,%edx
  4018fa:	be cf ed 40 00              	(move)  	mov	$0x40edcf,%esi
  4018ff:	48 8d 7c 24 10              	(arith) 	lea	0x10(%rsp),%rdi
  401904:	e8 b7 f0 ff ff              	(control)	call	4009c0 <_gfortran_transfer_character_write@plt>	; ⇄ _gfortran_transfer_character_write
164:	
  401909:	ba 08 00 00 00              	(move)  	mov	$0x8,%edx
  40190e:	48 8d b4 24 c0 02 00 00     	(arith) 	lea	0x2c0(%rsp),%rsi
  401916:	48 8d 7c 24 10              	(arith) 	lea	0x10(%rsp),%rdi
  40191b:	e8 50 f1 ff ff              	(control)	call	400a70 <_gfortran_transfer_real_write@plt>	; ⇄ _gfortran_transfer_real_write
165:	
  401920:	f2 0f 10 44 24 08           	(move)  	movsd	0x8(%rsp),%xmm0
  401926:	f2 0f 59 05 0a d5 00 00     	(arith) 	mulsd	0xd50a(%rip),%xmm0
  40192e:	f2 0f 5e 84 24 58 02 00 00  	(arith) 	divsd	0x258(%rsp),%xmm0
  401937:	f2 0f 11 84 24 00 03 00 00  	(move)  	movsd	%xmm0,0x300(%rsp)
  401940:	ba 08 00 00 00              	(move)  	mov	$0x8,%edx
  401945:	48 8d b4 24 00 03 00 00     	(arith) 	lea	0x300(%rsp),%rsi
  40194d:	48 8d 7c 24 10              	(arith) 	lea	0x10(%rsp),%rdi
  401952:	e8 19 f1 ff ff              	(control)	call	400a70 <_gfortran_transfer_real_write@plt>	; ⇄ _gfortran_transfer_real_write
166:	
  401957:	48 8d 7c 24 10              	(arith) 	lea	0x10(%rsp),%rdi
  40195c:	e8 7f f0 ff ff              	(control)	call	4009e0 <_gfortran_st_write_done@plt>	; ⇄ _gfortran_st_write_done
167:	
  401961:	e9 d2 00 00 00              	(control)	jmp	401a38 <main__+0xe52>	; ↲ label 160
161:	
/home/jcsalinas/Documents/pruebas/inst_estimation_module/BT/bt.f:199
  401966:	83 f8 0a                    	(arith) 	cmp	$0xa,%eax
  401969:	0f 85 c9 00 00 00           	(control)	jne	401a38 <main__+0xe52>	; ↲ label 160
168:	
/home/jcsalinas/Documents/pruebas/inst_estimation_module/BT/bt.f:200
  40196f:	f2 0f 10 84 24 40 02 00 00  	(move)  	movsd	0x240(%rsp),%xmm0
  401978:	f2 0f 58 84 24 48 02 00 00  	(arith) 	addsd	0x248(%rsp),%xmm0
  401981:	f2 0f 11 44 24 08           	(move)  	movsd	%xmm0,0x8(%rsp)
  401987:	f2 0f 11 84 24 c0 02 00 00  	(move)  	movsd	%xmm0,0x2c0(%rsp)
/home/jcsalinas/Documents/pruebas/inst_estimation_module/BT/bt.f:201
  401990:	48 c7 44 24 18 84 eb 40 00  	(move)  	movq	$0x40eb84,0x18(%rsp)
  401999:	c7 44 24 20 c9 00 00 00     	(move)  	movl	$0xc9,0x20(%rsp)
  4019a1:	48 c7 44 24 58 98 ed 40 00  	(move)  	movq	$0x40ed98,0x58(%rsp)
  4019aa:	c7 44 24 60 28 00 00 00     	(move)  	movl	$0x28,0x60(%rsp)
  4019b2:	c7 44 24 10 00 10 00 00     	(move)  	movl	$0x1000,0x10(%rsp)
  4019ba:	c7 44 24 14 06 00 00 00     	(move)  	movl	$0x6,0x14(%rsp)
  4019c2:	48 8d 7c 24 10              	(arith) 	lea	0x10(%rsp),%rdi
  4019c7:	e8 c4 f0 ff ff              	(control)	call	400a90 <_gfortran_st_write@plt>	; ⇄ _gfortran_st_write
169:	
  4019cc:	ba 06 00 00 00              	(move)  	mov	$0x6,%edx
  4019d1:	be d7 ed 40 00              	(move)  	mov	$0x40edd7,%esi
  4019d6:	48 8d 7c 24 10              	(arith) 	lea	0x10(%rsp),%rdi
  4019db:	e8 e0 ef ff ff              	(control)	call	4009c0 <_gfortran_transfer_character_write@plt>	; ⇄ _gfortran_transfer_character_write
170:	
  4019e0:	ba 08 00 00 00              	(move)  	mov	$0x8,%edx
  4019e5:	48 8d b4 24 c0 02 00 00     	(arith) 	lea	0x2c0(%rsp),%rsi
  4019ed:	48 8d 7c 24 10              	(arith) 	lea	0x10(%rsp),%rdi
  4019f2:	e8 79 f0 ff ff              	(control)	call	400a70 <_gfortran_transfer_real_write@plt>	; ⇄ _gfortran_transfer_real_write
171:	
  4019f7:	f2 0f 10 44 24 08           	(move)  	movsd	0x8(%rsp),%xmm0
  4019fd:	f2 0f 59 05 33 d4 00 00     	(arith) 	mulsd	0xd433(%rip),%xmm0
  401a05:	f2 0f 5e 84 24 58 02 00 00  	(arith) 	divsd	0x258(%rsp),%xmm0
  401a0e:	f2 0f 11 84 24 08 03 00 00  	(move)  	movsd	%xmm0,0x308(%rsp)
  401a17:	ba 08 00 00 00              	(move)  	mov	$0x8,%edx
  401a1c:	48 8d b4 24 08 03 00 00     	(arith) 	lea	0x308(%rsp),%rsi
  401a24:	48 8d 7c 24 10              	(arith) 	lea	0x10(%rsp),%rdi
  401a29:	e8 42 f0 ff ff              	(control)	call	400a70 <_gfortran_transfer_real_write@plt>	; ⇄ _gfortran_transfer_real_write
172:	
  401a2e:	48 8d 7c 24 10              	(arith) 	lea	0x10(%rsp),%rdi
  401a33:	e8 a8 ef ff ff              	(control)	call	4009e0 <_gfortran_st_write_done@plt>	; ⇄ _gfortran_st_write_done
160:	
/home/jcsalinas/Documents/pruebas/inst_estimation_module/BT/bt.f:189
  401a38:	8b 84 24 dc 02 00 00        	(move)  	mov	0x2dc(%rsp),%eax
  401a3f:	8d 50 01                    	(arith) 	lea	0x1(%rax),%edx
  401a42:	89 94 24 dc 02 00 00        	(move)  	mov	%edx,0x2dc(%rsp)
  401a49:	83 f8 0b                    	(arith) 	cmp	$0xb,%eax
  401a4c:	0f 85 b9 fb ff ff           	(control)	jne	40160b <main__+0xa25>	; ↰ label 142 (loop 4)
; ------- Loop 4 exit
93:	
/home/jcsalinas/Documents/pruebas/inst_estimation_module/BT/bt.f:209
  401a52:	48 81 c4 10 03 00 00        	(arith) 	add	$0x310,%rsp
  401a59:	5b                          	(move)  	pop	%rbx
  401a5a:	5d                          	(move)  	pop	%rbp
  401a5b:	41 5c                       	(move)  	pop	%r12
  401a5d:	c3                          	(control)	ret


0000000000401a5e <main>:
173 (function main):	
/home/jcsalinas/Documents/pruebas/inst_estimation_module/BT/bt.f:209
  401a5e:	48 83 ec 08                 	(arith) 	sub	$0x8,%rsp
  401a62:	e8 c9 ef ff ff              	(control)	call	400a30 <_gfortran_set_args@plt>	; ⇄ _gfortran_set_args
175:	
  401a67:	be e0 ed 40 00              	(move)  	mov	$0x40ede0,%esi
  401a6c:	bf 09 00 00 00              	(move)  	mov	$0x9,%edi
  401a71:	e8 aa ef ff ff              	(control)	call	400a20 <_gfortran_set_options@plt>	; ⇄ _gfortran_set_options
177:	
  401a76:	e8 6b f1 ff ff              	(control)	call	400be6 <main__>	; ⇄ bt
178:	
  401a7b:	b8 00 00 00 00              	(move)  	mov	$0,%eax
  401a80:	48 83 c4 08                 	(arith) 	add	$0x8,%rsp
  401a84:	c3                          	(control)	ret


0000000000401a85 <initialize>:
100 (function initialize_):	
/home/jcsalinas/Documents/pruebas/inst_estimation_module/BT/initialize.f:4
  401a85:	41 57                       	(move)  	push	%r15
  401a87:	41 56                       	(move)  	push	%r14
  401a89:	41 55                       	(move)  	push	%r13
  401a8b:	41 54                       	(move)  	push	%r12
  401a8d:	55                          	(move)  	push	%rbp
  401a8e:	53                          	(move)  	push	%rbx
  401a8f:	48 81 ec 78 01 00 00        	(arith) 	sub	$0x178,%rsp
/home/jcsalinas/Documents/pruebas/inst_estimation_module/BT/initialize.f:26
  401a96:	8b 05 54 fb 20 00           	(move)  	mov	0x20fb54(%rip),%eax
  401a9c:	41 89 c4                    	(move)  	mov	%eax,%r12d
  401a9f:	89 44 24 1c                 	(move)  	mov	%eax,0x1c(%rsp)
  401aa3:	83 e8 01                    	(arith) 	sub	$0x1,%eax
  401aa6:	0f 88 8e 03 00 00           	(control)	js	401e3a <initialize_+0x3b5>	; ↲ label 179
180:	
/home/jcsalinas/Documents/pruebas/inst_estimation_module/BT/initialize.f:27
  401aac:	44 8b 0d 39 fb 20 00        	(move)  	mov	0x20fb39(%rip),%r9d
  401ab3:	41 8d 69 ff                 	(arith) 	lea	-0x1(%r9),%ebp
/home/jcsalinas/Documents/pruebas/inst_estimation_module/BT/initialize.f:28
  401ab7:	8b 3d 2b fb 20 00           	(move)  	mov	0x20fb2b(%rip),%edi
  401abd:	44 8d 57 ff                 	(arith) 	lea	-0x1(%rdi),%r10d
  401ac1:	bb 00 00 00 00              	(move)  	mov	$0,%ebx
/home/jcsalinas/Documents/pruebas/inst_estimation_module/BT/initialize.f:30
  401ac6:	f2 0f 10 05 62 d3 00 00     	(move)  	movsd	0xd362(%rip),%xmm0
; ------- Loop 24 entry
181 (loop 24):	
/home/jcsalinas/Documents/pruebas/inst_estimation_module/BT/initialize.f:27
  401ace:	85 ed                       	(arith) 	test	%ebp,%ebp
  401ad0:	78 60                       	(control)	js	401b32 <initialize_+0xad>	; ↲ label 182
183:	
/home/jcsalinas/Documents/pruebas/inst_estimation_module/BT/initialize.f:30
  401ad2:	4c 63 db                    	(move)  	movsxd	%ebx,%r11
  401ad5:	4d 69 db 35 cf 00 00        	(arith) 	imul	$0xcf35,%r11,%r11
  401adc:	41 b8 00 00 00 00           	(move)  	mov	$0,%r8d
; ------- Loop 29 entry
184 (loop 29):	
/home/jcsalinas/Documents/pruebas/inst_estimation_module/BT/initialize.f:28
  401ae2:	45 85 d2                    	(arith) 	test	%r10d,%r10d
  401ae5:	78 42                       	(control)	js	401b29 <initialize_+0xa4>	; ↲ label 185
186:	
/home/jcsalinas/Documents/pruebas/inst_estimation_module/BT/initialize.f:30
  401ae7:	49 63 c0                    	(move)  	movsxd	%r8d,%rax
  401aea:	48 89 c2                    	(move)  	mov	%rax,%rdx
  401aed:	48 c1 e2 08                 	(logic) 	sal	$0x8,%rdx
  401af1:	48 01 c2                    	(arith) 	add	%rax,%rdx
  401af4:	48 8d 34 50                 	(arith) 	lea	(%rax,%rdx,2),%rsi
  401af8:	4c 01 de                    	(arith) 	add	%r11,%rsi
  401afb:	b9 00 00 00 00              	(move)  	mov	$0,%ecx
; ------- Loop 31 entry
187 (loop 31):	
  401b00:	48 63 c1                    	(move)  	movsxd	%ecx,%rax
  401b03:	48 8d 14 80                 	(arith) 	lea	(%rax,%rax,4),%rdx
  401b07:	48 01 f2                    	(arith) 	add	%rsi,%rdx
  401b0a:	b8 00 00 00 00              	(move)  	mov	$0,%eax
; ------- Loop 30 entry
188 (loop 30):	
  401b0f:	f2 0f 11 84 d0 00 16 61 00  	(move)  	movsd	%xmm0,0x611600(%rax,%rdx,8)
  401b18:	48 83 c0 08                 	(arith) 	add	$0x8,%rax
/home/jcsalinas/Documents/pruebas/inst_estimation_module/BT/initialize.f:29
  401b1c:	48 83 f8 28                 	(arith) 	cmp	$0x28,%rax
  401b20:	75 ed                       	(control)	jne	401b0f <initialize_+0x8a>	; ↰ label 188 (loop 30)
; ------- Loop 30 exit
189:	
/home/jcsalinas/Documents/pruebas/inst_estimation_module/BT/initialize.f:28
  401b22:	83 c1 01                    	(arith) 	add	$0x1,%ecx
  401b25:	39 cf                       	(arith) 	cmp	%ecx,%edi
  401b27:	75 d7                       	(control)	jne	401b00 <initialize_+0x7b>	; ↰ label 187 (loop 31)
; ------- Loop 31 exit
185:	
/home/jcsalinas/Documents/pruebas/inst_estimation_module/BT/initialize.f:27
  401b29:	41 83 c0 01                 	(arith) 	add	$0x1,%r8d
  401b2d:	45 39 c1                    	(arith) 	cmp	%r8d,%r9d
  401b30:	75 b0                       	(control)	jne	401ae2 <initialize_+0x5d>	; ↰ label 184 (loop 29)
; ------- Loop 29 exit
182:	
/home/jcsalinas/Documents/pruebas/inst_estimation_module/BT/initialize.f:26
  401b32:	83 c3 01                    	(arith) 	add	$0x1,%ebx
  401b35:	41 39 dc                    	(arith) 	cmp	%ebx,%r12d
  401b38:	75 94                       	(control)	jne	401ace <initialize_+0x49>	; ↰ label 181 (loop 24)
; ------- Loop 24 exit
190:	
  401b3a:	c7 44 24 18 00 00 00 00     	(move)  	movl	$0,0x18(%rsp)
/home/jcsalinas/Documents/pruebas/inst_estimation_module/BT/initialize.f:52
  401b42:	4c 8d bc 24 d8 00 00 00     	(arith) 	lea	0xd8(%rsp),%r15
; ------- Loop 25 entry
191 (loop 25):	
/home/jcsalinas/Documents/pruebas/inst_estimation_module/BT/initialize.f:44
  401b4a:	8b 5c 24 18                 	(move)  	mov	0x18(%rsp),%ebx
  401b4e:	66 0f ef c0                 	(logic) 	pxor	%xmm0,%xmm0
  401b52:	f2 0f 2a c3                 	(conv)  	cvtsi2sd	%ebx,%xmm0
  401b56:	f2 0f 59 05 72 f9 20 00     	(arith) 	mulsd	0x20f972(%rip),%xmm0
  401b5e:	f2 0f 11 44 24 20           	(move)  	movsd	%xmm0,0x20(%rsp)
/home/jcsalinas/Documents/pruebas/inst_estimation_module/BT/initialize.f:45
  401b64:	8b 05 82 fa 20 00           	(move)  	mov	0x20fa82(%rip),%eax
  401b6a:	89 44 24 0c                 	(move)  	mov	%eax,0xc(%rsp)
  401b6e:	83 e8 01                    	(arith) 	sub	$0x1,%eax
  401b71:	0f 88 b0 02 00 00           	(control)	js	401e27 <initialize_+0x3a2>	; ↲ label 192
193:	
/home/jcsalinas/Documents/pruebas/inst_estimation_module/BT/initialize.f:75
  401b77:	89 d8                       	(move)  	mov	%ebx,%eax
  401b79:	48 98                       	(conv)  	cltq
  401b7b:	48 69 c0 35 cf 00 00        	(arith) 	imul	$0xcf35,%rax,%rax
  401b82:	48 89 44 24 10              	(move)  	mov	%rax,0x10(%rsp)
  401b87:	c7 44 24 08 00 00 00 00     	(move)  	movl	$0,0x8(%rsp)
; ------- Loop 26 entry
194 (loop 26):	
/home/jcsalinas/Documents/pruebas/inst_estimation_module/BT/initialize.f:46
  401b8f:	8b 44 24 08                 	(move)  	mov	0x8(%rsp),%eax
  401b93:	66 0f ef c0                 	(logic) 	pxor	%xmm0,%xmm0
  401b97:	f2 0f 2a c0                 	(conv)  	cvtsi2sd	%eax,%xmm0
  401b9b:	f2 0f 59 05 25 f9 20 00     	(arith) 	mulsd	0x20f925(%rip),%xmm0
  401ba3:	f2 0f 11 84 24 50 01 00 00  	(move)  	movsd	%xmm0,0x150(%rsp)
/home/jcsalinas/Documents/pruebas/inst_estimation_module/BT/initialize.f:47
  401bac:	44 8b 35 35 fa 20 00        	(move)  	mov	0x20fa35(%rip),%r14d
  401bb3:	44 89 f3                    	(move)  	mov	%r14d,%ebx
  401bb6:	83 eb 01                    	(arith) 	sub	$0x1,%ebx
  401bb9:	0f 88 55 02 00 00           	(control)	js	401e14 <initialize_+0x38f>	; ↲ label 195
196:	
/home/jcsalinas/Documents/pruebas/inst_estimation_module/BT/initialize.f:75
  401bbf:	48 98                       	(conv)  	cltq
  401bc1:	48 89 c2                    	(move)  	mov	%rax,%rdx
  401bc4:	48 c1 e2 08                 	(logic) 	sal	$0x8,%rdx
  401bc8:	48 01 c2                    	(arith) 	add	%rax,%rdx
  401bcb:	4c 8d 2c 50                 	(arith) 	lea	(%rax,%rdx,2),%r13
  401bcf:	4c 03 6c 24 10              	(arith) 	add	0x10(%rsp),%r13
  401bd4:	bd 00 00 00 00              	(move)  	mov	$0,%ebp
; ------- Loop 28 entry
197 (loop 28):	
/home/jcsalinas/Documents/pruebas/inst_estimation_module/BT/initialize.f:48
  401bd9:	66 0f ef c0                 	(logic) 	pxor	%xmm0,%xmm0
  401bdd:	f2 0f 2a c5                 	(conv)  	cvtsi2sd	%ebp,%xmm0
  401be1:	f2 0f 59 05 d7 f8 20 00     	(arith) 	mulsd	0x20f8d7(%rip),%xmm0
  401be9:	f2 0f 11 44 24 28           	(move)  	movsd	%xmm0,0x28(%rsp)
/home/jcsalinas/Documents/pruebas/inst_estimation_module/BT/initialize.f:52
  401bef:	41 bc 00 00 00 00           	(move)  	mov	$0,%r12d
  401bf5:	4c 89 a4 24 58 01 00 00     	(move)  	mov	%r12,0x158(%rsp)
  401bfd:	48 8d 4c 24 60              	(arith) 	lea	0x60(%rsp),%rcx
  401c02:	48 8d 54 24 20              	(arith) 	lea	0x20(%rsp),%rdx
  401c07:	48 8d b4 24 50 01 00 00     	(arith) 	lea	0x150(%rsp),%rsi
  401c0f:	48 8d bc 24 58 01 00 00     	(arith) 	lea	0x158(%rsp),%rdi
  401c17:	b8 00 00 00 00              	(move)  	mov	$0,%eax
  401c1c:	e8 11 08 00 00              	(control)	call	402432 <exact_solution_>	; ⇄ exact_solution
199:	
  401c21:	f2 0f 10 2d 07 d2 00 00     	(move)  	movsd	0xd207(%rip),%xmm5
  401c29:	f2 0f 11 ac 24 58 01 00 00  	(move)  	movsd	%xmm5,0x158(%rsp)
  401c32:	4c 89 f9                    	(move)  	mov	%r15,%rcx
  401c35:	48 8d 54 24 20              	(arith) 	lea	0x20(%rsp),%rdx
  401c3a:	48 8d b4 24 50 01 00 00     	(arith) 	lea	0x150(%rsp),%rsi
  401c42:	48 8d bc 24 58 01 00 00     	(arith) 	lea	0x158(%rsp),%rdi
  401c4a:	b8 00 00 00 00              	(move)  	mov	$0,%eax
  401c4f:	e8 de 07 00 00              	(control)	call	402432 <exact_solution_>	; ⇄ exact_solution
200:	
/home/jcsalinas/Documents/pruebas/inst_estimation_module/BT/initialize.f:57
  401c54:	4c 89 a4 24 60 01 00 00     	(move)  	mov	%r12,0x160(%rsp)
  401c5c:	48 8d 9c 24 88 00 00 00     	(arith) 	lea	0x88(%rsp),%rbx
  401c64:	48 89 d9                    	(move)  	mov	%rbx,%rcx
  401c67:	48 8d 54 24 20              	(arith) 	lea	0x20(%rsp),%rdx
  401c6c:	48 8d b4 24 60 01 00 00     	(arith) 	lea	0x160(%rsp),%rsi
  401c74:	48 8d 7c 24 28              	(arith) 	lea	0x28(%rsp),%rdi
  401c79:	b8 00 00 00 00              	(move)  	mov	$0,%eax
  401c7e:	e8 af 07 00 00              	(control)	call	402432 <exact_solution_>	; ⇄ exact_solution
201:	
  401c83:	f2 0f 10 35 a5 d1 00 00     	(move)  	movsd	0xd1a5(%rip),%xmm6
  401c8b:	f2 0f 11 b4 24 60 01 00 00  	(move)  	movsd	%xmm6,0x160(%rsp)
  401c94:	48 8d 8c 24 00 01 00 00     	(arith) 	lea	0x100(%rsp),%rcx
  401c9c:	48 8d 54 24 20              	(arith) 	lea	0x20(%rsp),%rdx
  401ca1:	48 8d b4 24 60 01 00 00     	(arith) 	lea	0x160(%rsp),%rsi
  401ca9:	48 8d 7c 24 28              	(arith) 	lea	0x28(%rsp),%rdi
  401cae:	b8 00 00 00 00              	(move)  	mov	$0,%eax
  401cb3:	e8 7a 07 00 00              	(control)	call	402432 <exact_solution_>	; ⇄ exact_solution
202:	
/home/jcsalinas/Documents/pruebas/inst_estimation_module/BT/initialize.f:62
  401cb8:	4c 89 a4 24 68 01 00 00     	(move)  	mov	%r12,0x168(%rsp)
  401cc0:	48 8d 8c 24 b0 00 00 00     	(arith) 	lea	0xb0(%rsp),%rcx
  401cc8:	48 8d 94 24 68 01 00 00     	(arith) 	lea	0x168(%rsp),%rdx
  401cd0:	48 8d b4 24 50 01 00 00     	(arith) 	lea	0x150(%rsp),%rsi
  401cd8:	48 8d 7c 24 28              	(arith) 	lea	0x28(%rsp),%rdi
  401cdd:	b8 00 00 00 00              	(move)  	mov	$0,%eax
  401ce2:	e8 4b 07 00 00              	(control)	call	402432 <exact_solution_>	; ⇄ exact_solution
203:	
  401ce7:	f2 0f 10 3d 41 d1 00 00     	(move)  	movsd	0xd141(%rip),%xmm7
  401cef:	f2 0f 11 bc 24 68 01 00 00  	(move)  	movsd	%xmm7,0x168(%rsp)
  401cf8:	48 8d 8c 24 28 01 00 00     	(arith) 	lea	0x128(%rsp),%rcx
  401d00:	48 8d 94 24 68 01 00 00     	(arith) 	lea	0x168(%rsp),%rdx
  401d08:	48 8d b4 24 50 01 00 00     	(arith) 	lea	0x150(%rsp),%rsi
  401d10:	48 8d 7c 24 28              	(arith) 	lea	0x28(%rsp),%rdi
  401d15:	b8 00 00 00 00              	(move)  	mov	$0,%eax
  401d1a:	e8 13 07 00 00              	(control)	call	402432 <exact_solution_>	; ⇄ exact_solution
204:	
/home/jcsalinas/Documents/pruebas/inst_estimation_module/BT/initialize.f:67
  401d1f:	f2 0f 10 7c 24 28           	(move)  	movsd	0x28(%rsp),%xmm7
  401d25:	f2 44 0f 10 0d 02 d1 00 00  	(move)  	movsd	0xd102(%rip),%xmm9
  401d2e:	f2 44 0f 5c cf              	(arith) 	subsd	%xmm7,%xmm9
/home/jcsalinas/Documents/pruebas/inst_estimation_module/BT/initialize.f:69
  401d33:	f2 0f 10 b4 24 50 01 00 00  	(move)  	movsd	0x150(%rsp),%xmm6
  401d3c:	f2 44 0f 10 05 eb d0 00 00  	(move)  	movsd	0xd0eb(%rip),%xmm8
  401d45:	f2 44 0f 5c c6              	(arith) 	subsd	%xmm6,%xmm8
/home/jcsalinas/Documents/pruebas/inst_estimation_module/BT/initialize.f:71
  401d4a:	f2 0f 10 6c 24 20           	(move)  	movsd	0x20(%rsp),%xmm5
  401d50:	f2 0f 10 25 d8 d0 00 00     	(move)  	movsd	0xd0d8(%rip),%xmm4
  401d58:	f2 0f 5c e5                 	(arith) 	subsd	%xmm5,%xmm4
  401d5c:	48 8d 44 24 60              	(arith) 	lea	0x60(%rsp),%rax
  401d61:	48 63 d5                    	(move)  	movsxd	%ebp,%rdx
  401d64:	48 8d 14 92                 	(arith) 	lea	(%rdx,%rdx,4),%rdx
  401d68:	4c 01 ea                    	(arith) 	add	%r13,%rdx
  401d6b:	48 8d 14 d5 00 16 61 00     	(arith) 	lea	0x611600(,%rdx,8),%rdx
; ------- Loop 27 entry
205 (loop 27):	
/home/jcsalinas/Documents/pruebas/inst_estimation_module/BT/initialize.f:67
  401d73:	66 44 0f 28 d7              	(move)  	movapd	%xmm7,%xmm10
  401d78:	f2 44 0f 59 50 78           	(arith) 	mulsd	0x78(%rax),%xmm10
  401d7e:	66 41 0f 28 c1              	(move)  	movapd	%xmm9,%xmm0
  401d83:	f2 0f 59 00                 	(arith) 	mulsd	(%rax),%xmm0
  401d87:	f2 44 0f 58 d0              	(arith) 	addsd	%xmm0,%xmm10
/home/jcsalinas/Documents/pruebas/inst_estimation_module/BT/initialize.f:69
  401d8c:	66 0f 28 de                 	(move)  	movapd	%xmm6,%xmm3
  401d90:	f2 0f 59 98 a0 00 00 00     	(arith) 	mulsd	0xa0(%rax),%xmm3
  401d98:	66 41 0f 28 c0              	(move)  	movapd	%xmm8,%xmm0
  401d9d:	f2 0f 59 40 28              	(arith) 	mulsd	0x28(%rax),%xmm0
  401da2:	f2 0f 58 d8                 	(arith) 	addsd	%xmm0,%xmm3
/home/jcsalinas/Documents/pruebas/inst_estimation_module/BT/initialize.f:71
  401da6:	66 0f 28 cd                 	(move)  	movapd	%xmm5,%xmm1
  401daa:	f2 0f 59 88 c8 00 00 00     	(arith) 	mulsd	0xc8(%rax),%xmm1
  401db2:	66 0f 28 c4                 	(move)  	movapd	%xmm4,%xmm0
  401db6:	f2 0f 59 40 50              	(arith) 	mulsd	0x50(%rax),%xmm0
  401dbb:	f2 0f 58 c1                 	(arith) 	addsd	%xmm1,%xmm0
/home/jcsalinas/Documents/pruebas/inst_estimation_module/BT/initialize.f:75
  401dbf:	66 41 0f 28 ca              	(move)  	movapd	%xmm10,%xmm1
  401dc4:	f2 0f 59 cb                 	(arith) 	mulsd	%xmm3,%xmm1
  401dc8:	66 41 0f 28 d2              	(move)  	movapd	%xmm10,%xmm2
  401dcd:	f2 0f 58 d3                 	(arith) 	addsd	%xmm3,%xmm2
  401dd1:	f2 0f 58 d0                 	(arith) 	addsd	%xmm0,%xmm2
  401dd5:	f2 0f 5c d1                 	(arith) 	subsd	%xmm1,%xmm2
  401dd9:	f2 44 0f 59 d0              	(arith) 	mulsd	%xmm0,%xmm10
  401dde:	f2 41 0f 5c d2              	(arith) 	subsd	%xmm10,%xmm2
  401de3:	f2 0f 59 d8                 	(arith) 	mulsd	%xmm0,%xmm3
  401de7:	f2 0f 5c d3                 	(arith) 	subsd	%xmm3,%xmm2
  401deb:	f2 0f 59 c1                 	(arith) 	mulsd	%xmm1,%xmm0
  401def:	f2 0f 58 c2                 	(arith) 	addsd	%xmm2,%xmm0
  401df3:	f2 0f 11 02                 	(move)  	movsd	%xmm0,(%rdx)
  401df7:	48 83 c0 08                 	(arith) 	add	$0x8,%rax
  401dfb:	48 83 c2 08                 	(arith) 	add	$0x8,%rdx
/home/jcsalinas/Documents/pruebas/inst_estimation_module/BT/initialize.f:65
  401dff:	48 39 c3                    	(arith) 	cmp	%rax,%rbx
  401e02:	0f 85 6b ff ff ff           	(control)	jne	401d73 <initialize_+0x2ee>	; ↰ label 205 (loop 27)
; ------- Loop 27 exit
206:	
/home/jcsalinas/Documents/pruebas/inst_estimation_module/BT/initialize.f:47
  401e08:	83 c5 01                    	(arith) 	add	$0x1,%ebp
  401e0b:	41 39 ee                    	(arith) 	cmp	%ebp,%r14d
  401e0e:	0f 85 c5 fd ff ff           	(control)	jne	401bd9 <initialize_+0x154>	; ↰ label 197 (loop 28)
; ------- Loop 28 exit
195:	
/home/jcsalinas/Documents/pruebas/inst_estimation_module/BT/initialize.f:45
  401e14:	83 44 24 08 01              	(arith) 	addl	$0x1,0x8(%rsp)
  401e19:	8b 44 24 08                 	(move)  	mov	0x8(%rsp),%eax
  401e1d:	39 44 24 0c                 	(arith) 	cmp	%eax,0xc(%rsp)
  401e21:	0f 85 68 fd ff ff           	(control)	jne	401b8f <initialize_+0x10a>	; ↰ label 194 (loop 26)
; ------- Loop 26 exit
192:	
/home/jcsalinas/Documents/pruebas/inst_estimation_module/BT/initialize.f:43
  401e27:	83 44 24 18 01              	(arith) 	addl	$0x1,0x18(%rsp)
  401e2c:	8b 44 24 18                 	(move)  	mov	0x18(%rsp),%eax
  401e30:	39 44 24 1c                 	(arith) 	cmp	%eax,0x1c(%rsp)
  401e34:	0f 85 10 fd ff ff           	(control)	jne	401b4a <initialize_+0xc5>	; ↰ label 191 (loop 25)
; ------- Loop 25 exit
179:	
/home/jcsalinas/Documents/pruebas/inst_estimation_module/BT/initialize.f:90
  401e3a:	48 c7 44 24 28 00 00 00 00  	(move)  	movq	$0,0x28(%rsp)
/home/jcsalinas/Documents/pruebas/inst_estimation_module/BT/initialize.f:91
  401e43:	44 8b 35 a6 f7 20 00        	(move)  	mov	0x20f7a6(%rip),%r14d
  401e4a:	44 89 f0                    	(move)  	mov	%r14d,%eax
  401e4d:	83 e8 01                    	(arith) 	sub	$0x1,%eax
  401e50:	0f 88 c0 00 00 00           	(control)	js	401f16 <initialize_+0x491>	; ↲ label 207
208:	
  401e56:	41 bd 00 00 00 00           	(move)  	mov	$0,%r13d
; ------- Loop 21 entry
209 (loop 21):	
/home/jcsalinas/Documents/pruebas/inst_estimation_module/BT/initialize.f:92
  401e5c:	66 0f ef c0                 	(logic) 	pxor	%xmm0,%xmm0
  401e60:	f2 41 0f 2a c5              	(conv)  	cvtsi2sd	%r13d,%xmm0
  401e65:	f2 0f 59 05 63 f6 20 00     	(arith) 	mulsd	0x20f663(%rip),%xmm0
  401e6d:	f2 0f 11 44 24 20           	(move)  	movsd	%xmm0,0x20(%rsp)
/home/jcsalinas/Documents/pruebas/inst_estimation_module/BT/initialize.f:93
  401e73:	44 8b 25 72 f7 20 00        	(move)  	mov	0x20f772(%rip),%r12d
  401e7a:	44 89 e0                    	(move)  	mov	%r12d,%eax
  401e7d:	83 e8 01                    	(arith) 	sub	$0x1,%eax
  401e80:	0f 88 83 00 00 00           	(control)	js	401f09 <initialize_+0x484>	; ↲ label 210
211:	
/home/jcsalinas/Documents/pruebas/inst_estimation_module/BT/initialize.f:97
  401e86:	49 63 ed                    	(move)  	movsxd	%r13d,%rbp
  401e89:	48 69 ed 35 cf 00 00        	(arith) 	imul	$0xcf35,%rbp,%rbp
  401e90:	bb 00 00 00 00              	(move)  	mov	$0,%ebx
; ------- Loop 23 entry
212 (loop 23):	
/home/jcsalinas/Documents/pruebas/inst_estimation_module/BT/initialize.f:94
  401e95:	66 0f ef c0                 	(logic) 	pxor	%xmm0,%xmm0
  401e99:	f2 0f 2a c3                 	(conv)  	cvtsi2sd	%ebx,%xmm0
  401e9d:	f2 0f 59 05 23 f6 20 00     	(arith) 	mulsd	0x20f623(%rip),%xmm0
  401ea5:	f2 0f 11 84 24 50 01 00 00  	(move)  	movsd	%xmm0,0x150(%rsp)
/home/jcsalinas/Documents/pruebas/inst_estimation_module/BT/initialize.f:95
  401eae:	48 8d 4c 24 30              	(arith) 	lea	0x30(%rsp),%rcx
  401eb3:	48 8d 54 24 20              	(arith) 	lea	0x20(%rsp),%rdx
  401eb8:	48 8d b4 24 50 01 00 00     	(arith) 	lea	0x150(%rsp),%rsi
  401ec0:	48 8d 7c 24 28              	(arith) 	lea	0x28(%rsp),%rdi
  401ec5:	b8 00 00 00 00              	(move)  	mov	$0,%eax
  401eca:	e8 63 05 00 00              	(control)	call	402432 <exact_solution_>	; ⇄ exact_solution
213:	
/home/jcsalinas/Documents/pruebas/inst_estimation_module/BT/initialize.f:97
  401ecf:	48 63 c3                    	(move)  	movsxd	%ebx,%rax
  401ed2:	48 89 c2                    	(move)  	mov	%rax,%rdx
  401ed5:	48 c1 e2 08                 	(logic) 	sal	$0x8,%rdx
  401ed9:	48 01 c2                    	(arith) 	add	%rax,%rdx
  401edc:	48 8d 14 50                 	(arith) 	lea	(%rax,%rdx,2),%rdx
  401ee0:	48 01 ea                    	(arith) 	add	%rbp,%rdx
  401ee3:	b8 00 00 00 00              	(move)  	mov	$0,%eax
; ------- Loop 22 entry
214 (loop 22):	
  401ee8:	f2 0f 10 44 04 30           	(move)  	movsd	0x30(%rsp,%rax,1),%xmm0
  401eee:	f2 0f 11 84 d0 00 16 61 00  	(move)  	movsd	%xmm0,0x611600(%rax,%rdx,8)
  401ef7:	48 83 c0 08                 	(arith) 	add	$0x8,%rax
/home/jcsalinas/Documents/pruebas/inst_estimation_module/BT/initialize.f:96
  401efb:	48 83 f8 28                 	(arith) 	cmp	$0x28,%rax
  401eff:	75 e7                       	(control)	jne	401ee8 <initialize_+0x463>	; ↰ label 214 (loop 22)
; ------- Loop 22 exit
215:	
/home/jcsalinas/Documents/pruebas/inst_estimation_module/BT/initialize.f:93
  401f01:	83 c3 01                    	(arith) 	add	$0x1,%ebx
  401f04:	41 39 dc                    	(arith) 	cmp	%ebx,%r12d
  401f07:	75 8c                       	(control)	jne	401e95 <initialize_+0x410>	; ↰ label 212 (loop 23)
; ------- Loop 23 exit
210:	
/home/jcsalinas/Documents/pruebas/inst_estimation_module/BT/initialize.f:91
  401f09:	41 83 c5 01                 	(arith) 	add	$0x1,%r13d
  401f0d:	45 39 ee                    	(arith) 	cmp	%r13d,%r14d
  401f10:	0f 85 46 ff ff ff           	(control)	jne	401e5c <initialize_+0x3d7>	; ↰ label 209 (loop 21)
; ------- Loop 21 exit
207:	
/home/jcsalinas/Documents/pruebas/inst_estimation_module/BT/initialize.f:106
  401f16:	8b 05 cc f6 20 00           	(move)  	mov	0x20f6cc(%rip),%eax
  401f1c:	83 e8 01                    	(arith) 	sub	$0x1,%eax
/home/jcsalinas/Documents/pruebas/inst_estimation_module/BT/initialize.f:107
  401f1f:	f2 0f 10 25 09 cf 00 00     	(move)  	movsd	0xcf09(%rip),%xmm4
  401f27:	f2 0f 11 64 24 28           	(move)  	movsd	%xmm4,0x28(%rsp)
/home/jcsalinas/Documents/pruebas/inst_estimation_module/BT/initialize.f:108
  401f2d:	44 8b 3d bc f6 20 00        	(move)  	mov	0x20f6bc(%rip),%r15d
  401f34:	44 89 fb                    	(move)  	mov	%r15d,%ebx
  401f37:	83 eb 01                    	(arith) 	sub	$0x1,%ebx
  401f3a:	0f 88 c9 00 00 00           	(control)	js	402009 <initialize_+0x584>	; ↲ label 216
217:	
/home/jcsalinas/Documents/pruebas/inst_estimation_module/BT/initialize.f:114
  401f40:	48 98                       	(conv)  	cltq
  401f42:	4c 8d 2c 80                 	(arith) 	lea	(%rax,%rax,4),%r13
  401f46:	41 be 00 00 00 00           	(move)  	mov	$0,%r14d
; ------- Loop 18 entry
218 (loop 18):	
/home/jcsalinas/Documents/pruebas/inst_estimation_module/BT/initialize.f:109
  401f4c:	66 0f ef c0                 	(logic) 	pxor	%xmm0,%xmm0
  401f50:	f2 41 0f 2a c6              	(conv)  	cvtsi2sd	%r14d,%xmm0
  401f55:	f2 0f 59 05 73 f5 20 00     	(arith) 	mulsd	0x20f573(%rip),%xmm0
  401f5d:	f2 0f 11 44 24 20           	(move)  	movsd	%xmm0,0x20(%rsp)
/home/jcsalinas/Documents/pruebas/inst_estimation_module/BT/initialize.f:110
  401f63:	44 8b 25 82 f6 20 00        	(move)  	mov	0x20f682(%rip),%r12d
  401f6a:	44 89 e0                    	(move)  	mov	%r12d,%eax
  401f6d:	83 e8 01                    	(arith) 	sub	$0x1,%eax
  401f70:	0f 88 86 00 00 00           	(control)	js	401ffc <initialize_+0x577>	; ↲ label 219
220:	
/home/jcsalinas/Documents/pruebas/inst_estimation_module/BT/initialize.f:114
  401f76:	49 63 ee                    	(move)  	movsxd	%r14d,%rbp
  401f79:	48 69 ed 35 cf 00 00        	(arith) 	imul	$0xcf35,%rbp,%rbp
  401f80:	bb 00 00 00 00              	(move)  	mov	$0,%ebx
; ------- Loop 20 entry
221 (loop 20):	
/home/jcsalinas/Documents/pruebas/inst_estimation_module/BT/initialize.f:111
  401f85:	66 0f ef c0                 	(logic) 	pxor	%xmm0,%xmm0
  401f89:	f2 0f 2a c3                 	(conv)  	cvtsi2sd	%ebx,%xmm0
  401f8d:	f2 0f 59 05 33 f5 20 00     	(arith) 	mulsd	0x20f533(%rip),%xmm0
  401f95:	f2 0f 11 84 24 50 01 00 00  	(move)  	movsd	%xmm0,0x150(%rsp)
/home/jcsalinas/Documents/pruebas/inst_estimation_module/BT/initialize.f:112
  401f9e:	48 8d 4c 24 30              	(arith) 	lea	0x30(%rsp),%rcx
  401fa3:	48 8d 54 24 20              	(arith) 	lea	0x20(%rsp),%rdx
  401fa8:	48 8d b4 24 50 01 00 00     	(arith) 	lea	0x150(%rsp),%rsi
  401fb0:	48 8d 7c 24 28              	(arith) 	lea	0x28(%rsp),%rdi
  401fb5:	b8 00 00 00 00              	(move)  	mov	$0,%eax
  401fba:	e8 73 04 00 00              	(control)	call	402432 <exact_solution_>	; ⇄ exact_solution
222:	
/home/jcsalinas/Documents/pruebas/inst_estimation_module/BT/initialize.f:114
  401fbf:	48 63 c3                    	(move)  	movsxd	%ebx,%rax
  401fc2:	48 89 c2                    	(move)  	mov	%rax,%rdx
  401fc5:	48 c1 e2 08                 	(logic) 	sal	$0x8,%rdx
  401fc9:	48 01 c2                    	(arith) 	add	%rax,%rdx
  401fcc:	48 8d 14 50                 	(arith) 	lea	(%rax,%rdx,2),%rdx
  401fd0:	48 01 ea                    	(arith) 	add	%rbp,%rdx
  401fd3:	4c 01 ea                    	(arith) 	add	%r13,%rdx
  401fd6:	b8 00 00 00 00              	(move)  	mov	$0,%eax
; ------- Loop 19 entry
223 (loop 19):	
  401fdb:	f2 0f 10 44 04 30           	(move)  	movsd	0x30(%rsp,%rax,1),%xmm0
  401fe1:	f2 0f 11 84 d0 00 16 61 00  	(move)  	movsd	%xmm0,0x611600(%rax,%rdx,8)
  401fea:	48 83 c0 08                 	(arith) 	add	$0x8,%rax
/home/jcsalinas/Documents/pruebas/inst_estimation_module/BT/initialize.f:113
  401fee:	48 83 f8 28                 	(arith) 	cmp	$0x28,%rax
  401ff2:	75 e7                       	(control)	jne	401fdb <initialize_+0x556>	; ↰ label 223 (loop 19)
; ------- Loop 19 exit
224:	
/home/jcsalinas/Documents/pruebas/inst_estimation_module/BT/initialize.f:110
  401ff4:	83 c3 01                    	(arith) 	add	$0x1,%ebx
  401ff7:	41 39 dc                    	(arith) 	cmp	%ebx,%r12d
  401ffa:	75 89                       	(control)	jne	401f85 <initialize_+0x500>	; ↰ label 221 (loop 20)
; ------- Loop 20 exit
219:	
/home/jcsalinas/Documents/pruebas/inst_estimation_module/BT/initialize.f:108
  401ffc:	41 83 c6 01                 	(arith) 	add	$0x1,%r14d
  402000:	45 39 f7                    	(arith) 	cmp	%r14d,%r15d
  402003:	0f 85 43 ff ff ff           	(control)	jne	401f4c <initialize_+0x4c7>	; ↰ label 218 (loop 18)
; ------- Loop 18 exit
216:	
/home/jcsalinas/Documents/pruebas/inst_estimation_module/BT/initialize.f:123
  402009:	48 c7 84 24 50 01 00 00 00 00 00 00	(move)  	movq	$0,0x150(%rsp)
/home/jcsalinas/Documents/pruebas/inst_estimation_module/BT/initialize.f:124
  402015:	44 8b 35 d4 f5 20 00        	(move)  	mov	0x20f5d4(%rip),%r14d
  40201c:	44 89 f0                    	(move)  	mov	%r14d,%eax
  40201f:	83 e8 01                    	(arith) 	sub	$0x1,%eax
  402022:	0f 88 af 00 00 00           	(control)	js	4020d7 <initialize_+0x652>	; ↲ label 225
226:	
  402028:	41 bd 00 00 00 00           	(move)  	mov	$0,%r13d
; ------- Loop 15 entry
227 (loop 15):	
/home/jcsalinas/Documents/pruebas/inst_estimation_module/BT/initialize.f:125
  40202e:	66 0f ef c0                 	(logic) 	pxor	%xmm0,%xmm0
  402032:	f2 41 0f 2a c5              	(conv)  	cvtsi2sd	%r13d,%xmm0
  402037:	f2 0f 59 05 91 f4 20 00     	(arith) 	mulsd	0x20f491(%rip),%xmm0
  40203f:	f2 0f 11 44 24 20           	(move)  	movsd	%xmm0,0x20(%rsp)
/home/jcsalinas/Documents/pruebas/inst_estimation_module/BT/initialize.f:126
  402045:	44 8b 25 9c f5 20 00        	(move)  	mov	0x20f59c(%rip),%r12d
  40204c:	44 89 e0                    	(move)  	mov	%r12d,%eax
  40204f:	83 e8 01                    	(arith) 	sub	$0x1,%eax
  402052:	78 76                       	(control)	js	4020ca <initialize_+0x645>	; ↲ label 228
229:	
/home/jcsalinas/Documents/pruebas/inst_estimation_module/BT/initialize.f:130
  402054:	49 63 ed                    	(move)  	movsxd	%r13d,%rbp
  402057:	48 69 ed 35 cf 00 00        	(arith) 	imul	$0xcf35,%rbp,%rbp
  40205e:	bb 00 00 00 00              	(move)  	mov	$0,%ebx
; ------- Loop 17 entry
230 (loop 17):	
/home/jcsalinas/Documents/pruebas/inst_estimation_module/BT/initialize.f:127
  402063:	66 0f ef c0                 	(logic) 	pxor	%xmm0,%xmm0
  402067:	f2 0f 2a c3                 	(conv)  	cvtsi2sd	%ebx,%xmm0
  40206b:	f2 0f 59 05 4d f4 20 00     	(arith) 	mulsd	0x20f44d(%rip),%xmm0
  402073:	f2 0f 11 44 24 28           	(move)  	movsd	%xmm0,0x28(%rsp)
/home/jcsalinas/Documents/pruebas/inst_estimation_module/BT/initialize.f:128
  402079:	48 8d 4c 24 30              	(arith) 	lea	0x30(%rsp),%rcx
  40207e:	48 8d 54 24 20              	(arith) 	lea	0x20(%rsp),%rdx
  402083:	48 8d b4 24 50 01 00 00     	(arith) 	lea	0x150(%rsp),%rsi
  40208b:	48 8d 7c 24 28              	(arith) 	lea	0x28(%rsp),%rdi
  402090:	b8 00 00 00 00              	(move)  	mov	$0,%eax
  402095:	e8 98 03 00 00              	(control)	call	402432 <exact_solution_>	; ⇄ exact_solution
231:	
/home/jcsalinas/Documents/pruebas/inst_estimation_module/BT/initialize.f:130
  40209a:	48 63 c3                    	(move)  	movsxd	%ebx,%rax
  40209d:	48 8d 14 80                 	(arith) 	lea	(%rax,%rax,4),%rdx
  4020a1:	48 01 ea                    	(arith) 	add	%rbp,%rdx
  4020a4:	b8 00 00 00 00              	(move)  	mov	$0,%eax
; ------- Loop 16 entry
232 (loop 16):	
  4020a9:	f2 0f 10 44 04 30           	(move)  	movsd	0x30(%rsp,%rax,1),%xmm0
  4020af:	f2 0f 11 84 d0 00 16 61 00  	(move)  	movsd	%xmm0,0x611600(%rax,%rdx,8)
  4020b8:	48 83 c0 08                 	(arith) 	add	$0x8,%rax
/home/jcsalinas/Documents/pruebas/inst_estimation_module/BT/initialize.f:129
  4020bc:	48 83 f8 28                 	(arith) 	cmp	$0x28,%rax
  4020c0:	75 e7                       	(control)	jne	4020a9 <initialize_+0x624>	; ↰ label 232 (loop 16)
; ------- Loop 16 exit
233:	
/home/jcsalinas/Documents/pruebas/inst_estimation_module/BT/initialize.f:126
  4020c2:	83 c3 01                    	(arith) 	add	$0x1,%ebx
  4020c5:	41 39 dc                    	(arith) 	cmp	%ebx,%r12d
  4020c8:	75 99                       	(control)	jne	402063 <initialize_+0x5de>	; ↰ label 230 (loop 17)
; ------- Loop 17 exit
228:	
/home/jcsalinas/Documents/pruebas/inst_estimation_module/BT/initialize.f:124
  4020ca:	41 83 c5 01                 	(arith) 	add	$0x1,%r13d
  4020ce:	45 39 ee                    	(arith) 	cmp	%r13d,%r14d
  4020d1:	0f 85 57 ff ff ff           	(control)	jne	40202e <initialize_+0x5a9>	; ↰ label 227 (loop 15)
; ------- Loop 15 exit
225:	
/home/jcsalinas/Documents/pruebas/inst_estimation_module/BT/initialize.f:139
  4020d7:	8b 05 0f f5 20 00           	(move)  	mov	0x20f50f(%rip),%eax
  4020dd:	83 e8 01                    	(arith) 	sub	$0x1,%eax
/home/jcsalinas/Documents/pruebas/inst_estimation_module/BT/initialize.f:140
  4020e0:	f2 0f 10 2d 48 cd 00 00     	(move)  	movsd	0xcd48(%rip),%xmm5
  4020e8:	f2 0f 11 ac 24 50 01 00 00  	(move)  	movsd	%xmm5,0x150(%rsp)
/home/jcsalinas/Documents/pruebas/inst_estimation_module/BT/initialize.f:141
  4020f1:	44 8b 35 f8 f4 20 00        	(move)  	mov	0x20f4f8(%rip),%r14d
  4020f8:	44 89 f3                    	(move)  	mov	%r14d,%ebx
  4020fb:	83 eb 01                    	(arith) 	sub	$0x1,%ebx
  4020fe:	0f 88 c2 00 00 00           	(control)	js	4021c6 <initialize_+0x741>	; ↲ label 234
235:	
/home/jcsalinas/Documents/pruebas/inst_estimation_module/BT/initialize.f:147
  402104:	48 98                       	(conv)  	cltq
  402106:	48 89 c2                    	(move)  	mov	%rax,%rdx
  402109:	48 c1 e2 08                 	(logic) 	sal	$0x8,%rdx
  40210d:	48 01 c2                    	(arith) 	add	%rax,%rdx
  402110:	4c 8d 3c 50                 	(arith) 	lea	(%rax,%rdx,2),%r15
  402114:	41 bd 00 00 00 00           	(move)  	mov	$0,%r13d
; ------- Loop 12 entry
236 (loop 12):	
/home/jcsalinas/Documents/pruebas/inst_estimation_module/BT/initialize.f:142
  40211a:	66 0f ef c0                 	(logic) 	pxor	%xmm0,%xmm0
  40211e:	f2 41 0f 2a c5              	(conv)  	cvtsi2sd	%r13d,%xmm0
  402123:	f2 0f 59 05 a5 f3 20 00     	(arith) 	mulsd	0x20f3a5(%rip),%xmm0
  40212b:	f2 0f 11 44 24 20           	(move)  	movsd	%xmm0,0x20(%rsp)
/home/jcsalinas/Documents/pruebas/inst_estimation_module/BT/initialize.f:143
  402131:	44 8b 25 b0 f4 20 00        	(move)  	mov	0x20f4b0(%rip),%r12d
  402138:	44 89 e0                    	(move)  	mov	%r12d,%eax
  40213b:	83 e8 01                    	(arith) 	sub	$0x1,%eax
  40213e:	78 79                       	(control)	js	4021b9 <initialize_+0x734>	; ↲ label 237
238:	
/home/jcsalinas/Documents/pruebas/inst_estimation_module/BT/initialize.f:147
  402140:	49 63 ed                    	(move)  	movsxd	%r13d,%rbp
  402143:	48 69 ed 35 cf 00 00        	(arith) 	imul	$0xcf35,%rbp,%rbp
  40214a:	4c 01 fd                    	(arith) 	add	%r15,%rbp
  40214d:	bb 00 00 00 00              	(move)  	mov	$0,%ebx
; ------- Loop 14 entry
239 (loop 14):	
/home/jcsalinas/Documents/pruebas/inst_estimation_module/BT/initialize.f:144
  402152:	66 0f ef c0                 	(logic) 	pxor	%xmm0,%xmm0
  402156:	f2 0f 2a c3                 	(conv)  	cvtsi2sd	%ebx,%xmm0
  40215a:	f2 0f 59 05 5e f3 20 00     	(arith) 	mulsd	0x20f35e(%rip),%xmm0
  402162:	f2 0f 11 44 24 28           	(move)  	movsd	%xmm0,0x28(%rsp)
/home/jcsalinas/Documents/pruebas/inst_estimation_module/BT/initialize.f:145
  402168:	48 8d 4c 24 30              	(arith) 	lea	0x30(%rsp),%rcx
  40216d:	48 8d 54 24 20              	(arith) 	lea	0x20(%rsp),%rdx
  402172:	48 8d b4 24 50 01 00 00     	(arith) 	lea	0x150(%rsp),%rsi
  40217a:	48 8d 7c 24 28              	(arith) 	lea	0x28(%rsp),%rdi
  40217f:	b8 00 00 00 00              	(move)  	mov	$0,%eax
  402184:	e8 a9 02 00 00              	(control)	call	402432 <exact_solution_>	; ⇄ exact_solution
240:	
/home/jcsalinas/Documents/pruebas/inst_estimation_module/BT/initialize.f:147
  402189:	48 63 c3                    	(move)  	movsxd	%ebx,%rax
  40218c:	48 8d 14 80                 	(arith) 	lea	(%rax,%rax,4),%rdx
  402190:	48 01 ea                    	(arith) 	add	%rbp,%rdx
  402193:	b8 00 00 00 00              	(move)  	mov	$0,%eax
; ------- Loop 13 entry
241 (loop 13):	
  402198:	f2 0f 10 44 04 30           	(move)  	movsd	0x30(%rsp,%rax,1),%xmm0
  40219e:	f2 0f 11 84 d0 00 16 61 00  	(move)  	movsd	%xmm0,0x611600(%rax,%rdx,8)
  4021a7:	48 83 c0 08                 	(arith) 	add	$0x8,%rax
/home/jcsalinas/Documents/pruebas/inst_estimation_module/BT/initialize.f:146
  4021ab:	48 83 f8 28                 	(arith) 	cmp	$0x28,%rax
  4021af:	75 e7                       	(control)	jne	402198 <initialize_+0x713>	; ↰ label 241 (loop 13)
; ------- Loop 13 exit
242:	
/home/jcsalinas/Documents/pruebas/inst_estimation_module/BT/initialize.f:143
  4021b1:	83 c3 01                    	(arith) 	add	$0x1,%ebx
  4021b4:	41 39 dc                    	(arith) 	cmp	%ebx,%r12d
  4021b7:	75 99                       	(control)	jne	402152 <initialize_+0x6cd>	; ↰ label 239 (loop 14)
; ------- Loop 14 exit
237:	
/home/jcsalinas/Documents/pruebas/inst_estimation_module/BT/initialize.f:141
  4021b9:	41 83 c5 01                 	(arith) 	add	$0x1,%r13d
  4021bd:	45 39 ee                    	(arith) 	cmp	%r13d,%r14d
  4021c0:	0f 85 54 ff ff ff           	(control)	jne	40211a <initialize_+0x695>	; ↰ label 236 (loop 12)
; ------- Loop 12 exit
234:	
/home/jcsalinas/Documents/pruebas/inst_estimation_module/BT/initialize.f:156
  4021c6:	48 c7 44 24 20 00 00 00 00  	(move)  	movq	$0,0x20(%rsp)
/home/jcsalinas/Documents/pruebas/inst_estimation_module/BT/initialize.f:157
  4021cf:	44 8b 35 16 f4 20 00        	(move)  	mov	0x20f416(%rip),%r14d
  4021d6:	44 89 f0                    	(move)  	mov	%r14d,%eax
  4021d9:	83 e8 01                    	(arith) 	sub	$0x1,%eax
  4021dc:	0f 88 b6 00 00 00           	(control)	js	402298 <initialize_+0x813>	; ↲ label 243
244:	
  4021e2:	41 bd 00 00 00 00           	(move)  	mov	$0,%r13d
; ------- Loop 9 entry
245 (loop 9):	
/home/jcsalinas/Documents/pruebas/inst_estimation_module/BT/initialize.f:158
  4021e8:	66 0f ef c0                 	(logic) 	pxor	%xmm0,%xmm0
  4021ec:	f2 41 0f 2a c5              	(conv)  	cvtsi2sd	%r13d,%xmm0
  4021f1:	f2 0f 59 05 cf f2 20 00     	(arith) 	mulsd	0x20f2cf(%rip),%xmm0
  4021f9:	f2 0f 11 84 24 50 01 00 00  	(move)  	movsd	%xmm0,0x150(%rsp)
/home/jcsalinas/Documents/pruebas/inst_estimation_module/BT/initialize.f:159
  402202:	8b 2d e0 f3 20 00           	(move)  	mov	0x20f3e0(%rip),%ebp
  402208:	89 e8                       	(move)  	mov	%ebp,%eax
  40220a:	83 e8 01                    	(arith) 	sub	$0x1,%eax
  40220d:	78 7c                       	(control)	js	40228b <initialize_+0x806>	; ↲ label 246
247:	
/home/jcsalinas/Documents/pruebas/inst_estimation_module/BT/initialize.f:163
  40220f:	49 63 c5                    	(move)  	movsxd	%r13d,%rax
  402212:	48 89 c2                    	(move)  	mov	%rax,%rdx
  402215:	48 c1 e2 08                 	(logic) 	sal	$0x8,%rdx
  402219:	48 01 c2                    	(arith) 	add	%rax,%rdx
  40221c:	4c 8d 24 50                 	(arith) 	lea	(%rax,%rdx,2),%r12
  402220:	bb 00 00 00 00              	(move)  	mov	$0,%ebx
; ------- Loop 11 entry
248 (loop 11):	
/home/jcsalinas/Documents/pruebas/inst_estimation_module/BT/initialize.f:160
  402225:	66 0f ef c0                 	(logic) 	pxor	%xmm0,%xmm0
  402229:	f2 0f 2a c3                 	(conv)  	cvtsi2sd	%ebx,%xmm0
  40222d:	f2 0f 59 05 8b f2 20 00     	(arith) 	mulsd	0x20f28b(%rip),%xmm0
  402235:	f2 0f 11 44 24 28           	(move)  	movsd	%xmm0,0x28(%rsp)
/home/jcsalinas/Documents/pruebas/inst_estimation_module/BT/initialize.f:161
  40223b:	48 8d 4c 24 30              	(arith) 	lea	0x30(%rsp),%rcx
  402240:	48 8d 54 24 20              	(arith) 	lea	0x20(%rsp),%rdx
  402245:	48 8d b4 24 50 01 00 00     	(arith) 	lea	0x150(%rsp),%rsi
  40224d:	48 8d 7c 24 28              	(arith) 	lea	0x28(%rsp),%rdi
  402252:	b8 00 00 00 00              	(move)  	mov	$0,%eax
  402257:	e8 d6 01 00 00              	(control)	call	402432 <exact_solution_>	; ⇄ exact_solution
249:	
/home/jcsalinas/Documents/pruebas/inst_estimation_module/BT/initialize.f:163
  40225c:	48 63 c3                    	(move)  	movsxd	%ebx,%rax
  40225f:	48 8d 14 80                 	(arith) 	lea	(%rax,%rax,4),%rdx
  402263:	4c 01 e2                    	(arith) 	add	%r12,%rdx
  402266:	b8 00 00 00 00              	(move)  	mov	$0,%eax
; ------- Loop 10 entry
250 (loop 10):	
  40226b:	f2 0f 10 44 04 30           	(move)  	movsd	0x30(%rsp,%rax,1),%xmm0
  402271:	f2 0f 11 84 d0 00 16 61 00  	(move)  	movsd	%xmm0,0x611600(%rax,%rdx,8)
  40227a:	48 83 c0 08                 	(arith) 	add	$0x8,%rax
/home/jcsalinas/Documents/pruebas/inst_estimation_module/BT/initialize.f:162
  40227e:	48 83 f8 28                 	(arith) 	cmp	$0x28,%rax
  402282:	75 e7                       	(control)	jne	40226b <initialize_+0x7e6>	; ↰ label 250 (loop 10)
; ------- Loop 10 exit
251:	
/home/jcsalinas/Documents/pruebas/inst_estimation_module/BT/initialize.f:159
  402284:	83 c3 01                    	(arith) 	add	$0x1,%ebx
  402287:	39 dd                       	(arith) 	cmp	%ebx,%ebp
  402289:	75 9a                       	(control)	jne	402225 <initialize_+0x7a0>	; ↰ label 248 (loop 11)
; ------- Loop 11 exit
246:	
/home/jcsalinas/Documents/pruebas/inst_estimation_module/BT/initialize.f:157
  40228b:	41 83 c5 01                 	(arith) 	add	$0x1,%r13d
  40228f:	45 39 ee                    	(arith) 	cmp	%r13d,%r14d
  402292:	0f 85 50 ff ff ff           	(control)	jne	4021e8 <initialize_+0x763>	; ↰ label 245 (loop 9)
; ------- Loop 9 exit
243:	
/home/jcsalinas/Documents/pruebas/inst_estimation_module/BT/initialize.f:171
  402298:	8b 05 52 f3 20 00           	(move)  	mov	0x20f352(%rip),%eax
  40229e:	44 8d 70 ff                 	(arith) 	lea	-0x1(%rax),%r14d
/home/jcsalinas/Documents/pruebas/inst_estimation_module/BT/initialize.f:172
  4022a2:	f2 0f 10 35 86 cb 00 00     	(move)  	movsd	0xcb86(%rip),%xmm6
  4022aa:	f2 0f 11 74 24 20           	(move)  	movsd	%xmm6,0x20(%rsp)
/home/jcsalinas/Documents/pruebas/inst_estimation_module/BT/initialize.f:173
  4022b0:	44 8b 3d 35 f3 20 00        	(move)  	mov	0x20f335(%rip),%r15d
  4022b7:	44 89 f8                    	(move)  	mov	%r15d,%eax
  4022ba:	83 e8 01                    	(arith) 	sub	$0x1,%eax
  4022bd:	0f 88 ca 00 00 00           	(control)	js	40238d <initialize_+0x908>	; ↲ label 252
253:	
/home/jcsalinas/Documents/pruebas/inst_estimation_module/BT/initialize.f:179
  4022c3:	4d 63 f6                    	(move)  	movsxd	%r14d,%r14
  4022c6:	4d 69 f6 35 cf 00 00        	(arith) 	imul	$0xcf35,%r14,%r14
  4022cd:	41 bd 00 00 00 00           	(move)  	mov	$0,%r13d
; ------- Loop 6 entry
254 (loop 6):	
/home/jcsalinas/Documents/pruebas/inst_estimation_module/BT/initialize.f:174
  4022d3:	66 0f ef c0                 	(logic) 	pxor	%xmm0,%xmm0
  4022d7:	f2 41 0f 2a c5              	(conv)  	cvtsi2sd	%r13d,%xmm0
  4022dc:	f2 0f 59 05 e4 f1 20 00     	(arith) 	mulsd	0x20f1e4(%rip),%xmm0
  4022e4:	f2 0f 11 84 24 50 01 00 00  	(move)  	movsd	%xmm0,0x150(%rsp)
/home/jcsalinas/Documents/pruebas/inst_estimation_module/BT/initialize.f:175
  4022ed:	44 8b 25 f4 f2 20 00        	(move)  	mov	0x20f2f4(%rip),%r12d
  4022f4:	44 89 e0                    	(move)  	mov	%r12d,%eax
  4022f7:	83 e8 01                    	(arith) 	sub	$0x1,%eax
  4022fa:	0f 88 80 00 00 00           	(control)	js	402380 <initialize_+0x8fb>	; ↲ label 255
256:	
/home/jcsalinas/Documents/pruebas/inst_estimation_module/BT/initialize.f:179
  402300:	49 63 c5                    	(move)  	movsxd	%r13d,%rax
  402303:	48 89 c2                    	(move)  	mov	%rax,%rdx
  402306:	48 c1 e2 08                 	(logic) 	sal	$0x8,%rdx
  40230a:	48 01 c2                    	(arith) 	add	%rax,%rdx
  40230d:	48 8d 2c 50                 	(arith) 	lea	(%rax,%rdx,2),%rbp
  402311:	4c 01 f5                    	(arith) 	add	%r14,%rbp
  402314:	bb 00 00 00 00              	(move)  	mov	$0,%ebx
; ------- Loop 8 entry
257 (loop 8):	
/home/jcsalinas/Documents/pruebas/inst_estimation_module/BT/initialize.f:176
  402319:	66 0f ef c0                 	(logic) 	pxor	%xmm0,%xmm0
  40231d:	f2 0f 2a c3                 	(conv)  	cvtsi2sd	%ebx,%xmm0
  402321:	f2 0f 59 05 97 f1 20 00     	(arith) 	mulsd	0x20f197(%rip),%xmm0
  402329:	f2 0f 11 44 24 28           	(move)  	movsd	%xmm0,0x28(%rsp)
/home/jcsalinas/Documents/pruebas/inst_estimation_module/BT/initialize.f:177
  40232f:	48 8d 4c 24 30              	(arith) 	lea	0x30(%rsp),%rcx
  402334:	48 8d 54 24 20              	(arith) 	lea	0x20(%rsp),%rdx
  402339:	48 8d b4 24 50 01 00 00     	(arith) 	lea	0x150(%rsp),%rsi
  402341:	48 8d 7c 24 28              	(arith) 	lea	0x28(%rsp),%rdi
  402346:	b8 00 00 00 00              	(move)  	mov	$0,%eax
  40234b:	e8 e2 00 00 00              	(control)	call	402432 <exact_solution_>	; ⇄ exact_solution
258:	
/home/jcsalinas/Documents/pruebas/inst_estimation_module/BT/initialize.f:179
  402350:	48 63 c3                    	(move)  	movsxd	%ebx,%rax
  402353:	48 8d 14 80                 	(arith) 	lea	(%rax,%rax,4),%rdx
  402357:	48 01 ea                    	(arith) 	add	%rbp,%rdx
  40235a:	b8 00 00 00 00              	(move)  	mov	$0,%eax
; ------- Loop 7 entry
259 (loop 7):	
  40235f:	f2 0f 10 44 04 30           	(move)  	movsd	0x30(%rsp,%rax,1),%xmm0
  402365:	f2 0f 11 84 d0 00 16 61 00  	(move)  	movsd	%xmm0,0x611600(%rax,%rdx,8)
  40236e:	48 83 c0 08                 	(arith) 	add	$0x8,%rax
/home/jcsalinas/Documents/pruebas/inst_estimation_module/BT/initialize.f:178
  402372:	48 83 f8 28                 	(arith) 	cmp	$0x28,%rax
  402376:	75 e7                       	(control)	jne	40235f <initialize_+0x8da>	; ↰ label 259 (loop 7)
; ------- Loop 7 exit
260:	
/home/jcsalinas/Documents/pruebas/inst_estimation_module/BT/initialize.f:175
  402378:	83 c3 01                    	(arith) 	add	$0x1,%ebx
  40237b:	41 39 dc                    	(arith) 	cmp	%ebx,%r12d
  40237e:	75 99                       	(control)	jne	402319 <initialize_+0x894>	; ↰ label 257 (loop 8)
; ------- Loop 8 exit
255:	
/home/jcsalinas/Documents/pruebas/inst_estimation_module/BT/initialize.f:173
  402380:	41 83 c5 01                 	(arith) 	add	$0x1,%r13d
  402384:	45 39 ef                    	(arith) 	cmp	%r13d,%r15d
  402387:	0f 85 46 ff ff ff           	(control)	jne	4022d3 <initialize_+0x84e>	; ↰ label 254 (loop 6)
; ------- Loop 6 exit
252:	
/home/jcsalinas/Documents/pruebas/inst_estimation_module/BT/initialize.f:185
  40238d:	48 81 c4 78 01 00 00        	(arith) 	add	$0x178,%rsp
  402394:	5b                          	(move)  	pop	%rbx
  402395:	5d                          	(move)  	pop	%rbp
  402396:	41 5c                       	(move)  	pop	%r12
  402398:	41 5d                       	(move)  	pop	%r13
  40239a:	41 5e                       	(move)  	pop	%r14
  40239c:	41 5f                       	(move)  	pop	%r15
  40239e:	c3                          	(control)	ret


000000000040239f <lhsinit>:
261 (function lhsinit_):	
/home/jcsalinas/Documents/pruebas/inst_estimation_module/BT/initialize.f:191
  40239f:	48 63 06                    	(move)  	movsxd	(%rsi),%rax
/home/jcsalinas/Documents/pruebas/inst_estimation_module/BT/initialize.f:210
  4023a2:	48 8d 04 80                 	(arith) 	lea	(%rax,%rax,4),%rax
  4023a6:	48 89 c2                    	(move)  	mov	%rax,%rdx
  4023a9:	48 c1 e2 04                 	(logic) 	sal	$0x4,%rdx
  4023ad:	48 29 c2                    	(arith) 	sub	%rax,%rdx
  4023b0:	4c 8d 47 08                 	(arith) 	lea	0x8(%rdi),%r8
  4023b4:	4c 8d 4f 30                 	(arith) 	lea	0x30(%rdi),%r9
/home/jcsalinas/Documents/pruebas/inst_estimation_module/BT/initialize.f:207
  4023b8:	66 0f ef c0                 	(logic) 	pxor	%xmm0,%xmm0
; ------- Loop 33 entry
262 (loop 33):	
  4023bc:	49 8d b0 c8 00 00 00        	(arith) 	lea	0xc8(%r8),%rsi
  4023c3:	4c 89 c0                    	(move)  	mov	%r8,%rax
; ------- Loop 32 entry
263 (loop 32):	
  4023c6:	f2 0f 11 40 f8              	(move)  	movsd	%xmm0,-0x8(%rax)
/home/jcsalinas/Documents/pruebas/inst_estimation_module/BT/initialize.f:208
  4023cb:	f2 0f 11 80 c0 00 00 00     	(move)  	movsd	%xmm0,0xc0(%rax)
/home/jcsalinas/Documents/pruebas/inst_estimation_module/BT/initialize.f:209
  4023d3:	f2 0f 11 80 88 01 00 00     	(move)  	movsd	%xmm0,0x188(%rax)
  4023db:	48 89 d1                    	(move)  	mov	%rdx,%rcx
/home/jcsalinas/Documents/pruebas/inst_estimation_module/BT/initialize.f:210
  4023de:	f2 0f 11 44 d0 f8           	(move)  	movsd	%xmm0,-0x8(%rax,%rdx,8)
/home/jcsalinas/Documents/pruebas/inst_estimation_module/BT/initialize.f:211
  4023e4:	f2 0f 11 84 d0 c0 00 00 00  	(move)  	movsd	%xmm0,0xc0(%rax,%rdx,8)
/home/jcsalinas/Documents/pruebas/inst_estimation_module/BT/initialize.f:212
  4023ed:	f2 0f 11 84 d0 88 01 00 00  	(move)  	movsd	%xmm0,0x188(%rax,%rdx,8)
  4023f6:	48 83 c0 28                 	(arith) 	add	$0x28,%rax
/home/jcsalinas/Documents/pruebas/inst_estimation_module/BT/initialize.f:206
  4023fa:	48 39 c6                    	(arith) 	cmp	%rax,%rsi
  4023fd:	75 c7                       	(control)	jne	4023c6 <lhsinit_+0x27>	; ↰ label 263 (loop 32)
; ------- Loop 32 exit
264:	
  4023ff:	49 83 c0 08                 	(arith) 	add	$0x8,%r8
/home/jcsalinas/Documents/pruebas/inst_estimation_module/BT/initialize.f:205
  402403:	4d 39 c8                    	(arith) 	cmp	%r9,%r8
  402406:	75 b4                       	(control)	jne	4023bc <lhsinit_+0x1d>	; ↰ label 262 (loop 33)
; ------- Loop 33 exit
265:	
  402408:	48 8d 87 c8 00 00 00        	(arith) 	lea	0xc8(%rdi),%rax
  40240f:	48 81 c7 b8 01 00 00        	(arith) 	add	$0x1b8,%rdi
/home/jcsalinas/Documents/pruebas/inst_estimation_module/BT/initialize.f:220
  402416:	f2 0f 10 05 12 ca 00 00     	(move)  	movsd	0xca12(%rip),%xmm0
; ------- Loop 34 entry
266 (loop 34):	
  40241e:	f2 0f 11 00                 	(move)  	movsd	%xmm0,(%rax)
/home/jcsalinas/Documents/pruebas/inst_estimation_module/BT/initialize.f:221
  402422:	f2 0f 11 04 c8              	(move)  	movsd	%xmm0,(%rax,%rcx,8)
  402427:	48 83 c0 30                 	(arith) 	add	$0x30,%rax
/home/jcsalinas/Documents/pruebas/inst_estimation_module/BT/initialize.f:219
  40242b:	48 39 f8                    	(arith) 	cmp	%rdi,%rax
  40242e:	75 ee                       	(control)	jne	40241e <lhsinit_+0x7f>	; ↰ label 266 (loop 34)
; ------- Loop 34 exit
267:	
/home/jcsalinas/Documents/pruebas/inst_estimation_module/BT/initialize.f:225
  402430:	f3 c3                       	(control)	ret


0000000000402432 <exact_solution>:
198 (function exact_solution_):	
/home/jcsalinas/Documents/pruebas/inst_estimation_module/BT/exact_solution.f:4
  402432:	f2 0f 10 2f                 	(move)  	movsd	(%rdi),%xmm5
/home/jcsalinas/Documents/pruebas/inst_estimation_module/BT/exact_solution.f:23
  402436:	f2 0f 10 26                 	(move)  	movsd	(%rsi),%xmm4
  40243a:	f2 0f 10 1a                 	(move)  	movsd	(%rdx),%xmm3
  40243e:	b8 e0 10 61 00              	(move)  	mov	$0x6110e0,%eax
  402443:	ba 08 11 61 00              	(move)  	mov	$0x611108,%edx
; ------- Loop 35 entry
268 (loop 35):	
  402448:	66 0f 28 d5                 	(move)  	movapd	%xmm5,%xmm2
  40244c:	f2 0f 59 90 60 02 00 00     	(arith) 	mulsd	0x260(%rax),%xmm2
  402454:	f2 0f 58 90 e8 01 00 00     	(arith) 	addsd	0x1e8(%rax),%xmm2
  40245c:	f2 0f 59 d5                 	(arith) 	mulsd	%xmm5,%xmm2
  402460:	f2 0f 58 90 70 01 00 00     	(arith) 	addsd	0x170(%rax),%xmm2
  402468:	f2 0f 59 d5                 	(arith) 	mulsd	%xmm5,%xmm2
  40246c:	f2 0f 58 90 f8 00 00 00     	(arith) 	addsd	0xf8(%rax),%xmm2
  402474:	f2 0f 59 d5                 	(arith) 	mulsd	%xmm5,%xmm2
  402478:	66 0f 28 ca                 	(move)  	movapd	%xmm2,%xmm1
  40247c:	f2 0f 58 88 d0 00 00 00     	(arith) 	addsd	0xd0(%rax),%xmm1
  402484:	66 0f 28 d4                 	(move)  	movapd	%xmm4,%xmm2
  402488:	f2 0f 59 90 88 02 00 00     	(arith) 	mulsd	0x288(%rax),%xmm2
  402490:	f2 0f 58 90 10 02 00 00     	(arith) 	addsd	0x210(%rax),%xmm2
  402498:	f2 0f 59 d4                 	(arith) 	mulsd	%xmm4,%xmm2
  40249c:	f2 0f 58 90 98 01 00 00     	(arith) 	addsd	0x198(%rax),%xmm2
  4024a4:	f2 0f 59 d4                 	(arith) 	mulsd	%xmm4,%xmm2
  4024a8:	f2 0f 58 90 20 01 00 00     	(arith) 	addsd	0x120(%rax),%xmm2
  4024b0:	66 0f 28 c2                 	(move)  	movapd	%xmm2,%xmm0
  4024b4:	f2 0f 59 c4                 	(arith) 	mulsd	%xmm4,%xmm0
  4024b8:	f2 0f 58 c8                 	(arith) 	addsd	%xmm0,%xmm1
  4024bc:	66 0f 28 d1                 	(move)  	movapd	%xmm1,%xmm2
  4024c0:	66 0f 28 cb                 	(move)  	movapd	%xmm3,%xmm1
  4024c4:	f2 0f 59 88 b0 02 00 00     	(arith) 	mulsd	0x2b0(%rax),%xmm1
  4024cc:	f2 0f 58 88 38 02 00 00     	(arith) 	addsd	0x238(%rax),%xmm1
  4024d4:	f2 0f 59 cb                 	(arith) 	mulsd	%xmm3,%xmm1
  4024d8:	f2 0f 58 88 c0 01 00 00     	(arith) 	addsd	0x1c0(%rax),%xmm1
  4024e0:	f2 0f 59 cb                 	(arith) 	mulsd	%xmm3,%xmm1
  4024e4:	f2 0f 58 88 48 01 00 00     	(arith) 	addsd	0x148(%rax),%xmm1
  4024ec:	66 0f 28 c1                 	(move)  	movapd	%xmm1,%xmm0
  4024f0:	f2 0f 59 c3                 	(arith) 	mulsd	%xmm3,%xmm0
  4024f4:	f2 0f 58 c2                 	(arith) 	addsd	%xmm2,%xmm0
  4024f8:	f2 0f 11 01                 	(move)  	movsd	%xmm0,(%rcx)
  4024fc:	48 83 c0 08                 	(arith) 	add	$0x8,%rax
  402500:	48 83 c1 08                 	(arith) 	add	$0x8,%rcx
/home/jcsalinas/Documents/pruebas/inst_estimation_module/BT/exact_solution.f:18
  402504:	48 39 d0                    	(arith) 	cmp	%rdx,%rax
  402507:	0f 85 3b ff ff ff           	(control)	jne	402448 <exact_solution_+0x16>	; ↰ label 268 (loop 35)
; ------- Loop 35 exit
269:	
/home/jcsalinas/Documents/pruebas/inst_estimation_module/BT/exact_solution.f:27
  40250d:	f3 c3                       	(control)	ret


000000000040250f <exact_rhs>:
102 (function exact_rhs_):	
/home/jcsalinas/Documents/pruebas/inst_estimation_module/BT/exact_rhs.f:5
  40250f:	41 57                       	(move)  	push	%r15
  402511:	41 56                       	(move)  	push	%r14
  402513:	41 55                       	(move)  	push	%r13
  402515:	41 54                       	(move)  	push	%r12
  402517:	55                          	(move)  	push	%rbp
  402518:	53                          	(move)  	push	%rbx
  402519:	48 81 ec b8 00 00 00        	(arith) 	sub	$0xb8,%rsp
/home/jcsalinas/Documents/pruebas/inst_estimation_module/BT/exact_rhs.f:22
  402520:	44 8b 1d c9 f0 20 00        	(move)  	mov	0x20f0c9(%rip),%r11d
  402527:	44 89 d8                    	(move)  	mov	%r11d,%eax
  40252a:	83 e8 01                    	(arith) 	sub	$0x1,%eax
  40252d:	0f 88 97 00 00 00           	(control)	js	4025ca <exact_rhs_+0xbb>	; ↲ label 270
271:	
/home/jcsalinas/Documents/pruebas/inst_estimation_module/BT/exact_rhs.f:23
  402533:	44 8b 15 b2 f0 20 00        	(move)  	mov	0x20f0b2(%rip),%r10d
  40253a:	45 8d 6a ff                 	(arith) 	lea	-0x1(%r10),%r13d
/home/jcsalinas/Documents/pruebas/inst_estimation_module/BT/exact_rhs.f:24
  40253e:	44 8b 05 a3 f0 20 00        	(move)  	mov	0x20f0a3(%rip),%r8d
  402545:	41 8d 68 ff                 	(arith) 	lea	-0x1(%r8),%ebp
  402549:	bb 00 00 00 00              	(move)  	mov	$0,%ebx
/home/jcsalinas/Documents/pruebas/inst_estimation_module/BT/exact_rhs.f:26
  40254e:	66 0f ef c0                 	(logic) 	pxor	%xmm0,%xmm0
; ------- Loop 70 entry
272 (loop 70):	
/home/jcsalinas/Documents/pruebas/inst_estimation_module/BT/exact_rhs.f:23
  402552:	45 85 ed                    	(arith) 	test	%r13d,%r13d
  402555:	78 6b                       	(control)	js	4025c2 <exact_rhs_+0xb3>	; ↲ label 273
274:	
/home/jcsalinas/Documents/pruebas/inst_estimation_module/BT/exact_rhs.f:26
  402557:	4c 63 e3                    	(move)  	movsxd	%ebx,%r12
  40255a:	4d 69 e4 35 cf 00 00        	(arith) 	imul	$0xcf35,%r12,%r12
  402561:	41 b9 00 00 00 00           	(move)  	mov	$0,%r9d
; ------- Loop 71 entry
275 (loop 71):	
/home/jcsalinas/Documents/pruebas/inst_estimation_module/BT/exact_rhs.f:24
  402567:	85 ed                       	(arith) 	test	%ebp,%ebp
  402569:	78 4e                       	(control)	js	4025b9 <exact_rhs_+0xaa>	; ↲ label 276
277:	
/home/jcsalinas/Documents/pruebas/inst_estimation_module/BT/exact_rhs.f:26
  40256b:	49 63 c1                    	(move)  	movsxd	%r9d,%rax
  40256e:	48 89 c2                    	(move)  	mov	%rax,%rdx
  402571:	48 c1 e2 08                 	(logic) 	sal	$0x8,%rdx
  402575:	48 01 c2                    	(arith) 	add	%rax,%rdx
  402578:	48 8d 3c 50                 	(arith) 	lea	(%rax,%rdx,2),%rdi
  40257c:	4c 01 e7                    	(arith) 	add	%r12,%rdi
  40257f:	be 00 00 00 00              	(move)  	mov	$0,%esi
; ------- Loop 73 entry
278 (loop 73):	
  402584:	48 63 c6                    	(move)  	movsxd	%esi,%rax
  402587:	48 8d 0c 80                 	(arith) 	lea	(%rax,%rax,4),%rcx
  40258b:	48 01 f9                    	(arith) 	add	%rdi,%rcx
  40258e:	48 c1 e1 03                 	(logic) 	sal	$0x3,%rcx
  402592:	b8 00 00 00 00              	(move)  	mov	$0,%eax
; ------- Loop 72 entry
279 (loop 72):	
  402597:	48 8d 90 00 16 61 00        	(arith) 	lea	0x611600(%rax),%rdx
  40259e:	f2 0f 11 84 0a 00 83 41 08  	(move)  	movsd	%xmm0,0x8418300(%rdx,%rcx,1)
  4025a7:	48 83 c0 08                 	(arith) 	add	$0x8,%rax
/home/jcsalinas/Documents/pruebas/inst_estimation_module/BT/exact_rhs.f:25
  4025ab:	48 83 f8 28                 	(arith) 	cmp	$0x28,%rax
  4025af:	75 e6                       	(control)	jne	402597 <exact_rhs_+0x88>	; ↰ label 279 (loop 72)
; ------- Loop 72 exit
280:	
/home/jcsalinas/Documents/pruebas/inst_estimation_module/BT/exact_rhs.f:24
  4025b1:	83 c6 01                    	(arith) 	add	$0x1,%esi
  4025b4:	41 39 f0                    	(arith) 	cmp	%esi,%r8d
  4025b7:	75 cb                       	(control)	jne	402584 <exact_rhs_+0x75>	; ↰ label 278 (loop 73)
; ------- Loop 73 exit
276:	
/home/jcsalinas/Documents/pruebas/inst_estimation_module/BT/exact_rhs.f:23
  4025b9:	41 83 c1 01                 	(arith) 	add	$0x1,%r9d
  4025bd:	45 39 ca                    	(arith) 	cmp	%r9d,%r10d
  4025c0:	75 a5                       	(control)	jne	402567 <exact_rhs_+0x58>	; ↰ label 275 (loop 71)
; ------- Loop 71 exit
273:	
/home/jcsalinas/Documents/pruebas/inst_estimation_module/BT/exact_rhs.f:22
  4025c2:	83 c3 01                    	(arith) 	add	$0x1,%ebx
  4025c5:	41 39 db                    	(arith) 	cmp	%ebx,%r11d
  4025c8:	75 88                       	(control)	jne	402552 <exact_rhs_+0x43>	; ↰ label 272 (loop 70)
; ------- Loop 70 exit
270:	
/home/jcsalinas/Documents/pruebas/inst_estimation_module/BT/exact_rhs.f:35
  4025ca:	41 8d 43 fe                 	(arith) 	lea	-0x2(%r11),%eax
  4025ce:	85 c0                       	(arith) 	test	%eax,%eax
  4025d0:	0f 8e e7 1b 00 00           	(control)	jle	4041bd <exact_rhs_+0x1cae>	; ↲ label 281
282:	
  4025d6:	41 8d 43 ff                 	(arith) 	lea	-0x1(%r11),%eax
  4025da:	89 44 24 48                 	(move)  	mov	%eax,0x48(%rsp)
  4025de:	c7 44 24 44 01 00 00 00     	(move)  	movl	$0x1,0x44(%rsp)
  4025e6:	4c 8d a4 24 a0 00 00 00     	(arith) 	lea	0xa0(%rsp),%r12
; ------- Loop 50 entry
283 (loop 50):	
/home/jcsalinas/Documents/pruebas/inst_estimation_module/BT/exact_rhs.f:36
  4025ee:	8b 5c 24 44                 	(move)  	mov	0x44(%rsp),%ebx
  4025f2:	66 0f ef c0                 	(logic) 	pxor	%xmm0,%xmm0
  4025f6:	f2 0f 2a c3                 	(conv)  	cvtsi2sd	%ebx,%xmm0
  4025fa:	f2 0f 59 05 ce ee 20 00     	(arith) 	mulsd	0x20eece(%rip),%xmm0
  402602:	f2 0f 11 44 24 68           	(move)  	movsd	%xmm0,0x68(%rsp)
/home/jcsalinas/Documents/pruebas/inst_estimation_module/BT/exact_rhs.f:37
  402608:	8b 05 de ef 20 00           	(move)  	mov	0x20efde(%rip),%eax
  40260e:	8d 50 fe                    	(arith) 	lea	-0x2(%rax),%edx
  402611:	85 d2                       	(arith) 	test	%edx,%edx
  402613:	0f 8e 8c 08 00 00           	(control)	jle	402ea5 <exact_rhs_+0x996>	; ↲ label 284
285:	
/home/jcsalinas/Documents/pruebas/inst_estimation_module/BT/exact_rhs.f:68
  402619:	48 63 eb                    	(move)  	movsxd	%ebx,%rbp
  40261c:	48 69 ed 35 cf 00 00        	(arith) 	imul	$0xcf35,%rbp,%rbp
  402623:	83 e8 01                    	(arith) 	sub	$0x1,%eax
  402626:	89 44 24 58                 	(move)  	mov	%eax,0x58(%rsp)
  40262a:	bb 01 00 00 00              	(move)  	mov	$0x1,%ebx
; ------- Loop 63 entry
286 (loop 63):	
/home/jcsalinas/Documents/pruebas/inst_estimation_module/BT/exact_rhs.f:38
  40262f:	66 0f ef c0                 	(logic) 	pxor	%xmm0,%xmm0
  402633:	f2 0f 2a c3                 	(conv)  	cvtsi2sd	%ebx,%xmm0
  402637:	f2 0f 59 05 89 ee 20 00     	(arith) 	mulsd	0x20ee89(%rip),%xmm0
  40263f:	f2 0f 11 44 24 78           	(move)  	movsd	%xmm0,0x78(%rsp)
/home/jcsalinas/Documents/pruebas/inst_estimation_module/BT/exact_rhs.f:40
  402645:	44 8b 35 9c ef 20 00        	(move)  	mov	0x20ef9c(%rip),%r14d
  40264c:	44 89 f0                    	(move)  	mov	%r14d,%eax
  40264f:	83 e8 01                    	(arith) 	sub	$0x1,%eax
  402652:	0f 88 65 01 00 00           	(control)	js	4027bd <exact_rhs_+0x2ae>	; ↲ label 287
288:	
  402658:	41 bd 00 00 00 00           	(move)  	mov	$0,%r13d
; ------- Loop 69 entry
289 (loop 69):	
/home/jcsalinas/Documents/pruebas/inst_estimation_module/BT/exact_rhs.f:41
  40265e:	66 0f ef c0                 	(logic) 	pxor	%xmm0,%xmm0
  402662:	f2 41 0f 2a c5              	(conv)  	cvtsi2sd	%r13d,%xmm0
  402667:	f2 0f 59 05 51 ee 20 00     	(arith) 	mulsd	0x20ee51(%rip),%xmm0
  40266f:	f2 0f 11 44 24 70           	(move)  	movsd	%xmm0,0x70(%rsp)
/home/jcsalinas/Documents/pruebas/inst_estimation_module/BT/exact_rhs.f:43
  402675:	48 8d 8c 24 80 00 00 00     	(arith) 	lea	0x80(%rsp),%rcx
  40267d:	48 8d 54 24 68              	(arith) 	lea	0x68(%rsp),%rdx
  402682:	48 8d 74 24 78              	(arith) 	lea	0x78(%rsp),%rsi
  402687:	48 8d 7c 24 70              	(arith) 	lea	0x70(%rsp),%rdi
  40268c:	b8 00 00 00 00              	(move)  	mov	$0,%eax
  402691:	e8 9c fd ff ff              	(control)	call	402432 <exact_solution_>	; ⇄ exact_solution
290:	
  402696:	48 8d 94 24 80 00 00 00     	(arith) 	lea	0x80(%rsp),%rdx
  40269e:	49 63 c5                    	(move)  	movsxd	%r13d,%rax
  4026a1:	48 8d 34 c5 00 12 37 0b     	(arith) 	lea	0xb371200(,%rax,8),%rsi
  4026a9:	48 89 d0                    	(move)  	mov	%rdx,%rax
  4026ac:	4c 8d 4a 28                 	(arith) 	lea	0x28(%rdx),%r9
  4026b0:	48 89 f1                    	(move)  	mov	%rsi,%rcx
/home/jcsalinas/Documents/pruebas/inst_estimation_module/BT/exact_rhs.f:45
  4026b3:	4d 63 c5                    	(move)  	movsxd	%r13d,%r8
; ------- Loop 67 entry
291 (loop 67):	
  4026b6:	4c 89 c7                    	(move)  	mov	%r8,%rdi
  4026b9:	f2 0f 10 00                 	(move)  	movsd	(%rax),%xmm0
  4026bd:	f2 0f 11 81 70 06 00 00     	(move)  	movsd	%xmm0,0x670(%rcx)
  4026c5:	48 83 c0 08                 	(arith) 	add	$0x8,%rax
  4026c9:	48 81 c1 38 03 00 00        	(arith) 	add	$0x338,%rcx
/home/jcsalinas/Documents/pruebas/inst_estimation_module/BT/exact_rhs.f:44
  4026d0:	4c 39 c8                    	(arith) 	cmp	%r9,%rax
  4026d3:	75 e1                       	(control)	jne	4026b6 <exact_rhs_+0x1a7>	; ↰ label 291 (loop 67)
; ------- Loop 67 exit
292:	
/home/jcsalinas/Documents/pruebas/inst_estimation_module/BT/exact_rhs.f:48
  4026d5:	f2 0f 10 0d 53 c7 00 00     	(move)  	movsd	0xc753(%rip),%xmm1
  4026dd:	f2 0f 5e 8c 24 80 00 00 00  	(arith) 	divsd	0x80(%rsp),%xmm1
; ------- Loop 68 entry
293 (loop 68):	
/home/jcsalinas/Documents/pruebas/inst_estimation_module/BT/exact_rhs.f:51
  4026e6:	66 0f 28 c1                 	(move)  	movapd	%xmm1,%xmm0
  4026ea:	f2 0f 59 42 08              	(arith) 	mulsd	0x8(%rdx),%xmm0
  4026ef:	f2 0f 11 86 c0 19 00 00     	(move)  	movsd	%xmm0,0x19c0(%rsi)
  4026f7:	48 83 c2 08                 	(arith) 	add	$0x8,%rdx
  4026fb:	48 81 c6 38 03 00 00        	(arith) 	add	$0x338,%rsi
/home/jcsalinas/Documents/pruebas/inst_estimation_module/BT/exact_rhs.f:50
  402702:	4c 39 e2                    	(arith) 	cmp	%r12,%rdx
  402705:	75 df                       	(control)	jne	4026e6 <exact_rhs_+0x1d7>	; ↰ label 293 (loop 68)
; ------- Loop 68 exit
294:	
/home/jcsalinas/Documents/pruebas/inst_estimation_module/BT/exact_rhs.f:54
  402707:	48 8d 8f 38 03 00 00        	(arith) 	lea	0x338(%rdi),%rcx
  40270e:	f2 0f 10 04 cd 00 12 37 0b  	(move)  	movsd	0xb371200(,%rcx,8),%xmm0
  402717:	f2 0f 59 c0                 	(arith) 	mulsd	%xmm0,%xmm0
  40271b:	f2 0f 11 04 fd 00 12 37 0b  	(move)  	movsd	%xmm0,0xb371200(,%rdi,8)
/home/jcsalinas/Documents/pruebas/inst_estimation_module/BT/exact_rhs.f:56
  402724:	48 8d 97 9f 03 00 00        	(arith) 	lea	0x39f(%rdi),%rdx
  40272b:	f2 0f 10 14 d5 00 12 37 0b  	(move)  	movsd	0xb371200(,%rdx,8),%xmm2
  402734:	48 8d 87 06 04 00 00        	(arith) 	lea	0x406(%rdi),%rax
  40273b:	f2 0f 10 0c c5 00 12 37 0b  	(move)  	movsd	0xb371200(,%rax,8),%xmm1
  402744:	f2 0f 59 d2                 	(arith) 	mulsd	%xmm2,%xmm2
  402748:	f2 0f 58 c2                 	(arith) 	addsd	%xmm2,%xmm0
  40274c:	f2 0f 59 c9                 	(arith) 	mulsd	%xmm1,%xmm1
  402750:	f2 0f 58 c1                 	(arith) 	addsd	%xmm1,%xmm0
  402754:	f2 0f 11 04 fd 88 28 37 0b  	(move)  	movsd	%xmm0,0xb372888(,%rdi,8)
/home/jcsalinas/Documents/pruebas/inst_estimation_module/BT/exact_rhs.f:58
  40275d:	f2 0f 10 04 cd 00 12 37 0b  	(move)  	movsd	0xb371200(,%rcx,8),%xmm0
  402766:	f2 0f 59 04 fd a8 1b 37 0b  	(arith) 	mulsd	0xb371ba8(,%rdi,8),%xmm0
  40276f:	66 0f 28 c8                 	(move)  	movapd	%xmm0,%xmm1
  402773:	f2 0f 10 04 d5 00 12 37 0b  	(move)  	movsd	0xb371200(,%rdx,8),%xmm0
  40277c:	f2 0f 59 04 fd e0 1e 37 0b  	(arith) 	mulsd	0xb371ee0(,%rdi,8),%xmm0
  402785:	f2 0f 58 c1                 	(arith) 	addsd	%xmm1,%xmm0
  402789:	f2 0f 10 0c c5 00 12 37 0b  	(move)  	movsd	0xb371200(,%rax,8),%xmm1
  402792:	f2 0f 59 0c fd 18 22 37 0b  	(arith) 	mulsd	0xb372218(,%rdi,8),%xmm1
  40279b:	f2 0f 58 c1                 	(arith) 	addsd	%xmm1,%xmm0
  40279f:	f2 0f 59 05 a1 c6 00 00     	(arith) 	mulsd	0xc6a1(%rip),%xmm0
  4027a7:	f2 0f 11 04 fd 38 15 37 0b  	(move)  	movsd	%xmm0,0xb371538(,%rdi,8)
/home/jcsalinas/Documents/pruebas/inst_estimation_module/BT/exact_rhs.f:40
  4027b0:	41 83 c5 01                 	(arith) 	add	$0x1,%r13d
  4027b4:	45 39 ee                    	(arith) 	cmp	%r13d,%r14d
  4027b7:	0f 85 a1 fe ff ff           	(control)	jne	40265e <exact_rhs_+0x14f>	; ↰ label 289 (loop 69)
; ------- Loop 69 exit
287:	
/home/jcsalinas/Documents/pruebas/inst_estimation_module/BT/exact_rhs.f:62
  4027bd:	44 8b 1d 24 ee 20 00        	(move)  	mov	0x20ee24(%rip),%r11d
  4027c4:	45 8d 6b fe                 	(arith) 	lea	-0x2(%r11),%r13d
  4027c8:	45 85 ed                    	(arith) 	test	%r13d,%r13d
  4027cb:	0f 8e 31 04 00 00           	(control)	jle	402c02 <exact_rhs_+0x6f3>	; ↲ label 295
296:	
/home/jcsalinas/Documents/pruebas/inst_estimation_module/BT/exact_rhs.f:5
  4027d1:	f2 0f 10 35 0f e9 20 00     	(move)  	movsd	0x20e90f(%rip),%xmm6
  4027d9:	f2 0f 10 2d 17 ec 20 00     	(move)  	movsd	0x20ec17(%rip),%xmm5
  4027e1:	f2 0f 11 2c 24              	(move)  	movsd	%xmm5,(%rsp)
  4027e6:	f2 44 0f 10 0d 19 ed 20 00  	(move)  	movsd	0x20ed19(%rip),%xmm9
  4027ef:	f2 0f 10 2d d9 eb 20 00     	(move)  	movsd	0x20ebd9(%rip),%xmm5
  4027f7:	f2 0f 11 6c 24 08           	(move)  	movsd	%xmm5,0x8(%rsp)
  4027fd:	f2 0f 10 2d fb eb 20 00     	(move)  	movsd	0x20ebfb(%rip),%xmm5
  402805:	f2 0f 11 6c 24 10           	(move)  	movsd	%xmm5,0x10(%rsp)
  40280b:	f2 44 0f 10 1d c4 eb 20 00  	(move)  	movsd	0x20ebc4(%rip),%xmm11
  402814:	f2 0f 10 2d ec eb 20 00     	(move)  	movsd	0x20ebec(%rip),%xmm5
  40281c:	f2 0f 11 6c 24 18           	(move)  	movsd	%xmm5,0x18(%rsp)
  402822:	f2 0f 10 2d e6 eb 20 00     	(move)  	movsd	0x20ebe6(%rip),%xmm5
  40282a:	f2 0f 11 6c 24 20           	(move)  	movsd	%xmm5,0x20(%rsp)
  402830:	f2 44 0f 10 15 c7 ec 20 00  	(move)  	movsd	0x20ecc7(%rip),%xmm10
/home/jcsalinas/Documents/pruebas/inst_estimation_module/BT/exact_rhs.f:93
  402839:	f2 44 0f 10 25 06 c6 00 00  	(move)  	movsd	0xc606(%rip),%xmm12
  402842:	f2 44 0f 59 25 95 eb 20 00  	(arith) 	mulsd	0x20eb95(%rip),%xmm12
/home/jcsalinas/Documents/pruebas/inst_estimation_module/BT/exact_rhs.f:5
  40284b:	f2 0f 10 2d 95 eb 20 00     	(move)  	movsd	0x20eb95(%rip),%xmm5
  402853:	f2 0f 11 6c 24 28           	(move)  	movsd	%xmm5,0x28(%rsp)
  402859:	f2 0f 10 2d 8f eb 20 00     	(move)  	movsd	0x20eb8f(%rip),%xmm5
  402861:	f2 0f 11 6c 24 30           	(move)  	movsd	%xmm5,0x30(%rsp)
  402867:	f2 0f 10 2d a9 eb 20 00     	(move)  	movsd	0x20eba9(%rip),%xmm5
  40286f:	f2 0f 11 6c 24 38           	(move)  	movsd	%xmm5,0x38(%rsp)
  402875:	48 63 c3                    	(move)  	movsxd	%ebx,%rax
  402878:	48 89 c2                    	(move)  	mov	%rax,%rdx
  40287b:	48 c1 e2 08                 	(logic) 	sal	$0x8,%rdx
  40287f:	48 01 c2                    	(arith) 	add	%rax,%rdx
  402882:	48 8d 04 50                 	(arith) 	lea	(%rax,%rdx,2),%rax
  402886:	48 01 e8                    	(arith) 	add	%rbp,%rax
  402889:	48 8d 14 c5 00 16 61 00     	(arith) 	lea	0x611600(,%rax,8),%rdx
  402891:	b8 00 12 37 0b              	(move)  	mov	$0xb371200,%eax
  402896:	41 8d 73 ff                 	(arith) 	lea	-0x1(%r11),%esi
  40289a:	b9 01 00 00 00              	(move)  	mov	$0x1,%ecx
; ------- Loop 66 entry
297 (loop 66):	
/home/jcsalinas/Documents/pruebas/inst_estimation_module/BT/exact_rhs.f:64
  40289f:	83 c1 01                    	(arith) 	add	$0x1,%ecx
/home/jcsalinas/Documents/pruebas/inst_estimation_module/BT/exact_rhs.f:68
  4028a2:	f2 44 0f 10 a8 b8 09 00 00  	(move)  	movsd	0x9b8(%rax),%xmm13
  4028ab:	f2 0f 10 88 a8 09 00 00     	(move)  	movsd	0x9a8(%rax),%xmm1
  4028b3:	f2 0f 10 90 78 06 00 00     	(move)  	movsd	0x678(%rax),%xmm2
  4028bb:	f2 0f 58 d2                 	(arith) 	addsd	%xmm2,%xmm2
  4028bf:	f2 0f 10 80 80 06 00 00     	(move)  	movsd	0x680(%rax),%xmm0
  4028c7:	f2 0f 5c c2                 	(arith) 	subsd	%xmm2,%xmm0
  4028cb:	f2 0f 58 80 70 06 00 00     	(arith) 	addsd	0x670(%rax),%xmm0
  4028d3:	f2 0f 59 04 24              	(arith) 	mulsd	(%rsp),%xmm0
  4028d8:	66 41 0f 28 dd              	(move)  	movapd	%xmm13,%xmm3
  4028dd:	f2 0f 5c d9                 	(arith) 	subsd	%xmm1,%xmm3
  4028e1:	f2 0f 59 de                 	(arith) 	mulsd	%xmm6,%xmm3
  4028e5:	f2 0f 10 92 28 83 41 08     	(move)  	movsd	0x8418328(%rdx),%xmm2
  4028ed:	f2 0f 5c d3                 	(arith) 	subsd	%xmm3,%xmm2
  4028f1:	f2 0f 58 d0                 	(arith) 	addsd	%xmm0,%xmm2
  4028f5:	f2 0f 11 92 28 83 41 08     	(move)  	movsd	%xmm2,0x8418328(%rdx)
/home/jcsalinas/Documents/pruebas/inst_estimation_module/BT/exact_rhs.f:74
  4028fd:	f2 0f 10 a8 d0 19 00 00     	(move)  	movsd	0x19d0(%rax),%xmm5
  402905:	f2 0f 10 a0 60 13 00 00     	(move)  	movsd	0x1360(%rax),%xmm4
  40290d:	f2 44 0f 10 80 48 03 00 00  	(move)  	movsd	0x348(%rax),%xmm8
  402916:	f2 0f 10 90 c0 19 00 00     	(move)  	movsd	0x19c0(%rax),%xmm2
  40291e:	f2 0f 10 80 50 13 00 00     	(move)  	movsd	0x1350(%rax),%xmm0
  402926:	f2 0f 10 b8 38 03 00 00     	(move)  	movsd	0x338(%rax),%xmm7
  40292e:	66 0f 28 dc                 	(move)  	movapd	%xmm4,%xmm3
  402932:	f2 41 0f 5c d8              	(arith) 	subsd	%xmm8,%xmm3
  402937:	f2 41 0f 59 d9              	(arith) 	mulsd	%xmm9,%xmm3
  40293c:	66 45 0f 28 f5              	(move)  	movapd	%xmm13,%xmm14
  402941:	f2 44 0f 59 f5              	(arith) 	mulsd	%xmm5,%xmm14
  402946:	f2 41 0f 58 de              	(arith) 	addsd	%xmm14,%xmm3
  40294b:	66 44 0f 28 f8              	(move)  	movapd	%xmm0,%xmm15
  402950:	f2 44 0f 5c ff              	(arith) 	subsd	%xmm7,%xmm15
  402955:	f2 45 0f 59 f9              	(arith) 	mulsd	%xmm9,%xmm15
  40295a:	66 44 0f 28 f1              	(move)  	movapd	%xmm1,%xmm14
  40295f:	f2 44 0f 59 f2              	(arith) 	mulsd	%xmm2,%xmm14
  402964:	f2 45 0f 58 f7              	(arith) 	addsd	%xmm15,%xmm14
  402969:	f2 41 0f 5c de              	(arith) 	subsd	%xmm14,%xmm3
  40296e:	f2 0f 59 de                 	(arith) 	mulsd	%xmm6,%xmm3
  402972:	66 44 0f 28 fb              	(move)  	movapd	%xmm3,%xmm15
  402977:	f2 0f 10 9a 30 83 41 08     	(move)  	movsd	0x8418330(%rdx),%xmm3
  40297f:	f2 41 0f 5c df              	(arith) 	subsd	%xmm15,%xmm3
  402984:	66 44 0f 28 f3              	(move)  	movapd	%xmm3,%xmm14
  402989:	f2 0f 10 98 c8 19 00 00     	(move)  	movsd	0x19c8(%rax),%xmm3
  402991:	f2 0f 58 db                 	(arith) 	addsd	%xmm3,%xmm3
  402995:	66 44 0f 28 fd              	(move)  	movapd	%xmm5,%xmm15
  40299a:	f2 44 0f 5c fb              	(arith) 	subsd	%xmm3,%xmm15
  40299f:	66 41 0f 28 df              	(move)  	movapd	%xmm15,%xmm3
  4029a4:	f2 0f 58 da                 	(arith) 	addsd	%xmm2,%xmm3
  4029a8:	f2 0f 59 5c 24 08           	(arith) 	mulsd	0x8(%rsp),%xmm3
  4029ae:	f2 41 0f 58 de              	(arith) 	addsd	%xmm14,%xmm3
  4029b3:	f2 44 0f 10 b0 b0 09 00 00  	(move)  	movsd	0x9b0(%rax),%xmm14
  4029bc:	f2 45 0f 58 f6              	(arith) 	addsd	%xmm14,%xmm14
  4029c1:	f2 45 0f 5c ee              	(arith) 	subsd	%xmm14,%xmm13
  4029c6:	f2 44 0f 58 e9              	(arith) 	addsd	%xmm1,%xmm13
  4029cb:	f2 44 0f 59 6c 24 10        	(arith) 	mulsd	0x10(%rsp),%xmm13
  4029d2:	f2 44 0f 58 eb              	(arith) 	addsd	%xmm3,%xmm13
  4029d7:	f2 44 0f 11 aa 30 83 41 08  	(move)  	movsd	%xmm13,0x8418330(%rdx)
/home/jcsalinas/Documents/pruebas/inst_estimation_module/BT/exact_rhs.f:79
  4029e0:	f2 44 0f 10 b8 f0 0c 00 00  	(move)  	movsd	0xcf0(%rax),%xmm15
  4029e9:	f2 0f 10 88 e0 0c 00 00     	(move)  	movsd	0xce0(%rax),%xmm1
  4029f1:	f2 44 0f 10 a8 00 1d 00 00  	(move)  	movsd	0x1d00(%rax),%xmm13
  4029fa:	f2 45 0f 58 ed              	(arith) 	addsd	%xmm13,%xmm13
  4029ff:	f2 0f 10 98 08 1d 00 00     	(move)  	movsd	0x1d08(%rax),%xmm3
  402a07:	f2 41 0f 5c dd              	(arith) 	subsd	%xmm13,%xmm3
  402a0c:	f2 0f 58 98 f8 1c 00 00     	(arith) 	addsd	0x1cf8(%rax),%xmm3
  402a14:	f2 41 0f 59 db              	(arith) 	mulsd	%xmm11,%xmm3
  402a19:	66 44 0f 28 f5              	(move)  	movapd	%xmm5,%xmm14
  402a1e:	f2 45 0f 59 f7              	(arith) 	mulsd	%xmm15,%xmm14
  402a23:	66 44 0f 28 ea              	(move)  	movapd	%xmm2,%xmm13
  402a28:	f2 44 0f 59 e9              	(arith) 	mulsd	%xmm1,%xmm13
  402a2d:	f2 45 0f 5c f5              	(arith) 	subsd	%xmm13,%xmm14
  402a32:	f2 44 0f 59 f6              	(arith) 	mulsd	%xmm6,%xmm14
  402a37:	f2 44 0f 10 aa 38 83 41 08  	(move)  	movsd	0x8418338(%rdx),%xmm13
  402a40:	f2 45 0f 5c ee              	(arith) 	subsd	%xmm14,%xmm13
  402a45:	f2 41 0f 58 dd              	(arith) 	addsd	%xmm13,%xmm3
  402a4a:	f2 44 0f 10 a8 e8 0c 00 00  	(move)  	movsd	0xce8(%rax),%xmm13
  402a53:	f2 45 0f 58 ed              	(arith) 	addsd	%xmm13,%xmm13
  402a58:	f2 45 0f 5c fd              	(arith) 	subsd	%xmm13,%xmm15
  402a5d:	f2 44 0f 58 f9              	(arith) 	addsd	%xmm1,%xmm15
  402a62:	f2 44 0f 59 7c 24 18        	(arith) 	mulsd	0x18(%rsp),%xmm15
  402a69:	f2 41 0f 58 df              	(arith) 	addsd	%xmm15,%xmm3
  402a6e:	f2 0f 11 9a 38 83 41 08     	(move)  	movsd	%xmm3,0x8418338(%rdx)
/home/jcsalinas/Documents/pruebas/inst_estimation_module/BT/exact_rhs.f:84
  402a76:	f2 44 0f 10 b8 28 10 00 00  	(move)  	movsd	0x1028(%rax),%xmm15
  402a7f:	f2 0f 10 88 18 10 00 00     	(move)  	movsd	0x1018(%rax),%xmm1
  402a87:	f2 44 0f 10 a8 38 20 00 00  	(move)  	movsd	0x2038(%rax),%xmm13
  402a90:	f2 45 0f 58 ed              	(arith) 	addsd	%xmm13,%xmm13
  402a95:	f2 0f 10 98 40 20 00 00     	(move)  	movsd	0x2040(%rax),%xmm3
  402a9d:	f2 41 0f 5c dd              	(arith) 	subsd	%xmm13,%xmm3
  402aa2:	f2 0f 58 98 30 20 00 00     	(arith) 	addsd	0x2030(%rax),%xmm3
  402aaa:	f2 41 0f 59 db              	(arith) 	mulsd	%xmm11,%xmm3
  402aaf:	66 44 0f 28 f5              	(move)  	movapd	%xmm5,%xmm14
  402ab4:	f2 45 0f 59 f7              	(arith) 	mulsd	%xmm15,%xmm14
  402ab9:	66 44 0f 28 ea              	(move)  	movapd	%xmm2,%xmm13
  402abe:	f2 44 0f 59 e9              	(arith) 	mulsd	%xmm1,%xmm13
  402ac3:	f2 45 0f 5c f5              	(arith) 	subsd	%xmm13,%xmm14
  402ac8:	f2 44 0f 59 f6              	(arith) 	mulsd	%xmm6,%xmm14
  402acd:	f2 44 0f 10 aa 40 83 41 08  	(move)  	movsd	0x8418340(%rdx),%xmm13
  402ad6:	f2 45 0f 5c ee              	(arith) 	subsd	%xmm14,%xmm13
  402adb:	f2 41 0f 58 dd              	(arith) 	addsd	%xmm13,%xmm3
  402ae0:	f2 44 0f 10 a8 20 10 00 00  	(move)  	movsd	0x1020(%rax),%xmm13
  402ae9:	f2 45 0f 58 ed              	(arith) 	addsd	%xmm13,%xmm13
  402aee:	f2 45 0f 5c fd              	(arith) 	subsd	%xmm13,%xmm15
  402af3:	f2 44 0f 58 f9              	(arith) 	addsd	%xmm1,%xmm15
  402af8:	f2 44 0f 59 7c 24 20        	(arith) 	mulsd	0x20(%rsp),%xmm15
  402aff:	f2 41 0f 58 df              	(arith) 	addsd	%xmm15,%xmm3
  402b04:	f2 0f 11 9a 40 83 41 08     	(move)  	movsd	%xmm3,0x8418340(%rdx)
/home/jcsalinas/Documents/pruebas/inst_estimation_module/BT/exact_rhs.f:93
  402b0c:	66 0f 28 cc                 	(move)  	movapd	%xmm4,%xmm1
  402b10:	f2 41 0f 59 ca              	(arith) 	mulsd	%xmm10,%xmm1
  402b15:	f2 45 0f 59 c1              	(arith) 	mulsd	%xmm9,%xmm8
  402b1a:	f2 41 0f 5c c8              	(arith) 	subsd	%xmm8,%xmm1
  402b1f:	f2 0f 59 e9                 	(arith) 	mulsd	%xmm1,%xmm5
  402b23:	66 0f 28 c8                 	(move)  	movapd	%xmm0,%xmm1
  402b27:	f2 41 0f 59 ca              	(arith) 	mulsd	%xmm10,%xmm1
  402b2c:	f2 41 0f 59 f9              	(arith) 	mulsd	%xmm9,%xmm7
  402b31:	f2 0f 5c cf                 	(arith) 	subsd	%xmm7,%xmm1
  402b35:	f2 0f 59 ca                 	(arith) 	mulsd	%xmm2,%xmm1
  402b39:	f2 0f 5c e9                 	(arith) 	subsd	%xmm1,%xmm5
  402b3d:	f2 0f 59 ee                 	(arith) 	mulsd	%xmm6,%xmm5
  402b41:	f2 0f 10 8a 48 83 41 08     	(move)  	movsd	0x8418348(%rdx),%xmm1
  402b49:	66 0f 28 f9                 	(move)  	movapd	%xmm1,%xmm7
  402b4d:	f2 0f 5c fd                 	(arith) 	subsd	%xmm5,%xmm7
  402b51:	f2 0f 10 a8 90 16 00 00     	(move)  	movsd	0x1690(%rax),%xmm5
  402b59:	f2 0f 58 ed                 	(arith) 	addsd	%xmm5,%xmm5
  402b5d:	f2 0f 10 98 98 16 00 00     	(move)  	movsd	0x1698(%rax),%xmm3
  402b65:	66 0f 28 d3                 	(move)  	movapd	%xmm3,%xmm2
  402b69:	f2 0f 5c d5                 	(arith) 	subsd	%xmm5,%xmm2
  402b6d:	f2 0f 58 90 88 16 00 00     	(arith) 	addsd	0x1688(%rax),%xmm2
  402b75:	f2 41 0f 59 d4              	(arith) 	mulsd	%xmm12,%xmm2
  402b7a:	f2 0f 58 fa                 	(arith) 	addsd	%xmm2,%xmm7
  402b7e:	f2 0f 10 50 08              	(move)  	movsd	0x8(%rax),%xmm2
  402b83:	f2 0f 58 d2                 	(arith) 	addsd	%xmm2,%xmm2
  402b87:	f2 0f 10 58 10              	(move)  	movsd	0x10(%rax),%xmm3
  402b8c:	f2 0f 5c da                 	(arith) 	subsd	%xmm2,%xmm3
  402b90:	66 0f 28 d3                 	(move)  	movapd	%xmm3,%xmm2
  402b94:	f2 0f 58 10                 	(arith) 	addsd	(%rax),%xmm2
  402b98:	f2 0f 59 54 24 28           	(arith) 	mulsd	0x28(%rsp),%xmm2
  402b9e:	f2 0f 58 d7                 	(arith) 	addsd	%xmm7,%xmm2
  402ba2:	f2 0f 10 98 70 23 00 00     	(move)  	movsd	0x2370(%rax),%xmm3
  402baa:	f2 0f 58 db                 	(arith) 	addsd	%xmm3,%xmm3
  402bae:	f2 0f 10 88 78 23 00 00     	(move)  	movsd	0x2378(%rax),%xmm1
  402bb6:	f2 0f 5c cb                 	(arith) 	subsd	%xmm3,%xmm1
  402bba:	f2 0f 58 88 68 23 00 00     	(arith) 	addsd	0x2368(%rax),%xmm1
  402bc2:	f2 0f 59 4c 24 30           	(arith) 	mulsd	0x30(%rsp),%xmm1
  402bc8:	f2 0f 58 d1                 	(arith) 	addsd	%xmm1,%xmm2
  402bcc:	f2 0f 10 88 58 13 00 00     	(move)  	movsd	0x1358(%rax),%xmm1
  402bd4:	f2 0f 58 c9                 	(arith) 	addsd	%xmm1,%xmm1
  402bd8:	f2 0f 5c e1                 	(arith) 	subsd	%xmm1,%xmm4
  402bdc:	f2 0f 58 c4                 	(arith) 	addsd	%xmm4,%xmm0
  402be0:	f2 0f 59 44 24 38           	(arith) 	mulsd	0x38(%rsp),%xmm0
  402be6:	f2 0f 58 d0                 	(arith) 	addsd	%xmm0,%xmm2
  402bea:	f2 0f 11 92 48 83 41 08     	(move)  	movsd	%xmm2,0x8418348(%rdx)
  402bf2:	48 83 c2 28                 	(arith) 	add	$0x28,%rdx
  402bf6:	48 83 c0 08                 	(arith) 	add	$0x8,%rax
/home/jcsalinas/Documents/pruebas/inst_estimation_module/BT/exact_rhs.f:62
  402bfa:	39 f1                       	(arith) 	cmp	%esi,%ecx
  402bfc:	0f 85 9d fc ff ff           	(control)	jne	40289f <exact_rhs_+0x390>	; ↰ label 297 (loop 66)
; ------- Loop 66 exit
295:	
/home/jcsalinas/Documents/pruebas/inst_estimation_module/BT/exact_rhs.f:103
  402c02:	48 63 c3                    	(move)  	movsxd	%ebx,%rax
  402c05:	48 89 c2                    	(move)  	mov	%rax,%rdx
  402c08:	48 c1 e2 08                 	(logic) 	sal	$0x8,%rdx
  402c0c:	48 01 c2                    	(arith) 	add	%rax,%rdx
  402c0f:	4c 8d 3c 50                 	(arith) 	lea	(%rax,%rdx,2),%r15
  402c13:	49 01 ef                    	(arith) 	add	%rbp,%r15
/home/jcsalinas/Documents/pruebas/inst_estimation_module/BT/exact_rhs.f:5
  402c16:	f2 0f 10 1d 82 e5 20 00     	(move)  	movsd	0x20e582(%rip),%xmm3
  402c1e:	4a 8d 14 fd 00 16 61 00     	(arith) 	lea	0x611600(,%r15,8),%rdx
  402c26:	b8 00 12 37 0b              	(move)  	mov	$0xb371200,%eax
  402c2b:	b9 18 22 37 0b              	(move)  	mov	$0xb372218,%ecx
/home/jcsalinas/Documents/pruebas/inst_estimation_module/BT/exact_rhs.f:103
  402c30:	f2 0f 10 35 18 c2 00 00     	(move)  	movsd	0xc218(%rip),%xmm6
  402c38:	f2 0f 10 25 18 c2 00 00     	(move)  	movsd	0xc218(%rip),%xmm4
/home/jcsalinas/Documents/pruebas/inst_estimation_module/BT/exact_rhs.f:107
  402c40:	f2 0f 10 2d 18 c2 00 00     	(move)  	movsd	0xc218(%rip),%xmm5
; ------- Loop 61 entry
298 (loop 61):	
/home/jcsalinas/Documents/pruebas/inst_estimation_module/BT/exact_rhs.f:103
  402c48:	f2 0f 10 b8 78 06 00 00     	(move)  	movsd	0x678(%rax),%xmm7
  402c50:	f2 0f 10 80 80 06 00 00     	(move)  	movsd	0x680(%rax),%xmm0
  402c58:	f2 0f 10 90 88 06 00 00     	(move)  	movsd	0x688(%rax),%xmm2
  402c60:	66 0f 28 cf                 	(move)  	movapd	%xmm7,%xmm1
  402c64:	f2 0f 59 ce                 	(arith) 	mulsd	%xmm6,%xmm1
  402c68:	66 44 0f 28 c0              	(move)  	movapd	%xmm0,%xmm8
  402c6d:	f2 44 0f 59 c4              	(arith) 	mulsd	%xmm4,%xmm8
  402c72:	f2 41 0f 5c c8              	(arith) 	subsd	%xmm8,%xmm1
  402c77:	f2 0f 58 ca                 	(arith) 	addsd	%xmm2,%xmm1
  402c7b:	f2 0f 59 cb                 	(arith) 	mulsd	%xmm3,%xmm1
  402c7f:	f2 44 0f 10 82 28 83 41 08  	(move)  	movsd	0x8418328(%rdx),%xmm8
  402c88:	f2 44 0f 5c c1              	(arith) 	subsd	%xmm1,%xmm8
  402c8d:	f2 44 0f 11 82 28 83 41 08  	(move)  	movsd	%xmm8,0x8418328(%rdx)
/home/jcsalinas/Documents/pruebas/inst_estimation_module/BT/exact_rhs.f:107
  402c96:	f2 0f 59 c5                 	(arith) 	mulsd	%xmm5,%xmm0
  402c9a:	f2 0f 59 fc                 	(arith) 	mulsd	%xmm4,%xmm7
  402c9e:	f2 0f 5c c7                 	(arith) 	subsd	%xmm7,%xmm0
  402ca2:	f2 0f 59 d4                 	(arith) 	mulsd	%xmm4,%xmm2
  402ca6:	f2 0f 5c c2                 	(arith) 	subsd	%xmm2,%xmm0
  402caa:	f2 0f 58 80 90 06 00 00     	(arith) 	addsd	0x690(%rax),%xmm0
  402cb2:	f2 0f 59 c3                 	(arith) 	mulsd	%xmm3,%xmm0
  402cb6:	f2 0f 10 8a 50 83 41 08     	(move)  	movsd	0x8418350(%rdx),%xmm1
  402cbe:	f2 0f 5c c8                 	(arith) 	subsd	%xmm0,%xmm1
  402cc2:	f2 0f 11 8a 50 83 41 08     	(move)  	movsd	%xmm1,0x8418350(%rdx)
  402cca:	48 83 c2 08                 	(arith) 	add	$0x8,%rdx
  402cce:	48 05 38 03 00 00           	(arith) 	add	$0x338,%rax
/home/jcsalinas/Documents/pruebas/inst_estimation_module/BT/exact_rhs.f:100
  402cd4:	48 39 c1                    	(arith) 	cmp	%rax,%rcx
  402cd7:	0f 85 6b ff ff ff           	(control)	jne	402c48 <exact_rhs_+0x739>	; ↰ label 298 (loop 61)
; ------- Loop 61 exit
299:	
/home/jcsalinas/Documents/pruebas/inst_estimation_module/BT/exact_rhs.f:110
  402cdd:	45 8d 73 fc                 	(arith) 	lea	-0x4(%r11),%r14d
  402ce1:	41 83 fe 02                 	(arith) 	cmp	$0x2,%r14d
  402ce5:	0f 8e bb 00 00 00           	(control)	jle	402da6 <exact_rhs_+0x897>	; ↲ label 300
301:	
  402ceb:	4e 8d 0c fd 78 16 61 00     	(arith) 	lea	0x611678(,%r15,8),%r9
  402cf3:	41 b8 18 12 37 0b           	(move)  	mov	$0xb371218,%r8d
  402cf9:	41 8d 43 f9                 	(arith) 	lea	-0x7(%r11),%eax
  402cfd:	4c 8d 14 c5 20 12 37 0b     	(arith) 	lea	0xb371220(,%rax,8),%r10
  402d05:	b9 03 00 00 00              	(move)  	mov	$0x3,%ecx
/home/jcsalinas/Documents/pruebas/inst_estimation_module/BT/exact_rhs.f:114
  402d0a:	f2 0f 10 15 46 c1 00 00     	(move)  	movsd	0xc146(%rip),%xmm2
  402d12:	f2 0f 10 25 46 c1 00 00     	(move)  	movsd	0xc146(%rip),%xmm4
; ------- Loop 65 entry
302 (loop 65):	
  402d1a:	49 8d b8 18 10 00 00        	(arith) 	lea	0x1018(%r8),%rdi
  402d21:	4c 89 c0                    	(move)  	mov	%r8,%rax
  402d24:	4c 89 ca                    	(move)  	mov	%r9,%rdx
; ------- Loop 64 entry
303 (loop 64):	
  402d27:	48 8d 71 01                 	(arith) 	lea	0x1(%rcx),%rsi
  402d2b:	66 0f 28 ca                 	(move)  	movapd	%xmm2,%xmm1
  402d2f:	f2 0f 59 88 68 06 00 00     	(arith) 	mulsd	0x668(%rax),%xmm1
  402d37:	f2 0f 10 80 60 06 00 00     	(move)  	movsd	0x660(%rax),%xmm0
  402d3f:	f2 0f 5c c1                 	(arith) 	subsd	%xmm1,%xmm0
  402d43:	66 0f 28 cc                 	(move)  	movapd	%xmm4,%xmm1
  402d47:	f2 0f 59 88 70 06 00 00     	(arith) 	mulsd	0x670(%rax),%xmm1
  402d4f:	f2 0f 58 c1                 	(arith) 	addsd	%xmm1,%xmm0
  402d53:	66 0f 28 ca                 	(move)  	movapd	%xmm2,%xmm1
  402d57:	f2 0f 59 88 78 06 00 00     	(arith) 	mulsd	0x678(%rax),%xmm1
  402d5f:	f2 0f 5c c1                 	(arith) 	subsd	%xmm1,%xmm0
  402d63:	f2 0f 58 80 80 06 00 00     	(arith) 	addsd	0x680(%rax),%xmm0
  402d6b:	f2 0f 59 c3                 	(arith) 	mulsd	%xmm3,%xmm0
  402d6f:	f2 0f 10 8a 00 83 41 08     	(move)  	movsd	0x8418300(%rdx),%xmm1
  402d77:	f2 0f 5c c8                 	(arith) 	subsd	%xmm0,%xmm1
  402d7b:	f2 0f 11 8a 00 83 41 08     	(move)  	movsd	%xmm1,0x8418300(%rdx)
  402d83:	48 83 c2 08                 	(arith) 	add	$0x8,%rdx
  402d87:	48 05 38 03 00 00           	(arith) 	add	$0x338,%rax
/home/jcsalinas/Documents/pruebas/inst_estimation_module/BT/exact_rhs.f:111
  402d8d:	48 39 f8                    	(arith) 	cmp	%rdi,%rax
  402d90:	75 95                       	(control)	jne	402d27 <exact_rhs_+0x818>	; ↰ label 303 (loop 64)
; ------- Loop 64 exit
304:	
  402d92:	49 83 c1 28                 	(arith) 	add	$0x28,%r9
  402d96:	49 83 c0 08                 	(arith) 	add	$0x8,%r8
  402d9a:	48 89 f1                    	(move)  	mov	%rsi,%rcx
/home/jcsalinas/Documents/pruebas/inst_estimation_module/BT/exact_rhs.f:110
  402d9d:	4d 39 d0                    	(arith) 	cmp	%r10,%r8
  402da0:	0f 85 74 ff ff ff           	(control)	jne	402d1a <exact_rhs_+0x80b>	; ↰ label 302 (loop 65)
; ------- Loop 65 exit
300:	
/home/jcsalinas/Documents/pruebas/inst_estimation_module/BT/exact_rhs.f:119
  402da6:	41 8d 7b fd                 	(arith) 	lea	-0x3(%r11),%edi
/home/jcsalinas/Documents/pruebas/inst_estimation_module/BT/exact_rhs.f:122
  402daa:	48 63 c7                    	(move)  	movsxd	%edi,%rax
  402dad:	48 8d 04 80                 	(arith) 	lea	(%rax,%rax,4),%rax
  402db1:	49 8d 34 07                 	(arith) 	lea	(%r15,%rax,1),%rsi
  402db5:	49 8d 4c 07 05              	(arith) 	lea	0x5(%r15,%rax,1),%rcx
  402dba:	48 8d 14 cd 00 16 61 00     	(arith) 	lea	0x611600(,%rcx,8),%rdx
/home/jcsalinas/Documents/pruebas/inst_estimation_module/BT/exact_rhs.f:125
  402dc2:	b8 00 00 00 00              	(move)  	mov	$0,%eax
  402dc7:	48 29 ce                    	(arith) 	sub	%rcx,%rsi
/home/jcsalinas/Documents/pruebas/inst_estimation_module/BT/exact_rhs.f:122
  402dca:	4d 63 f6                    	(move)  	movsxd	%r14d,%r14
  402dcd:	48 63 ff                    	(move)  	movsxd	%edi,%rdi
  402dd0:	4d 63 ed                    	(move)  	movsxd	%r13d,%r13
  402dd3:	41 8d 4b fb                 	(arith) 	lea	-0x5(%r11),%ecx
  402dd7:	48 63 c9                    	(move)  	movsxd	%ecx,%rcx
  402dda:	f2 0f 10 2d 76 c0 00 00     	(move)  	movsd	0xc076(%rip),%xmm5
  402de2:	f2 0f 10 3d 76 c0 00 00     	(move)  	movsd	0xc076(%rip),%xmm7
/home/jcsalinas/Documents/pruebas/inst_estimation_module/BT/exact_rhs.f:125
  402dea:	f2 0f 10 35 5e c0 00 00     	(move)  	movsd	0xc05e(%rip),%xmm6
; ------- Loop 62 entry
305 (loop 62):	
/home/jcsalinas/Documents/pruebas/inst_estimation_module/BT/exact_rhs.f:122
  402df2:	f2 42 0f 10 a4 f0 70 18 37 0b	(move)  	movsd	0xb371870(%rax,%r14,8),%xmm4
  402dfc:	f2 44 0f 10 84 f8 70 18 37 0b	(move)  	movsd	0xb371870(%rax,%rdi,8),%xmm8
  402e06:	f2 42 0f 10 84 e8 70 18 37 0b	(move)  	movsd	0xb371870(%rax,%r13,8),%xmm0
  402e10:	66 0f 28 d4                 	(move)  	movapd	%xmm4,%xmm2
  402e14:	f2 0f 59 d5                 	(arith) 	mulsd	%xmm5,%xmm2
  402e18:	f2 0f 10 8c c8 70 18 37 0b  	(move)  	movsd	0xb371870(%rax,%rcx,8),%xmm1
  402e21:	f2 0f 5c ca                 	(arith) 	subsd	%xmm2,%xmm1
  402e25:	66 41 0f 28 d0              	(move)  	movapd	%xmm8,%xmm2
  402e2a:	f2 0f 59 d7                 	(arith) 	mulsd	%xmm7,%xmm2
  402e2e:	f2 0f 58 ca                 	(arith) 	addsd	%xmm2,%xmm1
  402e32:	66 0f 28 d0                 	(move)  	movapd	%xmm0,%xmm2
  402e36:	f2 0f 59 d5                 	(arith) 	mulsd	%xmm5,%xmm2
  402e3a:	f2 0f 5c ca                 	(arith) 	subsd	%xmm2,%xmm1
  402e3e:	f2 0f 59 cb                 	(arith) 	mulsd	%xmm3,%xmm1
  402e42:	f2 0f 10 94 f2 00 83 41 08  	(move)  	movsd	0x8418300(%rdx,%rsi,8),%xmm2
  402e4b:	f2 0f 5c d1                 	(arith) 	subsd	%xmm1,%xmm2
  402e4f:	f2 0f 11 94 f2 00 83 41 08  	(move)  	movsd	%xmm2,0x8418300(%rdx,%rsi,8)
/home/jcsalinas/Documents/pruebas/inst_estimation_module/BT/exact_rhs.f:125
  402e58:	f2 44 0f 59 c5              	(arith) 	mulsd	%xmm5,%xmm8
  402e5d:	f2 41 0f 5c e0              	(arith) 	subsd	%xmm8,%xmm4
  402e62:	f2 0f 59 c6                 	(arith) 	mulsd	%xmm6,%xmm0
  402e66:	f2 0f 58 c4                 	(arith) 	addsd	%xmm4,%xmm0
  402e6a:	f2 0f 59 c3                 	(arith) 	mulsd	%xmm3,%xmm0
  402e6e:	f2 0f 10 8a 00 83 41 08     	(move)  	movsd	0x8418300(%rdx),%xmm1
  402e76:	f2 0f 5c c8                 	(arith) 	subsd	%xmm0,%xmm1
  402e7a:	f2 0f 11 8a 00 83 41 08     	(move)  	movsd	%xmm1,0x8418300(%rdx)
  402e82:	48 05 38 03 00 00           	(arith) 	add	$0x338,%rax
  402e88:	48 83 c2 08                 	(arith) 	add	$0x8,%rdx
/home/jcsalinas/Documents/pruebas/inst_estimation_module/BT/exact_rhs.f:118
  402e8c:	48 3d 18 10 00 00           	(arith) 	cmp	$0x1018,%rax
  402e92:	0f 85 5a ff ff ff           	(control)	jne	402df2 <exact_rhs_+0x8e3>	; ↰ label 305 (loop 62)
; ------- Loop 62 exit
306:	
/home/jcsalinas/Documents/pruebas/inst_estimation_module/BT/exact_rhs.f:37
  402e98:	83 c3 01                    	(arith) 	add	$0x1,%ebx
  402e9b:	39 5c 24 58                 	(arith) 	cmp	%ebx,0x58(%rsp)
  402e9f:	0f 85 8a f7 ff ff           	(control)	jne	40262f <exact_rhs_+0x120>	; ↰ label 286 (loop 63)
; ------- Loop 63 exit
284:	
/home/jcsalinas/Documents/pruebas/inst_estimation_module/BT/exact_rhs.f:35
  402ea5:	83 44 24 44 01              	(arith) 	addl	$0x1,0x44(%rsp)
  402eaa:	8b 44 24 44                 	(move)  	mov	0x44(%rsp),%eax
  402eae:	3b 44 24 48                 	(arith) 	cmp	0x48(%rsp),%eax
  402eb2:	0f 85 36 f7 ff ff           	(control)	jne	4025ee <exact_rhs_+0xdf>	; ↰ label 283 (loop 50)
; ------- Loop 50 exit
307:	
/home/jcsalinas/Documents/pruebas/inst_estimation_module/BT/exact_rhs.f:134
  402eb8:	8b 05 32 e7 20 00           	(move)  	mov	0x20e732(%rip),%eax
  402ebe:	8d 50 fe                    	(arith) 	lea	-0x2(%rax),%edx
  402ec1:	85 d2                       	(arith) 	test	%edx,%edx
  402ec3:	0f 8e dd 12 00 00           	(control)	jle	4041a6 <exact_rhs_+0x1c97>	; ↲ label 308
309:	
  402ec9:	83 e8 01                    	(arith) 	sub	$0x1,%eax
  402ecc:	89 44 24 5c                 	(move)  	mov	%eax,0x5c(%rsp)
  402ed0:	c7 44 24 44 01 00 00 00     	(move)  	movl	$0x1,0x44(%rsp)
  402ed8:	4c 8d a4 24 a0 00 00 00     	(arith) 	lea	0xa0(%rsp),%r12
; ------- Loop 51 entry
310 (loop 51):	
/home/jcsalinas/Documents/pruebas/inst_estimation_module/BT/exact_rhs.f:135
  402ee0:	8b 5c 24 44                 	(move)  	mov	0x44(%rsp),%ebx
  402ee4:	66 0f ef c0                 	(logic) 	pxor	%xmm0,%xmm0
  402ee8:	f2 0f 2a c3                 	(conv)  	cvtsi2sd	%ebx,%xmm0
  402eec:	f2 0f 59 05 dc e5 20 00     	(arith) 	mulsd	0x20e5dc(%rip),%xmm0
  402ef4:	f2 0f 11 44 24 68           	(move)  	movsd	%xmm0,0x68(%rsp)
/home/jcsalinas/Documents/pruebas/inst_estimation_module/BT/exact_rhs.f:136
  402efa:	8b 05 e8 e6 20 00           	(move)  	mov	0x20e6e8(%rip),%eax
  402f00:	8d 50 fe                    	(arith) 	lea	-0x2(%rax),%edx
  402f03:	85 d2                       	(arith) 	test	%edx,%edx
  402f05:	0f 8e af 08 00 00           	(control)	jle	4037ba <exact_rhs_+0x12ab>	; ↲ label 311
312:	
/home/jcsalinas/Documents/pruebas/inst_estimation_module/BT/exact_rhs.f:166
  402f0b:	48 63 eb                    	(move)  	movsxd	%ebx,%rbp
  402f0e:	48 69 ed 35 cf 00 00        	(arith) 	imul	$0xcf35,%rbp,%rbp
/home/jcsalinas/Documents/pruebas/inst_estimation_module/BT/exact_rhs.f:200
  402f15:	48 8d 9d 03 02 00 00        	(arith) 	lea	0x203(%rbp),%rbx
  402f1c:	48 89 5c 24 48              	(move)  	mov	%rbx,0x48(%rsp)
/home/jcsalinas/Documents/pruebas/inst_estimation_module/BT/exact_rhs.f:204
  402f21:	48 8d 9d 06 04 00 00        	(arith) 	lea	0x406(%rbp),%rbx
  402f28:	48 89 5c 24 50              	(move)  	mov	%rbx,0x50(%rsp)
  402f2d:	83 e8 01                    	(arith) 	sub	$0x1,%eax
  402f30:	89 44 24 58                 	(move)  	mov	%eax,0x58(%rsp)
  402f34:	bb 01 00 00 00              	(move)  	mov	$0x1,%ebx
; ------- Loop 54 entry
313 (loop 54):	
/home/jcsalinas/Documents/pruebas/inst_estimation_module/BT/exact_rhs.f:137
  402f39:	66 0f ef c0                 	(logic) 	pxor	%xmm0,%xmm0
  402f3d:	f2 0f 2a c3                 	(conv)  	cvtsi2sd	%ebx,%xmm0
  402f41:	f2 0f 59 05 77 e5 20 00     	(arith) 	mulsd	0x20e577(%rip),%xmm0
  402f49:	f2 0f 11 44 24 70           	(move)  	movsd	%xmm0,0x70(%rsp)
/home/jcsalinas/Documents/pruebas/inst_estimation_module/BT/exact_rhs.f:139
  402f4f:	44 8b 35 96 e6 20 00        	(move)  	mov	0x20e696(%rip),%r14d
  402f56:	44 89 f0                    	(move)  	mov	%r14d,%eax
  402f59:	83 e8 01                    	(arith) 	sub	$0x1,%eax
  402f5c:	0f 88 65 01 00 00           	(control)	js	4030c7 <exact_rhs_+0xbb8>	; ↲ label 314
315:	
  402f62:	41 bd 00 00 00 00           	(move)  	mov	$0,%r13d
; ------- Loop 60 entry
316 (loop 60):	
/home/jcsalinas/Documents/pruebas/inst_estimation_module/BT/exact_rhs.f:140
  402f68:	66 0f ef c0                 	(logic) 	pxor	%xmm0,%xmm0
  402f6c:	f2 41 0f 2a c5              	(conv)  	cvtsi2sd	%r13d,%xmm0
  402f71:	f2 0f 59 05 4f e5 20 00     	(arith) 	mulsd	0x20e54f(%rip),%xmm0
  402f79:	f2 0f 11 44 24 78           	(move)  	movsd	%xmm0,0x78(%rsp)
/home/jcsalinas/Documents/pruebas/inst_estimation_module/BT/exact_rhs.f:142
  402f7f:	48 8d 8c 24 80 00 00 00     	(arith) 	lea	0x80(%rsp),%rcx
  402f87:	48 8d 54 24 68              	(arith) 	lea	0x68(%rsp),%rdx
  402f8c:	48 8d 74 24 78              	(arith) 	lea	0x78(%rsp),%rsi
  402f91:	48 8d 7c 24 70              	(arith) 	lea	0x70(%rsp),%rdi
  402f96:	b8 00 00 00 00              	(move)  	mov	$0,%eax
  402f9b:	e8 92 f4 ff ff              	(control)	call	402432 <exact_solution_>	; ⇄ exact_solution
317:	
  402fa0:	48 8d 94 24 80 00 00 00     	(arith) 	lea	0x80(%rsp),%rdx
  402fa8:	49 63 c5                    	(move)  	movsxd	%r13d,%rax
  402fab:	48 8d 34 c5 00 12 37 0b     	(arith) 	lea	0xb371200(,%rax,8),%rsi
  402fb3:	48 89 d0                    	(move)  	mov	%rdx,%rax
  402fb6:	4c 8d 4a 28                 	(arith) 	lea	0x28(%rdx),%r9
  402fba:	48 89 f1                    	(move)  	mov	%rsi,%rcx
/home/jcsalinas/Documents/pruebas/inst_estimation_module/BT/exact_rhs.f:144
  402fbd:	4d 63 c5                    	(move)  	movsxd	%r13d,%r8
; ------- Loop 58 entry
318 (loop 58):	
  402fc0:	4c 89 c7                    	(move)  	mov	%r8,%rdi
  402fc3:	f2 0f 10 00                 	(move)  	movsd	(%rax),%xmm0
  402fc7:	f2 0f 11 81 70 06 00 00     	(move)  	movsd	%xmm0,0x670(%rcx)
  402fcf:	48 83 c0 08                 	(arith) 	add	$0x8,%rax
  402fd3:	48 81 c1 38 03 00 00        	(arith) 	add	$0x338,%rcx
/home/jcsalinas/Documents/pruebas/inst_estimation_module/BT/exact_rhs.f:143
  402fda:	4c 39 c8                    	(arith) 	cmp	%r9,%rax
  402fdd:	75 e1                       	(control)	jne	402fc0 <exact_rhs_+0xab1>	; ↰ label 318 (loop 58)
; ------- Loop 58 exit
319:	
/home/jcsalinas/Documents/pruebas/inst_estimation_module/BT/exact_rhs.f:147
  402fdf:	f2 0f 10 0d 49 be 00 00     	(move)  	movsd	0xbe49(%rip),%xmm1
  402fe7:	f2 0f 5e 8c 24 80 00 00 00  	(arith) 	divsd	0x80(%rsp),%xmm1
; ------- Loop 59 entry
320 (loop 59):	
/home/jcsalinas/Documents/pruebas/inst_estimation_module/BT/exact_rhs.f:150
  402ff0:	66 0f 28 c1                 	(move)  	movapd	%xmm1,%xmm0
  402ff4:	f2 0f 59 42 08              	(arith) 	mulsd	0x8(%rdx),%xmm0
  402ff9:	f2 0f 11 86 c0 19 00 00     	(move)  	movsd	%xmm0,0x19c0(%rsi)
  403001:	48 83 c2 08                 	(arith) 	add	$0x8,%rdx
  403005:	48 81 c6 38 03 00 00        	(arith) 	add	$0x338,%rsi
/home/jcsalinas/Documents/pruebas/inst_estimation_module/BT/exact_rhs.f:149
  40300c:	4c 39 e2                    	(arith) 	cmp	%r12,%rdx
  40300f:	75 df                       	(control)	jne	402ff0 <exact_rhs_+0xae1>	; ↰ label 320 (loop 59)
; ------- Loop 59 exit
321:	
/home/jcsalinas/Documents/pruebas/inst_estimation_module/BT/exact_rhs.f:153
  403011:	48 8d 97 9f 03 00 00        	(arith) 	lea	0x39f(%rdi),%rdx
  403018:	f2 0f 10 04 d5 00 12 37 0b  	(move)  	movsd	0xb371200(,%rdx,8),%xmm0
  403021:	f2 0f 59 c0                 	(arith) 	mulsd	%xmm0,%xmm0
  403025:	f2 0f 11 04 fd 00 12 37 0b  	(move)  	movsd	%xmm0,0xb371200(,%rdi,8)
/home/jcsalinas/Documents/pruebas/inst_estimation_module/BT/exact_rhs.f:155
  40302e:	48 8d 8f 38 03 00 00        	(arith) 	lea	0x338(%rdi),%rcx
  403035:	f2 0f 10 14 cd 00 12 37 0b  	(move)  	movsd	0xb371200(,%rcx,8),%xmm2
  40303e:	48 8d 87 06 04 00 00        	(arith) 	lea	0x406(%rdi),%rax
  403045:	f2 0f 10 0c c5 00 12 37 0b  	(move)  	movsd	0xb371200(,%rax,8),%xmm1
  40304e:	f2 0f 59 d2                 	(arith) 	mulsd	%xmm2,%xmm2
  403052:	f2 0f 58 c2                 	(arith) 	addsd	%xmm2,%xmm0
  403056:	f2 0f 59 c9                 	(arith) 	mulsd	%xmm1,%xmm1
  40305a:	f2 0f 58 c1                 	(arith) 	addsd	%xmm1,%xmm0
  40305e:	f2 0f 11 04 fd 88 28 37 0b  	(move)  	movsd	%xmm0,0xb372888(,%rdi,8)
/home/jcsalinas/Documents/pruebas/inst_estimation_module/BT/exact_rhs.f:157
  403067:	f2 0f 10 04 cd 00 12 37 0b  	(move)  	movsd	0xb371200(,%rcx,8),%xmm0
  403070:	f2 0f 59 04 fd a8 1b 37 0b  	(arith) 	mulsd	0xb371ba8(,%rdi,8),%xmm0
  403079:	66 0f 28 c8                 	(move)  	movapd	%xmm0,%xmm1
  40307d:	f2 0f 10 04 d5 00 12 37 0b  	(move)  	movsd	0xb371200(,%rdx,8),%xmm0
  403086:	f2 0f 59 04 fd e0 1e 37 0b  	(arith) 	mulsd	0xb371ee0(,%rdi,8),%xmm0
  40308f:	f2 0f 58 c1                 	(arith) 	addsd	%xmm1,%xmm0
  403093:	f2 0f 10 0c c5 00 12 37 0b  	(move)  	movsd	0xb371200(,%rax,8),%xmm1
  40309c:	f2 0f 59 0c fd 18 22 37 0b  	(arith) 	mulsd	0xb372218(,%rdi,8),%xmm1
  4030a5:	f2 0f 58 c1                 	(arith) 	addsd	%xmm1,%xmm0
  4030a9:	f2 0f 59 05 97 bd 00 00     	(arith) 	mulsd	0xbd97(%rip),%xmm0
  4030b1:	f2 0f 11 04 fd 38 15 37 0b  	(move)  	movsd	%xmm0,0xb371538(,%rdi,8)
/home/jcsalinas/Documents/pruebas/inst_estimation_module/BT/exact_rhs.f:139
  4030ba:	41 83 c5 01                 	(arith) 	add	$0x1,%r13d
  4030be:	45 39 ee                    	(arith) 	cmp	%r13d,%r14d
  4030c1:	0f 85 a1 fe ff ff           	(control)	jne	402f68 <exact_rhs_+0xa59>	; ↰ label 316 (loop 60)
; ------- Loop 60 exit
314:	
/home/jcsalinas/Documents/pruebas/inst_estimation_module/BT/exact_rhs.f:160
  4030c7:	44 8b 1d 1e e5 20 00        	(move)  	mov	0x20e51e(%rip),%r11d
  4030ce:	45 8d 6b fe                 	(arith) 	lea	-0x2(%r11),%r13d
  4030d2:	45 85 ed                    	(arith) 	test	%r13d,%r13d
  4030d5:	0f 8e 14 04 00 00           	(control)	jle	4034ef <exact_rhs_+0xfe0>	; ↲ label 322
323:	
/home/jcsalinas/Documents/pruebas/inst_estimation_module/BT/exact_rhs.f:5
  4030db:	f2 0f 10 3d 1d e0 20 00     	(move)  	movsd	0x20e01d(%rip),%xmm7
  4030e3:	f2 0f 10 2d 5d e3 20 00     	(move)  	movsd	0x20e35d(%rip),%xmm5
  4030eb:	f2 0f 11 2c 24              	(move)  	movsd	%xmm5,(%rsp)
  4030f0:	f2 44 0f 10 25 2f e3 20 00  	(move)  	movsd	0x20e32f(%rip),%xmm12
  4030f9:	f2 0f 10 2d 4f e3 20 00     	(move)  	movsd	0x20e34f(%rip),%xmm5
  403101:	f2 0f 11 6c 24 08           	(move)  	movsd	%xmm5,0x8(%rsp)
  403107:	f2 44 0f 10 15 f8 e3 20 00  	(move)  	movsd	0x20e3f8(%rip),%xmm10
  403110:	f2 0f 10 2d 08 e3 20 00     	(move)  	movsd	0x20e308(%rip),%xmm5
  403118:	f2 0f 11 6c 24 10           	(move)  	movsd	%xmm5,0x10(%rsp)
  40311e:	f2 0f 10 2d 32 e3 20 00     	(move)  	movsd	0x20e332(%rip),%xmm5
  403126:	f2 0f 11 6c 24 18           	(move)  	movsd	%xmm5,0x18(%rsp)
  40312c:	f2 0f 10 2d 2c e3 20 00     	(move)  	movsd	0x20e32c(%rip),%xmm5
  403134:	f2 0f 11 6c 24 20           	(move)  	movsd	%xmm5,0x20(%rsp)
  40313a:	f2 44 0f 10 1d bd e3 20 00  	(move)  	movsd	0x20e3bd(%rip),%xmm11
/home/jcsalinas/Documents/pruebas/inst_estimation_module/BT/exact_rhs.f:191
  403143:	f2 44 0f 10 2d fc bc 00 00  	(move)  	movsd	0xbcfc(%rip),%xmm13
  40314c:	f2 44 0f 59 2d db e2 20 00  	(arith) 	mulsd	0x20e2db(%rip),%xmm13
/home/jcsalinas/Documents/pruebas/inst_estimation_module/BT/exact_rhs.f:5
  403155:	f2 0f 10 2d db e2 20 00     	(move)  	movsd	0x20e2db(%rip),%xmm5
  40315d:	f2 0f 11 6c 24 28           	(move)  	movsd	%xmm5,0x28(%rsp)
  403163:	f2 0f 10 2d d5 e2 20 00     	(move)  	movsd	0x20e2d5(%rip),%xmm5
  40316b:	f2 0f 11 6c 24 30           	(move)  	movsd	%xmm5,0x30(%rsp)
  403171:	f2 0f 10 2d ef e2 20 00     	(move)  	movsd	0x20e2ef(%rip),%xmm5
  403179:	f2 0f 11 6c 24 38           	(move)  	movsd	%xmm5,0x38(%rsp)
  40317f:	48 63 c3                    	(move)  	movsxd	%ebx,%rax
  403182:	48 8d 04 80                 	(arith) 	lea	(%rax,%rax,4),%rax
  403186:	48 01 e8                    	(arith) 	add	%rbp,%rax
  403189:	48 8d 14 c5 00 16 61 00     	(arith) 	lea	0x611600(,%rax,8),%rdx
  403191:	b8 00 12 37 0b              	(move)  	mov	$0xb371200,%eax
  403196:	41 8d 73 ff                 	(arith) 	lea	-0x1(%r11),%esi
  40319a:	b9 01 00 00 00              	(move)  	mov	$0x1,%ecx
; ------- Loop 57 entry
324 (loop 57):	
/home/jcsalinas/Documents/pruebas/inst_estimation_module/BT/exact_rhs.f:162
  40319f:	83 c1 01                    	(arith) 	add	$0x1,%ecx
/home/jcsalinas/Documents/pruebas/inst_estimation_module/BT/exact_rhs.f:166
  4031a2:	f2 0f 10 b0 f0 0c 00 00     	(move)  	movsd	0xcf0(%rax),%xmm6
  4031aa:	f2 0f 10 88 e0 0c 00 00     	(move)  	movsd	0xce0(%rax),%xmm1
  4031b2:	f2 0f 10 90 78 06 00 00     	(move)  	movsd	0x678(%rax),%xmm2
  4031ba:	f2 0f 58 d2                 	(arith) 	addsd	%xmm2,%xmm2
  4031be:	f2 0f 10 80 80 06 00 00     	(move)  	movsd	0x680(%rax),%xmm0
  4031c6:	f2 0f 5c c2                 	(arith) 	subsd	%xmm2,%xmm0
  4031ca:	f2 0f 58 80 70 06 00 00     	(arith) 	addsd	0x670(%rax),%xmm0
  4031d2:	f2 0f 59 04 24              	(arith) 	mulsd	(%rsp),%xmm0
  4031d7:	66 0f 28 de                 	(move)  	movapd	%xmm6,%xmm3
  4031db:	f2 0f 5c d9                 	(arith) 	subsd	%xmm1,%xmm3
  4031df:	f2 0f 59 df                 	(arith) 	mulsd	%xmm7,%xmm3
  4031e3:	f2 0f 10 92 18 93 41 08     	(move)  	movsd	0x8419318(%rdx),%xmm2
  4031eb:	f2 0f 5c d3                 	(arith) 	subsd	%xmm3,%xmm2
  4031ef:	f2 0f 58 d0                 	(arith) 	addsd	%xmm0,%xmm2
  4031f3:	f2 0f 11 92 18 93 41 08     	(move)  	movsd	%xmm2,0x8419318(%rdx)
/home/jcsalinas/Documents/pruebas/inst_estimation_module/BT/exact_rhs.f:171
  4031fb:	f2 44 0f 10 88 b8 09 00 00  	(move)  	movsd	0x9b8(%rax),%xmm9
  403204:	f2 0f 10 a8 08 1d 00 00     	(move)  	movsd	0x1d08(%rax),%xmm5
  40320c:	f2 0f 10 80 a8 09 00 00     	(move)  	movsd	0x9a8(%rax),%xmm0
  403214:	f2 0f 10 90 f8 1c 00 00     	(move)  	movsd	0x1cf8(%rax),%xmm2
  40321c:	f2 0f 10 a0 c8 19 00 00     	(move)  	movsd	0x19c8(%rax),%xmm4
  403224:	f2 0f 58 e4                 	(arith) 	addsd	%xmm4,%xmm4
  403228:	f2 0f 10 98 d0 19 00 00     	(move)  	movsd	0x19d0(%rax),%xmm3
  403230:	f2 0f 5c dc                 	(arith) 	subsd	%xmm4,%xmm3
  403234:	f2 0f 58 98 c0 19 00 00     	(arith) 	addsd	0x19c0(%rax),%xmm3
  40323c:	f2 41 0f 59 dc              	(arith) 	mulsd	%xmm12,%xmm3
  403241:	66 45 0f 28 c1              	(move)  	movapd	%xmm9,%xmm8
  403246:	f2 44 0f 59 c5              	(arith) 	mulsd	%xmm5,%xmm8
  40324b:	66 0f 28 e0                 	(move)  	movapd	%xmm0,%xmm4
  40324f:	f2 0f 59 e2                 	(arith) 	mulsd	%xmm2,%xmm4
  403253:	f2 44 0f 5c c4              	(arith) 	subsd	%xmm4,%xmm8
  403258:	f2 44 0f 59 c7              	(arith) 	mulsd	%xmm7,%xmm8
  40325d:	f2 0f 10 a2 20 93 41 08     	(move)  	movsd	0x8419320(%rdx),%xmm4
  403265:	f2 41 0f 5c e0              	(arith) 	subsd	%xmm8,%xmm4
  40326a:	f2 0f 58 dc                 	(arith) 	addsd	%xmm4,%xmm3
  40326e:	f2 0f 10 a0 b0 09 00 00     	(move)  	movsd	0x9b0(%rax),%xmm4
  403276:	f2 0f 58 e4                 	(arith) 	addsd	%xmm4,%xmm4
  40327a:	f2 44 0f 5c cc              	(arith) 	subsd	%xmm4,%xmm9
  40327f:	f2 44 0f 58 c8              	(arith) 	addsd	%xmm0,%xmm9
  403284:	f2 44 0f 59 4c 24 08        	(arith) 	mulsd	0x8(%rsp),%xmm9
  40328b:	f2 41 0f 58 d9              	(arith) 	addsd	%xmm9,%xmm3
  403290:	f2 0f 11 9a 20 93 41 08     	(move)  	movsd	%xmm3,0x8419320(%rdx)
/home/jcsalinas/Documents/pruebas/inst_estimation_module/BT/exact_rhs.f:177
  403298:	f2 0f 10 a0 60 13 00 00     	(move)  	movsd	0x1360(%rax),%xmm4
  4032a0:	f2 44 0f 10 88 48 03 00 00  	(move)  	movsd	0x348(%rax),%xmm9
  4032a9:	f2 0f 10 80 50 13 00 00     	(move)  	movsd	0x1350(%rax),%xmm0
  4032b1:	f2 44 0f 10 80 38 03 00 00  	(move)  	movsd	0x338(%rax),%xmm8
  4032ba:	66 0f 28 dc                 	(move)  	movapd	%xmm4,%xmm3
  4032be:	f2 41 0f 5c d9              	(arith) 	subsd	%xmm9,%xmm3
  4032c3:	f2 41 0f 59 da              	(arith) 	mulsd	%xmm10,%xmm3
  4032c8:	66 44 0f 28 f6              	(move)  	movapd	%xmm6,%xmm14
  4032cd:	f2 44 0f 59 f5              	(arith) 	mulsd	%xmm5,%xmm14
  4032d2:	f2 41 0f 58 de              	(arith) 	addsd	%xmm14,%xmm3
  4032d7:	66 44 0f 28 f8              	(move)  	movapd	%xmm0,%xmm15
  4032dc:	f2 45 0f 5c f8              	(arith) 	subsd	%xmm8,%xmm15
  4032e1:	f2 45 0f 59 fa              	(arith) 	mulsd	%xmm10,%xmm15
  4032e6:	66 44 0f 28 f1              	(move)  	movapd	%xmm1,%xmm14
  4032eb:	f2 44 0f 59 f2              	(arith) 	mulsd	%xmm2,%xmm14
  4032f0:	f2 45 0f 58 f7              	(arith) 	addsd	%xmm15,%xmm14
  4032f5:	f2 41 0f 5c de              	(arith) 	subsd	%xmm14,%xmm3
  4032fa:	f2 0f 59 df                 	(arith) 	mulsd	%xmm7,%xmm3
  4032fe:	66 44 0f 28 fb              	(move)  	movapd	%xmm3,%xmm15
  403303:	f2 0f 10 9a 28 93 41 08     	(move)  	movsd	0x8419328(%rdx),%xmm3
  40330b:	f2 41 0f 5c df              	(arith) 	subsd	%xmm15,%xmm3
  403310:	66 44 0f 28 f3              	(move)  	movapd	%xmm3,%xmm14
  403315:	f2 0f 10 98 00 1d 00 00     	(move)  	movsd	0x1d00(%rax),%xmm3
  40331d:	f2 0f 58 db                 	(arith) 	addsd	%xmm3,%xmm3
  403321:	66 44 0f 28 fd              	(move)  	movapd	%xmm5,%xmm15
  403326:	f2 44 0f 5c fb              	(arith) 	subsd	%xmm3,%xmm15
  40332b:	66 41 0f 28 df              	(move)  	movapd	%xmm15,%xmm3
  403330:	f2 0f 58 da                 	(arith) 	addsd	%xmm2,%xmm3
  403334:	f2 0f 59 5c 24 10           	(arith) 	mulsd	0x10(%rsp),%xmm3
  40333a:	f2 41 0f 58 de              	(arith) 	addsd	%xmm14,%xmm3
  40333f:	f2 44 0f 10 b0 e8 0c 00 00  	(move)  	movsd	0xce8(%rax),%xmm14
  403348:	f2 45 0f 58 f6              	(arith) 	addsd	%xmm14,%xmm14
  40334d:	f2 41 0f 5c f6              	(arith) 	subsd	%xmm14,%xmm6
  403352:	f2 0f 58 f1                 	(arith) 	addsd	%xmm1,%xmm6
  403356:	f2 0f 59 74 24 18           	(arith) 	mulsd	0x18(%rsp),%xmm6
  40335c:	f2 0f 58 f3                 	(arith) 	addsd	%xmm3,%xmm6
  403360:	f2 0f 11 b2 28 93 41 08     	(move)  	movsd	%xmm6,0x8419328(%rdx)
/home/jcsalinas/Documents/pruebas/inst_estimation_module/BT/exact_rhs.f:182
  403368:	f2 44 0f 10 b8 28 10 00 00  	(move)  	movsd	0x1028(%rax),%xmm15
  403371:	f2 0f 10 88 18 10 00 00     	(move)  	movsd	0x1018(%rax),%xmm1
  403379:	f2 0f 10 b0 38 20 00 00     	(move)  	movsd	0x2038(%rax),%xmm6
  403381:	f2 0f 58 f6                 	(arith) 	addsd	%xmm6,%xmm6
  403385:	f2 0f 10 98 40 20 00 00     	(move)  	movsd	0x2040(%rax),%xmm3
  40338d:	f2 0f 5c de                 	(arith) 	subsd	%xmm6,%xmm3
  403391:	f2 0f 58 98 30 20 00 00     	(arith) 	addsd	0x2030(%rax),%xmm3
  403399:	f2 41 0f 59 dc              	(arith) 	mulsd	%xmm12,%xmm3
  40339e:	66 44 0f 28 f5              	(move)  	movapd	%xmm5,%xmm14
  4033a3:	f2 45 0f 59 f7              	(arith) 	mulsd	%xmm15,%xmm14
  4033a8:	66 0f 28 f2                 	(move)  	movapd	%xmm2,%xmm6
  4033ac:	f2 0f 59 f1                 	(arith) 	mulsd	%xmm1,%xmm6
  4033b0:	f2 44 0f 5c f6              	(arith) 	subsd	%xmm6,%xmm14
  4033b5:	f2 44 0f 59 f7              	(arith) 	mulsd	%xmm7,%xmm14
  4033ba:	f2 0f 10 b2 30 93 41 08     	(move)  	movsd	0x8419330(%rdx),%xmm6
  4033c2:	f2 41 0f 5c f6              	(arith) 	subsd	%xmm14,%xmm6
  4033c7:	f2 0f 58 de                 	(arith) 	addsd	%xmm6,%xmm3
  4033cb:	f2 0f 10 b0 20 10 00 00     	(move)  	movsd	0x1020(%rax),%xmm6
  4033d3:	f2 0f 58 f6                 	(arith) 	addsd	%xmm6,%xmm6
  4033d7:	f2 44 0f 5c fe              	(arith) 	subsd	%xmm6,%xmm15
  4033dc:	f2 44 0f 58 f9              	(arith) 	addsd	%xmm1,%xmm15
  4033e1:	f2 44 0f 59 7c 24 20        	(arith) 	mulsd	0x20(%rsp),%xmm15
  4033e8:	f2 41 0f 58 df              	(arith) 	addsd	%xmm15,%xmm3
  4033ed:	f2 0f 11 9a 30 93 41 08     	(move)  	movsd	%xmm3,0x8419330(%rdx)
/home/jcsalinas/Documents/pruebas/inst_estimation_module/BT/exact_rhs.f:191
  4033f5:	66 0f 28 cc                 	(move)  	movapd	%xmm4,%xmm1
  4033f9:	f2 41 0f 59 cb              	(arith) 	mulsd	%xmm11,%xmm1
  4033fe:	f2 45 0f 59 ca              	(arith) 	mulsd	%xmm10,%xmm9
  403403:	f2 41 0f 5c c9              	(arith) 	subsd	%xmm9,%xmm1
  403408:	f2 0f 59 e9                 	(arith) 	mulsd	%xmm1,%xmm5
  40340c:	66 0f 28 c8                 	(move)  	movapd	%xmm0,%xmm1
  403410:	f2 41 0f 59 cb              	(arith) 	mulsd	%xmm11,%xmm1
  403415:	f2 45 0f 59 c2              	(arith) 	mulsd	%xmm10,%xmm8
  40341a:	f2 41 0f 5c c8              	(arith) 	subsd	%xmm8,%xmm1
  40341f:	f2 0f 59 ca                 	(arith) 	mulsd	%xmm2,%xmm1
  403423:	f2 0f 5c e9                 	(arith) 	subsd	%xmm1,%xmm5
  403427:	f2 0f 59 ef                 	(arith) 	mulsd	%xmm7,%xmm5
  40342b:	f2 0f 10 8a 38 93 41 08     	(move)  	movsd	0x8419338(%rdx),%xmm1
  403433:	66 0f 28 f1                 	(move)  	movapd	%xmm1,%xmm6
  403437:	f2 0f 5c f5                 	(arith) 	subsd	%xmm5,%xmm6
  40343b:	f2 0f 10 a8 90 16 00 00     	(move)  	movsd	0x1690(%rax),%xmm5
  403443:	f2 0f 58 ed                 	(arith) 	addsd	%xmm5,%xmm5
  403447:	f2 0f 10 98 98 16 00 00     	(move)  	movsd	0x1698(%rax),%xmm3
  40344f:	66 0f 28 d3                 	(move)  	movapd	%xmm3,%xmm2
  403453:	f2 0f 5c d5                 	(arith) 	subsd	%xmm5,%xmm2
  403457:	f2 0f 58 90 88 16 00 00     	(arith) 	addsd	0x1688(%rax),%xmm2
  40345f:	f2 41 0f 59 d5              	(arith) 	mulsd	%xmm13,%xmm2
  403464:	f2 0f 58 f2                 	(arith) 	addsd	%xmm2,%xmm6
  403468:	f2 0f 10 50 08              	(move)  	movsd	0x8(%rax),%xmm2
  40346d:	f2 0f 58 d2                 	(arith) 	addsd	%xmm2,%xmm2
  403471:	f2 0f 10 58 10              	(move)  	movsd	0x10(%rax),%xmm3
  403476:	f2 0f 5c da                 	(arith) 	subsd	%xmm2,%xmm3
  40347a:	66 0f 28 d3                 	(move)  	movapd	%xmm3,%xmm2
  40347e:	f2 0f 58 10                 	(arith) 	addsd	(%rax),%xmm2
  403482:	f2 0f 59 54 24 28           	(arith) 	mulsd	0x28(%rsp),%xmm2
  403488:	f2 0f 58 d6                 	(arith) 	addsd	%xmm6,%xmm2
  40348c:	f2 0f 10 98 70 23 00 00     	(move)  	movsd	0x2370(%rax),%xmm3
  403494:	f2 0f 58 db                 	(arith) 	addsd	%xmm3,%xmm3
  403498:	f2 0f 10 88 78 23 00 00     	(move)  	movsd	0x2378(%rax),%xmm1
  4034a0:	f2 0f 5c cb                 	(arith) 	subsd	%xmm3,%xmm1
  4034a4:	f2 0f 58 88 68 23 00 00     	(arith) 	addsd	0x2368(%rax),%xmm1
  4034ac:	f2 0f 59 4c 24 30           	(arith) 	mulsd	0x30(%rsp),%xmm1
  4034b2:	f2 0f 58 d1                 	(arith) 	addsd	%xmm1,%xmm2
  4034b6:	f2 0f 10 88 58 13 00 00     	(move)  	movsd	0x1358(%rax),%xmm1
  4034be:	f2 0f 58 c9                 	(arith) 	addsd	%xmm1,%xmm1
  4034c2:	f2 0f 5c e1                 	(arith) 	subsd	%xmm1,%xmm4
  4034c6:	f2 0f 58 c4                 	(arith) 	addsd	%xmm4,%xmm0
  4034ca:	f2 0f 59 44 24 38           	(arith) 	mulsd	0x38(%rsp),%xmm0
  4034d0:	f2 0f 58 d0                 	(arith) 	addsd	%xmm0,%xmm2
  4034d4:	f2 0f 11 92 38 93 41 08     	(move)  	movsd	%xmm2,0x8419338(%rdx)
  4034dc:	48 81 c2 18 10 00 00        	(arith) 	add	$0x1018,%rdx
  4034e3:	48 83 c0 08                 	(arith) 	add	$0x8,%rax
/home/jcsalinas/Documents/pruebas/inst_estimation_module/BT/exact_rhs.f:160
  4034e7:	39 f1                       	(arith) 	cmp	%esi,%ecx
  4034e9:	0f 85 b0 fc ff ff           	(control)	jne	40319f <exact_rhs_+0xc90>	; ↰ label 324 (loop 57)
; ------- Loop 57 exit
322:	
/home/jcsalinas/Documents/pruebas/inst_estimation_module/BT/exact_rhs.f:200
  4034ef:	48 63 c3                    	(move)  	movsxd	%ebx,%rax
  4034f2:	4c 8d 3c 80                 	(arith) 	lea	(%rax,%rax,4),%r15
  4034f6:	48 8b 44 24 48              	(move)  	mov	0x48(%rsp),%rax
  4034fb:	4a 8d 0c 38                 	(arith) 	lea	(%rax,%r15,1),%rcx
/home/jcsalinas/Documents/pruebas/inst_estimation_module/BT/exact_rhs.f:5
  4034ff:	f2 0f 10 1d 99 dc 20 00     	(move)  	movsd	0x20dc99(%rip),%xmm3
  403507:	b8 00 12 37 0b              	(move)  	mov	$0xb371200,%eax
  40350c:	48 8b 7c 24 50              	(move)  	mov	0x50(%rsp),%rdi
  403511:	4c 01 ff                    	(arith) 	add	%r15,%rdi
  403514:	48 8d 14 fd 00 16 61 00     	(arith) 	lea	0x611600(,%rdi,8),%rdx
  40351c:	be 18 22 37 0b              	(move)  	mov	$0xb372218,%esi
  403521:	48 29 f9                    	(arith) 	sub	%rdi,%rcx
/home/jcsalinas/Documents/pruebas/inst_estimation_module/BT/exact_rhs.f:200
  403524:	f2 0f 10 35 24 b9 00 00     	(move)  	movsd	0xb924(%rip),%xmm6
  40352c:	f2 0f 10 25 24 b9 00 00     	(move)  	movsd	0xb924(%rip),%xmm4
/home/jcsalinas/Documents/pruebas/inst_estimation_module/BT/exact_rhs.f:204
  403534:	f2 0f 10 2d 24 b9 00 00     	(move)  	movsd	0xb924(%rip),%xmm5
; ------- Loop 52 entry
325 (loop 52):	
/home/jcsalinas/Documents/pruebas/inst_estimation_module/BT/exact_rhs.f:200
  40353c:	f2 0f 10 b8 78 06 00 00     	(move)  	movsd	0x678(%rax),%xmm7
  403544:	f2 0f 10 80 80 06 00 00     	(move)  	movsd	0x680(%rax),%xmm0
  40354c:	f2 0f 10 90 88 06 00 00     	(move)  	movsd	0x688(%rax),%xmm2
  403554:	66 0f 28 cf                 	(move)  	movapd	%xmm7,%xmm1
  403558:	f2 0f 59 ce                 	(arith) 	mulsd	%xmm6,%xmm1
  40355c:	66 44 0f 28 c0              	(move)  	movapd	%xmm0,%xmm8
  403561:	f2 44 0f 59 c4              	(arith) 	mulsd	%xmm4,%xmm8
  403566:	f2 41 0f 5c c8              	(arith) 	subsd	%xmm8,%xmm1
  40356b:	f2 0f 58 ca                 	(arith) 	addsd	%xmm2,%xmm1
  40356f:	f2 0f 59 cb                 	(arith) 	mulsd	%xmm3,%xmm1
  403573:	f2 44 0f 10 84 ca 00 83 41 08	(move)  	movsd	0x8418300(%rdx,%rcx,8),%xmm8
  40357d:	f2 44 0f 5c c1              	(arith) 	subsd	%xmm1,%xmm8
  403582:	f2 44 0f 11 84 ca 00 83 41 08	(move)  	movsd	%xmm8,0x8418300(%rdx,%rcx,8)
/home/jcsalinas/Documents/pruebas/inst_estimation_module/BT/exact_rhs.f:204
  40358c:	f2 0f 59 c5                 	(arith) 	mulsd	%xmm5,%xmm0
  403590:	f2 0f 59 fc                 	(arith) 	mulsd	%xmm4,%xmm7
  403594:	f2 0f 5c c7                 	(arith) 	subsd	%xmm7,%xmm0
  403598:	f2 0f 59 d4                 	(arith) 	mulsd	%xmm4,%xmm2
  40359c:	f2 0f 5c c2                 	(arith) 	subsd	%xmm2,%xmm0
  4035a0:	f2 0f 58 80 90 06 00 00     	(arith) 	addsd	0x690(%rax),%xmm0
  4035a8:	f2 0f 59 c3                 	(arith) 	mulsd	%xmm3,%xmm0
  4035ac:	f2 0f 10 8a 00 83 41 08     	(move)  	movsd	0x8418300(%rdx),%xmm1
  4035b4:	f2 0f 5c c8                 	(arith) 	subsd	%xmm0,%xmm1
  4035b8:	f2 0f 11 8a 00 83 41 08     	(move)  	movsd	%xmm1,0x8418300(%rdx)
  4035c0:	48 05 38 03 00 00           	(arith) 	add	$0x338,%rax
  4035c6:	48 83 c2 08                 	(arith) 	add	$0x8,%rdx
/home/jcsalinas/Documents/pruebas/inst_estimation_module/BT/exact_rhs.f:197
  4035ca:	48 39 c6                    	(arith) 	cmp	%rax,%rsi
  4035cd:	0f 85 69 ff ff ff           	(control)	jne	40353c <exact_rhs_+0x102d>	; ↰ label 325 (loop 52)
; ------- Loop 52 exit
326:	
/home/jcsalinas/Documents/pruebas/inst_estimation_module/BT/exact_rhs.f:207
  4035d3:	45 8d 73 fc                 	(arith) 	lea	-0x4(%r11),%r14d
  4035d7:	41 83 fe 02                 	(arith) 	cmp	$0x2,%r14d
  4035db:	0f 8e c6 00 00 00           	(control)	jle	4036a7 <exact_rhs_+0x1198>	; ↲ label 327
328:	
  4035e1:	4a 8d 84 3d 09 06 00 00     	(arith) 	lea	0x609(%rbp,%r15,1),%rax
  4035e9:	4c 8d 0c c5 00 16 61 00     	(arith) 	lea	0x611600(,%rax,8),%r9
  4035f1:	41 b8 18 12 37 0b           	(move)  	mov	$0xb371218,%r8d
  4035f7:	41 8d 43 f9                 	(arith) 	lea	-0x7(%r11),%eax
  4035fb:	4c 8d 14 c5 20 12 37 0b     	(arith) 	lea	0xb371220(,%rax,8),%r10
  403603:	b9 03 00 00 00              	(move)  	mov	$0x3,%ecx
/home/jcsalinas/Documents/pruebas/inst_estimation_module/BT/exact_rhs.f:211
  403608:	f2 0f 10 15 48 b8 00 00     	(move)  	movsd	0xb848(%rip),%xmm2
  403610:	f2 0f 10 25 48 b8 00 00     	(move)  	movsd	0xb848(%rip),%xmm4
; ------- Loop 56 entry
329 (loop 56):	
  403618:	49 8d b8 18 10 00 00        	(arith) 	lea	0x1018(%r8),%rdi
  40361f:	4c 89 c0                    	(move)  	mov	%r8,%rax
  403622:	4c 89 ca                    	(move)  	mov	%r9,%rdx
; ------- Loop 55 entry
330 (loop 55):	
  403625:	48 8d 71 01                 	(arith) 	lea	0x1(%rcx),%rsi
  403629:	66 0f 28 ca                 	(move)  	movapd	%xmm2,%xmm1
  40362d:	f2 0f 59 88 68 06 00 00     	(arith) 	mulsd	0x668(%rax),%xmm1
  403635:	f2 0f 10 80 60 06 00 00     	(move)  	movsd	0x660(%rax),%xmm0
  40363d:	f2 0f 5c c1                 	(arith) 	subsd	%xmm1,%xmm0
  403641:	66 0f 28 cc                 	(move)  	movapd	%xmm4,%xmm1
  403645:	f2 0f 59 88 70 06 00 00     	(arith) 	mulsd	0x670(%rax),%xmm1
  40364d:	f2 0f 58 c1                 	(arith) 	addsd	%xmm1,%xmm0
  403651:	66 0f 28 ca                 	(move)  	movapd	%xmm2,%xmm1
  403655:	f2 0f 59 88 78 06 00 00     	(arith) 	mulsd	0x678(%rax),%xmm1
  40365d:	f2 0f 5c c1                 	(arith) 	subsd	%xmm1,%xmm0
  403661:	f2 0f 58 80 80 06 00 00     	(arith) 	addsd	0x680(%rax),%xmm0
  403669:	f2 0f 59 c3                 	(arith) 	mulsd	%xmm3,%xmm0
  40366d:	f2 0f 10 8a 00 83 41 08     	(move)  	movsd	0x8418300(%rdx),%xmm1
  403675:	f2 0f 5c c8                 	(arith) 	subsd	%xmm0,%xmm1
  403679:	f2 0f 11 8a 00 83 41 08     	(move)  	movsd	%xmm1,0x8418300(%rdx)
  403681:	48 83 c2 08                 	(arith) 	add	$0x8,%rdx
  403685:	48 05 38 03 00 00           	(arith) 	add	$0x338,%rax
/home/jcsalinas/Documents/pruebas/inst_estimation_module/BT/exact_rhs.f:208
  40368b:	48 39 f8                    	(arith) 	cmp	%rdi,%rax
  40368e:	75 95                       	(control)	jne	403625 <exact_rhs_+0x1116>	; ↰ label 330 (loop 55)
; ------- Loop 55 exit
331:	
  403690:	49 81 c1 18 10 00 00        	(arith) 	add	$0x1018,%r9
  403697:	49 83 c0 08                 	(arith) 	add	$0x8,%r8
  40369b:	48 89 f1                    	(move)  	mov	%rsi,%rcx
/home/jcsalinas/Documents/pruebas/inst_estimation_module/BT/exact_rhs.f:207
  40369e:	4d 39 d0                    	(arith) 	cmp	%r10,%r8
  4036a1:	0f 85 71 ff ff ff           	(control)	jne	403618 <exact_rhs_+0x1109>	; ↰ label 329 (loop 56)
; ------- Loop 56 exit
327:	
/home/jcsalinas/Documents/pruebas/inst_estimation_module/BT/exact_rhs.f:216
  4036a7:	41 8d 73 fd                 	(arith) 	lea	-0x3(%r11),%esi
/home/jcsalinas/Documents/pruebas/inst_estimation_module/BT/exact_rhs.f:219
  4036ab:	48 63 c6                    	(move)  	movsxd	%esi,%rax
  4036ae:	48 89 c2                    	(move)  	mov	%rax,%rdx
  4036b1:	48 c1 e2 08                 	(logic) 	sal	$0x8,%rdx
  4036b5:	48 01 c2                    	(arith) 	add	%rax,%rdx
  4036b8:	48 8d 04 50                 	(arith) 	lea	(%rax,%rdx,2),%rax
  4036bc:	48 8d 4c 05 00              	(arith) 	lea	(%rbp,%rax,1),%rcx
  4036c1:	4c 01 f9                    	(arith) 	add	%r15,%rcx
  4036c4:	48 8d 84 05 03 02 00 00     	(arith) 	lea	0x203(%rbp,%rax,1),%rax
  4036cc:	49 01 c7                    	(arith) 	add	%rax,%r15
  4036cf:	4a 8d 14 fd 00 16 61 00     	(arith) 	lea	0x611600(,%r15,8),%rdx
/home/jcsalinas/Documents/pruebas/inst_estimation_module/BT/exact_rhs.f:222
  4036d7:	b8 00 00 00 00              	(move)  	mov	$0,%eax
  4036dc:	4c 29 f9                    	(arith) 	sub	%r15,%rcx
/home/jcsalinas/Documents/pruebas/inst_estimation_module/BT/exact_rhs.f:219
  4036df:	4d 63 f6                    	(move)  	movsxd	%r14d,%r14
  4036e2:	48 63 f6                    	(move)  	movsxd	%esi,%rsi
  4036e5:	4d 63 ed                    	(move)  	movsxd	%r13d,%r13
  4036e8:	41 8d 7b fb                 	(arith) 	lea	-0x5(%r11),%edi
  4036ec:	48 63 ff                    	(move)  	movsxd	%edi,%rdi
  4036ef:	f2 0f 10 2d 61 b7 00 00     	(move)  	movsd	0xb761(%rip),%xmm5
  4036f7:	f2 0f 10 3d 61 b7 00 00     	(move)  	movsd	0xb761(%rip),%xmm7
/home/jcsalinas/Documents/pruebas/inst_estimation_module/BT/exact_rhs.f:222
  4036ff:	f2 0f 10 35 49 b7 00 00     	(move)  	movsd	0xb749(%rip),%xmm6
; ------- Loop 53 entry
332 (loop 53):	
/home/jcsalinas/Documents/pruebas/inst_estimation_module/BT/exact_rhs.f:219
  403707:	f2 42 0f 10 a4 f0 70 18 37 0b	(move)  	movsd	0xb371870(%rax,%r14,8),%xmm4
  403711:	f2 44 0f 10 84 f0 70 18 37 0b	(move)  	movsd	0xb371870(%rax,%rsi,8),%xmm8
  40371b:	f2 42 0f 10 84 e8 70 18 37 0b	(move)  	movsd	0xb371870(%rax,%r13,8),%xmm0
  403725:	66 0f 28 d4                 	(move)  	movapd	%xmm4,%xmm2
  403729:	f2 0f 59 d5                 	(arith) 	mulsd	%xmm5,%xmm2
  40372d:	f2 0f 10 8c f8 70 18 37 0b  	(move)  	movsd	0xb371870(%rax,%rdi,8),%xmm1
  403736:	f2 0f 5c ca                 	(arith) 	subsd	%xmm2,%xmm1
  40373a:	66 41 0f 28 d0              	(move)  	movapd	%xmm8,%xmm2
  40373f:	f2 0f 59 d7                 	(arith) 	mulsd	%xmm7,%xmm2
  403743:	f2 0f 58 ca                 	(arith) 	addsd	%xmm2,%xmm1
  403747:	66 0f 28 d0                 	(move)  	movapd	%xmm0,%xmm2
  40374b:	f2 0f 59 d5                 	(arith) 	mulsd	%xmm5,%xmm2
  40374f:	f2 0f 5c ca                 	(arith) 	subsd	%xmm2,%xmm1
  403753:	f2 0f 59 cb                 	(arith) 	mulsd	%xmm3,%xmm1
  403757:	f2 0f 10 94 ca 00 83 41 08  	(move)  	movsd	0x8418300(%rdx,%rcx,8),%xmm2
  403760:	f2 0f 5c d1                 	(arith) 	subsd	%xmm1,%xmm2
  403764:	f2 0f 11 94 ca 00 83 41 08  	(move)  	movsd	%xmm2,0x8418300(%rdx,%rcx,8)
/home/jcsalinas/Documents/pruebas/inst_estimation_module/BT/exact_rhs.f:222
  40376d:	f2 44 0f 59 c5              	(arith) 	mulsd	%xmm5,%xmm8
  403772:	f2 41 0f 5c e0              	(arith) 	subsd	%xmm8,%xmm4
  403777:	f2 0f 59 c6                 	(arith) 	mulsd	%xmm6,%xmm0
  40377b:	f2 0f 58 c4                 	(arith) 	addsd	%xmm4,%xmm0
  40377f:	f2 0f 59 c3                 	(arith) 	mulsd	%xmm3,%xmm0
  403783:	f2 0f 10 8a 00 83 41 08     	(move)  	movsd	0x8418300(%rdx),%xmm1
  40378b:	f2 0f 5c c8                 	(arith) 	subsd	%xmm0,%xmm1
  40378f:	f2 0f 11 8a 00 83 41 08     	(move)  	movsd	%xmm1,0x8418300(%rdx)
  403797:	48 05 38 03 00 00           	(arith) 	add	$0x338,%rax
  40379d:	48 83 c2 08                 	(arith) 	add	$0x8,%rdx
/home/jcsalinas/Documents/pruebas/inst_estimation_module/BT/exact_rhs.f:215
  4037a1:	48 3d 18 10 00 00           	(arith) 	cmp	$0x1018,%rax
  4037a7:	0f 85 5a ff ff ff           	(control)	jne	403707 <exact_rhs_+0x11f8>	; ↰ label 332 (loop 53)
; ------- Loop 53 exit
333:	
/home/jcsalinas/Documents/pruebas/inst_estimation_module/BT/exact_rhs.f:136
  4037ad:	83 c3 01                    	(arith) 	add	$0x1,%ebx
  4037b0:	39 5c 24 58                 	(arith) 	cmp	%ebx,0x58(%rsp)
  4037b4:	0f 85 7f f7 ff ff           	(control)	jne	402f39 <exact_rhs_+0xa2a>	; ↰ label 313 (loop 54)
; ------- Loop 54 exit
311:	
/home/jcsalinas/Documents/pruebas/inst_estimation_module/BT/exact_rhs.f:134
  4037ba:	83 44 24 44 01              	(arith) 	addl	$0x1,0x44(%rsp)
  4037bf:	8b 44 24 44                 	(move)  	mov	0x44(%rsp),%eax
  4037c3:	3b 44 24 5c                 	(arith) 	cmp	0x5c(%rsp),%eax
  4037c7:	0f 85 13 f7 ff ff           	(control)	jne	402ee0 <exact_rhs_+0x9d1>	; ↰ label 310 (loop 51)
; ------- Loop 51 exit
334:	
/home/jcsalinas/Documents/pruebas/inst_estimation_module/BT/exact_rhs.f:232
  4037cd:	8b 05 19 de 20 00           	(move)  	mov	0x20de19(%rip),%eax
  4037d3:	83 e8 02                    	(arith) 	sub	$0x2,%eax
  4037d6:	89 44 24 5c                 	(move)  	mov	%eax,0x5c(%rsp)
  4037da:	85 c0                       	(arith) 	test	%eax,%eax
  4037dc:	0f 8e ff 08 00 00           	(control)	jle	4040e1 <exact_rhs_+0x1bd2>	; ↲ label 335
336:	
/home/jcsalinas/Documents/pruebas/inst_estimation_module/BT/exact_rhs.f:222
  4037e2:	c7 44 24 44 01 00 00 00     	(move)  	movl	$0x1,0x44(%rsp)
  4037ea:	4c 8d a4 24 a0 00 00 00     	(arith) 	lea	0xa0(%rsp),%r12
; ------- Loop 36 entry
337 (loop 36):	
/home/jcsalinas/Documents/pruebas/inst_estimation_module/BT/exact_rhs.f:233
  4037f2:	8b 5c 24 44                 	(move)  	mov	0x44(%rsp),%ebx
  4037f6:	66 0f ef c0                 	(logic) 	pxor	%xmm0,%xmm0
  4037fa:	f2 0f 2a c3                 	(conv)  	cvtsi2sd	%ebx,%xmm0
  4037fe:	f2 0f 59 05 c2 dc 20 00     	(arith) 	mulsd	0x20dcc2(%rip),%xmm0
  403806:	f2 0f 11 44 24 78           	(move)  	movsd	%xmm0,0x78(%rsp)
/home/jcsalinas/Documents/pruebas/inst_estimation_module/BT/exact_rhs.f:234
  40380c:	8b 0d d6 dd 20 00           	(move)  	mov	0x20ddd6(%rip),%ecx
  403812:	8d 41 fe                    	(arith) 	lea	-0x2(%rcx),%eax
  403815:	85 c0                       	(arith) 	test	%eax,%eax
  403817:	0f 8e ae 08 00 00           	(control)	jle	4040cb <exact_rhs_+0x1bbc>	; ↲ label 338
339:	
/home/jcsalinas/Documents/pruebas/inst_estimation_module/BT/exact_rhs.f:264
  40381d:	89 d8                       	(move)  	mov	%ebx,%eax
  40381f:	48 98                       	(conv)  	cltq
  403821:	48 89 c2                    	(move)  	mov	%rax,%rdx
  403824:	48 c1 e2 08                 	(logic) 	sal	$0x8,%rdx
  403828:	48 01 c2                    	(arith) 	add	%rax,%rdx
  40382b:	48 8d 04 50                 	(arith) 	lea	(%rax,%rdx,2),%rax
  40382f:	48 89 c5                    	(move)  	mov	%rax,%rbp
/home/jcsalinas/Documents/pruebas/inst_estimation_module/BT/exact_rhs.f:298
  403832:	48 8d 98 35 cf 00 00        	(arith) 	lea	0xcf35(%rax),%rbx
  403839:	48 89 5c 24 48              	(move)  	mov	%rbx,0x48(%rsp)
/home/jcsalinas/Documents/pruebas/inst_estimation_module/BT/exact_rhs.f:302
  40383e:	48 05 6a 9e 01 00           	(arith) 	add	$0x19e6a,%rax
  403844:	48 89 44 24 50              	(move)  	mov	%rax,0x50(%rsp)
  403849:	8d 41 ff                    	(arith) 	lea	-0x1(%rcx),%eax
  40384c:	89 44 24 58                 	(move)  	mov	%eax,0x58(%rsp)
  403850:	bb 01 00 00 00              	(move)  	mov	$0x1,%ebx
; ------- Loop 43 entry
340 (loop 43):	
/home/jcsalinas/Documents/pruebas/inst_estimation_module/BT/exact_rhs.f:235
  403855:	66 0f ef c0                 	(logic) 	pxor	%xmm0,%xmm0
  403859:	f2 0f 2a c3                 	(conv)  	cvtsi2sd	%ebx,%xmm0
  40385d:	f2 0f 59 05 5b dc 20 00     	(arith) 	mulsd	0x20dc5b(%rip),%xmm0
  403865:	f2 0f 11 44 24 70           	(move)  	movsd	%xmm0,0x70(%rsp)
/home/jcsalinas/Documents/pruebas/inst_estimation_module/BT/exact_rhs.f:237
  40386b:	44 8b 35 7e dd 20 00        	(move)  	mov	0x20dd7e(%rip),%r14d
  403872:	44 89 f0                    	(move)  	mov	%r14d,%eax
  403875:	83 e8 01                    	(arith) 	sub	$0x1,%eax
  403878:	0f 88 65 01 00 00           	(control)	js	4039e3 <exact_rhs_+0x14d4>	; ↲ label 341
342:	
  40387e:	41 bd 00 00 00 00           	(move)  	mov	$0,%r13d
; ------- Loop 49 entry
343 (loop 49):	
/home/jcsalinas/Documents/pruebas/inst_estimation_module/BT/exact_rhs.f:238
  403884:	66 0f ef c0                 	(logic) 	pxor	%xmm0,%xmm0
  403888:	f2 41 0f 2a c5              	(conv)  	cvtsi2sd	%r13d,%xmm0
  40388d:	f2 0f 59 05 3b dc 20 00     	(arith) 	mulsd	0x20dc3b(%rip),%xmm0
  403895:	f2 0f 11 44 24 68           	(move)  	movsd	%xmm0,0x68(%rsp)
/home/jcsalinas/Documents/pruebas/inst_estimation_module/BT/exact_rhs.f:240
  40389b:	48 8d 8c 24 80 00 00 00     	(arith) 	lea	0x80(%rsp),%rcx
  4038a3:	48 8d 54 24 68              	(arith) 	lea	0x68(%rsp),%rdx
  4038a8:	48 8d 74 24 78              	(arith) 	lea	0x78(%rsp),%rsi
  4038ad:	48 8d 7c 24 70              	(arith) 	lea	0x70(%rsp),%rdi
  4038b2:	b8 00 00 00 00              	(move)  	mov	$0,%eax
  4038b7:	e8 76 eb ff ff              	(control)	call	402432 <exact_solution_>	; ⇄ exact_solution
344:	
  4038bc:	48 8d 94 24 80 00 00 00     	(arith) 	lea	0x80(%rsp),%rdx
  4038c4:	49 63 c5                    	(move)  	movsxd	%r13d,%rax
  4038c7:	48 8d 34 c5 00 12 37 0b     	(arith) 	lea	0xb371200(,%rax,8),%rsi
  4038cf:	48 89 d0                    	(move)  	mov	%rdx,%rax
  4038d2:	4c 8d 4a 28                 	(arith) 	lea	0x28(%rdx),%r9
  4038d6:	48 89 f1                    	(move)  	mov	%rsi,%rcx
/home/jcsalinas/Documents/pruebas/inst_estimation_module/BT/exact_rhs.f:242
  4038d9:	4d 63 c5                    	(move)  	movsxd	%r13d,%r8
; ------- Loop 47 entry
345 (loop 47):	
  4038dc:	4c 89 c7                    	(move)  	mov	%r8,%rdi
  4038df:	f2 0f 10 00                 	(move)  	movsd	(%rax),%xmm0
  4038e3:	f2 0f 11 81 70 06 00 00     	(move)  	movsd	%xmm0,0x670(%rcx)
  4038eb:	48 83 c0 08                 	(arith) 	add	$0x8,%rax
  4038ef:	48 81 c1 38 03 00 00        	(arith) 	add	$0x338,%rcx
/home/jcsalinas/Documents/pruebas/inst_estimation_module/BT/exact_rhs.f:241
  4038f6:	4c 39 c8                    	(arith) 	cmp	%r9,%rax
  4038f9:	75 e1                       	(control)	jne	4038dc <exact_rhs_+0x13cd>	; ↰ label 345 (loop 47)
; ------- Loop 47 exit
346:	
/home/jcsalinas/Documents/pruebas/inst_estimation_module/BT/exact_rhs.f:245
  4038fb:	f2 0f 10 0d 2d b5 00 00     	(move)  	movsd	0xb52d(%rip),%xmm1
  403903:	f2 0f 5e 8c 24 80 00 00 00  	(arith) 	divsd	0x80(%rsp),%xmm1
; ------- Loop 48 entry
347 (loop 48):	
/home/jcsalinas/Documents/pruebas/inst_estimation_module/BT/exact_rhs.f:248
  40390c:	66 0f 28 c1                 	(move)  	movapd	%xmm1,%xmm0
  403910:	f2 0f 59 42 08              	(arith) 	mulsd	0x8(%rdx),%xmm0
  403915:	f2 0f 11 86 c0 19 00 00     	(move)  	movsd	%xmm0,0x19c0(%rsi)
  40391d:	48 83 c2 08                 	(arith) 	add	$0x8,%rdx
  403921:	48 81 c6 38 03 00 00        	(arith) 	add	$0x338,%rsi
/home/jcsalinas/Documents/pruebas/inst_estimation_module/BT/exact_rhs.f:247
  403928:	4c 39 e2                    	(arith) 	cmp	%r12,%rdx
  40392b:	75 df                       	(control)	jne	40390c <exact_rhs_+0x13fd>	; ↰ label 347 (loop 48)
; ------- Loop 48 exit
348:	
/home/jcsalinas/Documents/pruebas/inst_estimation_module/BT/exact_rhs.f:251
  40392d:	48 8d 87 06 04 00 00        	(arith) 	lea	0x406(%rdi),%rax
  403934:	f2 0f 10 04 c5 00 12 37 0b  	(move)  	movsd	0xb371200(,%rax,8),%xmm0
  40393d:	f2 0f 59 c0                 	(arith) 	mulsd	%xmm0,%xmm0
  403941:	f2 0f 11 04 fd 00 12 37 0b  	(move)  	movsd	%xmm0,0xb371200(,%rdi,8)
/home/jcsalinas/Documents/pruebas/inst_estimation_module/BT/exact_rhs.f:253
  40394a:	48 8d 8f 38 03 00 00        	(arith) 	lea	0x338(%rdi),%rcx
  403951:	f2 0f 10 14 cd 00 12 37 0b  	(move)  	movsd	0xb371200(,%rcx,8),%xmm2
  40395a:	48 8d 97 9f 03 00 00        	(arith) 	lea	0x39f(%rdi),%rdx
  403961:	f2 0f 10 0c d5 00 12 37 0b  	(move)  	movsd	0xb371200(,%rdx,8),%xmm1
  40396a:	f2 0f 59 d2                 	(arith) 	mulsd	%xmm2,%xmm2
  40396e:	f2 0f 58 c2                 	(arith) 	addsd	%xmm2,%xmm0
  403972:	f2 0f 59 c9                 	(arith) 	mulsd	%xmm1,%xmm1
  403976:	f2 0f 58 c1                 	(arith) 	addsd	%xmm1,%xmm0
  40397a:	f2 0f 11 04 fd 88 28 37 0b  	(move)  	movsd	%xmm0,0xb372888(,%rdi,8)
/home/jcsalinas/Documents/pruebas/inst_estimation_module/BT/exact_rhs.f:255
  403983:	f2 0f 10 04 cd 00 12 37 0b  	(move)  	movsd	0xb371200(,%rcx,8),%xmm0
  40398c:	f2 0f 59 04 fd a8 1b 37 0b  	(arith) 	mulsd	0xb371ba8(,%rdi,8),%xmm0
  403995:	66 0f 28 c8                 	(move)  	movapd	%xmm0,%xmm1
  403999:	f2 0f 10 04 d5 00 12 37 0b  	(move)  	movsd	0xb371200(,%rdx,8),%xmm0
  4039a2:	f2 0f 59 04 fd e0 1e 37 0b  	(arith) 	mulsd	0xb371ee0(,%rdi,8),%xmm0
  4039ab:	f2 0f 58 c1                 	(arith) 	addsd	%xmm1,%xmm0
  4039af:	f2 0f 10 0c c5 00 12 37 0b  	(move)  	movsd	0xb371200(,%rax,8),%xmm1
  4039b8:	f2 0f 59 0c fd 18 22 37 0b  	(arith) 	mulsd	0xb372218(,%rdi,8),%xmm1
  4039c1:	f2 0f 58 c1                 	(arith) 	addsd	%xmm1,%xmm0
  4039c5:	f2 0f 59 05 7b b4 00 00     	(arith) 	mulsd	0xb47b(%rip),%xmm0
  4039cd:	f2 0f 11 04 fd 38 15 37 0b  	(move)  	movsd	%xmm0,0xb371538(,%rdi,8)
/home/jcsalinas/Documents/pruebas/inst_estimation_module/BT/exact_rhs.f:237
  4039d6:	41 83 c5 01                 	(arith) 	add	$0x1,%r13d
  4039da:	45 39 ee                    	(arith) 	cmp	%r13d,%r14d
  4039dd:	0f 85 a1 fe ff ff           	(control)	jne	403884 <exact_rhs_+0x1375>	; ↰ label 343 (loop 49)
; ------- Loop 49 exit
341:	
/home/jcsalinas/Documents/pruebas/inst_estimation_module/BT/exact_rhs.f:258
  4039e3:	44 8b 1d 06 dc 20 00        	(move)  	mov	0x20dc06(%rip),%r11d
  4039ea:	45 8d 6b fe                 	(arith) 	lea	-0x2(%r11),%r13d
  4039ee:	45 85 ed                    	(arith) 	test	%r13d,%r13d
  4039f1:	0f 8e 10 04 00 00           	(control)	jle	403e07 <exact_rhs_+0x18f8>	; ↲ label 349
350:	
/home/jcsalinas/Documents/pruebas/inst_estimation_module/BT/exact_rhs.f:5
  4039f7:	f2 44 0f 10 0d 18 d7 20 00  	(move)  	movsd	0x20d718(%rip),%xmm9
  403a00:	f2 0f 10 2d 90 da 20 00     	(move)  	movsd	0x20da90(%rip),%xmm5
  403a08:	f2 0f 11 2c 24              	(move)  	movsd	%xmm5,(%rsp)
  403a0d:	f2 44 0f 10 35 62 da 20 00  	(move)  	movsd	0x20da62(%rip),%xmm14
  403a16:	f2 0f 10 2d 82 da 20 00     	(move)  	movsd	0x20da82(%rip),%xmm5
  403a1e:	f2 0f 11 6c 24 08           	(move)  	movsd	%xmm5,0x8(%rsp)
  403a24:	f2 0f 10 2d 7c da 20 00     	(move)  	movsd	0x20da7c(%rip),%xmm5
  403a2c:	f2 0f 11 6c 24 10           	(move)  	movsd	%xmm5,0x10(%rsp)
  403a32:	f2 44 0f 10 25 cd da 20 00  	(move)  	movsd	0x20dacd(%rip),%xmm12
  403a3b:	f2 0f 10 2d 2d da 20 00     	(move)  	movsd	0x20da2d(%rip),%xmm5
  403a43:	f2 0f 11 6c 24 18           	(move)  	movsd	%xmm5,0x18(%rsp)
  403a49:	f2 0f 10 2d 5f da 20 00     	(move)  	movsd	0x20da5f(%rip),%xmm5
  403a51:	f2 0f 11 6c 24 20           	(move)  	movsd	%xmm5,0x20(%rsp)
  403a57:	f2 44 0f 10 2d a0 da 20 00  	(move)  	movsd	0x20daa0(%rip),%xmm13
/home/jcsalinas/Documents/pruebas/inst_estimation_module/BT/exact_rhs.f:289
  403a60:	f2 44 0f 10 3d df b3 00 00  	(move)  	movsd	0xb3df(%rip),%xmm15
  403a69:	f2 44 0f 59 3d 0e da 20 00  	(arith) 	mulsd	0x20da0e(%rip),%xmm15
/home/jcsalinas/Documents/pruebas/inst_estimation_module/BT/exact_rhs.f:5
  403a72:	f2 0f 10 2d 0e da 20 00     	(move)  	movsd	0x20da0e(%rip),%xmm5
  403a7a:	f2 0f 11 6c 24 28           	(move)  	movsd	%xmm5,0x28(%rsp)
  403a80:	f2 0f 10 2d 08 da 20 00     	(move)  	movsd	0x20da08(%rip),%xmm5
  403a88:	f2 0f 11 6c 24 30           	(move)  	movsd	%xmm5,0x30(%rsp)
  403a8e:	f2 0f 10 2d 22 da 20 00     	(move)  	movsd	0x20da22(%rip),%xmm5
  403a96:	f2 0f 11 6c 24 38           	(move)  	movsd	%xmm5,0x38(%rsp)
  403a9c:	48 63 c3                    	(move)  	movsxd	%ebx,%rax
  403a9f:	48 8d 04 80                 	(arith) 	lea	(%rax,%rax,4),%rax
  403aa3:	48 01 e8                    	(arith) 	add	%rbp,%rax
  403aa6:	48 8d 14 c5 00 16 61 00     	(arith) 	lea	0x611600(,%rax,8),%rdx
  403aae:	b8 00 12 37 0b              	(move)  	mov	$0xb371200,%eax
  403ab3:	41 8d 73 ff                 	(arith) 	lea	-0x1(%r11),%esi
  403ab7:	b9 01 00 00 00              	(move)  	mov	$0x1,%ecx
; ------- Loop 46 entry
351 (loop 46):	
/home/jcsalinas/Documents/pruebas/inst_estimation_module/BT/exact_rhs.f:260
  403abc:	83 c1 01                    	(arith) 	add	$0x1,%ecx
/home/jcsalinas/Documents/pruebas/inst_estimation_module/BT/exact_rhs.f:264
  403abf:	f2 0f 10 b0 28 10 00 00     	(move)  	movsd	0x1028(%rax),%xmm6
  403ac7:	f2 0f 10 88 18 10 00 00     	(move)  	movsd	0x1018(%rax),%xmm1
  403acf:	f2 0f 10 90 78 06 00 00     	(move)  	movsd	0x678(%rax),%xmm2
  403ad7:	f2 0f 58 d2                 	(arith) 	addsd	%xmm2,%xmm2
  403adb:	f2 0f 10 80 80 06 00 00     	(move)  	movsd	0x680(%rax),%xmm0
  403ae3:	f2 0f 5c c2                 	(arith) 	subsd	%xmm2,%xmm0
  403ae7:	f2 0f 58 80 70 06 00 00     	(arith) 	addsd	0x670(%rax),%xmm0
  403aef:	f2 0f 59 04 24              	(arith) 	mulsd	(%rsp),%xmm0
  403af4:	66 0f 28 de                 	(move)  	movapd	%xmm6,%xmm3
  403af8:	f2 0f 5c d9                 	(arith) 	subsd	%xmm1,%xmm3
  403afc:	f2 41 0f 59 d9              	(arith) 	mulsd	%xmm9,%xmm3
  403b01:	f2 0f 10 92 a8 fc 47 08     	(move)  	movsd	0x847fca8(%rdx),%xmm2
  403b09:	f2 0f 5c d3                 	(arith) 	subsd	%xmm3,%xmm2
  403b0d:	f2 0f 58 d0                 	(arith) 	addsd	%xmm0,%xmm2
  403b11:	f2 0f 11 92 a8 fc 47 08     	(move)  	movsd	%xmm2,0x847fca8(%rdx)
/home/jcsalinas/Documents/pruebas/inst_estimation_module/BT/exact_rhs.f:269
  403b19:	f2 44 0f 10 80 b8 09 00 00  	(move)  	movsd	0x9b8(%rax),%xmm8
  403b22:	f2 0f 10 a8 40 20 00 00     	(move)  	movsd	0x2040(%rax),%xmm5
  403b2a:	f2 0f 10 80 a8 09 00 00     	(move)  	movsd	0x9a8(%rax),%xmm0
  403b32:	f2 0f 10 90 30 20 00 00     	(move)  	movsd	0x2030(%rax),%xmm2
  403b3a:	f2 0f 10 a0 c8 19 00 00     	(move)  	movsd	0x19c8(%rax),%xmm4
  403b42:	f2 0f 58 e4                 	(arith) 	addsd	%xmm4,%xmm4
  403b46:	f2 0f 10 98 d0 19 00 00     	(move)  	movsd	0x19d0(%rax),%xmm3
  403b4e:	f2 0f 5c dc                 	(arith) 	subsd	%xmm4,%xmm3
  403b52:	f2 0f 58 98 c0 19 00 00     	(arith) 	addsd	0x19c0(%rax),%xmm3
  403b5a:	f2 41 0f 59 de              	(arith) 	mulsd	%xmm14,%xmm3
  403b5f:	66 41 0f 28 f8              	(move)  	movapd	%xmm8,%xmm7
  403b64:	f2 0f 59 fd                 	(arith) 	mulsd	%xmm5,%xmm7
  403b68:	66 0f 28 e0                 	(move)  	movapd	%xmm0,%xmm4
  403b6c:	f2 0f 59 e2                 	(arith) 	mulsd	%xmm2,%xmm4
  403b70:	f2 0f 5c fc                 	(arith) 	subsd	%xmm4,%xmm7
  403b74:	f2 41 0f 59 f9              	(arith) 	mulsd	%xmm9,%xmm7
  403b79:	f2 0f 10 a2 b0 fc 47 08     	(move)  	movsd	0x847fcb0(%rdx),%xmm4
  403b81:	f2 0f 5c e7                 	(arith) 	subsd	%xmm7,%xmm4
  403b85:	f2 0f 58 dc                 	(arith) 	addsd	%xmm4,%xmm3
  403b89:	f2 0f 10 a0 b0 09 00 00     	(move)  	movsd	0x9b0(%rax),%xmm4
  403b91:	f2 0f 58 e4                 	(arith) 	addsd	%xmm4,%xmm4
  403b95:	f2 44 0f 5c c4              	(arith) 	subsd	%xmm4,%xmm8
  403b9a:	f2 44 0f 58 c0              	(arith) 	addsd	%xmm0,%xmm8
  403b9f:	f2 44 0f 59 44 24 08        	(arith) 	mulsd	0x8(%rsp),%xmm8
  403ba6:	f2 41 0f 58 d8              	(arith) 	addsd	%xmm8,%xmm3
  403bab:	f2 0f 11 9a b0 fc 47 08     	(move)  	movsd	%xmm3,0x847fcb0(%rdx)
/home/jcsalinas/Documents/pruebas/inst_estimation_module/BT/exact_rhs.f:274
  403bb3:	f2 44 0f 10 80 f0 0c 00 00  	(move)  	movsd	0xcf0(%rax),%xmm8
  403bbc:	f2 0f 10 80 e0 0c 00 00     	(move)  	movsd	0xce0(%rax),%xmm0
  403bc4:	f2 0f 10 a0 00 1d 00 00     	(move)  	movsd	0x1d00(%rax),%xmm4
  403bcc:	f2 0f 58 e4                 	(arith) 	addsd	%xmm4,%xmm4
  403bd0:	f2 0f 10 98 08 1d 00 00     	(move)  	movsd	0x1d08(%rax),%xmm3
  403bd8:	f2 0f 5c dc                 	(arith) 	subsd	%xmm4,%xmm3
  403bdc:	f2 0f 58 98 f8 1c 00 00     	(arith) 	addsd	0x1cf8(%rax),%xmm3
  403be4:	f2 41 0f 59 de              	(arith) 	mulsd	%xmm14,%xmm3
  403be9:	66 0f 28 fd                 	(move)  	movapd	%xmm5,%xmm7
  403bed:	f2 41 0f 59 f8              	(arith) 	mulsd	%xmm8,%xmm7
  403bf2:	66 0f 28 e2                 	(move)  	movapd	%xmm2,%xmm4
  403bf6:	f2 0f 59 e0                 	(arith) 	mulsd	%xmm0,%xmm4
  403bfa:	f2 0f 5c fc                 	(arith) 	subsd	%xmm4,%xmm7
  403bfe:	f2 41 0f 59 f9              	(arith) 	mulsd	%xmm9,%xmm7
  403c03:	f2 0f 10 a2 b8 fc 47 08     	(move)  	movsd	0x847fcb8(%rdx),%xmm4
  403c0b:	f2 0f 5c e7                 	(arith) 	subsd	%xmm7,%xmm4
  403c0f:	f2 0f 58 dc                 	(arith) 	addsd	%xmm4,%xmm3
  403c13:	f2 0f 10 a0 e8 0c 00 00     	(move)  	movsd	0xce8(%rax),%xmm4
  403c1b:	f2 0f 58 e4                 	(arith) 	addsd	%xmm4,%xmm4
  403c1f:	f2 44 0f 5c c4              	(arith) 	subsd	%xmm4,%xmm8
  403c24:	f2 44 0f 58 c0              	(arith) 	addsd	%xmm0,%xmm8
  403c29:	f2 44 0f 59 44 24 10        	(arith) 	mulsd	0x10(%rsp),%xmm8
  403c30:	f2 41 0f 58 d8              	(arith) 	addsd	%xmm8,%xmm3
  403c35:	f2 0f 11 9a b8 fc 47 08     	(move)  	movsd	%xmm3,0x847fcb8(%rdx)
/home/jcsalinas/Documents/pruebas/inst_estimation_module/BT/exact_rhs.f:280
  403c3d:	f2 0f 10 a0 60 13 00 00     	(move)  	movsd	0x1360(%rax),%xmm4
  403c45:	f2 44 0f 10 80 48 03 00 00  	(move)  	movsd	0x348(%rax),%xmm8
  403c4e:	f2 0f 10 80 50 13 00 00     	(move)  	movsd	0x1350(%rax),%xmm0
  403c56:	f2 0f 10 b8 38 03 00 00     	(move)  	movsd	0x338(%rax),%xmm7
  403c5e:	66 0f 28 dc                 	(move)  	movapd	%xmm4,%xmm3
  403c62:	f2 41 0f 5c d8              	(arith) 	subsd	%xmm8,%xmm3
  403c67:	f2 41 0f 59 dc              	(arith) 	mulsd	%xmm12,%xmm3
  403c6c:	66 44 0f 28 d6              	(move)  	movapd	%xmm6,%xmm10
  403c71:	f2 44 0f 59 d5              	(arith) 	mulsd	%xmm5,%xmm10
  403c76:	f2 41 0f 58 da              	(arith) 	addsd	%xmm10,%xmm3
  403c7b:	66 44 0f 28 d8              	(move)  	movapd	%xmm0,%xmm11
  403c80:	f2 44 0f 5c df              	(arith) 	subsd	%xmm7,%xmm11
  403c85:	f2 45 0f 59 dc              	(arith) 	mulsd	%xmm12,%xmm11
  403c8a:	66 44 0f 28 d1              	(move)  	movapd	%xmm1,%xmm10
  403c8f:	f2 44 0f 59 d2              	(arith) 	mulsd	%xmm2,%xmm10
  403c94:	f2 45 0f 58 d3              	(arith) 	addsd	%xmm11,%xmm10
  403c99:	f2 41 0f 5c da              	(arith) 	subsd	%xmm10,%xmm3
  403c9e:	f2 41 0f 59 d9              	(arith) 	mulsd	%xmm9,%xmm3
  403ca3:	66 44 0f 28 db              	(move)  	movapd	%xmm3,%xmm11
  403ca8:	f2 0f 10 9a c0 fc 47 08     	(move)  	movsd	0x847fcc0(%rdx),%xmm3
  403cb0:	f2 41 0f 5c db              	(arith) 	subsd	%xmm11,%xmm3
  403cb5:	66 44 0f 28 d3              	(move)  	movapd	%xmm3,%xmm10
  403cba:	f2 0f 10 98 38 20 00 00     	(move)  	movsd	0x2038(%rax),%xmm3
  403cc2:	f2 0f 58 db                 	(arith) 	addsd	%xmm3,%xmm3
  403cc6:	66 44 0f 28 dd              	(move)  	movapd	%xmm5,%xmm11
  403ccb:	f2 44 0f 5c db              	(arith) 	subsd	%xmm3,%xmm11
  403cd0:	66 41 0f 28 db              	(move)  	movapd	%xmm11,%xmm3
  403cd5:	f2 0f 58 da                 	(arith) 	addsd	%xmm2,%xmm3
  403cd9:	f2 0f 59 5c 24 18           	(arith) 	mulsd	0x18(%rsp),%xmm3
  403cdf:	f2 41 0f 58 da              	(arith) 	addsd	%xmm10,%xmm3
  403ce4:	f2 44 0f 10 90 20 10 00 00  	(move)  	movsd	0x1020(%rax),%xmm10
  403ced:	f2 45 0f 58 d2              	(arith) 	addsd	%xmm10,%xmm10
  403cf2:	f2 41 0f 5c f2              	(arith) 	subsd	%xmm10,%xmm6
  403cf7:	f2 0f 58 f1                 	(arith) 	addsd	%xmm1,%xmm6
  403cfb:	f2 0f 59 74 24 20           	(arith) 	mulsd	0x20(%rsp),%xmm6
  403d01:	f2 0f 58 f3                 	(arith) 	addsd	%xmm3,%xmm6
  403d05:	f2 0f 11 b2 c0 fc 47 08     	(move)  	movsd	%xmm6,0x847fcc0(%rdx)
/home/jcsalinas/Documents/pruebas/inst_estimation_module/BT/exact_rhs.f:289
  403d0d:	66 0f 28 cc                 	(move)  	movapd	%xmm4,%xmm1
  403d11:	f2 41 0f 59 cd              	(arith) 	mulsd	%xmm13,%xmm1
  403d16:	f2 45 0f 59 c4              	(arith) 	mulsd	%xmm12,%xmm8
  403d1b:	f2 41 0f 5c c8              	(arith) 	subsd	%xmm8,%xmm1
  403d20:	f2 0f 59 e9                 	(arith) 	mulsd	%xmm1,%xmm5
  403d24:	66 0f 28 c8                 	(move)  	movapd	%xmm0,%xmm1
  403d28:	f2 41 0f 59 cd              	(arith) 	mulsd	%xmm13,%xmm1
  403d2d:	f2 41 0f 59 fc              	(arith) 	mulsd	%xmm12,%xmm7
  403d32:	f2 0f 5c cf                 	(arith) 	subsd	%xmm7,%xmm1
  403d36:	f2 0f 59 ca                 	(arith) 	mulsd	%xmm2,%xmm1
  403d3a:	f2 0f 5c e9                 	(arith) 	subsd	%xmm1,%xmm5
  403d3e:	f2 41 0f 59 e9              	(arith) 	mulsd	%xmm9,%xmm5
  403d43:	f2 0f 10 8a c8 fc 47 08     	(move)  	movsd	0x847fcc8(%rdx),%xmm1
  403d4b:	66 0f 28 f1                 	(move)  	movapd	%xmm1,%xmm6
  403d4f:	f2 0f 5c f5                 	(arith) 	subsd	%xmm5,%xmm6
  403d53:	f2 0f 10 a8 90 16 00 00     	(move)  	movsd	0x1690(%rax),%xmm5
  403d5b:	f2 0f 58 ed                 	(arith) 	addsd	%xmm5,%xmm5
  403d5f:	f2 0f 10 98 98 16 00 00     	(move)  	movsd	0x1698(%rax),%xmm3
  403d67:	66 0f 28 d3                 	(move)  	movapd	%xmm3,%xmm2
  403d6b:	f2 0f 5c d5                 	(arith) 	subsd	%xmm5,%xmm2
  403d6f:	f2 0f 58 90 88 16 00 00     	(arith) 	addsd	0x1688(%rax),%xmm2
  403d77:	f2 41 0f 59 d7              	(arith) 	mulsd	%xmm15,%xmm2
  403d7c:	f2 0f 58 f2                 	(arith) 	addsd	%xmm2,%xmm6
  403d80:	f2 0f 10 50 08              	(move)  	movsd	0x8(%rax),%xmm2
  403d85:	f2 0f 58 d2                 	(arith) 	addsd	%xmm2,%xmm2
  403d89:	f2 0f 10 58 10              	(move)  	movsd	0x10(%rax),%xmm3
  403d8e:	f2 0f 5c da                 	(arith) 	subsd	%xmm2,%xmm3
  403d92:	66 0f 28 d3                 	(move)  	movapd	%xmm3,%xmm2
  403d96:	f2 0f 58 10                 	(arith) 	addsd	(%rax),%xmm2
  403d9a:	f2 0f 59 54 24 28           	(arith) 	mulsd	0x28(%rsp),%xmm2
  403da0:	f2 0f 58 d6                 	(arith) 	addsd	%xmm6,%xmm2
  403da4:	f2 0f 10 98 70 23 00 00     	(move)  	movsd	0x2370(%rax),%xmm3
  403dac:	f2 0f 58 db                 	(arith) 	addsd	%xmm3,%xmm3
  403db0:	f2 0f 10 88 78 23 00 00     	(move)  	movsd	0x2378(%rax),%xmm1
  403db8:	f2 0f 5c cb                 	(arith) 	subsd	%xmm3,%xmm1
  403dbc:	f2 0f 58 88 68 23 00 00     	(arith) 	addsd	0x2368(%rax),%xmm1
  403dc4:	f2 0f 59 4c 24 30           	(arith) 	mulsd	0x30(%rsp),%xmm1
  403dca:	f2 0f 58 d1                 	(arith) 	addsd	%xmm1,%xmm2
  403dce:	f2 0f 10 88 58 13 00 00     	(move)  	movsd	0x1358(%rax),%xmm1
  403dd6:	f2 0f 58 c9                 	(arith) 	addsd	%xmm1,%xmm1
  403dda:	f2 0f 5c e1                 	(arith) 	subsd	%xmm1,%xmm4
  403dde:	f2 0f 58 c4                 	(arith) 	addsd	%xmm4,%xmm0
  403de2:	f2 0f 59 44 24 38           	(arith) 	mulsd	0x38(%rsp),%xmm0
  403de8:	f2 0f 58 d0                 	(arith) 	addsd	%xmm0,%xmm2
  403dec:	f2 0f 11 92 c8 fc 47 08     	(move)  	movsd	%xmm2,0x847fcc8(%rdx)
  403df4:	48 81 c2 a8 79 06 00        	(arith) 	add	$0x679a8,%rdx
  403dfb:	48 83 c0 08                 	(arith) 	add	$0x8,%rax
/home/jcsalinas/Documents/pruebas/inst_estimation_module/BT/exact_rhs.f:258
  403dff:	39 f1                       	(arith) 	cmp	%esi,%ecx
  403e01:	0f 85 b5 fc ff ff           	(control)	jne	403abc <exact_rhs_+0x15ad>	; ↰ label 351 (loop 46)
; ------- Loop 46 exit
349:	
/home/jcsalinas/Documents/pruebas/inst_estimation_module/BT/exact_rhs.f:298
  403e07:	48 63 c3                    	(move)  	movsxd	%ebx,%rax
  403e0a:	4c 8d 3c 80                 	(arith) 	lea	(%rax,%rax,4),%r15
  403e0e:	48 8b 44 24 48              	(move)  	mov	0x48(%rsp),%rax
  403e13:	4a 8d 0c 38                 	(arith) 	lea	(%rax,%r15,1),%rcx
/home/jcsalinas/Documents/pruebas/inst_estimation_module/BT/exact_rhs.f:5
  403e17:	f2 0f 10 1d 81 d3 20 00     	(move)  	movsd	0x20d381(%rip),%xmm3
  403e1f:	b8 00 12 37 0b              	(move)  	mov	$0xb371200,%eax
  403e24:	48 8b 7c 24 50              	(move)  	mov	0x50(%rsp),%rdi
  403e29:	4c 01 ff                    	(arith) 	add	%r15,%rdi
  403e2c:	48 8d 14 fd 00 16 61 00     	(arith) 	lea	0x611600(,%rdi,8),%rdx
  403e34:	be 18 22 37 0b              	(move)  	mov	$0xb372218,%esi
  403e39:	48 29 f9                    	(arith) 	sub	%rdi,%rcx
/home/jcsalinas/Documents/pruebas/inst_estimation_module/BT/exact_rhs.f:298
  403e3c:	f2 0f 10 35 0c b0 00 00     	(move)  	movsd	0xb00c(%rip),%xmm6
  403e44:	f2 0f 10 25 0c b0 00 00     	(move)  	movsd	0xb00c(%rip),%xmm4
/home/jcsalinas/Documents/pruebas/inst_estimation_module/BT/exact_rhs.f:302
  403e4c:	f2 0f 10 2d 0c b0 00 00     	(move)  	movsd	0xb00c(%rip),%xmm5
; ------- Loop 41 entry
352 (loop 41):	
/home/jcsalinas/Documents/pruebas/inst_estimation_module/BT/exact_rhs.f:298
  403e54:	f2 0f 10 b8 78 06 00 00     	(move)  	movsd	0x678(%rax),%xmm7
  403e5c:	f2 0f 10 80 80 06 00 00     	(move)  	movsd	0x680(%rax),%xmm0
  403e64:	f2 0f 10 90 88 06 00 00     	(move)  	movsd	0x688(%rax),%xmm2
  403e6c:	66 0f 28 cf                 	(move)  	movapd	%xmm7,%xmm1
  403e70:	f2 0f 59 ce                 	(arith) 	mulsd	%xmm6,%xmm1
  403e74:	66 44 0f 28 c0              	(move)  	movapd	%xmm0,%xmm8
  403e79:	f2 44 0f 59 c4              	(arith) 	mulsd	%xmm4,%xmm8
  403e7e:	f2 41 0f 5c c8              	(arith) 	subsd	%xmm8,%xmm1
  403e83:	f2 0f 58 ca                 	(arith) 	addsd	%xmm2,%xmm1
  403e87:	f2 0f 59 cb                 	(arith) 	mulsd	%xmm3,%xmm1
  403e8b:	f2 44 0f 10 84 ca 00 83 41 08	(move)  	movsd	0x8418300(%rdx,%rcx,8),%xmm8
  403e95:	f2 44 0f 5c c1              	(arith) 	subsd	%xmm1,%xmm8
  403e9a:	f2 44 0f 11 84 ca 00 83 41 08	(move)  	movsd	%xmm8,0x8418300(%rdx,%rcx,8)
/home/jcsalinas/Documents/pruebas/inst_estimation_module/BT/exact_rhs.f:302
  403ea4:	f2 0f 59 c5                 	(arith) 	mulsd	%xmm5,%xmm0
  403ea8:	f2 0f 59 fc                 	(arith) 	mulsd	%xmm4,%xmm7
  403eac:	f2 0f 5c c7                 	(arith) 	subsd	%xmm7,%xmm0
  403eb0:	f2 0f 59 d4                 	(arith) 	mulsd	%xmm4,%xmm2
  403eb4:	f2 0f 5c c2                 	(arith) 	subsd	%xmm2,%xmm0
  403eb8:	f2 0f 58 80 90 06 00 00     	(arith) 	addsd	0x690(%rax),%xmm0
  403ec0:	f2 0f 59 c3                 	(arith) 	mulsd	%xmm3,%xmm0
  403ec4:	f2 0f 10 8a 00 83 41 08     	(move)  	movsd	0x8418300(%rdx),%xmm1
  403ecc:	f2 0f 5c c8                 	(arith) 	subsd	%xmm0,%xmm1
  403ed0:	f2 0f 11 8a 00 83 41 08     	(move)  	movsd	%xmm1,0x8418300(%rdx)
  403ed8:	48 05 38 03 00 00           	(arith) 	add	$0x338,%rax
  403ede:	48 83 c2 08                 	(arith) 	add	$0x8,%rdx
/home/jcsalinas/Documents/pruebas/inst_estimation_module/BT/exact_rhs.f:295
  403ee2:	48 39 f0                    	(arith) 	cmp	%rsi,%rax
  403ee5:	0f 85 69 ff ff ff           	(control)	jne	403e54 <exact_rhs_+0x1945>	; ↰ label 352 (loop 41)
; ------- Loop 41 exit
353:	
/home/jcsalinas/Documents/pruebas/inst_estimation_module/BT/exact_rhs.f:305
  403eeb:	45 8d 73 fc                 	(arith) 	lea	-0x4(%r11),%r14d
  403eef:	41 83 fe 02                 	(arith) 	cmp	$0x2,%r14d
  403ef3:	0f 8e c6 00 00 00           	(control)	jle	403fbf <exact_rhs_+0x1ab0>	; ↲ label 354
355:	
  403ef9:	4a 8d 84 3d 9f 6d 02 00     	(arith) 	lea	0x26d9f(%rbp,%r15,1),%rax
  403f01:	4c 8d 0c c5 00 16 61 00     	(arith) 	lea	0x611600(,%rax,8),%r9
  403f09:	41 b8 18 12 37 0b           	(move)  	mov	$0xb371218,%r8d
  403f0f:	41 8d 43 f9                 	(arith) 	lea	-0x7(%r11),%eax
  403f13:	4c 8d 14 c5 20 12 37 0b     	(arith) 	lea	0xb371220(,%rax,8),%r10
  403f1b:	b9 03 00 00 00              	(move)  	mov	$0x3,%ecx
/home/jcsalinas/Documents/pruebas/inst_estimation_module/BT/exact_rhs.f:309
  403f20:	f2 0f 10 15 30 af 00 00     	(move)  	movsd	0xaf30(%rip),%xmm2
  403f28:	f2 0f 10 25 30 af 00 00     	(move)  	movsd	0xaf30(%rip),%xmm4
; ------- Loop 45 entry
356 (loop 45):	
  403f30:	49 8d b8 18 10 00 00        	(arith) 	lea	0x1018(%r8),%rdi
  403f37:	4c 89 c0                    	(move)  	mov	%r8,%rax
  403f3a:	4c 89 ca                    	(move)  	mov	%r9,%rdx
; ------- Loop 44 entry
357 (loop 44):	
  403f3d:	48 8d 71 01                 	(arith) 	lea	0x1(%rcx),%rsi
  403f41:	66 0f 28 ca                 	(move)  	movapd	%xmm2,%xmm1
  403f45:	f2 0f 59 88 68 06 00 00     	(arith) 	mulsd	0x668(%rax),%xmm1
  403f4d:	f2 0f 10 80 60 06 00 00     	(move)  	movsd	0x660(%rax),%xmm0
  403f55:	f2 0f 5c c1                 	(arith) 	subsd	%xmm1,%xmm0
  403f59:	66 0f 28 cc                 	(move)  	movapd	%xmm4,%xmm1
  403f5d:	f2 0f 59 88 70 06 00 00     	(arith) 	mulsd	0x670(%rax),%xmm1
  403f65:	f2 0f 58 c1                 	(arith) 	addsd	%xmm1,%xmm0
  403f69:	66 0f 28 ca                 	(move)  	movapd	%xmm2,%xmm1
  403f6d:	f2 0f 59 88 78 06 00 00     	(arith) 	mulsd	0x678(%rax),%xmm1
  403f75:	f2 0f 5c c1                 	(arith) 	subsd	%xmm1,%xmm0
  403f79:	f2 0f 58 80 80 06 00 00     	(arith) 	addsd	0x680(%rax),%xmm0
  403f81:	f2 0f 59 c3                 	(arith) 	mulsd	%xmm3,%xmm0
  403f85:	f2 0f 10 8a 00 83 41 08     	(move)  	movsd	0x8418300(%rdx),%xmm1
  403f8d:	f2 0f 5c c8                 	(arith) 	subsd	%xmm0,%xmm1
  403f91:	f2 0f 11 8a 00 83 41 08     	(move)  	movsd	%xmm1,0x8418300(%rdx)
  403f99:	48 83 c2 08                 	(arith) 	add	$0x8,%rdx
  403f9d:	48 05 38 03 00 00           	(arith) 	add	$0x338,%rax
/home/jcsalinas/Documents/pruebas/inst_estimation_module/BT/exact_rhs.f:306
  403fa3:	48 39 f8                    	(arith) 	cmp	%rdi,%rax
  403fa6:	75 95                       	(control)	jne	403f3d <exact_rhs_+0x1a2e>	; ↰ label 357 (loop 44)
; ------- Loop 44 exit
358:	
  403fa8:	49 81 c1 a8 79 06 00        	(arith) 	add	$0x679a8,%r9
  403faf:	49 83 c0 08                 	(arith) 	add	$0x8,%r8
  403fb3:	48 89 f1                    	(move)  	mov	%rsi,%rcx
/home/jcsalinas/Documents/pruebas/inst_estimation_module/BT/exact_rhs.f:305
  403fb6:	4d 39 d0                    	(arith) 	cmp	%r10,%r8
  403fb9:	0f 85 71 ff ff ff           	(control)	jne	403f30 <exact_rhs_+0x1a21>	; ↰ label 356 (loop 45)
; ------- Loop 45 exit
354:	
/home/jcsalinas/Documents/pruebas/inst_estimation_module/BT/exact_rhs.f:314
  403fbf:	41 8d 73 fd                 	(arith) 	lea	-0x3(%r11),%esi
/home/jcsalinas/Documents/pruebas/inst_estimation_module/BT/exact_rhs.f:317
  403fc3:	48 63 c6                    	(move)  	movsxd	%esi,%rax
  403fc6:	48 69 c0 35 cf 00 00        	(arith) 	imul	$0xcf35,%rax,%rax
  403fcd:	48 8d 4c 05 00              	(arith) 	lea	(%rbp,%rax,1),%rcx
  403fd2:	4c 01 f9                    	(arith) 	add	%r15,%rcx
  403fd5:	48 8d 84 05 35 cf 00 00     	(arith) 	lea	0xcf35(%rbp,%rax,1),%rax
  403fdd:	49 01 c7                    	(arith) 	add	%rax,%r15
  403fe0:	4a 8d 14 fd 00 16 61 00     	(arith) 	lea	0x611600(,%r15,8),%rdx
/home/jcsalinas/Documents/pruebas/inst_estimation_module/BT/exact_rhs.f:320
  403fe8:	b8 00 00 00 00              	(move)  	mov	$0,%eax
  403fed:	4c 29 f9                    	(arith) 	sub	%r15,%rcx
/home/jcsalinas/Documents/pruebas/inst_estimation_module/BT/exact_rhs.f:317
  403ff0:	4d 63 f6                    	(move)  	movsxd	%r14d,%r14
  403ff3:	48 63 f6                    	(move)  	movsxd	%esi,%rsi
  403ff6:	4d 63 ed                    	(move)  	movsxd	%r13d,%r13
  403ff9:	41 8d 7b fb                 	(arith) 	lea	-0x5(%r11),%edi
  403ffd:	48 63 ff                    	(move)  	movsxd	%edi,%rdi
  404000:	f2 0f 10 2d 50 ae 00 00     	(move)  	movsd	0xae50(%rip),%xmm5
  404008:	f2 0f 10 3d 50 ae 00 00     	(move)  	movsd	0xae50(%rip),%xmm7
/home/jcsalinas/Documents/pruebas/inst_estimation_module/BT/exact_rhs.f:320
  404010:	f2 0f 10 35 38 ae 00 00     	(move)  	movsd	0xae38(%rip),%xmm6
; ------- Loop 42 entry
359 (loop 42):	
/home/jcsalinas/Documents/pruebas/inst_estimation_module/BT/exact_rhs.f:317
  404018:	f2 42 0f 10 a4 f0 70 18 37 0b	(move)  	movsd	0xb371870(%rax,%r14,8),%xmm4
  404022:	f2 44 0f 10 84 f0 70 18 37 0b	(move)  	movsd	0xb371870(%rax,%rsi,8),%xmm8
  40402c:	f2 42 0f 10 84 e8 70 18 37 0b	(move)  	movsd	0xb371870(%rax,%r13,8),%xmm0
  404036:	66 0f 28 d4                 	(move)  	movapd	%xmm4,%xmm2
  40403a:	f2 0f 59 d5                 	(arith) 	mulsd	%xmm5,%xmm2
  40403e:	f2 0f 10 8c f8 70 18 37 0b  	(move)  	movsd	0xb371870(%rax,%rdi,8),%xmm1
  404047:	f2 0f 5c ca                 	(arith) 	subsd	%xmm2,%xmm1
  40404b:	66 41 0f 28 d0              	(move)  	movapd	%xmm8,%xmm2
  404050:	f2 0f 59 d7                 	(arith) 	mulsd	%xmm7,%xmm2
  404054:	f2 0f 58 ca                 	(arith) 	addsd	%xmm2,%xmm1
  404058:	66 0f 28 d0                 	(move)  	movapd	%xmm0,%xmm2
  40405c:	f2 0f 59 d5                 	(arith) 	mulsd	%xmm5,%xmm2
  404060:	f2 0f 5c ca                 	(arith) 	subsd	%xmm2,%xmm1
  404064:	f2 0f 59 cb                 	(arith) 	mulsd	%xmm3,%xmm1
  404068:	f2 0f 10 94 ca 00 83 41 08  	(move)  	movsd	0x8418300(%rdx,%rcx,8),%xmm2
  404071:	f2 0f 5c d1                 	(arith) 	subsd	%xmm1,%xmm2
  404075:	f2 0f 11 94 ca 00 83 41 08  	(move)  	movsd	%xmm2,0x8418300(%rdx,%rcx,8)
/home/jcsalinas/Documents/pruebas/inst_estimation_module/BT/exact_rhs.f:320
  40407e:	f2 44 0f 59 c5              	(arith) 	mulsd	%xmm5,%xmm8
  404083:	f2 41 0f 5c e0              	(arith) 	subsd	%xmm8,%xmm4
  404088:	f2 0f 59 c6                 	(arith) 	mulsd	%xmm6,%xmm0
  40408c:	f2 0f 58 c4                 	(arith) 	addsd	%xmm4,%xmm0
  404090:	f2 0f 59 c3                 	(arith) 	mulsd	%xmm3,%xmm0
  404094:	f2 0f 10 8a 00 83 41 08     	(move)  	movsd	0x8418300(%rdx),%xmm1
  40409c:	f2 0f 5c c8                 	(arith) 	subsd	%xmm0,%xmm1
  4040a0:	f2 0f 11 8a 00 83 41 08     	(move)  	movsd	%xmm1,0x8418300(%rdx)
  4040a8:	48 05 38 03 00 00           	(arith) 	add	$0x338,%rax
  4040ae:	48 83 c2 08                 	(arith) 	add	$0x8,%rdx
/home/jcsalinas/Documents/pruebas/inst_estimation_module/BT/exact_rhs.f:313
  4040b2:	48 3d 18 10 00 00           	(arith) 	cmp	$0x1018,%rax
  4040b8:	0f 85 5a ff ff ff           	(control)	jne	404018 <exact_rhs_+0x1b09>	; ↰ label 359 (loop 42)
; ------- Loop 42 exit
360:	
/home/jcsalinas/Documents/pruebas/inst_estimation_module/BT/exact_rhs.f:234
  4040be:	83 c3 01                    	(arith) 	add	$0x1,%ebx
  4040c1:	39 5c 24 58                 	(arith) 	cmp	%ebx,0x58(%rsp)
  4040c5:	0f 85 8a f7 ff ff           	(control)	jne	403855 <exact_rhs_+0x1346>	; ↰ label 340 (loop 43)
; ------- Loop 43 exit
338:	
/home/jcsalinas/Documents/pruebas/inst_estimation_module/BT/exact_rhs.f:232
  4040cb:	83 44 24 44 01              	(arith) 	addl	$0x1,0x44(%rsp)
  4040d0:	8b 44 24 44                 	(move)  	mov	0x44(%rsp),%eax
  4040d4:	83 e8 01                    	(arith) 	sub	$0x1,%eax
  4040d7:	39 44 24 5c                 	(arith) 	cmp	%eax,0x5c(%rsp)
  4040db:	0f 85 11 f7 ff ff           	(control)	jne	4037f2 <exact_rhs_+0x12e3>	; ↰ label 337 (loop 36)
; ------- Loop 36 exit
335:	
/home/jcsalinas/Documents/pruebas/inst_estimation_module/BT/exact_rhs.f:329
  4040e1:	8b 1d 09 d5 20 00           	(move)  	mov	0x20d509(%rip),%ebx
  4040e7:	8d 43 fe                    	(arith) 	lea	-0x2(%rbx),%eax
  4040ea:	85 c0                       	(arith) 	test	%eax,%eax
  4040ec:	0f 8e e0 00 00 00           	(control)	jle	4041d2 <exact_rhs_+0x1cc3>	; ↲ label 361
362:	
/home/jcsalinas/Documents/pruebas/inst_estimation_module/BT/exact_rhs.f:330
  4040f2:	44 8b 0d f3 d4 20 00        	(move)  	mov	0x20d4f3(%rip),%r9d
  4040f9:	45 8d 61 fe                 	(arith) 	lea	-0x2(%r9),%r12d
/home/jcsalinas/Documents/pruebas/inst_estimation_module/BT/exact_rhs.f:331
  4040fd:	8b 3d e5 d4 20 00           	(move)  	mov	0x20d4e5(%rip),%edi
  404103:	8d 6f fe                    	(arith) 	lea	-0x2(%rdi),%ebp
  404106:	83 eb 01                    	(arith) 	sub	$0x1,%ebx
  404109:	41 bb 01 00 00 00           	(move)  	mov	$0x1,%r11d
  40410f:	41 83 e9 01                 	(arith) 	sub	$0x1,%r9d
  404113:	83 ef 01                    	(arith) 	sub	$0x1,%edi
/home/jcsalinas/Documents/pruebas/inst_estimation_module/BT/exact_rhs.f:333
  404116:	f2 0f 10 0d 52 ad 00 00     	(move)  	movsd	0xad52(%rip),%xmm1
; ------- Loop 37 entry
363 (loop 37):	
/home/jcsalinas/Documents/pruebas/inst_estimation_module/BT/exact_rhs.f:330
  40411e:	45 85 e4                    	(arith) 	test	%r12d,%r12d
  404121:	7e 74                       	(control)	jle	404197 <exact_rhs_+0x1c88>	; ↲ label 364
365:	
/home/jcsalinas/Documents/pruebas/inst_estimation_module/BT/exact_rhs.f:333
  404123:	4d 63 d3                    	(move)  	movsxd	%r11d,%r10
  404126:	4d 69 d2 35 cf 00 00        	(arith) 	imul	$0xcf35,%r10,%r10
  40412d:	41 b8 01 00 00 00           	(move)  	mov	$0x1,%r8d
; ------- Loop 38 entry
366 (loop 38):	
/home/jcsalinas/Documents/pruebas/inst_estimation_module/BT/exact_rhs.f:331
  404133:	85 ed                       	(arith) 	test	%ebp,%ebp
  404135:	7e 57                       	(control)	jle	40418e <exact_rhs_+0x1c7f>	; ↲ label 367
368:	
/home/jcsalinas/Documents/pruebas/inst_estimation_module/BT/exact_rhs.f:333
  404137:	49 63 c0                    	(move)  	movsxd	%r8d,%rax
  40413a:	48 89 c2                    	(move)  	mov	%rax,%rdx
  40413d:	48 c1 e2 08                 	(logic) 	sal	$0x8,%rdx
  404141:	48 01 c2                    	(arith) 	add	%rax,%rdx
  404144:	48 8d 34 50                 	(arith) 	lea	(%rax,%rdx,2),%rsi
  404148:	4c 01 d6                    	(arith) 	add	%r10,%rsi
  40414b:	b9 01 00 00 00              	(move)  	mov	$0x1,%ecx
; ------- Loop 40 entry
369 (loop 40):	
  404150:	48 63 c1                    	(move)  	movsxd	%ecx,%rax
  404153:	48 8d 14 80                 	(arith) 	lea	(%rax,%rax,4),%rdx
  404157:	48 01 f2                    	(arith) 	add	%rsi,%rdx
  40415a:	48 8d 04 d5 00 16 61 00     	(arith) 	lea	0x611600(,%rdx,8),%rax
  404162:	48 8d 14 d5 28 16 61 00     	(arith) 	lea	0x611628(,%rdx,8),%rdx
; ------- Loop 39 entry
370 (loop 39):	
  40416a:	f2 0f 10 80 00 83 41 08     	(move)  	movsd	0x8418300(%rax),%xmm0
  404172:	66 0f 57 c1                 	(logic) 	xorpd	%xmm1,%xmm0
  404176:	f2 0f 11 80 00 83 41 08     	(move)  	movsd	%xmm0,0x8418300(%rax)
  40417e:	48 83 c0 08                 	(arith) 	add	$0x8,%rax
/home/jcsalinas/Documents/pruebas/inst_estimation_module/BT/exact_rhs.f:332
  404182:	48 39 d0                    	(arith) 	cmp	%rdx,%rax
  404185:	75 e3                       	(control)	jne	40416a <exact_rhs_+0x1c5b>	; ↰ label 370 (loop 39)
; ------- Loop 39 exit
371:	
/home/jcsalinas/Documents/pruebas/inst_estimation_module/BT/exact_rhs.f:331
  404187:	83 c1 01                    	(arith) 	add	$0x1,%ecx
  40418a:	39 cf                       	(arith) 	cmp	%ecx,%edi
  40418c:	75 c2                       	(control)	jne	404150 <exact_rhs_+0x1c41>	; ↰ label 369 (loop 40)
; ------- Loop 40 exit
367:	
/home/jcsalinas/Documents/pruebas/inst_estimation_module/BT/exact_rhs.f:330
  40418e:	41 83 c0 01                 	(arith) 	add	$0x1,%r8d
  404192:	45 39 c1                    	(arith) 	cmp	%r8d,%r9d
  404195:	75 9c                       	(control)	jne	404133 <exact_rhs_+0x1c24>	; ↰ label 366 (loop 38)
; ------- Loop 38 exit
364:	
/home/jcsalinas/Documents/pruebas/inst_estimation_module/BT/exact_rhs.f:329
  404197:	41 83 c3 01                 	(arith) 	add	$0x1,%r11d
  40419b:	41 39 db                    	(arith) 	cmp	%ebx,%r11d
  40419e:	0f 85 7a ff ff ff           	(control)	jne	40411e <exact_rhs_+0x1c0f>	; ↰ label 363 (loop 37)
; ------- Loop 37 exit
372:	
  4041a4:	eb 2c                       	(control)	jmp	4041d2 <exact_rhs_+0x1cc3>	; ↲ label 361
308:	
/home/jcsalinas/Documents/pruebas/inst_estimation_module/BT/exact_rhs.f:232
  4041a6:	8b 05 40 d4 20 00           	(move)  	mov	0x20d440(%rip),%eax
  4041ac:	83 e8 02                    	(arith) 	sub	$0x2,%eax
  4041af:	89 44 24 5c                 	(move)  	mov	%eax,0x5c(%rsp)
  4041b3:	85 c0                       	(arith) 	test	%eax,%eax
  4041b5:	0f 8f 27 f6 ff ff           	(control)	jg	4037e2 <exact_rhs_+0x12d3>	; ↰ label 336
373:	
  4041bb:	eb 15                       	(control)	jmp	4041d2 <exact_rhs_+0x1cc3>	; ↲ label 361
281:	
  4041bd:	8b 05 29 d4 20 00           	(move)  	mov	0x20d429(%rip),%eax
  4041c3:	83 e8 02                    	(arith) 	sub	$0x2,%eax
  4041c6:	89 44 24 5c                 	(move)  	mov	%eax,0x5c(%rsp)
  4041ca:	85 c0                       	(arith) 	test	%eax,%eax
  4041cc:	0f 8f 10 f6 ff ff           	(control)	jg	4037e2 <exact_rhs_+0x12d3>	; ↰ label 336
361:	
/home/jcsalinas/Documents/pruebas/inst_estimation_module/BT/exact_rhs.f:341
  4041d2:	48 81 c4 b8 00 00 00        	(arith) 	add	$0xb8,%rsp
  4041d9:	5b                          	(move)  	pop	%rbx
  4041da:	5d                          	(move)  	pop	%rbp
  4041db:	41 5c                       	(move)  	pop	%r12
  4041dd:	41 5d                       	(move)  	pop	%r13
  4041df:	41 5e                       	(move)  	pop	%r14
  4041e1:	41 5f                       	(move)  	pop	%r15
  4041e3:	c3                          	(control)	ret


00000000004041e4 <set_constants>:
94 (function set_constants_):	
/home/jcsalinas/Documents/pruebas/inst_estimation_module/BT/set_constants.f:4
  4041e4:	f2 0f 10 15 94 ac 00 00     	(move)  	movsd	0xac94(%rip),%xmm2
/home/jcsalinas/Documents/pruebas/inst_estimation_module/BT/set_constants.f:11
  4041ec:	f2 0f 11 15 bc cf 20 00     	(move)  	movsd	%xmm2,0x20cfbc(%rip)
/home/jcsalinas/Documents/pruebas/inst_estimation_module/BT/set_constants.f:12
  4041f4:	66 0f ef c9                 	(logic) 	pxor	%xmm1,%xmm1
  4041f8:	f2 0f 11 0d d8 cf 20 00     	(move)  	movsd	%xmm1,0x20cfd8(%rip)
/home/jcsalinas/Documents/pruebas/inst_estimation_module/BT/set_constants.f:13
  404200:	f2 0f 11 0d f8 cf 20 00     	(move)  	movsd	%xmm1,0x20cff8(%rip)
/home/jcsalinas/Documents/pruebas/inst_estimation_module/BT/set_constants.f:14
  404208:	f2 44 0f 10 15 47 ac 00 00  	(move)  	movsd	0xac47(%rip),%xmm10
  404211:	f2 44 0f 11 15 0e d0 20 00  	(move)  	movsd	%xmm10,0x20d00e(%rip)
/home/jcsalinas/Documents/pruebas/inst_estimation_module/BT/set_constants.f:15
  40421a:	f2 44 0f 10 0d 2d ac 00 00  	(move)  	movsd	0xac2d(%rip),%xmm9
  404223:	f2 44 0f 11 0d 24 d0 20 00  	(move)  	movsd	%xmm9,0x20d024(%rip)
/home/jcsalinas/Documents/pruebas/inst_estimation_module/BT/set_constants.f:16
  40422c:	f2 0f 10 35 54 ac 00 00     	(move)  	movsd	0xac54(%rip),%xmm6
  404234:	f2 0f 11 35 3c d0 20 00     	(move)  	movsd	%xmm6,0x20d03c(%rip)
/home/jcsalinas/Documents/pruebas/inst_estimation_module/BT/set_constants.f:17
  40423c:	f2 0f 10 3d 04 ac 00 00     	(move)  	movsd	0xac04(%rip),%xmm7
  404244:	f2 0f 11 3d 54 d0 20 00     	(move)  	movsd	%xmm7,0x20d054(%rip)
/home/jcsalinas/Documents/pruebas/inst_estimation_module/BT/set_constants.f:18
  40424c:	f2 44 0f 10 05 3b ac 00 00  	(move)  	movsd	0xac3b(%rip),%xmm8
  404255:	f2 44 0f 11 05 6a d0 20 00  	(move)  	movsd	%xmm8,0x20d06a(%rip)
/home/jcsalinas/Documents/pruebas/inst_estimation_module/BT/set_constants.f:19
  40425e:	f2 44 0f 10 1d 31 ac 00 00  	(move)  	movsd	0xac31(%rip),%xmm11
  404267:	f2 44 0f 11 1d 80 d0 20 00  	(move)  	movsd	%xmm11,0x20d080(%rip)
/home/jcsalinas/Documents/pruebas/inst_estimation_module/BT/set_constants.f:20
  404270:	f2 0f 10 2d 28 ac 00 00     	(move)  	movsd	0xac28(%rip),%xmm5
  404278:	f2 0f 11 2d 98 d0 20 00     	(move)  	movsd	%xmm5,0x20d098(%rip)
/home/jcsalinas/Documents/pruebas/inst_estimation_module/BT/set_constants.f:21
  404280:	f2 0f 11 3d b8 d0 20 00     	(move)  	movsd	%xmm7,0x20d0b8(%rip)
/home/jcsalinas/Documents/pruebas/inst_estimation_module/BT/set_constants.f:22
  404288:	f2 0f 10 25 18 ac 00 00     	(move)  	movsd	0xac18(%rip),%xmm4
  404290:	f2 0f 11 25 d0 d0 20 00     	(move)  	movsd	%xmm4,0x20d0d0(%rip)
/home/jcsalinas/Documents/pruebas/inst_estimation_module/BT/set_constants.f:23
  404298:	f2 0f 10 1d 10 ac 00 00     	(move)  	movsd	0xac10(%rip),%xmm3
  4042a0:	f2 0f 11 1d e8 d0 20 00     	(move)  	movsd	%xmm3,0x20d0e8(%rip)
/home/jcsalinas/Documents/pruebas/inst_estimation_module/BT/set_constants.f:25
  4042a8:	f2 0f 10 05 80 ab 00 00     	(move)  	movsd	0xab80(%rip),%xmm0
  4042b0:	f2 0f 11 05 00 cf 20 00     	(move)  	movsd	%xmm0,0x20cf00(%rip)
/home/jcsalinas/Documents/pruebas/inst_estimation_module/BT/set_constants.f:26
  4042b8:	f2 0f 11 0d 20 cf 20 00     	(move)  	movsd	%xmm1,0x20cf20(%rip)
/home/jcsalinas/Documents/pruebas/inst_estimation_module/BT/set_constants.f:27
  4042c0:	f2 0f 11 0d 40 cf 20 00     	(move)  	movsd	%xmm1,0x20cf40(%rip)
/home/jcsalinas/Documents/pruebas/inst_estimation_module/BT/set_constants.f:28
  4042c8:	f2 0f 11 0d 60 cf 20 00     	(move)  	movsd	%xmm1,0x20cf60(%rip)
/home/jcsalinas/Documents/pruebas/inst_estimation_module/BT/set_constants.f:29
  4042d0:	f2 0f 11 05 80 cf 20 00     	(move)  	movsd	%xmm0,0x20cf80(%rip)
/home/jcsalinas/Documents/pruebas/inst_estimation_module/BT/set_constants.f:30
  4042d8:	f2 0f 11 15 a0 cf 20 00     	(move)  	movsd	%xmm2,0x20cfa0(%rip)
/home/jcsalinas/Documents/pruebas/inst_estimation_module/BT/set_constants.f:31
  4042e0:	f2 0f 11 35 c0 cf 20 00     	(move)  	movsd	%xmm6,0x20cfc0(%rip)
/home/jcsalinas/Documents/pruebas/inst_estimation_module/BT/set_constants.f:32
  4042e8:	f2 44 0f 11 1d df cf 20 00  	(move)  	movsd	%xmm11,0x20cfdf(%rip)
/home/jcsalinas/Documents/pruebas/inst_estimation_module/BT/set_constants.f:33
  4042f1:	f2 0f 11 2d ff cf 20 00     	(move)  	movsd	%xmm5,0x20cfff(%rip)
/home/jcsalinas/Documents/pruebas/inst_estimation_module/BT/set_constants.f:34
  4042f9:	f2 44 0f 11 05 1e d0 20 00  	(move)  	movsd	%xmm8,0x20d01e(%rip)
/home/jcsalinas/Documents/pruebas/inst_estimation_module/BT/set_constants.f:35
  404302:	f2 0f 11 25 3e d0 20 00     	(move)  	movsd	%xmm4,0x20d03e(%rip)
/home/jcsalinas/Documents/pruebas/inst_estimation_module/BT/set_constants.f:36
  40430a:	f2 0f 11 1d 5e d0 20 00     	(move)  	movsd	%xmm3,0x20d05e(%rip)
/home/jcsalinas/Documents/pruebas/inst_estimation_module/BT/set_constants.f:37
  404312:	f2 0f 11 3d 7e d0 20 00     	(move)  	movsd	%xmm7,0x20d07e(%rip)
/home/jcsalinas/Documents/pruebas/inst_estimation_module/BT/set_constants.f:39
  40431a:	f2 0f 11 15 9e ce 20 00     	(move)  	movsd	%xmm2,0x20ce9e(%rip)
/home/jcsalinas/Documents/pruebas/inst_estimation_module/BT/set_constants.f:40
  404322:	f2 0f 11 15 be ce 20 00     	(move)  	movsd	%xmm2,0x20cebe(%rip)
/home/jcsalinas/Documents/pruebas/inst_estimation_module/BT/set_constants.f:41
  40432a:	f2 0f 11 0d de ce 20 00     	(move)  	movsd	%xmm1,0x20cede(%rip)
/home/jcsalinas/Documents/pruebas/inst_estimation_module/BT/set_constants.f:42
  404332:	f2 0f 11 0d fe ce 20 00     	(move)  	movsd	%xmm1,0x20cefe(%rip)
/home/jcsalinas/Documents/pruebas/inst_estimation_module/BT/set_constants.f:43
  40433a:	f2 0f 11 0d 1e cf 20 00     	(move)  	movsd	%xmm1,0x20cf1e(%rip)
/home/jcsalinas/Documents/pruebas/inst_estimation_module/BT/set_constants.f:44
  404342:	f2 0f 11 15 3e cf 20 00     	(move)  	movsd	%xmm2,0x20cf3e(%rip)
/home/jcsalinas/Documents/pruebas/inst_estimation_module/BT/set_constants.f:45
  40434a:	f2 0f 11 35 5e cf 20 00     	(move)  	movsd	%xmm6,0x20cf5e(%rip)
/home/jcsalinas/Documents/pruebas/inst_estimation_module/BT/set_constants.f:46
  404352:	f2 44 0f 10 05 5d ab 00 00  	(move)  	movsd	0xab5d(%rip),%xmm8
  40435b:	f2 44 0f 11 05 74 cf 20 00  	(move)  	movsd	%xmm8,0x20cf74(%rip)
/home/jcsalinas/Documents/pruebas/inst_estimation_module/BT/set_constants.f:47
  404364:	f2 0f 11 2d 94 cf 20 00     	(move)  	movsd	%xmm5,0x20cf94(%rip)
/home/jcsalinas/Documents/pruebas/inst_estimation_module/BT/set_constants.f:48
  40436c:	f2 44 0f 10 1d 4b ab 00 00  	(move)  	movsd	0xab4b(%rip),%xmm11
  404375:	f2 44 0f 11 1d aa cf 20 00  	(move)  	movsd	%xmm11,0x20cfaa(%rip)
/home/jcsalinas/Documents/pruebas/inst_estimation_module/BT/set_constants.f:49
  40437e:	f2 0f 11 1d ca cf 20 00     	(move)  	movsd	%xmm3,0x20cfca(%rip)
/home/jcsalinas/Documents/pruebas/inst_estimation_module/BT/set_constants.f:50
  404386:	f2 0f 11 3d ea cf 20 00     	(move)  	movsd	%xmm7,0x20cfea(%rip)
/home/jcsalinas/Documents/pruebas/inst_estimation_module/BT/set_constants.f:51
  40438e:	f2 0f 11 25 0a d0 20 00     	(move)  	movsd	%xmm4,0x20d00a(%rip)
/home/jcsalinas/Documents/pruebas/inst_estimation_module/BT/set_constants.f:53
  404396:	f2 0f 11 15 2a ce 20 00     	(move)  	movsd	%xmm2,0x20ce2a(%rip)
/home/jcsalinas/Documents/pruebas/inst_estimation_module/BT/set_constants.f:54
  40439e:	f2 0f 11 15 4a ce 20 00     	(move)  	movsd	%xmm2,0x20ce4a(%rip)
/home/jcsalinas/Documents/pruebas/inst_estimation_module/BT/set_constants.f:55
  4043a6:	f2 0f 11 0d 6a ce 20 00     	(move)  	movsd	%xmm1,0x20ce6a(%rip)
/home/jcsalinas/Documents/pruebas/inst_estimation_module/BT/set_constants.f:56
  4043ae:	f2 0f 11 0d 8a ce 20 00     	(move)  	movsd	%xmm1,0x20ce8a(%rip)
/home/jcsalinas/Documents/pruebas/inst_estimation_module/BT/set_constants.f:57
  4043b6:	f2 0f 11 0d aa ce 20 00     	(move)  	movsd	%xmm1,0x20ceaa(%rip)
/home/jcsalinas/Documents/pruebas/inst_estimation_module/BT/set_constants.f:58
  4043be:	f2 0f 11 15 ca ce 20 00     	(move)  	movsd	%xmm2,0x20ceca(%rip)
/home/jcsalinas/Documents/pruebas/inst_estimation_module/BT/set_constants.f:59
  4043c6:	f2 0f 11 35 ea ce 20 00     	(move)  	movsd	%xmm6,0x20ceea(%rip)
/home/jcsalinas/Documents/pruebas/inst_estimation_module/BT/set_constants.f:60
  4043ce:	f2 0f 11 2d 0a cf 20 00     	(move)  	movsd	%xmm5,0x20cf0a(%rip)
/home/jcsalinas/Documents/pruebas/inst_estimation_module/BT/set_constants.f:61
  4043d6:	f2 44 0f 11 1d 29 cf 20 00  	(move)  	movsd	%xmm11,0x20cf29(%rip)
/home/jcsalinas/Documents/pruebas/inst_estimation_module/BT/set_constants.f:62
  4043df:	f2 44 0f 11 05 48 cf 20 00  	(move)  	movsd	%xmm8,0x20cf48(%rip)
/home/jcsalinas/Documents/pruebas/inst_estimation_module/BT/set_constants.f:63
  4043e8:	f2 0f 10 3d d8 aa 00 00     	(move)  	movsd	0xaad8(%rip),%xmm7
  4043f0:	f2 0f 11 3d 60 cf 20 00     	(move)  	movsd	%xmm7,0x20cf60(%rip)
/home/jcsalinas/Documents/pruebas/inst_estimation_module/BT/set_constants.f:64
  4043f8:	f2 0f 10 0d d0 aa 00 00     	(move)  	movsd	0xaad0(%rip),%xmm1
  404400:	f2 0f 11 0d 78 cf 20 00     	(move)  	movsd	%xmm1,0x20cf78(%rip)
/home/jcsalinas/Documents/pruebas/inst_estimation_module/BT/set_constants.f:65
  404408:	f2 0f 11 1d 98 cf 20 00     	(move)  	movsd	%xmm3,0x20cf98(%rip)
/home/jcsalinas/Documents/pruebas/inst_estimation_module/BT/set_constants.f:67
  404410:	f2 44 0f 11 0d b7 cd 20 00  	(move)  	movsd	%xmm9,0x20cdb7(%rip)
/home/jcsalinas/Documents/pruebas/inst_estimation_module/BT/set_constants.f:68
  404419:	f2 44 0f 11 15 d6 cd 20 00  	(move)  	movsd	%xmm10,0x20cdd6(%rip)
/home/jcsalinas/Documents/pruebas/inst_estimation_module/BT/set_constants.f:69
  404422:	f2 0f 11 35 f6 cd 20 00     	(move)  	movsd	%xmm6,0x20cdf6(%rip)
/home/jcsalinas/Documents/pruebas/inst_estimation_module/BT/set_constants.f:70
  40442a:	f2 0f 11 15 16 ce 20 00     	(move)  	movsd	%xmm2,0x20ce16(%rip)
/home/jcsalinas/Documents/pruebas/inst_estimation_module/BT/set_constants.f:71
  404432:	f2 0f 11 0d 36 ce 20 00     	(move)  	movsd	%xmm1,0x20ce36(%rip)
/home/jcsalinas/Documents/pruebas/inst_estimation_module/BT/set_constants.f:72
  40443a:	f2 0f 11 25 56 ce 20 00     	(move)  	movsd	%xmm4,0x20ce56(%rip)
/home/jcsalinas/Documents/pruebas/inst_estimation_module/BT/set_constants.f:73
  404442:	f2 0f 11 1d 76 ce 20 00     	(move)  	movsd	%xmm3,0x20ce76(%rip)
/home/jcsalinas/Documents/pruebas/inst_estimation_module/BT/set_constants.f:74
  40444a:	f2 44 0f 11 1d 95 ce 20 00  	(move)  	movsd	%xmm11,0x20ce95(%rip)
/home/jcsalinas/Documents/pruebas/inst_estimation_module/BT/set_constants.f:75
  404453:	f2 44 0f 11 05 b4 ce 20 00  	(move)  	movsd	%xmm8,0x20ceb4(%rip)
/home/jcsalinas/Documents/pruebas/inst_estimation_module/BT/set_constants.f:76
  40445c:	f2 0f 11 2d d4 ce 20 00     	(move)  	movsd	%xmm5,0x20ced4(%rip)
/home/jcsalinas/Documents/pruebas/inst_estimation_module/BT/set_constants.f:77
  404464:	f2 0f 11 0d f4 ce 20 00     	(move)  	movsd	%xmm1,0x20cef4(%rip)
/home/jcsalinas/Documents/pruebas/inst_estimation_module/BT/set_constants.f:78
  40446c:	f2 0f 11 1d 14 cf 20 00     	(move)  	movsd	%xmm3,0x20cf14(%rip)
/home/jcsalinas/Documents/pruebas/inst_estimation_module/BT/set_constants.f:79
  404474:	f2 0f 11 3d 34 cf 20 00     	(move)  	movsd	%xmm7,0x20cf34(%rip)
/home/jcsalinas/Documents/pruebas/inst_estimation_module/BT/set_constants.f:81
  40447c:	f2 0f 10 15 54 aa 00 00     	(move)  	movsd	0xaa54(%rip),%xmm2
  404484:	f2 0f 11 15 74 d0 20 00     	(move)  	movsd	%xmm2,0x20d074(%rip)
/home/jcsalinas/Documents/pruebas/inst_estimation_module/BT/set_constants.f:82
  40448c:	f2 0f 11 25 74 d0 20 00     	(move)  	movsd	%xmm4,0x20d074(%rip)
/home/jcsalinas/Documents/pruebas/inst_estimation_module/BT/set_constants.f:83
  404494:	f2 0f 11 0d 74 d0 20 00     	(move)  	movsd	%xmm1,0x20d074(%rip)
/home/jcsalinas/Documents/pruebas/inst_estimation_module/BT/set_constants.f:84
  40449c:	f2 0f 11 05 74 d0 20 00     	(move)  	movsd	%xmm0,0x20d074(%rip)
/home/jcsalinas/Documents/pruebas/inst_estimation_module/BT/set_constants.f:85
  4044a4:	f2 0f 11 15 74 d0 20 00     	(move)  	movsd	%xmm2,0x20d074(%rip)
/home/jcsalinas/Documents/pruebas/inst_estimation_module/BT/set_constants.f:87
  4044ac:	8b 05 36 d1 20 00           	(move)  	mov	0x20d136(%rip),%eax
  4044b2:	83 e8 01                    	(arith) 	sub	$0x1,%eax
  4044b5:	66 0f ef d2                 	(logic) 	pxor	%xmm2,%xmm2
  4044b9:	f2 0f 2a d0                 	(conv)  	cvtsi2sd	%eax,%xmm2
  4044bd:	66 0f 28 e0                 	(move)  	movapd	%xmm0,%xmm4
  4044c1:	f2 0f 5e e2                 	(arith) 	divsd	%xmm2,%xmm4
  4044c5:	f2 0f 11 25 f3 cf 20 00     	(move)  	movsd	%xmm4,0x20cff3(%rip)
/home/jcsalinas/Documents/pruebas/inst_estimation_module/BT/set_constants.f:88
  4044cd:	8b 05 19 d1 20 00           	(move)  	mov	0x20d119(%rip),%eax
  4044d3:	83 e8 01                    	(arith) 	sub	$0x1,%eax
  4044d6:	66 0f ef d2                 	(logic) 	pxor	%xmm2,%xmm2
  4044da:	f2 0f 2a d0                 	(conv)  	cvtsi2sd	%eax,%xmm2
  4044de:	66 0f 28 d8                 	(move)  	movapd	%xmm0,%xmm3
  4044e2:	f2 0f 5e da                 	(arith) 	divsd	%xmm2,%xmm3
  4044e6:	f2 0f 11 1d da cf 20 00     	(move)  	movsd	%xmm3,0x20cfda(%rip)
/home/jcsalinas/Documents/pruebas/inst_estimation_module/BT/set_constants.f:89
  4044ee:	8b 05 fc d0 20 00           	(move)  	mov	0x20d0fc(%rip),%eax
  4044f4:	83 e8 01                    	(arith) 	sub	$0x1,%eax
  4044f7:	66 0f ef d2                 	(logic) 	pxor	%xmm2,%xmm2
  4044fb:	f2 0f 2a d0                 	(conv)  	cvtsi2sd	%eax,%xmm2
  4044ff:	66 0f 28 f8                 	(move)  	movapd	%xmm0,%xmm7
  404503:	f2 0f 5e fa                 	(arith) 	divsd	%xmm2,%xmm7
  404507:	66 0f 28 d7                 	(move)  	movapd	%xmm7,%xmm2
  40450b:	f2 0f 11 3d bd cf 20 00     	(move)  	movsd	%xmm7,0x20cfbd(%rip)
/home/jcsalinas/Documents/pruebas/inst_estimation_module/BT/set_constants.f:91
  404513:	f2 0f 10 3d c5 a9 00 00     	(move)  	movsd	0xa9c5(%rip),%xmm7
  40451b:	f2 0f 11 3d b5 cf 20 00     	(move)  	movsd	%xmm7,0x20cfb5(%rip)
/home/jcsalinas/Documents/pruebas/inst_estimation_module/BT/set_constants.f:92
  404523:	f2 0f 10 3d bd a9 00 00     	(move)  	movsd	0xa9bd(%rip),%xmm7
  40452b:	f2 0f 11 3d ad cf 20 00     	(move)  	movsd	%xmm7,0x20cfad(%rip)
/home/jcsalinas/Documents/pruebas/inst_estimation_module/BT/set_constants.f:93
  404533:	f2 0f 11 0d ad cf 20 00     	(move)  	movsd	%xmm1,0x20cfad(%rip)
/home/jcsalinas/Documents/pruebas/inst_estimation_module/BT/set_constants.f:94
  40453b:	f2 0f 10 3d ad a9 00 00     	(move)  	movsd	0xa9ad(%rip),%xmm7
  404543:	f2 0f 11 3d a5 cf 20 00     	(move)  	movsd	%xmm7,0x20cfa5(%rip)
/home/jcsalinas/Documents/pruebas/inst_estimation_module/BT/set_constants.f:96
  40454b:	f2 0f 10 3d a5 a9 00 00     	(move)  	movsd	0xa9a5(%rip),%xmm7
  404553:	f2 0f 11 3d 9d cf 20 00     	(move)  	movsd	%xmm7,0x20cf9d(%rip)
/home/jcsalinas/Documents/pruebas/inst_estimation_module/BT/set_constants.f:98
  40455b:	66 0f 28 ec                 	(move)  	movapd	%xmm4,%xmm5
  40455f:	f2 0f 59 ec                 	(arith) 	mulsd	%xmm4,%xmm5
  404563:	66 0f 28 f0                 	(move)  	movapd	%xmm0,%xmm6
  404567:	f2 0f 5e f5                 	(arith) 	divsd	%xmm5,%xmm6
  40456b:	f2 0f 11 35 6d cb 20 00     	(move)  	movsd	%xmm6,0x20cb6d(%rip)
/home/jcsalinas/Documents/pruebas/inst_estimation_module/BT/set_constants.f:99
  404573:	66 0f 28 ec                 	(move)  	movapd	%xmm4,%xmm5
  404577:	f2 0f 58 ec                 	(arith) 	addsd	%xmm4,%xmm5
  40457b:	66 44 0f 28 e8              	(move)  	movapd	%xmm0,%xmm13
  404580:	f2 44 0f 5e ed              	(arith) 	divsd	%xmm5,%xmm13
  404585:	f2 44 0f 11 2d 5a cb 20 00  	(move)  	movsd	%xmm13,0x20cb5a(%rip)
/home/jcsalinas/Documents/pruebas/inst_estimation_module/BT/set_constants.f:100
  40458e:	66 0f 28 e8                 	(move)  	movapd	%xmm0,%xmm5
  404592:	f2 0f 5e ec                 	(arith) 	divsd	%xmm4,%xmm5
  404596:	f2 0f 11 2d 52 cb 20 00     	(move)  	movsd	%xmm5,0x20cb52(%rip)
/home/jcsalinas/Documents/pruebas/inst_estimation_module/BT/set_constants.f:102
  40459e:	66 0f 28 e3                 	(move)  	movapd	%xmm3,%xmm4
  4045a2:	f2 0f 59 e3                 	(arith) 	mulsd	%xmm3,%xmm4
  4045a6:	66 44 0f 28 f0              	(move)  	movapd	%xmm0,%xmm14
  4045ab:	f2 44 0f 5e f4              	(arith) 	divsd	%xmm4,%xmm14
  4045b0:	f2 44 0f 11 35 3f cb 20 00  	(move)  	movsd	%xmm14,0x20cb3f(%rip)
/home/jcsalinas/Documents/pruebas/inst_estimation_module/BT/set_constants.f:103
  4045b9:	66 0f 28 e3                 	(move)  	movapd	%xmm3,%xmm4
  4045bd:	f2 0f 58 e3                 	(arith) 	addsd	%xmm3,%xmm4
  4045c1:	66 44 0f 28 e0              	(move)  	movapd	%xmm0,%xmm12
  4045c6:	f2 44 0f 5e e4              	(arith) 	divsd	%xmm4,%xmm12
  4045cb:	f2 44 0f 11 25 2c cb 20 00  	(move)  	movsd	%xmm12,0x20cb2c(%rip)
/home/jcsalinas/Documents/pruebas/inst_estimation_module/BT/set_constants.f:104
  4045d4:	66 0f 28 e0                 	(move)  	movapd	%xmm0,%xmm4
  4045d8:	f2 0f 5e e3                 	(arith) 	divsd	%xmm3,%xmm4
  4045dc:	f2 0f 11 25 24 cb 20 00     	(move)  	movsd	%xmm4,0x20cb24(%rip)
/home/jcsalinas/Documents/pruebas/inst_estimation_module/BT/set_constants.f:106
  4045e4:	66 0f 28 da                 	(move)  	movapd	%xmm2,%xmm3
  4045e8:	f2 0f 59 da                 	(arith) 	mulsd	%xmm2,%xmm3
  4045ec:	66 44 0f 28 c0              	(move)  	movapd	%xmm0,%xmm8
  4045f1:	f2 44 0f 5e c3              	(arith) 	divsd	%xmm3,%xmm8
  4045f6:	f2 44 0f 11 05 11 cb 20 00  	(move)  	movsd	%xmm8,0x20cb11(%rip)
/home/jcsalinas/Documents/pruebas/inst_estimation_module/BT/set_constants.f:107
  4045ff:	66 0f 28 da                 	(move)  	movapd	%xmm2,%xmm3
  404603:	f2 0f 58 da                 	(arith) 	addsd	%xmm2,%xmm3
  404607:	66 44 0f 28 d8              	(move)  	movapd	%xmm0,%xmm11
  40460c:	f2 44 0f 5e db              	(arith) 	divsd	%xmm3,%xmm11
  404611:	f2 44 0f 11 1d fe ca 20 00  	(move)  	movsd	%xmm11,0x20cafe(%rip)
/home/jcsalinas/Documents/pruebas/inst_estimation_module/BT/set_constants.f:108
  40461a:	66 0f 28 d8                 	(move)  	movapd	%xmm0,%xmm3
  40461e:	f2 0f 5e da                 	(arith) 	divsd	%xmm2,%xmm3
  404622:	f2 0f 11 1d f6 ca 20 00     	(move)  	movsd	%xmm3,0x20caf6(%rip)
/home/jcsalinas/Documents/pruebas/inst_estimation_module/BT/set_constants.f:110
  40462a:	f2 0f 10 3d ce a8 00 00     	(move)  	movsd	0xa8ce(%rip),%xmm7
  404632:	f2 0f 11 3d ee ca 20 00     	(move)  	movsd	%xmm7,0x20caee(%rip)
/home/jcsalinas/Documents/pruebas/inst_estimation_module/BT/set_constants.f:111
  40463a:	f2 0f 11 3d ee ca 20 00     	(move)  	movsd	%xmm7,0x20caee(%rip)
/home/jcsalinas/Documents/pruebas/inst_estimation_module/BT/set_constants.f:112
  404642:	f2 0f 11 3d ee ca 20 00     	(move)  	movsd	%xmm7,0x20caee(%rip)
/home/jcsalinas/Documents/pruebas/inst_estimation_module/BT/set_constants.f:113
  40464a:	f2 0f 11 3d ee ca 20 00     	(move)  	movsd	%xmm7,0x20caee(%rip)
/home/jcsalinas/Documents/pruebas/inst_estimation_module/BT/set_constants.f:114
  404652:	f2 0f 11 3d ee ca 20 00     	(move)  	movsd	%xmm7,0x20caee(%rip)
/home/jcsalinas/Documents/pruebas/inst_estimation_module/BT/set_constants.f:116
  40465a:	f2 0f 11 3d ee ca 20 00     	(move)  	movsd	%xmm7,0x20caee(%rip)
/home/jcsalinas/Documents/pruebas/inst_estimation_module/BT/set_constants.f:117
  404662:	f2 0f 11 3d ee ca 20 00     	(move)  	movsd	%xmm7,0x20caee(%rip)
/home/jcsalinas/Documents/pruebas/inst_estimation_module/BT/set_constants.f:118
  40466a:	f2 0f 11 3d ee ca 20 00     	(move)  	movsd	%xmm7,0x20caee(%rip)
/home/jcsalinas/Documents/pruebas/inst_estimation_module/BT/set_constants.f:119
  404672:	f2 0f 11 3d ee ca 20 00     	(move)  	movsd	%xmm7,0x20caee(%rip)
/home/jcsalinas/Documents/pruebas/inst_estimation_module/BT/set_constants.f:120
  40467a:	f2 0f 11 3d ee ca 20 00     	(move)  	movsd	%xmm7,0x20caee(%rip)
/home/jcsalinas/Documents/pruebas/inst_estimation_module/BT/set_constants.f:122
  404682:	f2 0f 11 05 ee ca 20 00     	(move)  	movsd	%xmm0,0x20caee(%rip)
/home/jcsalinas/Documents/pruebas/inst_estimation_module/BT/set_constants.f:123
  40468a:	f2 0f 11 05 ee ca 20 00     	(move)  	movsd	%xmm0,0x20caee(%rip)
/home/jcsalinas/Documents/pruebas/inst_estimation_module/BT/set_constants.f:124
  404692:	f2 0f 11 05 ee ca 20 00     	(move)  	movsd	%xmm0,0x20caee(%rip)
/home/jcsalinas/Documents/pruebas/inst_estimation_module/BT/set_constants.f:125
  40469a:	f2 0f 11 05 ee ca 20 00     	(move)  	movsd	%xmm0,0x20caee(%rip)
/home/jcsalinas/Documents/pruebas/inst_estimation_module/BT/set_constants.f:126
  4046a2:	f2 0f 11 05 ee ca 20 00     	(move)  	movsd	%xmm0,0x20caee(%rip)
/home/jcsalinas/Documents/pruebas/inst_estimation_module/BT/set_constants.f:128
  4046aa:	f2 0f 11 3d 06 cd 20 00     	(move)  	movsd	%xmm7,0x20cd06(%rip)
/home/jcsalinas/Documents/pruebas/inst_estimation_module/BT/set_constants.f:129
  4046b2:	f2 0f 11 3d 06 cd 20 00     	(move)  	movsd	%xmm7,0x20cd06(%rip)
/home/jcsalinas/Documents/pruebas/inst_estimation_module/BT/set_constants.f:130
  4046ba:	f2 0f 11 05 06 cd 20 00     	(move)  	movsd	%xmm0,0x20cd06(%rip)
/home/jcsalinas/Documents/pruebas/inst_estimation_module/BT/set_constants.f:132
  4046c2:	f2 0f 10 15 3e a8 00 00     	(move)  	movsd	0xa83e(%rip),%xmm2
  4046ca:	f2 0f 11 15 ce ca 20 00     	(move)  	movsd	%xmm2,0x20cace(%rip)
/home/jcsalinas/Documents/pruebas/inst_estimation_module/BT/set_constants.f:134
  4046d2:	f2 0f 11 05 4e ce 20 00     	(move)  	movsd	%xmm0,0x20ce4e(%rip)
/home/jcsalinas/Documents/pruebas/inst_estimation_module/BT/set_constants.f:135
  4046da:	f2 0f 10 05 2e a8 00 00     	(move)  	movsd	0xa82e(%rip),%xmm0
  4046e2:	f2 0f 11 05 46 ce 20 00     	(move)  	movsd	%xmm0,0x20ce46(%rip)
/home/jcsalinas/Documents/pruebas/inst_estimation_module/BT/set_constants.f:4
  4046ea:	f2 0f 10 05 b6 ca 20 00     	(move)  	movsd	0x20cab6(%rip),%xmm0
/home/jcsalinas/Documents/pruebas/inst_estimation_module/BT/set_constants.f:137
  4046f2:	66 44 0f 28 fe              	(move)  	movapd	%xmm6,%xmm15
  4046f7:	f2 44 0f 59 f8              	(arith) 	mulsd	%xmm0,%xmm15
  4046fc:	f2 44 0f 11 3d 3b ce 20 00  	(move)  	movsd	%xmm15,0x20ce3b(%rip)
/home/jcsalinas/Documents/pruebas/inst_estimation_module/BT/set_constants.f:138
  404705:	f2 44 0f 59 e8              	(arith) 	mulsd	%xmm0,%xmm13
  40470a:	f2 44 0f 11 2d 35 ce 20 00  	(move)  	movsd	%xmm13,0x20ce35(%rip)
/home/jcsalinas/Documents/pruebas/inst_estimation_module/BT/set_constants.f:139
  404713:	66 45 0f 28 ee              	(move)  	movapd	%xmm14,%xmm13
  404718:	f2 44 0f 59 e8              	(arith) 	mulsd	%xmm0,%xmm13
  40471d:	f2 44 0f 11 2d 2a ce 20 00  	(move)  	movsd	%xmm13,0x20ce2a(%rip)
/home/jcsalinas/Documents/pruebas/inst_estimation_module/BT/set_constants.f:140
  404726:	f2 44 0f 59 e0              	(arith) 	mulsd	%xmm0,%xmm12
  40472b:	f2 44 0f 11 25 24 ce 20 00  	(move)  	movsd	%xmm12,0x20ce24(%rip)
/home/jcsalinas/Documents/pruebas/inst_estimation_module/BT/set_constants.f:141
  404734:	66 45 0f 28 e0              	(move)  	movapd	%xmm8,%xmm12
  404739:	f2 44 0f 59 e0              	(arith) 	mulsd	%xmm0,%xmm12
  40473e:	f2 44 0f 11 25 19 ce 20 00  	(move)  	movsd	%xmm12,0x20ce19(%rip)
/home/jcsalinas/Documents/pruebas/inst_estimation_module/BT/set_constants.f:142
  404747:	f2 44 0f 59 d8              	(arith) 	mulsd	%xmm0,%xmm11
  40474c:	f2 44 0f 11 1d 13 ce 20 00  	(move)  	movsd	%xmm11,0x20ce13(%rip)
/home/jcsalinas/Documents/pruebas/inst_estimation_module/BT/set_constants.f:144
  404755:	f2 45 0f 58 ff              	(arith) 	addsd	%xmm15,%xmm15
  40475a:	f2 44 0f 11 3d 0d ce 20 00  	(move)  	movsd	%xmm15,0x20ce0d(%rip)
/home/jcsalinas/Documents/pruebas/inst_estimation_module/BT/set_constants.f:145
  404763:	f2 45 0f 58 ed              	(arith) 	addsd	%xmm13,%xmm13
  404768:	f2 44 0f 11 2d 07 ce 20 00  	(move)  	movsd	%xmm13,0x20ce07(%rip)
/home/jcsalinas/Documents/pruebas/inst_estimation_module/BT/set_constants.f:146
  404771:	f2 45 0f 58 e4              	(arith) 	addsd	%xmm12,%xmm12
  404776:	f2 44 0f 11 25 01 ce 20 00  	(move)  	movsd	%xmm12,0x20ce01(%rip)
/home/jcsalinas/Documents/pruebas/inst_estimation_module/BT/set_constants.f:148
  40477f:	f2 0f 59 d0                 	(arith) 	mulsd	%xmm0,%xmm2
  404783:	f2 0f 11 15 ad cd 20 00     	(move)  	movsd	%xmm2,0x20cdad(%rip)
/home/jcsalinas/Documents/pruebas/inst_estimation_module/BT/set_constants.f:150
  40478b:	f2 0f 11 15 f5 cd 20 00     	(move)  	movsd	%xmm2,0x20cdf5(%rip)
/home/jcsalinas/Documents/pruebas/inst_estimation_module/BT/set_constants.f:151
  404793:	f2 44 0f 59 d2              	(arith) 	mulsd	%xmm2,%xmm10
  404798:	f2 44 0f 11 15 ef cd 20 00  	(move)  	movsd	%xmm10,0x20cdef(%rip)
/home/jcsalinas/Documents/pruebas/inst_estimation_module/BT/set_constants.f:152
  4047a1:	f2 44 0f 59 ca              	(arith) 	mulsd	%xmm2,%xmm9
  4047a6:	f2 44 0f 11 0d e9 cd 20 00  	(move)  	movsd	%xmm9,0x20cde9(%rip)
/home/jcsalinas/Documents/pruebas/inst_estimation_module/BT/set_constants.f:153
  4047af:	f2 0f 59 15 a9 a6 00 00     	(arith) 	mulsd	0xa6a9(%rip),%xmm2
  4047b7:	f2 0f 11 15 e1 cd 20 00     	(move)  	movsd	%xmm2,0x20cde1(%rip)
/home/jcsalinas/Documents/pruebas/inst_estimation_module/BT/set_constants.f:155
  4047bf:	66 44 0f 28 d5              	(move)  	movapd	%xmm5,%xmm10
  4047c4:	f2 44 0f 59 d1              	(arith) 	mulsd	%xmm1,%xmm10
  4047c9:	f2 44 0f 11 15 d6 cd 20 00  	(move)  	movsd	%xmm10,0x20cdd6(%rip)
/home/jcsalinas/Documents/pruebas/inst_estimation_module/BT/set_constants.f:156
  4047d2:	66 44 0f 28 cc              	(move)  	movapd	%xmm4,%xmm9
  4047d7:	f2 44 0f 59 c9              	(arith) 	mulsd	%xmm1,%xmm9
  4047dc:	f2 44 0f 11 0d cb cd 20 00  	(move)  	movsd	%xmm9,0x20cdcb(%rip)
/home/jcsalinas/Documents/pruebas/inst_estimation_module/BT/set_constants.f:157
  4047e5:	f2 0f 59 cb                 	(arith) 	mulsd	%xmm3,%xmm1
  4047e9:	f2 0f 11 0d c7 cd 20 00     	(move)  	movsd	%xmm1,0x20cdc7(%rip)
/home/jcsalinas/Documents/pruebas/inst_estimation_module/BT/set_constants.f:159
  4047f1:	f2 0f 59 f7                 	(arith) 	mulsd	%xmm7,%xmm6
  4047f5:	f2 0f 11 35 fb cb 20 00     	(move)  	movsd	%xmm6,0x20cbfb(%rip)
/home/jcsalinas/Documents/pruebas/inst_estimation_module/BT/set_constants.f:160
  4047fd:	f2 0f 11 35 fb cb 20 00     	(move)  	movsd	%xmm6,0x20cbfb(%rip)
/home/jcsalinas/Documents/pruebas/inst_estimation_module/BT/set_constants.f:161
  404805:	f2 0f 11 35 fb cb 20 00     	(move)  	movsd	%xmm6,0x20cbfb(%rip)
/home/jcsalinas/Documents/pruebas/inst_estimation_module/BT/set_constants.f:162
  40480d:	f2 0f 11 35 fb cb 20 00     	(move)  	movsd	%xmm6,0x20cbfb(%rip)
/home/jcsalinas/Documents/pruebas/inst_estimation_module/BT/set_constants.f:163
  404815:	f2 0f 11 35 fb cb 20 00     	(move)  	movsd	%xmm6,0x20cbfb(%rip)
/home/jcsalinas/Documents/pruebas/inst_estimation_module/BT/set_constants.f:165
  40481d:	f2 44 0f 59 f7              	(arith) 	mulsd	%xmm7,%xmm14
  404822:	f2 44 0f 11 35 1d cc 20 00  	(move)  	movsd	%xmm14,0x20cc1d(%rip)
/home/jcsalinas/Documents/pruebas/inst_estimation_module/BT/set_constants.f:166
  40482b:	f2 44 0f 11 35 1c cc 20 00  	(move)  	movsd	%xmm14,0x20cc1c(%rip)
/home/jcsalinas/Documents/pruebas/inst_estimation_module/BT/set_constants.f:167
  404834:	f2 44 0f 11 35 1b cc 20 00  	(move)  	movsd	%xmm14,0x20cc1b(%rip)
/home/jcsalinas/Documents/pruebas/inst_estimation_module/BT/set_constants.f:168
  40483d:	f2 44 0f 11 35 1a cc 20 00  	(move)  	movsd	%xmm14,0x20cc1a(%rip)
/home/jcsalinas/Documents/pruebas/inst_estimation_module/BT/set_constants.f:169
  404846:	f2 44 0f 11 35 19 cc 20 00  	(move)  	movsd	%xmm14,0x20cc19(%rip)
/home/jcsalinas/Documents/pruebas/inst_estimation_module/BT/set_constants.f:171
  40484f:	f2 44 0f 11 05 40 cc 20 00  	(move)  	movsd	%xmm8,0x20cc40(%rip)
