0000000000400830 <_init>:
0 (function _init):	
  400830:	48 83 ec 08                 	(arith) 	sub	$0x8,%rsp
  400834:	e8 53 01 00 00              	(control)	call	40098c <call_gmon_start>	; ⇄ call_gmon_start
2:	
  400839:	e8 e2 01 00 00              	(control)	call	400a20 <frame_dummy>	; ⇄ frame_dummy
4:	
  40083e:	e8 4d d9 00 00              	(control)	call	40e190 <__do_global_ctors_aux>	; ⇄ __do_global_ctors_aux
6:	
  400843:	48 83 c4 08                 	(arith) 	add	$0x8,%rsp
  400847:	c3                          	(control)	ret


0000000000400960 <_start>:
7 (function _start):	
  400960:	31 ed                       	(logic) 	xor	%ebp,%ebp
  400962:	49 89 d1                    	(move)  	mov	%rdx,%r9
  400965:	5e                          	(move)  	pop	%rsi
  400966:	48 89 e2                    	(move)  	mov	%rsp,%rdx
  400969:	48 83 e4 f0                 	(logic) 	and	$-0x10,%rsp
  40096d:	50                          	(move)  	push	%rax
  40096e:	54                          	(move)  	push	%rsp
  40096f:	49 c7 c0 f0 e0 40 00        	(move)  	mov	$0x40e0f0,%r8
  400976:	48 c7 c1 00 e1 40 00        	(move)  	mov	$0x40e100,%rcx
  40097d:	48 c7 c7 b0 e0 40 00        	(move)  	mov	$0x40e0b0,%rdi
  400984:	e8 ff fe ff ff              	(control)	call	400888 <__libc_start_main@plt>	; ⇄ __libc_start_main
9:	
  400989:	f4                          	(control)	hlt
  40098a:	90                          	(other) 	nop
  40098b:	90                          	(other) 	nop


000000000040098c <call_gmon_start>:
1 (function call_gmon_start):	
  40098c:	48 83 ec 08                 	(arith) 	sub	$0x8,%rsp
  400990:	48 8b 05 91 eb 20 00        	(move)  	mov	0x20eb91(%rip),%rax
  400997:	48 85 c0                    	(arith) 	test	%rax,%rax
  40099a:	74 02                       	(control)	je	40099e <call_gmon_start+0x12>	; ↲ label 10
11:	
  40099c:	ff d0                       	(control)	call	%rax
10:	
  40099e:	48 83 c4 08                 	(arith) 	add	$0x8,%rsp
  4009a2:	c3                          	(control)	ret
12:	
  4009a3:	90                          	(other) 	nop
  4009a4:	90                          	(other) 	nop
  4009a5:	90                          	(other) 	nop
  4009a6:	90                          	(other) 	nop
  4009a7:	90                          	(other) 	nop
  4009a8:	90                          	(other) 	nop
  4009a9:	90                          	(other) 	nop
  4009aa:	90                          	(other) 	nop
  4009ab:	90                          	(other) 	nop
  4009ac:	90                          	(other) 	nop
  4009ad:	90                          	(other) 	nop
  4009ae:	90                          	(other) 	nop
  4009af:	90                          	(other) 	nop


00000000004009b0 <__do_global_dtors_aux>:
13 (function __do_global_dtors_aux):	
  4009b0:	55                          	(move)  	push	%rbp
  4009b1:	48 89 e5                    	(move)  	mov	%rsp,%rbp
  4009b4:	53                          	(move)  	push	%rbx
  4009b5:	48 83 ec 08                 	(arith) 	sub	$0x8,%rsp
  4009b9:	80 3d 20 ec 20 00 00        	(arith) 	cmpb	$0,0x20ec20(%rip)
  4009c0:	75 4b                       	(control)	jne	400a0d <__do_global_dtors_aux+0x5d>	; ↲ label 14
15:	
  4009c2:	bb 58 f3 60 00              	(move)  	mov	$0x60f358,%ebx
  4009c7:	48 8b 05 1a ec 20 00        	(move)  	mov	0x20ec1a(%rip),%rax
  4009ce:	48 81 eb 50 f3 60 00        	(arith) 	sub	$0x60f350,%rbx
  4009d5:	48 c1 fb 03                 	(logic) 	sar	$0x3,%rbx
  4009d9:	48 83 eb 01                 	(arith) 	sub	$0x1,%rbx
  4009dd:	48 39 d8                    	(arith) 	cmp	%rbx,%rax
  4009e0:	73 24                       	(control)	jae	400a06 <__do_global_dtors_aux+0x56>	; ↲ label 16
17:	
  4009e2:	66 0f 1f 44 00 00           	(other) 	nopw	(%rax,%rax,1)
; ------- Loop 0 entry
18 (loop 0):	
  4009e8:	48 83 c0 01                 	(arith) 	add	$0x1,%rax
  4009ec:	48 89 05 f5 eb 20 00        	(move)  	mov	%rax,0x20ebf5(%rip)
  4009f3:	ff 14 c5 50 f3 60 00        	(control)	callq	0x60f350(,%rax,8)
19:	
  4009fa:	48 8b 05 e7 eb 20 00        	(move)  	mov	0x20ebe7(%rip),%rax
  400a01:	48 39 d8                    	(arith) 	cmp	%rbx,%rax
  400a04:	72 e2                       	(control)	jb	4009e8 <__do_global_dtors_aux+0x38>	; ↰ label 18 (loop 0)
; ------- Loop 0 exit
16:	
  400a06:	c6 05 d3 eb 20 00 01        	(move)  	movb	$0x1,0x20ebd3(%rip)
14:	
  400a0d:	48 83 c4 08                 	(arith) 	add	$0x8,%rsp
  400a11:	5b                          	(move)  	pop	%rbx
  400a12:	c9                          	(control)	leave
  400a13:	c3                          	(control)	ret
20:	
  400a14:	66 66 66 2e 0f 1f 84 00 00 00 00 00	(other) 	nopw	%cs:(%rax,%rax,1)


0000000000400a20 <frame_dummy>:
3 (function frame_dummy):	
  400a20:	48 83 3d 38 e9 20 00 00     	(arith) 	cmpq	$0,0x20e938(%rip)
  400a28:	55                          	(move)  	push	%rbp
  400a29:	48 89 e5                    	(move)  	mov	%rsp,%rbp
  400a2c:	74 12                       	(control)	je	400a40 <frame_dummy+0x20>	; ↲ label 21
22:	
  400a2e:	b8 00 00 00 00              	(move)  	mov	$0,%eax
  400a33:	48 85 c0                    	(arith) 	test	%rax,%rax
  400a36:	74 08                       	(control)	je	400a40 <frame_dummy+0x20>	; ↲ label 21
23:	
  400a38:	bf 60 f3 60 00              	(move)  	mov	$0x60f360,%edi
  400a3d:	c9                          	(control)	leave
  400a3e:	ff e0                       	(control)	jmp	%rax
21:	
  400a40:	c9                          	(control)	leave
  400a41:	c3                          	(control)	ret
24:	
  400a42:	90                          	(other) 	nop
  400a43:	90                          	(other) 	nop
  400a44:	90                          	(other) 	nop
  400a45:	90                          	(other) 	nop
  400a46:	90                          	(other) 	nop
  400a47:	90                          	(other) 	nop
  400a48:	90                          	(other) 	nop
  400a49:	90                          	(other) 	nop
  400a4a:	90                          	(other) 	nop
  400a4b:	90                          	(other) 	nop
  400a4c:	90                          	(other) 	nop
  400a4d:	90                          	(other) 	nop
  400a4e:	90                          	(other) 	nop
  400a4f:	90                          	(other) 	nop


0000000000400a50 <sp>:
25 (function MAIN__):	
/home/jgarcia/TFG/source_code/SP/sp.f:47
  400a50:	41 57                       	(move)  	push	%r15
  400a52:	41 56                       	(move)  	push	%r14
  400a54:	41 55                       	(move)  	push	%r13
  400a56:	41 54                       	(move)  	push	%r12
  400a58:	55                          	(move)  	push	%rbp
  400a59:	53                          	(move)  	push	%rbx
  400a5a:	48 81 ec 58 26 00 00        	(arith) 	sub	$0x2658,%rsp
/home/jgarcia/TFG/source_code/SP/sp.f:64
  400a61:	be 60 e4 40 00              	(move)  	mov	$0x40e460,%esi
  400a66:	bf 08 00 00 00              	(move)  	mov	$0x8,%edi
  400a6b:	e8 38 fe ff ff              	(control)	call	4008a8 <_gfortran_set_options@plt>	; ⇄ _gfortran_set_options
27:	
/home/jgarcia/TFG/source_code/SP/sp.f:64
  400a70:	48 c7 84 24 08 02 00 00 f0 e1 40 00	(move)  	movq	$0x40e1f0,0x208(%rsp)
  400a7c:	c7 84 24 10 02 00 00 40 00 00 00	(move)  	movl	$0x40,0x210(%rsp)
  400a87:	c7 84 24 f8 01 00 00 00 00 00 00	(move)  	movl	$0,0x1f8(%rsp)
  400a92:	48 8d 84 24 f8 01 00 00     	(arith) 	lea	0x1f8(%rsp),%rax
  400a9a:	48 89 84 24 20 02 00 00     	(move)  	mov	%rax,0x220(%rsp)
  400aa2:	48 c7 84 24 30 02 00 00 00 e2 40 00	(move)  	movq	$0x40e200,0x230(%rsp)
  400aae:	c7 84 24 2c 02 00 00 0a 00 00 00	(move)  	movl	$0xa,0x22c(%rsp)
  400ab9:	48 c7 84 24 38 02 00 00 0a e2 40 00	(move)  	movq	$0x40e20a,0x238(%rsp)
  400ac5:	c7 84 24 40 02 00 00 03 00 00 00	(move)  	movl	$0x3,0x240(%rsp)
  400ad0:	c7 84 24 00 02 00 00 20 03 00 00	(move)  	movl	$0x320,0x200(%rsp)
  400adb:	c7 84 24 04 02 00 00 02 00 00 00	(move)  	movl	$0x2,0x204(%rsp)
  400ae6:	48 8d bc 24 00 02 00 00     	(arith) 	lea	0x200(%rsp),%rdi
  400aee:	e8 65 fd ff ff              	(control)	call	400858 <_gfortran_st_open@plt>	; ⇄ _gfortran_st_open
29:	
/home/jgarcia/TFG/source_code/SP/sp.f:65
  400af3:	83 bc 24 f8 01 00 00 00     	(arith) 	cmpl	$0,0x1f8(%rsp)
  400afb:	0f 85 99 01 00 00           	(control)	jne	400c9a <main__+0x24a>	; ↲ label 30
31:	
/home/jgarcia/TFG/source_code/SP/sp.f:66
  400b01:	c7 05 0d f0 20 00 01 00 00 00	(move)  	movl	$0x1,0x20f00d(%rip)
/home/jgarcia/TFG/source_code/SP/sp.f:67
  400b0b:	48 8d 84 24 60 01 00 00     	(arith) 	lea	0x160(%rsp),%rax
  400b13:	c7 00 74 6f 74 61           	(move)  	movl	$0x61746f74,(%rax)
  400b19:	c6 40 04 6c                 	(move)  	movb	$0x6c,0x4(%rax)
  400b1d:	48 8d 50 05                 	(arith) 	lea	0x5(%rax),%rdx
  400b21:	66 c7 02 20 20              	(move)  	movw	$0x2020,(%rdx)
  400b26:	c6 42 02 20                 	(move)  	movb	$0x20,0x2(%rdx)
/home/jgarcia/TFG/source_code/SP/sp.f:68
  400b2a:	c7 40 08 72 68 73 78        	(move)  	movl	$0x78736872,0x8(%rax)
  400b31:	c7 40 0c 20 20 20 20        	(move)  	movl	$0x20202020,0xc(%rax)
/home/jgarcia/TFG/source_code/SP/sp.f:69
  400b38:	c7 40 10 72 68 73 79        	(move)  	movl	$0x79736872,0x10(%rax)
  400b3f:	c7 40 14 20 20 20 20        	(move)  	movl	$0x20202020,0x14(%rax)
/home/jgarcia/TFG/source_code/SP/sp.f:70
  400b46:	c7 40 18 72 68 73 7a        	(move)  	movl	$0x7a736872,0x18(%rax)
  400b4d:	c7 40 1c 20 20 20 20        	(move)  	movl	$0x20202020,0x1c(%rax)
/home/jgarcia/TFG/source_code/SP/sp.f:71
  400b54:	48 8d 50 20                 	(arith) 	lea	0x20(%rax),%rdx
  400b58:	66 c7 02 72 68              	(move)  	movw	$0x6872,(%rdx)
  400b5d:	c6 42 02 73                 	(move)  	movb	$0x73,0x2(%rdx)
  400b61:	48 8d 50 23                 	(arith) 	lea	0x23(%rax),%rdx
  400b65:	c7 02 20 20 20 20           	(move)  	movl	$0x20202020,(%rdx)
  400b6b:	c6 42 04 20                 	(move)  	movb	$0x20,0x4(%rdx)
/home/jgarcia/TFG/source_code/SP/sp.f:72
  400b6f:	48 8d 50 28                 	(arith) 	lea	0x28(%rax),%rdx
  400b73:	c7 02 78 73 6f 6c           	(move)  	movl	$0x6c6f7378,(%rdx)
  400b79:	66 c7 42 04 76 65           	(move)  	movw	$0x6576,0x4(%rdx)
  400b7f:	66 c7 40 2e 20 20           	(move)  	movw	$0x2020,0x2e(%rax)
/home/jgarcia/TFG/source_code/SP/sp.f:73
  400b85:	48 8d 50 30                 	(arith) 	lea	0x30(%rax),%rdx
  400b89:	c7 02 79 73 6f 6c           	(move)  	movl	$0x6c6f7379,(%rdx)
  400b8f:	66 c7 42 04 76 65           	(move)  	movw	$0x6576,0x4(%rdx)
  400b95:	66 c7 40 36 20 20           	(move)  	movw	$0x2020,0x36(%rax)
/home/jgarcia/TFG/source_code/SP/sp.f:74
  400b9b:	48 8d 50 38                 	(arith) 	lea	0x38(%rax),%rdx
  400b9f:	c7 02 7a 73 6f 6c           	(move)  	movl	$0x6c6f737a,(%rdx)
  400ba5:	66 c7 42 04 76 65           	(move)  	movw	$0x6576,0x4(%rdx)
  400bab:	66 c7 40 3e 20 20           	(move)  	movw	$0x2020,0x3e(%rax)
/home/jgarcia/TFG/source_code/SP/sp.f:75
  400bb1:	48 8d 50 40                 	(arith) 	lea	0x40(%rax),%rdx
  400bb5:	c7 02 72 65 64 69           	(move)  	movl	$0x69646572,(%rdx)
  400bbb:	66 c7 42 04 73 74           	(move)  	movw	$0x7473,0x4(%rdx)
  400bc1:	c6 42 06 31                 	(move)  	movb	$0x31,0x6(%rdx)
  400bc5:	c6 40 47 20                 	(move)  	movb	$0x20,0x47(%rax)
/home/jgarcia/TFG/source_code/SP/sp.f:76
  400bc9:	48 8d 50 48                 	(arith) 	lea	0x48(%rax),%rdx
  400bcd:	c7 02 72 65 64 69           	(move)  	movl	$0x69646572,(%rdx)
  400bd3:	66 c7 42 04 73 74           	(move)  	movw	$0x7473,0x4(%rdx)
  400bd9:	c6 42 06 32                 	(move)  	movb	$0x32,0x6(%rdx)
  400bdd:	c6 40 4f 20                 	(move)  	movb	$0x20,0x4f(%rax)
/home/jgarcia/TFG/source_code/SP/sp.f:77
  400be1:	48 8d 50 68                 	(arith) 	lea	0x68(%rax),%rdx
  400be5:	c7 02 74 7a 65 74           	(move)  	movl	$0x74657a74,(%rdx)
  400beb:	66 c7 42 04 61 72           	(move)  	movw	$0x7261,0x4(%rdx)
  400bf1:	66 c7 40 6e 20 20           	(move)  	movw	$0x2020,0x6e(%rax)
/home/jgarcia/TFG/source_code/SP/sp.f:78
  400bf7:	48 8d 50 60                 	(arith) 	lea	0x60(%rax),%rdx
  400bfb:	c7 02 6e 69 6e 76           	(move)  	movl	$0x766e696e,(%rdx)
  400c01:	c6 42 04 72                 	(move)  	movb	$0x72,0x4(%rdx)
  400c05:	48 8d 50 65                 	(arith) 	lea	0x65(%rax),%rdx
  400c09:	66 c7 02 20 20              	(move)  	movw	$0x2020,(%rdx)
  400c0e:	c6 42 02 20                 	(move)  	movb	$0x20,0x2(%rdx)
/home/jgarcia/TFG/source_code/SP/sp.f:79
  400c12:	48 8d 50 58                 	(arith) 	lea	0x58(%rax),%rdx
  400c16:	c7 02 70 69 6e 76           	(move)  	movl	$0x766e6970,(%rdx)
  400c1c:	c6 42 04 72                 	(move)  	movb	$0x72,0x4(%rdx)
  400c20:	48 8d 50 5d                 	(arith) 	lea	0x5d(%rax),%rdx
  400c24:	66 c7 02 20 20              	(move)  	movw	$0x2020,(%rdx)
  400c29:	c6 42 02 20                 	(move)  	movb	$0x20,0x2(%rdx)
/home/jgarcia/TFG/source_code/SP/sp.f:80
  400c2d:	48 8d 50 50                 	(arith) 	lea	0x50(%rax),%rdx
  400c31:	c7 02 74 78 69 6e           	(move)  	movl	$0x6e697874,(%rdx)
  400c37:	66 c7 42 04 76 72           	(move)  	movw	$0x7276,0x4(%rdx)
  400c3d:	66 c7 40 56 20 20           	(move)  	movw	$0x2020,0x56(%rax)
/home/jgarcia/TFG/source_code/SP/sp.f:81
  400c43:	48 8d 50 70                 	(arith) 	lea	0x70(%rax),%rdx
  400c47:	66 c7 02 61 64              	(move)  	movw	$0x6461,(%rdx)
  400c4c:	c6 42 02 64                 	(move)  	movb	$0x64,0x2(%rdx)
  400c50:	48 83 c0 73                 	(arith) 	add	$0x73,%rax
  400c54:	c7 00 20 20 20 20           	(move)  	movl	$0x20202020,(%rax)
  400c5a:	c6 40 04 20                 	(move)  	movb	$0x20,0x4(%rax)
/home/jgarcia/TFG/source_code/SP/sp.f:82
  400c5e:	48 c7 84 24 e8 02 00 00 f0 e1 40 00	(move)  	movq	$0x40e1f0,0x2e8(%rsp)
  400c6a:	c7 84 24 f0 02 00 00 52 00 00 00	(move)  	movl	$0x52,0x2f0(%rsp)
  400c75:	c7 84 24 e0 02 00 00 00 00 00 00	(move)  	movl	$0,0x2e0(%rsp)
  400c80:	c7 84 24 e4 02 00 00 02 00 00 00	(move)  	movl	$0x2,0x2e4(%rsp)
  400c8b:	48 8d bc 24 e0 02 00 00     	(arith) 	lea	0x2e0(%rsp),%rdi
  400c93:	e8 40 fc ff ff              	(control)	call	4008d8 <_gfortran_st_close@plt>	; ⇄ _gfortran_st_close
33:	
  400c98:	eb 0a                       	(control)	jmp	400ca4 <main__+0x254>	; ↲ label 34
30:	
/home/jgarcia/TFG/source_code/SP/sp.f:84
  400c9a:	c7 05 74 ee 20 00 00 00 00 00	(move)  	movl	$0,0x20ee74(%rip)
34:	
/home/jgarcia/TFG/source_code/SP/sp.f:87
  400ca4:	48 c7 84 24 28 03 00 00 f0 e1 40 00	(move)  	movq	$0x40e1f0,0x328(%rsp)
  400cb0:	c7 84 24 30 03 00 00 57 00 00 00	(move)  	movl	$0x57,0x330(%rsp)
  400cbb:	48 c7 84 24 68 03 00 00 10 e2 40 00	(move)  	movq	$0x40e210,0x368(%rsp)
  400cc7:	c7 84 24 70 03 00 00 5b 00 00 00	(move)  	movl	$0x5b,0x370(%rsp)
  400cd2:	c7 84 24 20 03 00 00 00 10 00 00	(move)  	movl	$0x1000,0x320(%rsp)
  400cdd:	c7 84 24 24 03 00 00 06 00 00 00	(move)  	movl	$0x6,0x324(%rsp)
  400ce8:	48 8d 9c 24 20 03 00 00     	(arith) 	lea	0x320(%rsp),%rbx
  400cf0:	48 89 df                    	(move)  	mov	%rbx,%rdi
  400cf3:	e8 10 fc ff ff              	(control)	call	400908 <_gfortran_st_write@plt>	; ⇄ _gfortran_st_write
36:	
  400cf8:	48 89 df                    	(move)  	mov	%rbx,%rdi
  400cfb:	e8 68 fb ff ff              	(control)	call	400868 <_gfortran_st_write_done@plt>	; ⇄ _gfortran_st_write_done
38:	
/home/jgarcia/TFG/source_code/SP/sp.f:88
  400d00:	48 c7 84 24 08 05 00 00 f0 e1 40 00	(move)  	movq	$0x40e1f0,0x508(%rsp)
  400d0c:	c7 84 24 10 05 00 00 58 00 00 00	(move)  	movl	$0x58,0x510(%rsp)
  400d17:	c7 84 24 f8 01 00 00 00 00 00 00	(move)  	movl	$0,0x1f8(%rsp)
  400d22:	48 8d 84 24 f8 01 00 00     	(arith) 	lea	0x1f8(%rsp),%rax
  400d2a:	48 89 84 24 20 05 00 00     	(move)  	mov	%rax,0x520(%rsp)
  400d32:	48 c7 84 24 30 05 00 00 6b e2 40 00	(move)  	movq	$0x40e26b,0x530(%rsp)
  400d3e:	c7 84 24 2c 05 00 00 0c 00 00 00	(move)  	movl	$0xc,0x52c(%rsp)
  400d49:	48 c7 84 24 38 05 00 00 0a e2 40 00	(move)  	movq	$0x40e20a,0x538(%rsp)
  400d55:	c7 84 24 40 05 00 00 03 00 00 00	(move)  	movl	$0x3,0x540(%rsp)
  400d60:	c7 84 24 00 05 00 00 20 03 00 00	(move)  	movl	$0x320,0x500(%rsp)
  400d6b:	c7 84 24 04 05 00 00 02 00 00 00	(move)  	movl	$0x2,0x504(%rsp)
  400d76:	48 8d bc 24 00 05 00 00     	(arith) 	lea	0x500(%rsp),%rdi
  400d7e:	e8 d5 fa ff ff              	(control)	call	400858 <_gfortran_st_open@plt>	; ⇄ _gfortran_st_open
39:	
/home/jgarcia/TFG/source_code/SP/sp.f:90
  400d83:	83 bc 24 f8 01 00 00 00     	(arith) 	cmpl	$0,0x1f8(%rsp)
  400d8b:	0f 85 c7 01 00 00           	(control)	jne	400f58 <main__+0x508>	; ↲ label 40
41:	
/home/jgarcia/TFG/source_code/SP/sp.f:91
  400d91:	48 c7 84 24 e8 05 00 00 f0 e1 40 00	(move)  	movq	$0x40e1f0,0x5e8(%rsp)
  400d9d:	c7 84 24 f0 05 00 00 5b 00 00 00	(move)  	movl	$0x5b,0x5f0(%rsp)
  400da8:	48 c7 84 24 28 06 00 00 78 e2 40 00	(move)  	movq	$0x40e278,0x628(%rsp)
  400db4:	c7 84 24 30 06 00 00 29 00 00 00	(move)  	movl	$0x29,0x630(%rsp)
  400dbf:	c7 84 24 e0 05 00 00 00 10 00 00	(move)  	movl	$0x1000,0x5e0(%rsp)
  400dca:	c7 84 24 e4 05 00 00 06 00 00 00	(move)  	movl	$0x6,0x5e4(%rsp)
  400dd5:	48 8d 9c 24 e0 05 00 00     	(arith) 	lea	0x5e0(%rsp),%rbx
  400ddd:	48 89 df                    	(move)  	mov	%rbx,%rdi
  400de0:	e8 23 fb ff ff              	(control)	call	400908 <_gfortran_st_write@plt>	; ⇄ _gfortran_st_write
42:	
  400de5:	48 89 df                    	(move)  	mov	%rbx,%rdi
  400de8:	e8 7b fa ff ff              	(control)	call	400868 <_gfortran_st_write_done@plt>	; ⇄ _gfortran_st_write_done
43:	
/home/jgarcia/TFG/source_code/SP/sp.f:93
  400ded:	48 c7 84 24 c8 07 00 00 f0 e1 40 00	(move)  	movq	$0x40e1f0,0x7c8(%rsp)
  400df9:	c7 84 24 d0 07 00 00 5d 00 00 00	(move)  	movl	$0x5d,0x7d0(%rsp)
  400e04:	c7 84 24 c0 07 00 00 80 00 00 00	(move)  	movl	$0x80,0x7c0(%rsp)
  400e0f:	c7 84 24 c4 07 00 00 02 00 00 00	(move)  	movl	$0x2,0x7c4(%rsp)
  400e1a:	48 8d 9c 24 c0 07 00 00     	(arith) 	lea	0x7c0(%rsp),%rbx
  400e22:	48 89 df                    	(move)  	mov	%rbx,%rdi
  400e25:	e8 ee fa ff ff              	(control)	call	400918 <_gfortran_st_read@plt>	; ⇄ _gfortran_st_read
45:	
  400e2a:	48 8d b4 24 e4 01 00 00     	(arith) 	lea	0x1e4(%rsp),%rsi
  400e32:	ba 04 00 00 00              	(move)  	mov	$0x4,%edx
  400e37:	48 89 df                    	(move)  	mov	%rbx,%rdi
  400e3a:	e8 89 fa ff ff              	(control)	call	4008c8 <_gfortran_transfer_integer@plt>	; ⇄ _gfortran_transfer_integer
47:	
  400e3f:	48 89 df                    	(move)  	mov	%rbx,%rdi
  400e42:	e8 51 fa ff ff              	(control)	call	400898 <_gfortran_st_read_done@plt>	; ⇄ _gfortran_st_read_done
49:	
/home/jgarcia/TFG/source_code/SP/sp.f:94
  400e47:	48 c7 84 24 a8 09 00 00 f0 e1 40 00	(move)  	movq	$0x40e1f0,0x9a8(%rsp)
  400e53:	c7 84 24 b0 09 00 00 5e 00 00 00	(move)  	movl	$0x5e,0x9b0(%rsp)
  400e5e:	c7 84 24 a0 09 00 00 80 00 00 00	(move)  	movl	$0x80,0x9a0(%rsp)
  400e69:	c7 84 24 a4 09 00 00 02 00 00 00	(move)  	movl	$0x2,0x9a4(%rsp)
  400e74:	48 8d 9c 24 a0 09 00 00     	(arith) 	lea	0x9a0(%rsp),%rbx
  400e7c:	48 89 df                    	(move)  	mov	%rbx,%rdi
  400e7f:	e8 94 fa ff ff              	(control)	call	400918 <_gfortran_st_read@plt>	; ⇄ _gfortran_st_read
50:	
  400e84:	ba 08 00 00 00              	(move)  	mov	$0x8,%edx
  400e89:	be c8 f6 60 00              	(move)  	mov	$0x60f6c8,%esi
  400e8e:	48 89 df                    	(move)  	mov	%rbx,%rdi
  400e91:	e8 92 fa ff ff              	(control)	call	400928 <_gfortran_transfer_real@plt>	; ⇄ _gfortran_transfer_real
52:	
  400e96:	48 89 df                    	(move)  	mov	%rbx,%rdi
  400e99:	e8 fa f9 ff ff              	(control)	call	400898 <_gfortran_st_read_done@plt>	; ⇄ _gfortran_st_read_done
53:	
/home/jgarcia/TFG/source_code/SP/sp.f:95
  400e9e:	48 c7 84 24 88 0b 00 00 f0 e1 40 00	(move)  	movq	$0x40e1f0,0xb88(%rsp)
  400eaa:	c7 84 24 90 0b 00 00 5f 00 00 00	(move)  	movl	$0x5f,0xb90(%rsp)
  400eb5:	c7 84 24 80 0b 00 00 80 00 00 00	(move)  	movl	$0x80,0xb80(%rsp)
  400ec0:	c7 84 24 84 0b 00 00 02 00 00 00	(move)  	movl	$0x2,0xb84(%rsp)
  400ecb:	48 8d 9c 24 80 0b 00 00     	(arith) 	lea	0xb80(%rsp),%rbx
  400ed3:	48 89 df                    	(move)  	mov	%rbx,%rdi
  400ed6:	e8 3d fa ff ff              	(control)	call	400918 <_gfortran_st_read@plt>	; ⇄ _gfortran_st_read
54:	
  400edb:	ba 04 00 00 00              	(move)  	mov	$0x4,%edx
  400ee0:	be 00 fb 60 00              	(move)  	mov	$0x60fb00,%esi
  400ee5:	48 89 df                    	(move)  	mov	%rbx,%rdi
  400ee8:	e8 db f9 ff ff              	(control)	call	4008c8 <_gfortran_transfer_integer@plt>	; ⇄ _gfortran_transfer_integer
55:	
  400eed:	ba 04 00 00 00              	(move)  	mov	$0x4,%edx
  400ef2:	be 04 fb 60 00              	(move)  	mov	$0x60fb04,%esi
  400ef7:	48 89 df                    	(move)  	mov	%rbx,%rdi
  400efa:	e8 c9 f9 ff ff              	(control)	call	4008c8 <_gfortran_transfer_integer@plt>	; ⇄ _gfortran_transfer_integer
56:	
  400eff:	ba 04 00 00 00              	(move)  	mov	$0x4,%edx
  400f04:	be 08 fb 60 00              	(move)  	mov	$0x60fb08,%esi
  400f09:	48 89 df                    	(move)  	mov	%rbx,%rdi
  400f0c:	e8 b7 f9 ff ff              	(control)	call	4008c8 <_gfortran_transfer_integer@plt>	; ⇄ _gfortran_transfer_integer
57:	
  400f11:	48 89 df                    	(move)  	mov	%rbx,%rdi
  400f14:	e8 7f f9 ff ff              	(control)	call	400898 <_gfortran_st_read_done@plt>	; ⇄ _gfortran_st_read_done
58:	
/home/jgarcia/TFG/source_code/SP/sp.f:96
  400f19:	48 c7 84 24 68 0d 00 00 f0 e1 40 00	(move)  	movq	$0x40e1f0,0xd68(%rsp)
  400f25:	c7 84 24 70 0d 00 00 60 00 00 00	(move)  	movl	$0x60,0xd70(%rsp)
  400f30:	c7 84 24 60 0d 00 00 00 00 00 00	(move)  	movl	$0,0xd60(%rsp)
  400f3b:	c7 84 24 64 0d 00 00 02 00 00 00	(move)  	movl	$0x2,0xd64(%rsp)
  400f46:	48 8d bc 24 60 0d 00 00     	(arith) 	lea	0xd60(%rsp),%rdi
  400f4e:	e8 85 f9 ff ff              	(control)	call	4008d8 <_gfortran_st_close@plt>	; ⇄ _gfortran_st_close
59:	
  400f53:	e9 99 00 00 00              	(control)	jmp	400ff1 <main__+0x5a1>	; ↲ label 60
40:	
/home/jgarcia/TFG/source_code/SP/sp.f:98
  400f58:	48 c7 84 24 a8 0d 00 00 f0 e1 40 00	(move)  	movq	$0x40e1f0,0xda8(%rsp)
  400f64:	c7 84 24 b0 0d 00 00 62 00 00 00	(move)  	movl	$0x62,0xdb0(%rsp)
  400f6f:	48 c7 84 24 e8 0d 00 00 a8 e2 40 00	(move)  	movq	$0x40e2a8,0xde8(%rsp)
  400f7b:	c7 84 24 f0 0d 00 00 38 00 00 00	(move)  	movl	$0x38,0xdf0(%rsp)
  400f86:	c7 84 24 a0 0d 00 00 00 10 00 00	(move)  	movl	$0x1000,0xda0(%rsp)
  400f91:	c7 84 24 a4 0d 00 00 06 00 00 00	(move)  	movl	$0x6,0xda4(%rsp)
  400f9c:	48 8d 9c 24 a0 0d 00 00     	(arith) 	lea	0xda0(%rsp),%rbx
  400fa4:	48 89 df                    	(move)  	mov	%rbx,%rdi
  400fa7:	e8 5c f9 ff ff              	(control)	call	400908 <_gfortran_st_write@plt>	; ⇄ _gfortran_st_write
61:	
  400fac:	48 89 df                    	(move)  	mov	%rbx,%rdi
  400faf:	e8 b4 f8 ff ff              	(control)	call	400868 <_gfortran_st_write_done@plt>	; ⇄ _gfortran_st_write_done
62:	
/home/jgarcia/TFG/source_code/SP/sp.f:99
  400fb4:	c7 84 24 e4 01 00 00 f4 01 00 00	(move)  	movl	$0x1f4,0x1e4(%rsp)
/home/jgarcia/TFG/source_code/SP/sp.f:100
  400fbf:	c7 05 ff e6 20 00 61 32 55 30	(move)  	movl	$0x30553261,0x20e6ff(%rip)
  400fc9:	c7 05 f9 e6 20 00 2a a9 33 3f	(move)  	movl	$0x3f33a92a,0x20e6f9(%rip)
/home/jgarcia/TFG/source_code/SP/sp.f:101
  400fd3:	c7 05 23 eb 20 00 98 01 00 00	(move)  	movl	$0x198,0x20eb23(%rip)
/home/jgarcia/TFG/source_code/SP/sp.f:102
  400fdd:	c7 05 1d eb 20 00 98 01 00 00	(move)  	movl	$0x198,0x20eb1d(%rip)
/home/jgarcia/TFG/source_code/SP/sp.f:103
  400fe7:	c7 05 17 eb 20 00 98 01 00 00	(move)  	movl	$0x198,0x20eb17(%rip)
60:	
/home/jgarcia/TFG/source_code/SP/sp.f:107
  400ff1:	48 c7 84 24 88 0f 00 00 f0 e1 40 00	(move)  	movq	$0x40e1f0,0xf88(%rsp)
  400ffd:	c7 84 24 90 0f 00 00 6b 00 00 00	(move)  	movl	$0x6b,0xf90(%rsp)
  401008:	48 c7 84 24 c8 0f 00 00 e0 e2 40 00	(move)  	movq	$0x40e2e0,0xfc8(%rsp)
  401014:	c7 84 24 d0 0f 00 00 21 00 00 00	(move)  	movl	$0x21,0xfd0(%rsp)
  40101f:	c7 84 24 80 0f 00 00 00 10 00 00	(move)  	movl	$0x1000,0xf80(%rsp)
  40102a:	c7 84 24 84 0f 00 00 06 00 00 00	(move)  	movl	$0x6,0xf84(%rsp)
  401035:	48 8d 9c 24 80 0f 00 00     	(arith) 	lea	0xf80(%rsp),%rbx
  40103d:	48 89 df                    	(move)  	mov	%rbx,%rdi
  401040:	e8 c3 f8 ff ff              	(control)	call	400908 <_gfortran_st_write@plt>	; ⇄ _gfortran_st_write
63:	
  401045:	ba 04 00 00 00              	(move)  	mov	$0x4,%edx
  40104a:	be 00 fb 60 00              	(move)  	mov	$0x60fb00,%esi
  40104f:	48 89 df                    	(move)  	mov	%rbx,%rdi
  401052:	e8 71 f8 ff ff              	(control)	call	4008c8 <_gfortran_transfer_integer@plt>	; ⇄ _gfortran_transfer_integer
64:	
  401057:	ba 04 00 00 00              	(move)  	mov	$0x4,%edx
  40105c:	be 04 fb 60 00              	(move)  	mov	$0x60fb04,%esi
  401061:	48 89 df                    	(move)  	mov	%rbx,%rdi
  401064:	e8 5f f8 ff ff              	(control)	call	4008c8 <_gfortran_transfer_integer@plt>	; ⇄ _gfortran_transfer_integer
65:	
  401069:	ba 04 00 00 00              	(move)  	mov	$0x4,%edx
  40106e:	be 08 fb 60 00              	(move)  	mov	$0x60fb08,%esi
  401073:	48 89 df                    	(move)  	mov	%rbx,%rdi
  401076:	e8 4d f8 ff ff              	(control)	call	4008c8 <_gfortran_transfer_integer@plt>	; ⇄ _gfortran_transfer_integer
66:	
  40107b:	48 89 df                    	(move)  	mov	%rbx,%rdi
  40107e:	e8 e5 f7 ff ff              	(control)	call	400868 <_gfortran_st_write_done@plt>	; ⇄ _gfortran_st_write_done
67:	
/home/jgarcia/TFG/source_code/SP/sp.f:108
  401083:	48 c7 84 24 68 11 00 00 f0 e1 40 00	(move)  	movq	$0x40e1f0,0x1168(%rsp)
  40108f:	c7 84 24 70 11 00 00 6c 00 00 00	(move)  	movl	$0x6c,0x1170(%rsp)
  40109a:	48 c7 84 24 a8 11 00 00 08 e3 40 00	(move)  	movq	$0x40e308,0x11a8(%rsp)
  4010a6:	c7 84 24 b0 11 00 00 28 00 00 00	(move)  	movl	$0x28,0x11b0(%rsp)
  4010b1:	c7 84 24 60 11 00 00 00 10 00 00	(move)  	movl	$0x1000,0x1160(%rsp)
  4010bc:	c7 84 24 64 11 00 00 06 00 00 00	(move)  	movl	$0x6,0x1164(%rsp)
  4010c7:	48 8d 9c 24 60 11 00 00     	(arith) 	lea	0x1160(%rsp),%rbx
  4010cf:	48 89 df                    	(move)  	mov	%rbx,%rdi
  4010d2:	e8 31 f8 ff ff              	(control)	call	400908 <_gfortran_st_write@plt>	; ⇄ _gfortran_st_write
68:	
  4010d7:	48 8d b4 24 e4 01 00 00     	(arith) 	lea	0x1e4(%rsp),%rsi
  4010df:	ba 04 00 00 00              	(move)  	mov	$0x4,%edx
  4010e4:	48 89 df                    	(move)  	mov	%rbx,%rdi
  4010e7:	e8 dc f7 ff ff              	(control)	call	4008c8 <_gfortran_transfer_integer@plt>	; ⇄ _gfortran_transfer_integer
69:	
  4010ec:	ba 08 00 00 00              	(move)  	mov	$0x8,%edx
  4010f1:	be c8 f6 60 00              	(move)  	mov	$0x60f6c8,%esi
  4010f6:	48 89 df                    	(move)  	mov	%rbx,%rdi
  4010f9:	e8 2a f8 ff ff              	(control)	call	400928 <_gfortran_transfer_real@plt>	; ⇄ _gfortran_transfer_real
70:	
  4010fe:	48 89 df                    	(move)  	mov	%rbx,%rdi
  401101:	e8 62 f7 ff ff              	(control)	call	400868 <_gfortran_st_write_done@plt>	; ⇄ _gfortran_st_write_done
71:	
/home/jgarcia/TFG/source_code/SP/sp.f:109
  401106:	48 c7 84 24 48 13 00 00 f0 e1 40 00	(move)  	movq	$0x40e1f0,0x1348(%rsp)
  401112:	c7 84 24 50 13 00 00 6d 00 00 00	(move)  	movl	$0x6d,0x1350(%rsp)
  40111d:	c7 84 24 40 13 00 00 80 00 00 00	(move)  	movl	$0x80,0x1340(%rsp)
  401128:	c7 84 24 44 13 00 00 06 00 00 00	(move)  	movl	$0x6,0x1344(%rsp)
  401133:	48 8d 9c 24 40 13 00 00     	(arith) 	lea	0x1340(%rsp),%rbx
  40113b:	48 89 df                    	(move)  	mov	%rbx,%rdi
  40113e:	e8 c5 f7 ff ff              	(control)	call	400908 <_gfortran_st_write@plt>	; ⇄ _gfortran_st_write
72:	
  401143:	48 89 df                    	(move)  	mov	%rbx,%rdi
  401146:	e8 1d f7 ff ff              	(control)	call	400868 <_gfortran_st_write_done@plt>	; ⇄ _gfortran_st_write_done
73:	
/home/jgarcia/TFG/source_code/SP/sp.f:118
  40114b:	8b 05 af e9 20 00           	(move)  	mov	0x20e9af(%rip),%eax
  401151:	3d 98 01 00 00              	(arith) 	cmp	$0x198,%eax
  401156:	7f 1c                       	(control)	jg	401174 <main__+0x724>	; ↲ label 74
75:	
  401158:	81 3d a2 e9 20 00 98 01 00 00	(arith) 	cmpl	$0x198,0x20e9a2(%rip)
  401162:	7f 10                       	(control)	jg	401174 <main__+0x724>	; ↲ label 74
76:	
  401164:	81 3d 9a e9 20 00 98 01 00 00	(arith) 	cmpl	$0x198,0x20e99a(%rip)
  40116e:	0f 8e e9 00 00 00           	(control)	jle	40125d <main__+0x80d>	; ↲ label 77
74:	
/home/jgarcia/TFG/source_code/SP/sp.f:119
  401174:	48 c7 84 24 28 15 00 00 f0 e1 40 00	(move)  	movq	$0x40e1f0,0x1528(%rsp)
  401180:	c7 84 24 30 15 00 00 77 00 00 00	(move)  	movl	$0x77,0x1530(%rsp)
  40118b:	c7 84 24 20 15 00 00 80 00 00 00	(move)  	movl	$0x80,0x1520(%rsp)
  401196:	c7 84 24 24 15 00 00 06 00 00 00	(move)  	movl	$0x6,0x1524(%rsp)
  4011a1:	48 8d bc 24 20 15 00 00     	(arith) 	lea	0x1520(%rsp),%rdi
  4011a9:	e8 5a f7 ff ff              	(control)	call	400908 <_gfortran_st_write@plt>	; ⇄ _gfortran_st_write
78:	
  4011ae:	c7 84 24 f4 01 00 00 01 00 00 00	(move)  	movl	$0x1,0x1f4(%rsp)
  4011b9:	48 8d 9c 24 20 15 00 00     	(arith) 	lea	0x1520(%rsp),%rbx
; ------- Loop 1 entry
79 (loop 1):	
  4011c1:	48 63 84 24 f4 01 00 00     	(move)  	movsxd	0x1f4(%rsp),%rax
  4011c9:	48 8d 34 85 fc fa 60 00     	(arith) 	lea	0x60fafc(,%rax,4),%rsi
  4011d1:	ba 04 00 00 00              	(move)  	mov	$0x4,%edx
  4011d6:	48 89 df                    	(move)  	mov	%rbx,%rdi
  4011d9:	e8 ea f6 ff ff              	(control)	call	4008c8 <_gfortran_transfer_integer@plt>	; ⇄ _gfortran_transfer_integer
80:	
  4011de:	8b 84 24 f4 01 00 00        	(move)  	mov	0x1f4(%rsp),%eax
  4011e5:	8d 50 01                    	(arith) 	lea	0x1(%rax),%edx
  4011e8:	89 94 24 f4 01 00 00        	(move)  	mov	%edx,0x1f4(%rsp)
  4011ef:	83 f8 03                    	(arith) 	cmp	$0x3,%eax
  4011f2:	75 cd                       	(control)	jne	4011c1 <main__+0x771>	; ↰ label 79 (loop 1)
; ------- Loop 1 exit
81:	
  4011f4:	48 8d bc 24 20 15 00 00     	(arith) 	lea	0x1520(%rsp),%rdi
  4011fc:	e8 67 f6 ff ff              	(control)	call	400868 <_gfortran_st_write_done@plt>	; ⇄ _gfortran_st_write_done
82:	
/home/jgarcia/TFG/source_code/SP/sp.f:120
  401201:	48 c7 84 24 08 17 00 00 f0 e1 40 00	(move)  	movq	$0x40e1f0,0x1708(%rsp)
  40120d:	c7 84 24 10 17 00 00 78 00 00 00	(move)  	movl	$0x78,0x1710(%rsp)
  401218:	c7 84 24 00 17 00 00 80 00 00 00	(move)  	movl	$0x80,0x1700(%rsp)
  401223:	c7 84 24 04 17 00 00 06 00 00 00	(move)  	movl	$0x6,0x1704(%rsp)
  40122e:	48 8d 9c 24 00 17 00 00     	(arith) 	lea	0x1700(%rsp),%rbx
  401236:	48 89 df                    	(move)  	mov	%rbx,%rdi
  401239:	e8 ca f6 ff ff              	(control)	call	400908 <_gfortran_st_write@plt>	; ⇄ _gfortran_st_write
83:	
  40123e:	ba 2e 00 00 00              	(move)  	mov	$0x2e,%edx
  401243:	be 30 e3 40 00              	(move)  	mov	$0x40e330,%esi
  401248:	48 89 df                    	(move)  	mov	%rbx,%rdi
  40124b:	e8 98 f6 ff ff              	(control)	call	4008e8 <_gfortran_transfer_character@plt>	; ⇄ _gfortran_transfer_character
85:	
  401250:	48 89 df                    	(move)  	mov	%rbx,%rdi
  401253:	e8 10 f6 ff ff              	(control)	call	400868 <_gfortran_st_write_done@plt>	; ⇄ _gfortran_st_write_done
86:	
/home/jgarcia/TFG/source_code/SP/sp.f:121
  401258:	e9 8f 09 00 00              	(control)	jmp	401bec <main__+0x119c>	; ↲ label 87
77:	
/home/jgarcia/TFG/source_code/SP/sp.f:123
  40125d:	83 e8 02                    	(arith) 	sub	$0x2,%eax
  401260:	89 05 a6 e8 20 00           	(move)  	mov	%eax,0x20e8a6(%rip)
/home/jgarcia/TFG/source_code/SP/sp.f:124
  401266:	8b 05 98 e8 20 00           	(move)  	mov	0x20e898(%rip),%eax
  40126c:	83 e8 02                    	(arith) 	sub	$0x2,%eax
  40126f:	89 05 9b e8 20 00           	(move)  	mov	%eax,0x20e89b(%rip)
/home/jgarcia/TFG/source_code/SP/sp.f:125
  401275:	8b 05 8d e8 20 00           	(move)  	mov	0x20e88d(%rip),%eax
  40127b:	83 e8 02                    	(arith) 	sub	$0x2,%eax
  40127e:	89 05 90 e8 20 00           	(move)  	mov	%eax,0x20e890(%rip)
/home/jgarcia/TFG/source_code/SP/sp.f:127
  401284:	b8 00 00 00 00              	(move)  	mov	$0,%eax
  401289:	e8 42 37 00 00              	(control)	call	4049d0 <set_constants_>	; ⇄ set_constants
89:	
/home/jgarcia/TFG/source_code/SP/sp.f:129
  40128e:	c7 84 24 f4 01 00 00 01 00 00 00	(move)  	movl	$0x1,0x1f4(%rsp)
/home/jgarcia/TFG/source_code/SP/sp.f:130
  401299:	48 8d 9c 24 f4 01 00 00     	(arith) 	lea	0x1f4(%rsp),%rbx
; ------- Loop 2 entry
90 (loop 2):	
  4012a1:	48 89 df                    	(move)  	mov	%rbx,%rdi
  4012a4:	b8 00 00 00 00              	(move)  	mov	$0,%eax
  4012a9:	e8 22 cd 00 00              	(control)	call	40dfd0 <timer_clear_>	; ⇄ timer_clear
92:	
/home/jgarcia/TFG/source_code/SP/sp.f:129
  4012ae:	8b 84 24 f4 01 00 00        	(move)  	mov	0x1f4(%rsp),%eax
  4012b5:	8d 50 01                    	(arith) 	lea	0x1(%rax),%edx
  4012b8:	89 94 24 f4 01 00 00        	(move)  	mov	%edx,0x1f4(%rsp)
  4012bf:	83 f8 0f                    	(arith) 	cmp	$0xf,%eax
  4012c2:	75 dd                       	(control)	jne	4012a1 <main__+0x851>	; ↰ label 90 (loop 2)
; ------- Loop 2 exit
93:	
/home/jgarcia/TFG/source_code/SP/sp.f:133
  4012c4:	b8 00 00 00 00              	(move)  	mov	$0,%eax
  4012c9:	e8 72 16 00 00              	(control)	call	402940 <exact_rhs_>	; ⇄ exact_rhs
95:	
/home/jgarcia/TFG/source_code/SP/sp.f:135
  4012ce:	b8 00 00 00 00              	(move)  	mov	$0,%eax
  4012d3:	e8 cc 0a 00 00              	(control)	call	401da4 <initialize_>	; ⇄ initialize
97:	
/home/jgarcia/TFG/source_code/SP/sp.f:140
  4012d8:	b8 00 00 00 00              	(move)  	mov	$0,%eax
  4012dd:	e8 ee 3e 00 00              	(control)	call	4051d0 <adi_>	; ⇄ adi
99:	
/home/jgarcia/TFG/source_code/SP/sp.f:141
  4012e2:	b8 00 00 00 00              	(move)  	mov	$0,%eax
  4012e7:	e8 b8 0a 00 00              	(control)	call	401da4 <initialize_>	; ⇄ initialize
100:	
/home/jgarcia/TFG/source_code/SP/sp.f:143
  4012ec:	c7 84 24 f4 01 00 00 01 00 00 00	(move)  	movl	$0x1,0x1f4(%rsp)
/home/jgarcia/TFG/source_code/SP/sp.f:144
  4012f7:	48 8d 9c 24 f4 01 00 00     	(arith) 	lea	0x1f4(%rsp),%rbx
; ------- Loop 3 entry
101 (loop 3):	
  4012ff:	48 89 df                    	(move)  	mov	%rbx,%rdi
  401302:	b8 00 00 00 00              	(move)  	mov	$0,%eax
  401307:	e8 c4 cc 00 00              	(control)	call	40dfd0 <timer_clear_>	; ⇄ timer_clear
102:	
/home/jgarcia/TFG/source_code/SP/sp.f:143
  40130c:	8b 84 24 f4 01 00 00        	(move)  	mov	0x1f4(%rsp),%eax
  401313:	8d 50 01                    	(arith) 	lea	0x1(%rax),%edx
  401316:	89 94 24 f4 01 00 00        	(move)  	mov	%edx,0x1f4(%rsp)
  40131d:	83 f8 0f                    	(arith) 	cmp	$0xf,%eax
  401320:	75 dd                       	(control)	jne	4012ff <main__+0x8af>	; ↰ label 101 (loop 3)
; ------- Loop 3 exit
103:	
/home/jgarcia/TFG/source_code/SP/sp.f:146
  401322:	bf 60 e3 40 00              	(move)  	mov	$0x40e360,%edi
  401327:	b8 00 00 00 00              	(move)  	mov	$0,%eax
  40132c:	e8 06 cd 00 00              	(control)	call	40e037 <timer_start_>	; ⇄ timer_start
105:	
/home/jgarcia/TFG/source_code/SP/sp.f:148
  401331:	8b 9c 24 e4 01 00 00        	(move)  	mov	0x1e4(%rsp),%ebx
  401338:	c7 84 24 e0 01 00 00 01 00 00 00	(move)  	movl	$0x1,0x1e0(%rsp)
  401343:	85 db                       	(arith) 	test	%ebx,%ebx
  401345:	0f 8e c0 00 00 00           	(control)	jle	40140b <main__+0x9bb>	; ↲ label 106
107:	
/home/jgarcia/TFG/source_code/SP/sp.f:150
  40134b:	bd 67 66 66 66              	(move)  	mov	$0x66666667,%ebp
/home/jgarcia/TFG/source_code/SP/sp.f:151
  401350:	4c 8d a4 24 e0 18 00 00     	(arith) 	lea	0x18e0(%rsp),%r12
  401358:	4c 8d ac 24 e0 01 00 00     	(arith) 	lea	0x1e0(%rsp),%r13
; ------- Loop 6 entry
108 (loop 6):	
/home/jgarcia/TFG/source_code/SP/sp.f:150
  401360:	8b 8c 24 e0 01 00 00        	(move)  	mov	0x1e0(%rsp),%ecx
  401367:	89 c8                       	(move)  	mov	%ecx,%eax
  401369:	f7 ed                       	(arith) 	imul	%ebp
  40136b:	c1 fa 03                    	(logic) 	sar	$0x3,%edx
  40136e:	89 c8                       	(move)  	mov	%ecx,%eax
  401370:	c1 f8 1f                    	(logic) 	sar	$0x1f,%eax
  401373:	29 c2                       	(arith) 	sub	%eax,%edx
  401375:	8d 14 92                    	(arith) 	lea	(%rdx,%rdx,4),%edx
  401378:	c1 e2 02                    	(logic) 	sal	$0x2,%edx
  40137b:	39 d1                       	(arith) 	cmp	%edx,%ecx
  40137d:	74 05                       	(control)	je	401384 <main__+0x934>	; ↲ label 109
110:	
  40137f:	83 f9 01                    	(arith) 	cmp	$0x1,%ecx
  401382:	75 64                       	(control)	jne	4013e8 <main__+0x998>	; ↲ label 111
109:	
/home/jgarcia/TFG/source_code/SP/sp.f:151
  401384:	48 c7 84 24 e8 18 00 00 f0 e1 40 00	(move)  	movq	$0x40e1f0,0x18e8(%rsp)
  401390:	c7 84 24 f0 18 00 00 97 00 00 00	(move)  	movl	$0x97,0x18f0(%rsp)
  40139b:	48 c7 84 24 28 19 00 00 64 e3 40 00	(move)  	movq	$0x40e364,0x1928(%rsp)
  4013a7:	c7 84 24 30 19 00 00 13 00 00 00	(move)  	movl	$0x13,0x1930(%rsp)
  4013b2:	c7 84 24 e0 18 00 00 00 10 00 00	(move)  	movl	$0x1000,0x18e0(%rsp)
  4013bd:	c7 84 24 e4 18 00 00 06 00 00 00	(move)  	movl	$0x6,0x18e4(%rsp)
  4013c8:	4c 89 e7                    	(move)  	mov	%r12,%rdi
  4013cb:	e8 38 f5 ff ff              	(control)	call	400908 <_gfortran_st_write@plt>	; ⇄ _gfortran_st_write
112:	
  4013d0:	ba 04 00 00 00              	(move)  	mov	$0x4,%edx
  4013d5:	4c 89 ee                    	(move)  	mov	%r13,%rsi
  4013d8:	4c 89 e7                    	(move)  	mov	%r12,%rdi
  4013db:	e8 e8 f4 ff ff              	(control)	call	4008c8 <_gfortran_transfer_integer@plt>	; ⇄ _gfortran_transfer_integer
113:	
  4013e0:	4c 89 e7                    	(move)  	mov	%r12,%rdi
  4013e3:	e8 80 f4 ff ff              	(control)	call	400868 <_gfortran_st_write_done@plt>	; ⇄ _gfortran_st_write_done
111:	
/home/jgarcia/TFG/source_code/SP/sp.f:155
  4013e8:	b8 00 00 00 00              	(move)  	mov	$0,%eax
  4013ed:	e8 de 3d 00 00              	(control)	call	4051d0 <adi_>	; ⇄ adi
114:	
/home/jgarcia/TFG/source_code/SP/sp.f:148
  4013f2:	8b 84 24 e0 01 00 00        	(move)  	mov	0x1e0(%rsp),%eax
  4013f9:	8d 50 01                    	(arith) 	lea	0x1(%rax),%edx
  4013fc:	89 94 24 e0 01 00 00        	(move)  	mov	%edx,0x1e0(%rsp)
  401403:	39 c3                       	(arith) 	cmp	%eax,%ebx
  401405:	0f 85 55 ff ff ff           	(control)	jne	401360 <main__+0x910>	; ↰ label 108 (loop 6)
; ------- Loop 6 exit
106:	
/home/jgarcia/TFG/source_code/SP/sp.f:159
  40140b:	bf 60 e3 40 00              	(move)  	mov	$0x40e360,%edi
  401410:	b8 00 00 00 00              	(move)  	mov	$0,%eax
  401415:	e8 f1 cb 00 00              	(control)	call	40e00b <timer_stop_>	; ⇄ timer_stop
116:	
/home/jgarcia/TFG/source_code/SP/sp.f:160
  40141a:	bf 60 e3 40 00              	(move)  	mov	$0x40e360,%edi
  40141f:	b8 00 00 00 00              	(move)  	mov	$0,%eax
  401424:	e8 b7 cb 00 00              	(control)	call	40dfe0 <timer_read_>	; ⇄ timer_read
118:	
  401429:	f2 0f 11 84 24 58 01 00 00  	(move)  	movsd	%xmm0,0x158(%rsp)
/home/jgarcia/TFG/source_code/SP/sp.f:162
  401432:	48 8d 94 24 dc 00 00 00     	(arith) 	lea	0xdc(%rsp),%rdx
  40143a:	48 8d b4 24 ff 01 00 00     	(arith) 	lea	0x1ff(%rsp),%rsi
  401442:	48 8d bc 24 e4 01 00 00     	(arith) 	lea	0x1e4(%rsp),%rdi
  40144a:	b9 01 00 00 00              	(move)  	mov	$0x1,%ecx
  40144f:	b8 00 00 00 00              	(move)  	mov	$0,%eax
  401454:	e8 43 ae 00 00              	(control)	call	40c29c <verify_>	; ⇄ verify
120:	
/home/jgarcia/TFG/source_code/SP/sp.f:164
  401459:	66 0f 57 c0                 	(logic) 	xorpd	%xmm0,%xmm0
  40145d:	66 0f 2e 84 24 58 01 00 00  	(arith) 	ucomisd	0x158(%rsp),%xmm0
  401466:	7a 06                       	(control)	jp	40146e <main__+0xa1e>	; ↲ label 121
122:	
  401468:	0f 84 ad 00 00 00           	(control)	je	40151b <main__+0xacb>	; ↲ label 123
121:	
/home/jgarcia/TFG/source_code/SP/sp.f:165
  40146e:	8b 15 8c e6 20 00           	(move)  	mov	0x20e68c(%rip),%edx
  401474:	8b 0d 8a e6 20 00           	(move)  	mov	0x20e68a(%rip),%ecx
  40147a:	8b 05 88 e6 20 00           	(move)  	mov	0x20e688(%rip),%eax
/home/jgarcia/TFG/source_code/SP/sp.f:166
  401480:	8d 1c 11                    	(arith) 	lea	(%rcx,%rdx,1),%ebx
  401483:	01 c3                       	(arith) 	add	%eax,%ebx
  401485:	f3 0f 2a c3                 	(conv)  	cvtsi2ss	%ebx,%xmm0
  401489:	f3 0f 10 0d ef cf 00 00     	(move)  	movss	0xcfef(%rip),%xmm1
  401491:	f3 0f 5e c1                 	(arith) 	divss	%xmm1,%xmm0
  401495:	0f 14 c0                    	(move)  	unpcklps	%xmm0,%xmm0
  401498:	0f 5a c0                    	(conv)  	cvtps2pd	%xmm0,%xmm0
  40149b:	f2 0f 11 84 24 d8 01 00 00  	(move)  	movsd	%xmm0,0x1d8(%rsp)
/home/jgarcia/TFG/source_code/SP/sp.f:170
  4014a4:	0f af d1                    	(arith) 	imul	%ecx,%edx
  4014a7:	0f af c2                    	(arith) 	imul	%edx,%eax
  4014aa:	f3 0f 2a d0                 	(conv)  	cvtsi2ss	%eax,%xmm2
  4014ae:	f3 0f 10 0d ce cf 00 00     	(move)  	movss	0xcfce(%rip),%xmm1
  4014b6:	f3 0f 59 d1                 	(arith) 	mulss	%xmm1,%xmm2
  4014ba:	0f 14 d2                    	(move)  	unpcklps	%xmm2,%xmm2
  4014bd:	0f 5a d2                    	(conv)  	cvtps2pd	%xmm2,%xmm2
  4014c0:	66 0f 28 c8                 	(move)  	movapd	%xmm0,%xmm1
  4014c4:	f2 0f 59 c8                 	(arith) 	mulsd	%xmm0,%xmm1
  4014c8:	f2 0f 59 0d b8 cf 00 00     	(arith) 	mulsd	0xcfb8(%rip),%xmm1
  4014d0:	f2 0f 58 ca                 	(arith) 	addsd	%xmm2,%xmm1
  4014d4:	f2 0f 59 05 b4 cf 00 00     	(arith) 	mulsd	0xcfb4(%rip),%xmm0
  4014dc:	f2 0f 58 c1                 	(arith) 	addsd	%xmm1,%xmm0
  4014e0:	f2 0f 5c 05 b0 cf 00 00     	(arith) 	subsd	0xcfb0(%rip),%xmm0
  4014e8:	f3 0f 2a 8c 24 e4 01 00 00  	(conv)  	cvtsi2ssl	0x1e4(%rsp),%xmm1
  4014f1:	0f 14 c9                    	(move)  	unpcklps	%xmm1,%xmm1
  4014f4:	0f 5a c9                    	(conv)  	cvtps2pd	%xmm1,%xmm1
  4014f7:	f2 0f 59 c1                 	(arith) 	mulsd	%xmm1,%xmm0
  4014fb:	f2 0f 10 0d 9d cf 00 00     	(move)  	movsd	0xcf9d(%rip),%xmm1
  401503:	f2 0f 59 8c 24 58 01 00 00  	(arith) 	mulsd	0x158(%rsp),%xmm1
  40150c:	f2 0f 5e c1                 	(arith) 	divsd	%xmm1,%xmm0
  401510:	f2 0f 11 84 24 e8 01 00 00  	(move)  	movsd	%xmm0,0x1e8(%rsp)
  401519:	eb 0c                       	(control)	jmp	401527 <main__+0xad7>	; ↲ label 124
123:	
/home/jgarcia/TFG/source_code/SP/sp.f:172
  40151b:	48 c7 84 24 e8 01 00 00 00 00 00 00	(move)  	movq	$0,0x1e8(%rsp)
124:	
/home/jgarcia/TFG/source_code/SP/sp.f:179
  401527:	48 8d b4 24 ff 01 00 00     	(arith) 	lea	0x1ff(%rsp),%rsi
  40152f:	c7 84 24 c0 00 00 00 06 00 00 00	(move)  	movl	$0x6,0xc0(%rsp)
  40153a:	c7 84 24 b8 00 00 00 12 00 00 00	(move)  	movl	$0x12,0xb8(%rsp)
  401545:	c7 84 24 b0 00 00 00 15 00 00 00	(move)  	movl	$0x15,0xb0(%rsp)
  401550:	c7 84 24 a8 00 00 00 06 00 00 00	(move)  	movl	$0x6,0xa8(%rsp)
  40155b:	c7 84 24 a0 00 00 00 06 00 00 00	(move)  	movl	$0x6,0xa0(%rsp)
  401566:	c7 84 24 98 00 00 00 06 00 00 00	(move)  	movl	$0x6,0x98(%rsp)
  401571:	c7 84 24 90 00 00 00 08 00 00 00	(move)  	movl	$0x8,0x90(%rsp)
  40157c:	c7 84 24 88 00 00 00 0b 00 00 00	(move)  	movl	$0xb,0x88(%rsp)
  401587:	c7 84 24 80 00 00 00 05 00 00 00	(move)  	movl	$0x5,0x80(%rsp)
  401592:	c7 44 24 78 18 00 00 00     	(move)  	movl	$0x18,0x78(%rsp)
  40159a:	c7 44 24 70 01 00 00 00     	(move)  	movl	$0x1,0x70(%rsp)
  4015a2:	c7 44 24 68 02 00 00 00     	(move)  	movl	$0x2,0x68(%rsp)
  4015aa:	48 c7 44 24 60 79 e3 40 00  	(move)  	movq	$0x40e379,0x60(%rsp)
  4015b3:	48 c7 44 24 58 7f e3 40 00  	(move)  	movq	$0x40e37f,0x58(%rsp)
  4015bc:	48 c7 44 24 50 91 e3 40 00  	(move)  	movq	$0x40e391,0x50(%rsp)
  4015c5:	48 c7 44 24 48 79 e3 40 00  	(move)  	movq	$0x40e379,0x48(%rsp)
  4015ce:	48 c7 44 24 40 79 e3 40 00  	(move)  	movq	$0x40e379,0x40(%rsp)
  4015d7:	48 c7 44 24 38 a6 e3 40 00  	(move)  	movq	$0x40e3a6,0x38(%rsp)
  4015e0:	48 c7 44 24 30 ac e3 40 00  	(move)  	movq	$0x40e3ac,0x30(%rsp)
  4015e9:	48 c7 44 24 28 b4 e3 40 00  	(move)  	movq	$0x40e3b4,0x28(%rsp)
  4015f2:	48 c7 44 24 20 bf e3 40 00  	(move)  	movq	$0x40e3bf,0x20(%rsp)
  4015fb:	48 8d 84 24 dc 00 00 00     	(arith) 	lea	0xdc(%rsp),%rax
  401603:	48 89 44 24 18              	(move)  	mov	%rax,0x18(%rsp)
  401608:	48 c7 44 24 10 c4 e3 40 00  	(move)  	movq	$0x40e3c4,0x10(%rsp)
  401611:	48 8d 84 24 e8 01 00 00     	(arith) 	lea	0x1e8(%rsp),%rax
  401619:	48 89 44 24 08              	(move)  	mov	%rax,0x8(%rsp)
  40161e:	48 8d 84 24 58 01 00 00     	(arith) 	lea	0x158(%rsp),%rax
  401626:	48 89 04 24                 	(move)  	mov	%rax,(%rsp)
  40162a:	4c 8d 8c 24 e4 01 00 00     	(arith) 	lea	0x1e4(%rsp),%r9
  401632:	41 b8 08 fb 60 00           	(move)  	mov	$0x60fb08,%r8d
  401638:	b9 04 fb 60 00              	(move)  	mov	$0x60fb04,%ecx
  40163d:	ba 00 fb 60 00              	(move)  	mov	$0x60fb00,%edx
  401642:	bf 77 e3 40 00              	(move)  	mov	$0x40e377,%edi
  401647:	b8 00 00 00 00              	(move)  	mov	$0,%eax
  40164c:	e8 0b bf 00 00              	(control)	call	40d55c <print_results_>	; ⇄ print_results
126:	
/home/jgarcia/TFG/source_code/SP/sp.f:184
  401651:	83 3d c0 e4 20 00 00        	(arith) 	cmpl	$0,0x20e4c0(%rip)
  401658:	0f 84 8e 05 00 00           	(control)	je	401bec <main__+0x119c>	; ↲ label 87
127:	
/home/jgarcia/TFG/source_code/SP/sp.f:186
  40165e:	c7 84 24 f4 01 00 00 01 00 00 00	(move)  	movl	$0x1,0x1f4(%rsp)
/home/jgarcia/TFG/source_code/SP/sp.f:187
  401669:	48 8d ac 24 f4 01 00 00     	(arith) 	lea	0x1f4(%rsp),%rbp
; ------- Loop 4 entry
128 (loop 4):	
  401671:	48 63 9c 24 f4 01 00 00     	(move)  	movsxd	0x1f4(%rsp),%rbx
  401679:	48 83 eb 01                 	(arith) 	sub	$0x1,%rbx
  40167d:	48 89 ef                    	(move)  	mov	%rbp,%rdi
  401680:	b8 00 00 00 00              	(move)  	mov	$0,%eax
  401685:	e8 56 c9 00 00              	(control)	call	40dfe0 <timer_read_>	; ⇄ timer_read
129:	
  40168a:	f2 0f 11 84 dc e0 00 00 00  	(move)  	movsd	%xmm0,0xe0(%rsp,%rbx,8)
/home/jgarcia/TFG/source_code/SP/sp.f:186
  401693:	8b 84 24 f4 01 00 00        	(move)  	mov	0x1f4(%rsp),%eax
  40169a:	8d 50 01                    	(arith) 	lea	0x1(%rax),%edx
  40169d:	89 94 24 f4 01 00 00        	(move)  	mov	%edx,0x1f4(%rsp)
  4016a4:	83 f8 0f                    	(arith) 	cmp	$0xf,%eax
  4016a7:	75 c8                       	(control)	jne	401671 <main__+0xc21>	; ↰ label 128 (loop 4)
; ------- Loop 4 exit
130:	
/home/jgarcia/TFG/source_code/SP/sp.f:189
  4016a9:	66 0f 57 c0                 	(logic) 	xorpd	%xmm0,%xmm0
  4016ad:	66 0f 2e 84 24 58 01 00 00  	(arith) 	ucomisd	0x158(%rsp),%xmm0
  4016b6:	75 18                       	(control)	jne	4016d0 <main__+0xc80>	; ↲ label 131
132:	
  4016b8:	7a 16                       	(control)	jp	4016d0 <main__+0xc80>	; ↲ label 131
133:	
  4016ba:	c7 84 24 58 01 00 00 00 00 00 00	(move)  	movl	$0,0x158(%rsp)
  4016c5:	c7 84 24 5c 01 00 00 00 00 f0 3f	(move)  	movl	$0x3ff00000,0x15c(%rsp)
131:	
/home/jgarcia/TFG/source_code/SP/sp.f:191
  4016d0:	48 c7 84 24 c8 1a 00 00 f0 e1 40 00	(move)  	movq	$0x40e1f0,0x1ac8(%rsp)
  4016dc:	c7 84 24 d0 1a 00 00 bf 00 00 00	(move)  	movl	$0xbf,0x1ad0(%rsp)
  4016e7:	48 c7 84 24 08 1b 00 00 dc e3 40 00	(move)  	movq	$0x40e3dc,0x1b08(%rsp)
  4016f3:	c7 84 24 10 1b 00 00 1b 00 00 00	(move)  	movl	$0x1b,0x1b10(%rsp)
  4016fe:	c7 84 24 c0 1a 00 00 00 10 00 00	(move)  	movl	$0x1000,0x1ac0(%rsp)
  401709:	c7 84 24 c4 1a 00 00 06 00 00 00	(move)  	movl	$0x6,0x1ac4(%rsp)
  401714:	48 8d 9c 24 c0 1a 00 00     	(arith) 	lea	0x1ac0(%rsp),%rbx
  40171c:	48 89 df                    	(move)  	mov	%rbx,%rdi
  40171f:	e8 e4 f1 ff ff              	(control)	call	400908 <_gfortran_st_write@plt>	; ⇄ _gfortran_st_write
134:	
  401724:	48 89 df                    	(move)  	mov	%rbx,%rdi
  401727:	e8 3c f1 ff ff              	(control)	call	400868 <_gfortran_st_write_done@plt>	; ⇄ _gfortran_st_write_done
135:	
/home/jgarcia/TFG/source_code/SP/sp.f:193
  40172c:	c7 84 24 f4 01 00 00 01 00 00 00	(move)  	movl	$0x1,0x1f4(%rsp)
/home/jgarcia/TFG/source_code/SP/sp.f:194
  401737:	48 8d 9c 24 a0 1c 00 00     	(arith) 	lea	0x1ca0(%rsp),%rbx
  40173f:	48 8d ac 24 60 01 00 00     	(arith) 	lea	0x160(%rsp),%rbp
  401747:	4c 8d a4 24 e0 00 00 00     	(arith) 	lea	0xe0(%rsp),%r12
  40174f:	4c 8d ac 24 88 1e 00 00     	(arith) 	lea	0x1e88(%rsp),%r13
/home/jgarcia/TFG/source_code/SP/sp.f:202
  401757:	4c 8d bc 24 70 22 00 00     	(arith) 	lea	0x2270(%rsp),%r15
/home/jgarcia/TFG/source_code/SP/sp.f:197
  40175f:	4c 8d b4 24 90 1e 00 00     	(arith) 	lea	0x1e90(%rsp),%r14
; ------- Loop 5 entry
136 (loop 5):	
/home/jgarcia/TFG/source_code/SP/sp.f:194
  401767:	48 c7 84 24 a8 1c 00 00 f0 e1 40 00	(move)  	movq	$0x40e1f0,0x1ca8(%rsp)
  401773:	c7 84 24 b0 1c 00 00 c2 00 00 00	(move)  	movl	$0xc2,0x1cb0(%rsp)
  40177e:	48 c7 84 24 e8 1c 00 00 f8 e3 40 00	(move)  	movq	$0x40e3f8,0x1ce8(%rsp)
  40178a:	c7 84 24 f0 1c 00 00 20 00 00 00	(move)  	movl	$0x20,0x1cf0(%rsp)
  401795:	c7 84 24 a0 1c 00 00 00 10 00 00	(move)  	movl	$0x1000,0x1ca0(%rsp)
  4017a0:	c7 84 24 a4 1c 00 00 06 00 00 00	(move)  	movl	$0x6,0x1ca4(%rsp)
  4017ab:	48 89 df                    	(move)  	mov	%rbx,%rdi
  4017ae:	e8 55 f1 ff ff              	(control)	call	400908 <_gfortran_st_write@plt>	; ⇄ _gfortran_st_write
137:	
  4017b3:	48 63 84 24 f4 01 00 00     	(move)  	movsxd	0x1f4(%rsp),%rax
  4017bb:	48 8d 74 c5 f8              	(arith) 	lea	-0x8(%rbp,%rax,8),%rsi
  4017c0:	ba 08 00 00 00              	(move)  	mov	$0x8,%edx
  4017c5:	48 89 df                    	(move)  	mov	%rbx,%rdi
  4017c8:	e8 1b f1 ff ff              	(control)	call	4008e8 <_gfortran_transfer_character@plt>	; ⇄ _gfortran_transfer_character
138:	
  4017cd:	48 63 84 24 f4 01 00 00     	(move)  	movsxd	0x1f4(%rsp),%rax
  4017d5:	49 8d 74 c4 f8              	(arith) 	lea	-0x8(%r12,%rax,8),%rsi
  4017da:	ba 08 00 00 00              	(move)  	mov	$0x8,%edx
  4017df:	48 89 df                    	(move)  	mov	%rbx,%rdi
  4017e2:	e8 41 f1 ff ff              	(control)	call	400928 <_gfortran_transfer_real@plt>	; ⇄ _gfortran_transfer_real
139:	
  4017e7:	48 63 84 24 f4 01 00 00     	(move)  	movsxd	0x1f4(%rsp),%rax
  4017ef:	f2 0f 10 05 b1 cc 00 00     	(move)  	movsd	0xccb1(%rip),%xmm0
  4017f7:	f2 0f 59 84 c4 d8 00 00 00  	(arith) 	mulsd	0xd8(%rsp,%rax,8),%xmm0
  401800:	f2 0f 5e 84 24 58 01 00 00  	(arith) 	divsd	0x158(%rsp),%xmm0
  401809:	f2 0f 11 84 24 88 1e 00 00  	(move)  	movsd	%xmm0,0x1e88(%rsp)
  401812:	ba 08 00 00 00              	(move)  	mov	$0x8,%edx
  401817:	4c 89 ee                    	(move)  	mov	%r13,%rsi
  40181a:	48 89 df                    	(move)  	mov	%rbx,%rdi
  40181d:	e8 06 f1 ff ff              	(control)	call	400928 <_gfortran_transfer_real@plt>	; ⇄ _gfortran_transfer_real
140:	
  401822:	48 89 df                    	(move)  	mov	%rbx,%rdi
  401825:	e8 3e f0 ff ff              	(control)	call	400868 <_gfortran_st_write_done@plt>	; ⇄ _gfortran_st_write_done
141:	
/home/jgarcia/TFG/source_code/SP/sp.f:195
  40182a:	8b 84 24 f4 01 00 00        	(move)  	mov	0x1f4(%rsp),%eax
  401831:	83 f8 05                    	(arith) 	cmp	$0x5,%eax
  401834:	0f 85 c3 01 00 00           	(control)	jne	4019fd <main__+0xfad>	; ↲ label 142
143:	
/home/jgarcia/TFG/source_code/SP/sp.f:196
  40183a:	f2 0f 10 84 24 e8 00 00 00  	(move)  	movsd	0xe8(%rsp),%xmm0
  401843:	f2 0f 58 84 24 f0 00 00 00  	(arith) 	addsd	0xf0(%rsp),%xmm0
  40184c:	f2 0f 58 84 24 f8 00 00 00  	(arith) 	addsd	0xf8(%rsp),%xmm0
  401855:	f2 0f 11 84 24 d8 01 00 00  	(move)  	movsd	%xmm0,0x1d8(%rsp)
/home/jgarcia/TFG/source_code/SP/sp.f:197
  40185e:	48 c7 84 24 98 1e 00 00 f0 e1 40 00	(move)  	movq	$0x40e1f0,0x1e98(%rsp)
  40186a:	c7 84 24 a0 1e 00 00 c5 00 00 00	(move)  	movl	$0xc5,0x1ea0(%rsp)
  401875:	48 c7 84 24 d8 1e 00 00 18 e4 40 00	(move)  	movq	$0x40e418,0x1ed8(%rsp)
  401881:	c7 84 24 e0 1e 00 00 28 00 00 00	(move)  	movl	$0x28,0x1ee0(%rsp)
  40188c:	c7 84 24 90 1e 00 00 00 10 00 00	(move)  	movl	$0x1000,0x1e90(%rsp)
  401897:	c7 84 24 94 1e 00 00 06 00 00 00	(move)  	movl	$0x6,0x1e94(%rsp)
  4018a2:	4c 89 f7                    	(move)  	mov	%r14,%rdi
  4018a5:	e8 5e f0 ff ff              	(control)	call	400908 <_gfortran_st_write@plt>	; ⇄ _gfortran_st_write
144:	
  4018aa:	ba 07 00 00 00              	(move)  	mov	$0x7,%edx
  4018af:	be 40 e4 40 00              	(move)  	mov	$0x40e440,%esi
  4018b4:	4c 89 f7                    	(move)  	mov	%r14,%rdi
  4018b7:	e8 2c f0 ff ff              	(control)	call	4008e8 <_gfortran_transfer_character@plt>	; ⇄ _gfortran_transfer_character
145:	
  4018bc:	ba 08 00 00 00              	(move)  	mov	$0x8,%edx
  4018c1:	48 8d b4 24 d8 01 00 00     	(arith) 	lea	0x1d8(%rsp),%rsi
  4018c9:	4c 89 f7                    	(move)  	mov	%r14,%rdi
  4018cc:	e8 57 f0 ff ff              	(control)	call	400928 <_gfortran_transfer_real@plt>	; ⇄ _gfortran_transfer_real
146:	
  4018d1:	f2 0f 10 05 cf cb 00 00     	(move)  	movsd	0xcbcf(%rip),%xmm0
  4018d9:	f2 0f 59 84 24 d8 01 00 00  	(arith) 	mulsd	0x1d8(%rsp),%xmm0
  4018e2:	f2 0f 5e 84 24 58 01 00 00  	(arith) 	divsd	0x158(%rsp),%xmm0
  4018eb:	f2 0f 11 84 24 78 20 00 00  	(move)  	movsd	%xmm0,0x2078(%rsp)
  4018f4:	48 8d b4 24 78 20 00 00     	(arith) 	lea	0x2078(%rsp),%rsi
  4018fc:	ba 08 00 00 00              	(move)  	mov	$0x8,%edx
  401901:	4c 89 f7                    	(move)  	mov	%r14,%rdi
  401904:	e8 1f f0 ff ff              	(control)	call	400928 <_gfortran_transfer_real@plt>	; ⇄ _gfortran_transfer_real
147:	
  401909:	4c 89 f7                    	(move)  	mov	%r14,%rdi
  40190c:	e8 57 ef ff ff              	(control)	call	400868 <_gfortran_st_write_done@plt>	; ⇄ _gfortran_st_write_done
148:	
/home/jgarcia/TFG/source_code/SP/sp.f:198
  401911:	f2 0f 10 84 24 00 01 00 00  	(move)  	movsd	0x100(%rsp),%xmm0
  40191a:	f2 0f 5c 84 24 d8 01 00 00  	(arith) 	subsd	0x1d8(%rsp),%xmm0
  401923:	f2 0f 11 84 24 d8 01 00 00  	(move)  	movsd	%xmm0,0x1d8(%rsp)
/home/jgarcia/TFG/source_code/SP/sp.f:199
  40192c:	48 c7 84 24 88 20 00 00 f0 e1 40 00	(move)  	movq	$0x40e1f0,0x2088(%rsp)
  401938:	c7 84 24 90 20 00 00 c7 00 00 00	(move)  	movl	$0xc7,0x2090(%rsp)
  401943:	48 c7 84 24 c8 20 00 00 18 e4 40 00	(move)  	movq	$0x40e418,0x20c8(%rsp)
  40194f:	c7 84 24 d0 20 00 00 28 00 00 00	(move)  	movl	$0x28,0x20d0(%rsp)
  40195a:	c7 84 24 80 20 00 00 00 10 00 00	(move)  	movl	$0x1000,0x2080(%rsp)
  401965:	c7 84 24 84 20 00 00 06 00 00 00	(move)  	movl	$0x6,0x2084(%rsp)
  401970:	48 8d bc 24 80 20 00 00     	(arith) 	lea	0x2080(%rsp),%rdi
  401978:	e8 8b ef ff ff              	(control)	call	400908 <_gfortran_st_write@plt>	; ⇄ _gfortran_st_write
149:	
  40197d:	ba 08 00 00 00              	(move)  	mov	$0x8,%edx
  401982:	be 47 e4 40 00              	(move)  	mov	$0x40e447,%esi
  401987:	48 8d bc 24 80 20 00 00     	(arith) 	lea	0x2080(%rsp),%rdi
  40198f:	e8 54 ef ff ff              	(control)	call	4008e8 <_gfortran_transfer_character@plt>	; ⇄ _gfortran_transfer_character
150:	
  401994:	ba 08 00 00 00              	(move)  	mov	$0x8,%edx
  401999:	48 8d b4 24 d8 01 00 00     	(arith) 	lea	0x1d8(%rsp),%rsi
  4019a1:	48 8d bc 24 80 20 00 00     	(arith) 	lea	0x2080(%rsp),%rdi
  4019a9:	e8 7a ef ff ff              	(control)	call	400928 <_gfortran_transfer_real@plt>	; ⇄ _gfortran_transfer_real
151:	
  4019ae:	f2 0f 10 05 f2 ca 00 00     	(move)  	movsd	0xcaf2(%rip),%xmm0
  4019b6:	f2 0f 59 84 24 d8 01 00 00  	(arith) 	mulsd	0x1d8(%rsp),%xmm0
  4019bf:	f2 0f 5e 84 24 58 01 00 00  	(arith) 	divsd	0x158(%rsp),%xmm0
  4019c8:	f2 0f 11 84 24 68 22 00 00  	(move)  	movsd	%xmm0,0x2268(%rsp)
  4019d1:	48 8d b4 24 68 22 00 00     	(arith) 	lea	0x2268(%rsp),%rsi
  4019d9:	ba 08 00 00 00              	(move)  	mov	$0x8,%edx
  4019de:	48 8d bc 24 80 20 00 00     	(arith) 	lea	0x2080(%rsp),%rdi
  4019e6:	e8 3d ef ff ff              	(control)	call	400928 <_gfortran_transfer_real@plt>	; ⇄ _gfortran_transfer_real
152:	
  4019eb:	48 8d bc 24 80 20 00 00     	(arith) 	lea	0x2080(%rsp),%rdi
  4019f3:	e8 70 ee ff ff              	(control)	call	400868 <_gfortran_st_write_done@plt>	; ⇄ _gfortran_st_write_done
153:	
  4019f8:	e9 d5 01 00 00              	(control)	jmp	401bd2 <main__+0x1182>	; ↲ label 154
142:	
/home/jgarcia/TFG/source_code/SP/sp.f:195
  4019fd:	83 f8 08                    	(arith) 	cmp	$0x8,%eax
  401a00:	0f 85 dc 00 00 00           	(control)	jne	401ae2 <main__+0x1092>	; ↲ label 155
156:	
/home/jgarcia/TFG/source_code/SP/sp.f:201
  401a06:	f2 0f 10 84 24 18 01 00 00  	(move)  	movsd	0x118(%rsp),%xmm0
  401a0f:	f2 0f 5c 84 24 20 01 00 00  	(arith) 	subsd	0x120(%rsp),%xmm0
  401a18:	f2 0f 5c 84 24 28 01 00 00  	(arith) 	subsd	0x128(%rsp),%xmm0
  401a21:	f2 0f 11 84 24 d8 01 00 00  	(move)  	movsd	%xmm0,0x1d8(%rsp)
/home/jgarcia/TFG/source_code/SP/sp.f:202
  401a2a:	48 c7 84 24 78 22 00 00 f0 e1 40 00	(move)  	movq	$0x40e1f0,0x2278(%rsp)
  401a36:	c7 84 24 80 22 00 00 ca 00 00 00	(move)  	movl	$0xca,0x2280(%rsp)
  401a41:	48 c7 84 24 b8 22 00 00 18 e4 40 00	(move)  	movq	$0x40e418,0x22b8(%rsp)
  401a4d:	c7 84 24 c0 22 00 00 28 00 00 00	(move)  	movl	$0x28,0x22c0(%rsp)
  401a58:	c7 84 24 70 22 00 00 00 10 00 00	(move)  	movl	$0x1000,0x2270(%rsp)
  401a63:	c7 84 24 74 22 00 00 06 00 00 00	(move)  	movl	$0x6,0x2274(%rsp)
  401a6e:	4c 89 ff                    	(move)  	mov	%r15,%rdi
  401a71:	e8 92 ee ff ff              	(control)	call	400908 <_gfortran_st_write@plt>	; ⇄ _gfortran_st_write
157:	
  401a76:	ba 08 00 00 00              	(move)  	mov	$0x8,%edx
  401a7b:	be 4f e4 40 00              	(move)  	mov	$0x40e44f,%esi
  401a80:	4c 89 ff                    	(move)  	mov	%r15,%rdi
  401a83:	e8 60 ee ff ff              	(control)	call	4008e8 <_gfortran_transfer_character@plt>	; ⇄ _gfortran_transfer_character
158:	
  401a88:	ba 08 00 00 00              	(move)  	mov	$0x8,%edx
  401a8d:	48 8d b4 24 d8 01 00 00     	(arith) 	lea	0x1d8(%rsp),%rsi
  401a95:	4c 89 ff                    	(move)  	mov	%r15,%rdi
  401a98:	e8 8b ee ff ff              	(control)	call	400928 <_gfortran_transfer_real@plt>	; ⇄ _gfortran_transfer_real
159:	
  401a9d:	f2 0f 10 05 03 ca 00 00     	(move)  	movsd	0xca03(%rip),%xmm0
  401aa5:	f2 0f 59 84 24 d8 01 00 00  	(arith) 	mulsd	0x1d8(%rsp),%xmm0
  401aae:	f2 0f 5e 84 24 58 01 00 00  	(arith) 	divsd	0x158(%rsp),%xmm0
  401ab7:	f2 0f 11 84 24 58 24 00 00  	(move)  	movsd	%xmm0,0x2458(%rsp)
  401ac0:	ba 08 00 00 00              	(move)  	mov	$0x8,%edx
  401ac5:	48 8d b4 24 58 24 00 00     	(arith) 	lea	0x2458(%rsp),%rsi
  401acd:	4c 89 ff                    	(move)  	mov	%r15,%rdi
  401ad0:	e8 53 ee ff ff              	(control)	call	400928 <_gfortran_transfer_real@plt>	; ⇄ _gfortran_transfer_real
160:	
  401ad5:	4c 89 ff                    	(move)  	mov	%r15,%rdi
  401ad8:	e8 8b ed ff ff              	(control)	call	400868 <_gfortran_st_write_done@plt>	; ⇄ _gfortran_st_write_done
161:	
  401add:	e9 f0 00 00 00              	(control)	jmp	401bd2 <main__+0x1182>	; ↲ label 154
155:	
/home/jgarcia/TFG/source_code/SP/sp.f:195
  401ae2:	83 f8 0a                    	(arith) 	cmp	$0xa,%eax
  401ae5:	0f 85 e7 00 00 00           	(control)	jne	401bd2 <main__+0x1182>	; ↲ label 154
162:	
/home/jgarcia/TFG/source_code/SP/sp.f:204
  401aeb:	f2 0f 10 84 24 20 01 00 00  	(move)  	movsd	0x120(%rsp),%xmm0
  401af4:	f2 0f 58 84 24 28 01 00 00  	(arith) 	addsd	0x128(%rsp),%xmm0
  401afd:	f2 0f 11 84 24 d8 01 00 00  	(move)  	movsd	%xmm0,0x1d8(%rsp)
/home/jgarcia/TFG/source_code/SP/sp.f:205
  401b06:	48 c7 84 24 68 24 00 00 f0 e1 40 00	(move)  	movq	$0x40e1f0,0x2468(%rsp)
  401b12:	c7 84 24 70 24 00 00 cd 00 00 00	(move)  	movl	$0xcd,0x2470(%rsp)
  401b1d:	48 c7 84 24 a8 24 00 00 18 e4 40 00	(move)  	movq	$0x40e418,0x24a8(%rsp)
  401b29:	c7 84 24 b0 24 00 00 28 00 00 00	(move)  	movl	$0x28,0x24b0(%rsp)
  401b34:	c7 84 24 60 24 00 00 00 10 00 00	(move)  	movl	$0x1000,0x2460(%rsp)
  401b3f:	c7 84 24 64 24 00 00 06 00 00 00	(move)  	movl	$0x6,0x2464(%rsp)
  401b4a:	48 8d bc 24 60 24 00 00     	(arith) 	lea	0x2460(%rsp),%rdi
  401b52:	e8 b1 ed ff ff              	(control)	call	400908 <_gfortran_st_write@plt>	; ⇄ _gfortran_st_write
163:	
  401b57:	ba 06 00 00 00              	(move)  	mov	$0x6,%edx
  401b5c:	be 57 e4 40 00              	(move)  	mov	$0x40e457,%esi
  401b61:	48 8d bc 24 60 24 00 00     	(arith) 	lea	0x2460(%rsp),%rdi
  401b69:	e8 7a ed ff ff              	(control)	call	4008e8 <_gfortran_transfer_character@plt>	; ⇄ _gfortran_transfer_character
164:	
  401b6e:	ba 08 00 00 00              	(move)  	mov	$0x8,%edx
  401b73:	48 8d b4 24 d8 01 00 00     	(arith) 	lea	0x1d8(%rsp),%rsi
  401b7b:	48 8d bc 24 60 24 00 00     	(arith) 	lea	0x2460(%rsp),%rdi
  401b83:	e8 a0 ed ff ff              	(control)	call	400928 <_gfortran_transfer_real@plt>	; ⇄ _gfortran_transfer_real
165:	
  401b88:	f2 0f 10 05 18 c9 00 00     	(move)  	movsd	0xc918(%rip),%xmm0
  401b90:	f2 0f 59 84 24 d8 01 00 00  	(arith) 	mulsd	0x1d8(%rsp),%xmm0
  401b99:	f2 0f 5e 84 24 58 01 00 00  	(arith) 	divsd	0x158(%rsp),%xmm0
  401ba2:	f2 0f 11 84 24 48 26 00 00  	(move)  	movsd	%xmm0,0x2648(%rsp)
  401bab:	ba 08 00 00 00              	(move)  	mov	$0x8,%edx
  401bb0:	48 8d b4 24 48 26 00 00     	(arith) 	lea	0x2648(%rsp),%rsi
  401bb8:	48 8d bc 24 60 24 00 00     	(arith) 	lea	0x2460(%rsp),%rdi
  401bc0:	e8 63 ed ff ff              	(control)	call	400928 <_gfortran_transfer_real@plt>	; ⇄ _gfortran_transfer_real
166:	
  401bc5:	48 8d bc 24 60 24 00 00     	(arith) 	lea	0x2460(%rsp),%rdi
  401bcd:	e8 96 ec ff ff              	(control)	call	400868 <_gfortran_st_write_done@plt>	; ⇄ _gfortran_st_write_done
154:	
/home/jgarcia/TFG/source_code/SP/sp.f:193
  401bd2:	8b 84 24 f4 01 00 00        	(move)  	mov	0x1f4(%rsp),%eax
  401bd9:	8d 50 01                    	(arith) 	lea	0x1(%rax),%edx
  401bdc:	89 94 24 f4 01 00 00        	(move)  	mov	%edx,0x1f4(%rsp)
  401be3:	83 f8 0f                    	(arith) 	cmp	$0xf,%eax
  401be6:	0f 85 7b fb ff ff           	(control)	jne	401767 <main__+0xd17>	; ↰ label 136 (loop 5)
; ------- Loop 5 exit
87:	
/home/jgarcia/TFG/source_code/SP/sp.f:213
  401bec:	48 81 c4 58 26 00 00        	(arith) 	add	$0x2658,%rsp
  401bf3:	5b                          	(move)  	pop	%rbx
  401bf4:	5d                          	(move)  	pop	%rbp
  401bf5:	41 5c                       	(move)  	pop	%r12
  401bf7:	41 5d                       	(move)  	pop	%r13
  401bf9:	41 5e                       	(move)  	pop	%r14
  401bfb:	41 5f                       	(move)  	pop	%r15
  401bfd:	c3                          	(control)	ret
167:	
/home/jgarcia/TFG/source_code/SP/initialize.f:196
  401bfe:	90                          	(other) 	nop
  401bff:	90                          	(other) 	nop


0000000000401c00 <lhsinit>:
168 (function lhsinit_):	
/home/jgarcia/TFG/source_code/SP/initialize.f:196
  401c00:	41 54                       	(move)  	push	%r12
  401c02:	55                          	(move)  	push	%rbp
  401c03:	53                          	(move)  	push	%rbx
/home/jgarcia/TFG/source_code/SP/initialize.f:208
  401c04:	8b 1e                       	(move)  	mov	(%rsi),%ebx
  401c06:	85 db                       	(arith) 	test	%ebx,%ebx
  401c08:	0f 8e bf 00 00 00           	(control)	jle	401ccd <lhsinit_+0xcd>	; ↲ label 169
170:	
/home/jgarcia/TFG/source_code/SP/initialize.f:213
  401c0e:	48 63 07                    	(move)  	movsxd	(%rdi),%rax
  401c11:	4c 8d 24 80                 	(arith) 	lea	(%rax,%rax,4),%r12
  401c15:	41 bb 01 00 00 00           	(move)  	mov	$0x1,%r11d
  401c1b:	48 be 20 cb 61 00 00 00 00 00	(move)  	mov	$0x61cb20,%rsi
/home/jgarcia/TFG/source_code/SP/initialize.f:196
  401c25:	48 bd 48 cb 61 00 00 00 00 00	(move)  	mov	$0x61cb48,%rbp
/home/jgarcia/TFG/source_code/SP/initialize.f:210
  401c2f:	ba 00 00 00 00              	(move)  	mov	$0,%edx
/home/jgarcia/TFG/source_code/SP/initialize.f:217
  401c34:	48 bf 00 00 00 00 00 00 f0 3f	(move)  	mov	$0x3ff0000000000000,%rdi
; ------- Loop 8 entry
171 (loop 8):	
/home/jgarcia/TFG/source_code/SP/initialize.f:210
  401c3e:	49 63 c3                    	(move)  	movsxd	%r11d,%rax
  401c41:	48 89 c1                    	(move)  	mov	%rax,%rcx
  401c44:	48 c1 e1 09                 	(logic) 	sal	$0x9,%rcx
  401c48:	48 29 c1                    	(arith) 	sub	%rax,%rcx
  401c4b:	4c 8d 04 88                 	(arith) 	lea	(%rax,%rcx,4),%r8
/home/jgarcia/TFG/source_code/SP/initialize.f:213
  401c4f:	4f 8d 14 20                 	(arith) 	lea	(%r8,%r12,1),%r10
  401c53:	4e 8d 0c c5 00 00 00 00     	(arith) 	lea	(,%r8,8),%r9
  401c5b:	49 8d 04 31                 	(arith) 	lea	(%r9,%rsi,1),%rax
  401c5f:	4a 8d 0c d6                 	(arith) 	lea	(%rsi,%r10,8),%rcx
/home/jgarcia/TFG/source_code/SP/initialize.f:196
  401c63:	49 01 e9                    	(arith) 	add	%rbp,%r9
; ------- Loop 7 entry
172 (loop 7):	
/home/jgarcia/TFG/source_code/SP/initialize.f:210
  401c66:	48 89 10                    	(move)  	mov	%rdx,(%rax)
/home/jgarcia/TFG/source_code/SP/initialize.f:211
  401c69:	48 89 90 a8 19 66 00        	(move)  	mov	%rdx,0x6619a8(%rax)
/home/jgarcia/TFG/source_code/SP/initialize.f:212
  401c70:	48 89 90 50 33 cc 00        	(move)  	mov	%rdx,0xcc3350(%rax)
/home/jgarcia/TFG/source_code/SP/initialize.f:213
  401c77:	48 89 11                    	(move)  	mov	%rdx,(%rcx)
/home/jgarcia/TFG/source_code/SP/initialize.f:214
  401c7a:	48 89 91 a8 19 66 00        	(move)  	mov	%rdx,0x6619a8(%rcx)
/home/jgarcia/TFG/source_code/SP/initialize.f:215
  401c81:	48 89 91 50 33 cc 00        	(move)  	mov	%rdx,0xcc3350(%rcx)
  401c88:	48 83 c0 08                 	(arith) 	add	$0x8,%rax
  401c8c:	48 83 c1 08                 	(arith) 	add	$0x8,%rcx
/home/jgarcia/TFG/source_code/SP/initialize.f:209
  401c90:	4c 39 c8                    	(arith) 	cmp	%r9,%rax
  401c93:	75 d1                       	(control)	jne	401c66 <lhsinit_+0x66>	; ↰ label 172 (loop 7)
; ------- Loop 7 exit
173:	
/home/jgarcia/TFG/source_code/SP/initialize.f:217
  401c95:	4a 89 7c c6 10              	(move)  	mov	%rdi,0x10(%rsi,%r8,8)
/home/jgarcia/TFG/source_code/SP/initialize.f:218
  401c9a:	4a 89 bc c6 b8 19 66 00     	(move)  	mov	%rdi,0x6619b8(%rsi,%r8,8)
/home/jgarcia/TFG/source_code/SP/initialize.f:219
  401ca2:	4a 89 bc c6 60 33 cc 00     	(move)  	mov	%rdi,0xcc3360(%rsi,%r8,8)
/home/jgarcia/TFG/source_code/SP/initialize.f:220
  401caa:	4a 89 7c d6 10              	(move)  	mov	%rdi,0x10(%rsi,%r10,8)
/home/jgarcia/TFG/source_code/SP/initialize.f:221
  401caf:	4a 89 bc d6 b8 19 66 00     	(move)  	mov	%rdi,0x6619b8(%rsi,%r10,8)
/home/jgarcia/TFG/source_code/SP/initialize.f:222
  401cb7:	4a 89 bc d6 60 33 cc 00     	(move)  	mov	%rdi,0xcc3360(%rsi,%r10,8)
/home/jgarcia/TFG/source_code/SP/initialize.f:208
  401cbf:	41 39 db                    	(arith) 	cmp	%ebx,%r11d
  401cc2:	74 09                       	(control)	je	401ccd <lhsinit_+0xcd>	; ↲ label 169
174:	
  401cc4:	41 83 c3 01                 	(arith) 	add	$0x1,%r11d
  401cc8:	e9 71 ff ff ff              	(control)	jmp	401c3e <lhsinit_+0x3e>	; ↰ label 171 (loop 8)
; ------- Loop 8 exit
169:	
/home/jgarcia/TFG/source_code/SP/initialize.f:226
  401ccd:	5b                          	(move)  	pop	%rbx
  401cce:	5d                          	(move)  	pop	%rbp
  401ccf:	41 5c                       	(move)  	pop	%r12
  401cd1:	c3                          	(control)	ret


0000000000401cd2 <lhsinitj>:
175 (function lhsinitj_):	
/home/jgarcia/TFG/source_code/SP/initialize.f:229
  401cd2:	41 54                       	(move)  	push	%r12
  401cd4:	55                          	(move)  	push	%rbp
  401cd5:	53                          	(move)  	push	%rbx
/home/jgarcia/TFG/source_code/SP/initialize.f:241
  401cd6:	8b 1e                       	(move)  	mov	(%rsi),%ebx
  401cd8:	85 db                       	(arith) 	test	%ebx,%ebx
  401cda:	0f 8e bf 00 00 00           	(control)	jle	401d9f <lhsinitj_+0xcd>	; ↲ label 176
177:	
/home/jgarcia/TFG/source_code/SP/initialize.f:246
  401ce0:	48 63 07                    	(move)  	movsxd	(%rdi),%rax
  401ce3:	48 89 c2                    	(move)  	mov	%rax,%rdx
  401ce6:	48 c1 e2 09                 	(logic) 	sal	$0x9,%rdx
  401cea:	48 29 c2                    	(arith) 	sub	%rax,%rdx
  401ced:	4c 8d 24 90                 	(arith) 	lea	(%rax,%rdx,4),%r12
  401cf1:	41 bb 01 00 00 00           	(move)  	mov	$0x1,%r11d
  401cf7:	48 be 20 cb 61 00 00 00 00 00	(move)  	mov	$0x61cb20,%rsi
/home/jgarcia/TFG/source_code/SP/initialize.f:229
  401d01:	48 bd 48 cb 61 00 00 00 00 00	(move)  	mov	$0x61cb48,%rbp
/home/jgarcia/TFG/source_code/SP/initialize.f:243
  401d0b:	ba 00 00 00 00              	(move)  	mov	$0,%edx
/home/jgarcia/TFG/source_code/SP/initialize.f:250
  401d10:	48 bf 00 00 00 00 00 00 f0 3f	(move)  	mov	$0x3ff0000000000000,%rdi
; ------- Loop 10 entry
178 (loop 10):	
/home/jgarcia/TFG/source_code/SP/initialize.f:243
  401d1a:	49 63 c3                    	(move)  	movsxd	%r11d,%rax
  401d1d:	4c 8d 04 80                 	(arith) 	lea	(%rax,%rax,4),%r8
/home/jgarcia/TFG/source_code/SP/initialize.f:246
  401d21:	4f 8d 14 20                 	(arith) 	lea	(%r8,%r12,1),%r10
  401d25:	4e 8d 0c c5 00 00 00 00     	(arith) 	lea	(,%r8,8),%r9
  401d2d:	49 8d 04 31                 	(arith) 	lea	(%r9,%rsi,1),%rax
  401d31:	4a 8d 0c d6                 	(arith) 	lea	(%rsi,%r10,8),%rcx
/home/jgarcia/TFG/source_code/SP/initialize.f:229
  401d35:	49 01 e9                    	(arith) 	add	%rbp,%r9
; ------- Loop 9 entry
179 (loop 9):	
/home/jgarcia/TFG/source_code/SP/initialize.f:243
  401d38:	48 89 10                    	(move)  	mov	%rdx,(%rax)
/home/jgarcia/TFG/source_code/SP/initialize.f:244
  401d3b:	48 89 90 a8 19 66 00        	(move)  	mov	%rdx,0x6619a8(%rax)
/home/jgarcia/TFG/source_code/SP/initialize.f:245
  401d42:	48 89 90 50 33 cc 00        	(move)  	mov	%rdx,0xcc3350(%rax)
/home/jgarcia/TFG/source_code/SP/initialize.f:246
  401d49:	48 89 11                    	(move)  	mov	%rdx,(%rcx)
/home/jgarcia/TFG/source_code/SP/initialize.f:247
  401d4c:	48 89 91 a8 19 66 00        	(move)  	mov	%rdx,0x6619a8(%rcx)
/home/jgarcia/TFG/source_code/SP/initialize.f:248
  401d53:	48 89 91 50 33 cc 00        	(move)  	mov	%rdx,0xcc3350(%rcx)
  401d5a:	48 83 c0 08                 	(arith) 	add	$0x8,%rax
  401d5e:	48 83 c1 08                 	(arith) 	add	$0x8,%rcx
/home/jgarcia/TFG/source_code/SP/initialize.f:242
  401d62:	4c 39 c8                    	(arith) 	cmp	%r9,%rax
  401d65:	75 d1                       	(control)	jne	401d38 <lhsinitj_+0x66>	; ↰ label 179 (loop 9)
; ------- Loop 9 exit
180:	
/home/jgarcia/TFG/source_code/SP/initialize.f:250
  401d67:	4a 89 7c c6 10              	(move)  	mov	%rdi,0x10(%rsi,%r8,8)
/home/jgarcia/TFG/source_code/SP/initialize.f:251
  401d6c:	4a 89 bc c6 b8 19 66 00     	(move)  	mov	%rdi,0x6619b8(%rsi,%r8,8)
/home/jgarcia/TFG/source_code/SP/initialize.f:252
  401d74:	4a 89 bc c6 60 33 cc 00     	(move)  	mov	%rdi,0xcc3360(%rsi,%r8,8)
/home/jgarcia/TFG/source_code/SP/initialize.f:253
  401d7c:	4a 89 7c d6 10              	(move)  	mov	%rdi,0x10(%rsi,%r10,8)
/home/jgarcia/TFG/source_code/SP/initialize.f:254
  401d81:	4a 89 bc d6 b8 19 66 00     	(move)  	mov	%rdi,0x6619b8(%rsi,%r10,8)
/home/jgarcia/TFG/source_code/SP/initialize.f:255
  401d89:	4a 89 bc d6 60 33 cc 00     	(move)  	mov	%rdi,0xcc3360(%rsi,%r10,8)
/home/jgarcia/TFG/source_code/SP/initialize.f:241
  401d91:	41 39 db                    	(arith) 	cmp	%ebx,%r11d
  401d94:	74 09                       	(control)	je	401d9f <lhsinitj_+0xcd>	; ↲ label 176
181:	
  401d96:	41 83 c3 01                 	(arith) 	add	$0x1,%r11d
  401d9a:	e9 7b ff ff ff              	(control)	jmp	401d1a <lhsinitj_+0x48>	; ↰ label 178 (loop 10)
; ------- Loop 10 exit
176:	
/home/jgarcia/TFG/source_code/SP/initialize.f:259
  401d9f:	5b                          	(move)  	pop	%rbx
  401da0:	5d                          	(move)  	pop	%rbp
  401da1:	41 5c                       	(move)  	pop	%r12
  401da3:	c3                          	(control)	ret


0000000000401da4 <initialize>:
96 (function initialize_):	
/home/jgarcia/TFG/source_code/SP/initialize.f:5
  401da4:	41 57                       	(move)  	push	%r15
  401da6:	41 56                       	(move)  	push	%r14
  401da8:	41 55                       	(move)  	push	%r13
  401daa:	41 54                       	(move)  	push	%r12
  401dac:	55                          	(move)  	push	%rbp
  401dad:	53                          	(move)  	push	%rbx
  401dae:	48 81 ec 98 01 00 00        	(arith) 	sub	$0x198,%rsp
/home/jgarcia/TFG/source_code/SP/initialize.f:27
  401db5:	8b 05 4d dd 20 00           	(move)  	mov	0x20dd4d(%rip),%eax
  401dbb:	83 e8 01                    	(arith) 	sub	$0x1,%eax
  401dbe:	89 44 24 18                 	(move)  	mov	%eax,0x18(%rsp)
  401dc2:	0f 88 37 04 00 00           	(control)	js	4021ff <initialize_+0x45b>	; ↲ label 182
183:	
/home/jgarcia/TFG/source_code/SP/initialize.f:28
  401dc8:	8b 05 36 dd 20 00           	(move)  	mov	0x20dd36(%rip),%eax
  401dce:	83 e8 01                    	(arith) 	sub	$0x1,%eax
  401dd1:	89 04 24                    	(move)  	mov	%eax,(%rsp)
/home/jgarcia/TFG/source_code/SP/initialize.f:29
  401dd4:	44 8b 0d 25 dd 20 00        	(move)  	mov	0x20dd25(%rip),%r9d
  401ddb:	41 83 e9 01                 	(arith) 	sub	$0x1,%r9d
  401ddf:	c7 44 24 14 00 00 00 00     	(move)  	movl	$0,0x14(%rsp)
/home/jgarcia/TFG/source_code/SP/initialize.f:30
  401de7:	48 b8 20 18 94 01 00 00 00 00	(move)  	mov	$0x1941820,%rax
  401df1:	48 bf 00 00 00 00 00 00 f0 3f	(move)  	mov	$0x3ff0000000000000,%rdi
/home/jgarcia/TFG/source_code/SP/initialize.f:31
  401dfb:	be 00 00 00 00              	(move)  	mov	$0,%esi
; ------- Loop 33 entry
184 (loop 33):	
/home/jgarcia/TFG/source_code/SP/initialize.f:28
  401e00:	83 3c 24 00                 	(arith) 	cmpl	$0,(%rsp)
  401e04:	0f 88 97 00 00 00           	(control)	js	401ea1 <initialize_+0xfd>	; ↲ label 185
186:	
/home/jgarcia/TFG/source_code/SP/initialize.f:30
  401e0a:	4c 63 5c 24 14              	(move)  	movsxd	0x14(%rsp),%r11
  401e0f:	4d 69 db 35 c3 0c 00        	(arith) 	imul	$0xcc335,%r11,%r11
/home/jgarcia/TFG/source_code/SP/initialize.f:31
  401e16:	4d 8d 73 01                 	(arith) 	lea	0x1(%r11),%r14
/home/jgarcia/TFG/source_code/SP/initialize.f:32
  401e1a:	4d 8d 6b 02                 	(arith) 	lea	0x2(%r11),%r13
/home/jgarcia/TFG/source_code/SP/initialize.f:33
  401e1e:	4d 8d 63 03                 	(arith) 	lea	0x3(%r11),%r12
/home/jgarcia/TFG/source_code/SP/initialize.f:34
  401e22:	49 8d 53 ff                 	(arith) 	lea	-0x1(%r11),%rdx
  401e26:	48 89 54 24 08              	(move)  	mov	%rdx,0x8(%rsp)
  401e2b:	41 bf 00 00 00 00           	(move)  	mov	$0,%r15d
; ------- Loop 34 entry
187 (loop 34):	
/home/jgarcia/TFG/source_code/SP/initialize.f:29
  401e31:	45 85 c9                    	(arith) 	test	%r9d,%r9d
  401e34:	78 5f                       	(control)	js	401e95 <initialize_+0xf1>	; ↲ label 188
189:	
/home/jgarcia/TFG/source_code/SP/initialize.f:30
  401e36:	49 63 d7                    	(move)  	movsxd	%r15d,%rdx
  401e39:	48 89 d1                    	(move)  	mov	%rdx,%rcx
  401e3c:	48 c1 e1 09                 	(logic) 	sal	$0x9,%rcx
  401e40:	48 29 d1                    	(arith) 	sub	%rdx,%rcx
  401e43:	4c 8d 04 8a                 	(arith) 	lea	(%rdx,%rcx,4),%r8
/home/jgarcia/TFG/source_code/SP/initialize.f:34
  401e47:	4c 8b 54 24 08              	(move)  	mov	0x8(%rsp),%r10
  401e4c:	4f 8d 14 10                 	(arith) 	lea	(%r8,%r10,1),%r10
  401e50:	bb 00 00 00 00              	(move)  	mov	$0,%ebx
; ------- Loop 35 entry
190 (loop 35):	
/home/jgarcia/TFG/source_code/SP/initialize.f:30
  401e55:	48 63 d3                    	(move)  	movsxd	%ebx,%rdx
  401e58:	48 8d 0c 92                 	(arith) 	lea	(%rdx,%rdx,4),%rcx
  401e5c:	4c 01 c1                    	(arith) 	add	%r8,%rcx
  401e5f:	4a 8d 2c 19                 	(arith) 	lea	(%rcx,%r11,1),%rbp
  401e63:	48 89 3c e8                 	(move)  	mov	%rdi,(%rax,%rbp,8)
/home/jgarcia/TFG/source_code/SP/initialize.f:31
  401e67:	4a 8d 2c 31                 	(arith) 	lea	(%rcx,%r14,1),%rbp
  401e6b:	48 89 34 e8                 	(move)  	mov	%rsi,(%rax,%rbp,8)
/home/jgarcia/TFG/source_code/SP/initialize.f:32
  401e6f:	4a 8d 2c 29                 	(arith) 	lea	(%rcx,%r13,1),%rbp
  401e73:	48 89 34 e8                 	(move)  	mov	%rsi,(%rax,%rbp,8)
/home/jgarcia/TFG/source_code/SP/initialize.f:33
  401e77:	4c 01 e1                    	(arith) 	add	%r12,%rcx
  401e7a:	48 89 34 c8                 	(move)  	mov	%rsi,(%rax,%rcx,8)
/home/jgarcia/TFG/source_code/SP/initialize.f:34
  401e7e:	48 8d 54 92 05              	(arith) 	lea	0x5(%rdx,%rdx,4),%rdx
  401e83:	4c 01 d2                    	(arith) 	add	%r10,%rdx
  401e86:	48 89 3c d0                 	(move)  	mov	%rdi,(%rax,%rdx,8)
/home/jgarcia/TFG/source_code/SP/initialize.f:29
  401e8a:	83 c3 01                    	(arith) 	add	$0x1,%ebx
/home/jgarcia/TFG/source_code/SP/initialize.f:5
  401e8d:	8d 53 ff                    	(arith) 	lea	-0x1(%rbx),%edx
/home/jgarcia/TFG/source_code/SP/initialize.f:29
  401e90:	44 39 ca                    	(arith) 	cmp	%r9d,%edx
  401e93:	75 c0                       	(control)	jne	401e55 <initialize_+0xb1>	; ↰ label 190 (loop 35)
; ------- Loop 35 exit
188:	
/home/jgarcia/TFG/source_code/SP/initialize.f:28
  401e95:	44 3b 3c 24                 	(arith) 	cmp	(%rsp),%r15d
  401e99:	74 06                       	(control)	je	401ea1 <initialize_+0xfd>	; ↲ label 185
191:	
  401e9b:	41 83 c7 01                 	(arith) 	add	$0x1,%r15d
  401e9f:	eb 90                       	(control)	jmp	401e31 <initialize_+0x8d>	; ↰ label 187 (loop 34)
; ------- Loop 34 exit
185:	
/home/jgarcia/TFG/source_code/SP/initialize.f:27
  401ea1:	8b 5c 24 18                 	(move)  	mov	0x18(%rsp),%ebx
  401ea5:	39 5c 24 14                 	(arith) 	cmp	%ebx,0x14(%rsp)
  401ea9:	74 0a                       	(control)	je	401eb5 <initialize_+0x111>	; ↲ label 192
193:	
  401eab:	83 44 24 14 01              	(arith) 	addl	$0x1,0x14(%rsp)
  401eb0:	e9 4b ff ff ff              	(control)	jmp	401e00 <initialize_+0x5c>	; ↰ label 184 (loop 33)
; ------- Loop 33 exit
192:	
/home/jgarcia/TFG/source_code/SP/initialize.f:42
  401eb5:	8b 05 4d dc 20 00           	(move)  	mov	0x20dc4d(%rip),%eax
  401ebb:	83 e8 01                    	(arith) 	sub	$0x1,%eax
  401ebe:	89 44 24 3c                 	(move)  	mov	%eax,0x3c(%rsp)
  401ec2:	0f 88 37 03 00 00           	(control)	js	4021ff <initialize_+0x45b>	; ↲ label 182
194:	
  401ec8:	c7 44 24 38 00 00 00 00     	(move)  	movl	$0,0x38(%rsp)
/home/jgarcia/TFG/source_code/SP/initialize.f:52
  401ed0:	4c 8d ac 24 90 00 00 00     	(arith) 	lea	0x90(%rsp),%r13
  401ed8:	4c 8d 74 24 40              	(arith) 	lea	0x40(%rsp),%r14
  401edd:	4c 8d bc 24 88 01 00 00     	(arith) 	lea	0x188(%rsp),%r15
  401ee5:	49 8d 45 78                 	(arith) 	lea	0x78(%r13),%rax
  401ee9:	48 89 44 24 08              	(move)  	mov	%rax,0x8(%rsp)
; ------- Loop 29 entry
195 (loop 29):	
/home/jgarcia/TFG/source_code/SP/initialize.f:43
  401eee:	f2 0f 2a 44 24 38           	(conv)  	cvtsi2sdl	0x38(%rsp),%xmm0
  401ef4:	f2 0f 59 05 f4 da 20 00     	(arith) 	mulsd	0x20daf4(%rip),%xmm0
  401efc:	f2 0f 11 44 24 40           	(move)  	movsd	%xmm0,0x40(%rsp)
/home/jgarcia/TFG/source_code/SP/initialize.f:44
  401f02:	8b 05 fc db 20 00           	(move)  	mov	0x20dbfc(%rip),%eax
  401f08:	83 e8 01                    	(arith) 	sub	$0x1,%eax
  401f0b:	89 44 24 2c                 	(move)  	mov	%eax,0x2c(%rsp)
  401f0f:	0f 88 d6 02 00 00           	(control)	js	4021eb <initialize_+0x447>	; ↲ label 196
197:	
/home/jgarcia/TFG/source_code/SP/initialize.f:77
  401f15:	48 63 44 24 38              	(move)  	movsxd	0x38(%rsp),%rax
  401f1a:	48 69 c0 35 c3 0c 00        	(arith) 	imul	$0xcc335,%rax,%rax
  401f21:	48 83 e8 01                 	(arith) 	sub	$0x1,%rax
  401f25:	48 89 44 24 30              	(move)  	mov	%rax,0x30(%rsp)
  401f2a:	c7 44 24 28 00 00 00 00     	(move)  	movl	$0,0x28(%rsp)
; ------- Loop 30 entry
198 (loop 30):	
/home/jgarcia/TFG/source_code/SP/initialize.f:45
  401f32:	f2 0f 2a 44 24 28           	(conv)  	cvtsi2sdl	0x28(%rsp),%xmm0
  401f38:	f2 0f 59 05 a8 da 20 00     	(arith) 	mulsd	0x20daa8(%rip),%xmm0
  401f40:	f2 0f 11 84 24 88 01 00 00  	(move)  	movsd	%xmm0,0x188(%rsp)
/home/jgarcia/TFG/source_code/SP/initialize.f:46
  401f49:	8b 05 b1 db 20 00           	(move)  	mov	0x20dbb1(%rip),%eax
  401f4f:	83 e8 01                    	(arith) 	sub	$0x1,%eax
  401f52:	89 44 24 14                 	(move)  	mov	%eax,0x14(%rsp)
  401f56:	0f 88 7b 02 00 00           	(control)	js	4021d7 <initialize_+0x433>	; ↲ label 199
200:	
/home/jgarcia/TFG/source_code/SP/initialize.f:77
  401f5c:	48 63 44 24 28              	(move)  	movsxd	0x28(%rsp),%rax
  401f61:	48 89 c2                    	(move)  	mov	%rax,%rdx
  401f64:	48 c1 e2 09                 	(logic) 	sal	$0x9,%rdx
  401f68:	48 29 c2                    	(arith) 	sub	%rax,%rdx
  401f6b:	48 8d 04 90                 	(arith) 	lea	(%rax,%rdx,4),%rax
  401f6f:	48 03 44 24 30              	(arith) 	add	0x30(%rsp),%rax
  401f74:	48 89 44 24 18              	(move)  	mov	%rax,0x18(%rsp)
  401f79:	bd 00 00 00 00              	(move)  	mov	$0,%ebp
/home/jgarcia/TFG/source_code/SP/initialize.f:58
  401f7e:	49 8d 55 28                 	(arith) 	lea	0x28(%r13),%rdx
  401f82:	48 89 54 24 20              	(move)  	mov	%rdx,0x20(%rsp)
  401f87:	4c 8d 64 24 48              	(arith) 	lea	0x48(%rsp),%r12
  401f8c:	49 8d 9d a0 00 00 00        	(arith) 	lea	0xa0(%r13),%rbx
  401f93:	48 89 1c 24                 	(move)  	mov	%rbx,(%rsp)
; ------- Loop 32 entry
201 (loop 32):	
/home/jgarcia/TFG/source_code/SP/initialize.f:47
  401f97:	f2 0f 2a c5                 	(conv)  	cvtsi2sd	%ebp,%xmm0
  401f9b:	f2 0f 59 05 3d da 20 00     	(arith) 	mulsd	0x20da3d(%rip),%xmm0
  401fa3:	f2 0f 11 44 24 48           	(move)  	movsd	%xmm0,0x48(%rsp)
/home/jgarcia/TFG/source_code/SP/initialize.f:50
  401fa9:	bb 00 00 00 00              	(move)  	mov	$0,%ebx
  401fae:	48 89 9c 24 88 00 00 00     	(move)  	mov	%rbx,0x88(%rsp)
/home/jgarcia/TFG/source_code/SP/initialize.f:52
  401fb6:	4c 89 e9                    	(move)  	mov	%r13,%rcx
  401fb9:	4c 89 f2                    	(move)  	mov	%r14,%rdx
  401fbc:	4c 89 fe                    	(move)  	mov	%r15,%rsi
  401fbf:	48 8d bc 24 88 00 00 00     	(arith) 	lea	0x88(%rsp),%rdi
  401fc7:	b8 00 00 00 00              	(move)  	mov	$0,%eax
  401fcc:	e8 77 08 00 00              	(control)	call	402848 <exact_solution_>	; ⇄ exact_solution
203:	
/home/jgarcia/TFG/source_code/SP/initialize.f:50
  401fd1:	c7 84 24 88 00 00 00 00 00 00 00	(move)  	movl	$0,0x88(%rsp)
  401fdc:	c7 84 24 8c 00 00 00 00 00 f0 3f	(move)  	movl	$0x3ff00000,0x8c(%rsp)
/home/jgarcia/TFG/source_code/SP/initialize.f:52
  401fe7:	48 8b 4c 24 08              	(move)  	mov	0x8(%rsp),%rcx
  401fec:	4c 89 f2                    	(move)  	mov	%r14,%rdx
  401fef:	4c 89 fe                    	(move)  	mov	%r15,%rsi
  401ff2:	48 8d bc 24 88 00 00 00     	(arith) 	lea	0x88(%rsp),%rdi
  401ffa:	b8 00 00 00 00              	(move)  	mov	$0,%eax
  401fff:	e8 44 08 00 00              	(control)	call	402848 <exact_solution_>	; ⇄ exact_solution
204:	
/home/jgarcia/TFG/source_code/SP/initialize.f:56
  402004:	48 89 9c 24 80 01 00 00     	(move)  	mov	%rbx,0x180(%rsp)
/home/jgarcia/TFG/source_code/SP/initialize.f:58
  40200c:	48 8b 4c 24 20              	(move)  	mov	0x20(%rsp),%rcx
  402011:	4c 89 f2                    	(move)  	mov	%r14,%rdx
  402014:	48 8d b4 24 80 01 00 00     	(arith) 	lea	0x180(%rsp),%rsi
  40201c:	4c 89 e7                    	(move)  	mov	%r12,%rdi
  40201f:	b8 00 00 00 00              	(move)  	mov	$0,%eax
  402024:	e8 1f 08 00 00              	(control)	call	402848 <exact_solution_>	; ⇄ exact_solution
205:	
/home/jgarcia/TFG/source_code/SP/initialize.f:56
  402029:	c7 84 24 80 01 00 00 00 00 00 00	(move)  	movl	$0,0x180(%rsp)
  402034:	c7 84 24 84 01 00 00 00 00 f0 3f	(move)  	movl	$0x3ff00000,0x184(%rsp)
/home/jgarcia/TFG/source_code/SP/initialize.f:58
  40203f:	48 8b 0c 24                 	(move)  	mov	(%rsp),%rcx
  402043:	4c 89 f2                    	(move)  	mov	%r14,%rdx
  402046:	48 8d b4 24 80 01 00 00     	(arith) 	lea	0x180(%rsp),%rsi
  40204e:	4c 89 e7                    	(move)  	mov	%r12,%rdi
  402051:	b8 00 00 00 00              	(move)  	mov	$0,%eax
  402056:	e8 ed 07 00 00              	(control)	call	402848 <exact_solution_>	; ⇄ exact_solution
206:	
/home/jgarcia/TFG/source_code/SP/initialize.f:62
  40205b:	48 89 9c 24 80 00 00 00     	(move)  	mov	%rbx,0x80(%rsp)
/home/jgarcia/TFG/source_code/SP/initialize.f:64
  402063:	49 8d 4d 50                 	(arith) 	lea	0x50(%r13),%rcx
  402067:	48 8d 94 24 80 00 00 00     	(arith) 	lea	0x80(%rsp),%rdx
  40206f:	4c 89 fe                    	(move)  	mov	%r15,%rsi
  402072:	4c 89 e7                    	(move)  	mov	%r12,%rdi
  402075:	b8 00 00 00 00              	(move)  	mov	$0,%eax
  40207a:	e8 c9 07 00 00              	(control)	call	402848 <exact_solution_>	; ⇄ exact_solution
207:	
/home/jgarcia/TFG/source_code/SP/initialize.f:62
  40207f:	c7 84 24 80 00 00 00 00 00 00 00	(move)  	movl	$0,0x80(%rsp)
  40208a:	c7 84 24 84 00 00 00 00 00 f0 3f	(move)  	movl	$0x3ff00000,0x84(%rsp)
/home/jgarcia/TFG/source_code/SP/initialize.f:64
  402095:	49 8d 8d c8 00 00 00        	(arith) 	lea	0xc8(%r13),%rcx
  40209c:	48 8d 94 24 80 00 00 00     	(arith) 	lea	0x80(%rsp),%rdx
  4020a4:	4c 89 fe                    	(move)  	mov	%r15,%rsi
  4020a7:	4c 89 e7                    	(move)  	mov	%r12,%rdi
  4020aa:	b8 00 00 00 00              	(move)  	mov	$0,%eax
  4020af:	e8 94 07 00 00              	(control)	call	402848 <exact_solution_>	; ⇄ exact_solution
208:	
/home/jgarcia/TFG/source_code/SP/initialize.f:69
  4020b4:	f2 44 0f 10 44 24 48        	(move)  	movsd	0x48(%rsp),%xmm8
  4020bb:	f2 44 0f 10 15 ec c3 00 00  	(move)  	movsd	0xc3ec(%rip),%xmm10
  4020c4:	f2 45 0f 5c d0              	(arith) 	subsd	%xmm8,%xmm10
/home/jgarcia/TFG/source_code/SP/initialize.f:71
  4020c9:	f2 0f 10 bc 24 88 01 00 00  	(move)  	movsd	0x188(%rsp),%xmm7
  4020d2:	f2 44 0f 10 0d d5 c3 00 00  	(move)  	movsd	0xc3d5(%rip),%xmm9
  4020db:	f2 44 0f 5c cf              	(arith) 	subsd	%xmm7,%xmm9
/home/jgarcia/TFG/source_code/SP/initialize.f:73
  4020e0:	f2 0f 10 74 24 40           	(move)  	movsd	0x40(%rsp),%xmm6
  4020e6:	f2 44 0f 10 1d c1 c3 00 00  	(move)  	movsd	0xc3c1(%rip),%xmm11
  4020ef:	f2 44 0f 5c de              	(arith) 	subsd	%xmm6,%xmm11
  4020f4:	48 8b 44 24 08              	(move)  	mov	0x8(%rsp),%rax
  4020f9:	48 63 d5                    	(move)  	movsxd	%ebp,%rdx
  4020fc:	48 8d 14 92                 	(arith) 	lea	(%rdx,%rdx,4),%rdx
  402100:	48 8b 5c 24 18              	(move)  	mov	0x18(%rsp),%rbx
  402105:	48 8d 4c 13 01              	(arith) 	lea	0x1(%rbx,%rdx,1),%rcx
  40210a:	48 ba 20 18 94 01 00 00 00 00	(move)  	mov	$0x1941820,%rdx
  402114:	48 8d 14 ca                 	(arith) 	lea	(%rdx,%rcx,8),%rdx
/home/jgarcia/TFG/source_code/SP/initialize.f:5
  402118:	48 8b 0c 24                 	(move)  	mov	(%rsp),%rcx
; ------- Loop 31 entry
209 (loop 31):	
/home/jgarcia/TFG/source_code/SP/initialize.f:69
  40211c:	66 41 0f 28 d0              	(move)  	movapd	%xmm8,%xmm2
  402121:	f2 0f 59 10                 	(arith) 	mulsd	(%rax),%xmm2
  402125:	66 41 0f 28 c2              	(move)  	movapd	%xmm10,%xmm0
  40212a:	f2 0f 59 40 88              	(arith) 	mulsd	-0x78(%rax),%xmm0
  40212f:	f2 0f 58 d0                 	(arith) 	addsd	%xmm0,%xmm2
/home/jgarcia/TFG/source_code/SP/initialize.f:71
  402133:	66 0f 28 cf                 	(move)  	movapd	%xmm7,%xmm1
  402137:	f2 0f 59 48 28              	(arith) 	mulsd	0x28(%rax),%xmm1
  40213c:	66 41 0f 28 c1              	(move)  	movapd	%xmm9,%xmm0
  402141:	f2 0f 59 40 b0              	(arith) 	mulsd	-0x50(%rax),%xmm0
  402146:	f2 0f 58 c8                 	(arith) 	addsd	%xmm0,%xmm1
/home/jgarcia/TFG/source_code/SP/initialize.f:73
  40214a:	66 0f 28 de                 	(move)  	movapd	%xmm6,%xmm3
  40214e:	f2 0f 59 58 50              	(arith) 	mulsd	0x50(%rax),%xmm3
  402153:	66 41 0f 28 c3              	(move)  	movapd	%xmm11,%xmm0
  402158:	f2 0f 59 40 d8              	(arith) 	mulsd	-0x28(%rax),%xmm0
  40215d:	f2 0f 58 c3                 	(arith) 	addsd	%xmm3,%xmm0
/home/jgarcia/TFG/source_code/SP/initialize.f:77
  402161:	66 0f 28 da                 	(move)  	movapd	%xmm2,%xmm3
  402165:	f2 0f 59 d9                 	(arith) 	mulsd	%xmm1,%xmm3
  402169:	66 0f 28 e2                 	(move)  	movapd	%xmm2,%xmm4
  40216d:	f2 0f 58 e1                 	(arith) 	addsd	%xmm1,%xmm4
  402171:	f2 0f 58 e0                 	(arith) 	addsd	%xmm0,%xmm4
  402175:	f2 0f 5c e3                 	(arith) 	subsd	%xmm3,%xmm4
  402179:	66 0f 28 ea                 	(move)  	movapd	%xmm2,%xmm5
  40217d:	f2 0f 59 e8                 	(arith) 	mulsd	%xmm0,%xmm5
  402181:	f2 0f 5c e5                 	(arith) 	subsd	%xmm5,%xmm4
  402185:	66 0f 28 e9                 	(move)  	movapd	%xmm1,%xmm5
  402189:	f2 0f 59 e8                 	(arith) 	mulsd	%xmm0,%xmm5
  40218d:	f2 0f 5c e5                 	(arith) 	subsd	%xmm5,%xmm4
  402191:	f2 0f 59 d8                 	(arith) 	mulsd	%xmm0,%xmm3
  402195:	f2 0f 58 dc                 	(arith) 	addsd	%xmm4,%xmm3
  402199:	f2 0f 11 1a                 	(move)  	movsd	%xmm3,(%rdx)
  40219d:	48 83 c0 08                 	(arith) 	add	$0x8,%rax
  4021a1:	48 83 c2 08                 	(arith) 	add	$0x8,%rdx
/home/jgarcia/TFG/source_code/SP/initialize.f:67
  4021a5:	48 39 c8                    	(arith) 	cmp	%rcx,%rax
  4021a8:	0f 85 6e ff ff ff           	(control)	jne	40211c <initialize_+0x378>	; ↰ label 209 (loop 31)
; ------- Loop 31 exit
210:	
  4021ae:	f2 0f 11 94 24 88 00 00 00  	(move)  	movsd	%xmm2,0x88(%rsp)
  4021b7:	f2 0f 11 8c 24 80 01 00 00  	(move)  	movsd	%xmm1,0x180(%rsp)
  4021c0:	f2 0f 11 84 24 80 00 00 00  	(move)  	movsd	%xmm0,0x80(%rsp)
/home/jgarcia/TFG/source_code/SP/initialize.f:46
  4021c9:	3b 6c 24 14                 	(arith) 	cmp	0x14(%rsp),%ebp
  4021cd:	74 08                       	(control)	je	4021d7 <initialize_+0x433>	; ↲ label 199
211:	
  4021cf:	83 c5 01                    	(arith) 	add	$0x1,%ebp
  4021d2:	e9 c0 fd ff ff              	(control)	jmp	401f97 <initialize_+0x1f3>	; ↰ label 201 (loop 32)
; ------- Loop 32 exit
199:	
/home/jgarcia/TFG/source_code/SP/initialize.f:44
  4021d7:	8b 44 24 2c                 	(move)  	mov	0x2c(%rsp),%eax
  4021db:	39 44 24 28                 	(arith) 	cmp	%eax,0x28(%rsp)
  4021df:	74 0a                       	(control)	je	4021eb <initialize_+0x447>	; ↲ label 196
212:	
  4021e1:	83 44 24 28 01              	(arith) 	addl	$0x1,0x28(%rsp)
  4021e6:	e9 47 fd ff ff              	(control)	jmp	401f32 <initialize_+0x18e>	; ↰ label 198 (loop 30)
; ------- Loop 30 exit
196:	
/home/jgarcia/TFG/source_code/SP/initialize.f:42
  4021eb:	8b 54 24 3c                 	(move)  	mov	0x3c(%rsp),%edx
  4021ef:	39 54 24 38                 	(arith) 	cmp	%edx,0x38(%rsp)
  4021f3:	74 0a                       	(control)	je	4021ff <initialize_+0x45b>	; ↲ label 182
213:	
  4021f5:	83 44 24 38 01              	(arith) 	addl	$0x1,0x38(%rsp)
  4021fa:	e9 ef fc ff ff              	(control)	jmp	401eee <initialize_+0x14a>	; ↰ label 195 (loop 29)
; ------- Loop 29 exit
182:	
/home/jgarcia/TFG/source_code/SP/initialize.f:93
  4021ff:	48 c7 44 24 48 00 00 00 00  	(move)  	movq	$0,0x48(%rsp)
/home/jgarcia/TFG/source_code/SP/initialize.f:95
  402208:	8b 05 fa d8 20 00           	(move)  	mov	0x20d8fa(%rip),%eax
  40220e:	83 e8 01                    	(arith) 	sub	$0x1,%eax
  402211:	89 44 24 14                 	(move)  	mov	%eax,0x14(%rsp)
  402215:	0f 88 db 00 00 00           	(control)	js	4022f6 <initialize_+0x552>	; ↲ label 214
215:	
  40221b:	c7 44 24 08 00 00 00 00     	(move)  	movl	$0,0x8(%rsp)
/home/jgarcia/TFG/source_code/SP/initialize.f:99
  402223:	4c 8d 64 24 50              	(arith) 	lea	0x50(%rsp),%r12
/home/jgarcia/TFG/source_code/SP/initialize.f:5
  402228:	49 8d 6c 24 28              	(arith) 	lea	0x28(%r12),%rbp
; ------- Loop 26 entry
216 (loop 26):	
/home/jgarcia/TFG/source_code/SP/initialize.f:96
  40222d:	f2 0f 2a 44 24 08           	(conv)  	cvtsi2sdl	0x8(%rsp),%xmm0
  402233:	f2 0f 59 05 b5 d7 20 00     	(arith) 	mulsd	0x20d7b5(%rip),%xmm0
  40223b:	f2 0f 11 44 24 40           	(move)  	movsd	%xmm0,0x40(%rsp)
/home/jgarcia/TFG/source_code/SP/initialize.f:97
  402241:	44 8b 3d bc d8 20 00        	(move)  	mov	0x20d8bc(%rip),%r15d
  402248:	41 83 ef 01                 	(arith) 	sub	$0x1,%r15d
  40224c:	0f 88 90 00 00 00           	(control)	js	4022e2 <initialize_+0x53e>	; ↲ label 217
218:	
/home/jgarcia/TFG/source_code/SP/initialize.f:101
  402252:	48 63 44 24 08              	(move)  	movsxd	0x8(%rsp),%rax
  402257:	bb 00 00 00 00              	(move)  	mov	$0,%ebx
/home/jgarcia/TFG/source_code/SP/initialize.f:98
  40225c:	41 bd e8 f9 60 00           	(move)  	mov	$0x60f9e8,%r13d
/home/jgarcia/TFG/source_code/SP/initialize.f:99
  402262:	48 69 c0 35 c3 0c 00        	(arith) 	imul	$0xcc335,%rax,%rax
  402269:	48 89 04 24                 	(move)  	mov	%rax,(%rsp)
  40226d:	49 be 20 18 94 01 00 00 00 00	(move)  	mov	$0x1941820,%r14
; ------- Loop 28 entry
219 (loop 28):	
/home/jgarcia/TFG/source_code/SP/initialize.f:98
  402277:	f2 0f 2a c3                 	(conv)  	cvtsi2sd	%ebx,%xmm0
  40227b:	f2 41 0f 59 45 00           	(arith) 	mulsd	(%r13),%xmm0
  402281:	f2 0f 11 84 24 88 01 00 00  	(move)  	movsd	%xmm0,0x188(%rsp)
/home/jgarcia/TFG/source_code/SP/initialize.f:99
  40228a:	4c 89 e1                    	(move)  	mov	%r12,%rcx
  40228d:	48 8d 54 24 40              	(arith) 	lea	0x40(%rsp),%rdx
  402292:	48 8d b4 24 88 01 00 00     	(arith) 	lea	0x188(%rsp),%rsi
  40229a:	48 8d 7c 24 48              	(arith) 	lea	0x48(%rsp),%rdi
  40229f:	b8 00 00 00 00              	(move)  	mov	$0,%eax
  4022a4:	e8 9f 05 00 00              	(control)	call	402848 <exact_solution_>	; ⇄ exact_solution
220:	
  4022a9:	4c 89 e0                    	(move)  	mov	%r12,%rax
  4022ac:	48 63 d3                    	(move)  	movsxd	%ebx,%rdx
  4022af:	48 89 d1                    	(move)  	mov	%rdx,%rcx
  4022b2:	48 c1 e1 09                 	(logic) 	sal	$0x9,%rcx
  4022b6:	48 29 d1                    	(arith) 	sub	%rdx,%rcx
  4022b9:	48 8d 14 8a                 	(arith) 	lea	(%rdx,%rcx,4),%rdx
  4022bd:	48 03 14 24                 	(arith) 	add	(%rsp),%rdx
  4022c1:	49 8d 14 d6                 	(arith) 	lea	(%r14,%rdx,8),%rdx
; ------- Loop 27 entry
221 (loop 27):	
/home/jgarcia/TFG/source_code/SP/initialize.f:101
  4022c5:	48 8b 08                    	(move)  	mov	(%rax),%rcx
  4022c8:	48 89 0a                    	(move)  	mov	%rcx,(%rdx)
  4022cb:	48 83 c0 08                 	(arith) 	add	$0x8,%rax
  4022cf:	48 83 c2 08                 	(arith) 	add	$0x8,%rdx
/home/jgarcia/TFG/source_code/SP/initialize.f:100
  4022d3:	48 39 e8                    	(arith) 	cmp	%rbp,%rax
  4022d6:	75 ed                       	(control)	jne	4022c5 <initialize_+0x521>	; ↰ label 221 (loop 27)
; ------- Loop 27 exit
222:	
/home/jgarcia/TFG/source_code/SP/initialize.f:97
  4022d8:	44 39 fb                    	(arith) 	cmp	%r15d,%ebx
  4022db:	74 05                       	(control)	je	4022e2 <initialize_+0x53e>	; ↲ label 217
223:	
  4022dd:	83 c3 01                    	(arith) 	add	$0x1,%ebx
  4022e0:	eb 95                       	(control)	jmp	402277 <initialize_+0x4d3>	; ↰ label 219 (loop 28)
; ------- Loop 28 exit
217:	
/home/jgarcia/TFG/source_code/SP/initialize.f:95
  4022e2:	8b 5c 24 14                 	(move)  	mov	0x14(%rsp),%ebx
  4022e6:	39 5c 24 08                 	(arith) 	cmp	%ebx,0x8(%rsp)
  4022ea:	74 0a                       	(control)	je	4022f6 <initialize_+0x552>	; ↲ label 214
224:	
  4022ec:	83 44 24 08 01              	(arith) 	addl	$0x1,0x8(%rsp)
  4022f1:	e9 37 ff ff ff              	(control)	jmp	40222d <initialize_+0x489>	; ↰ label 216 (loop 26)
; ------- Loop 26 exit
214:	
/home/jgarcia/TFG/source_code/SP/initialize.f:110
  4022f6:	c7 44 24 48 00 00 00 00     	(move)  	movl	$0,0x48(%rsp)
  4022fe:	c7 44 24 4c 00 00 f0 3f     	(move)  	movl	$0x3ff00000,0x4c(%rsp)
/home/jgarcia/TFG/source_code/SP/initialize.f:111
  402306:	8b 05 f4 d7 20 00           	(move)  	mov	0x20d7f4(%rip),%eax
  40230c:	83 e8 01                    	(arith) 	sub	$0x1,%eax
/home/jgarcia/TFG/source_code/SP/initialize.f:112
  40230f:	8b 15 f3 d7 20 00           	(move)  	mov	0x20d7f3(%rip),%edx
  402315:	83 ea 01                    	(arith) 	sub	$0x1,%edx
  402318:	89 54 24 14                 	(move)  	mov	%edx,0x14(%rsp)
  40231c:	0f 88 f1 00 00 00           	(control)	js	402413 <initialize_+0x66f>	; ↲ label 225
226:	
/home/jgarcia/TFG/source_code/SP/initialize.f:118
  402322:	48 98                       	(conv)  	cltq
  402324:	48 8d 44 80 ff              	(arith) 	lea	-0x1(%rax,%rax,4),%rax
  402329:	48 89 44 24 18              	(move)  	mov	%rax,0x18(%rsp)
  40232e:	c7 44 24 08 00 00 00 00     	(move)  	movl	$0,0x8(%rsp)
/home/jgarcia/TFG/source_code/SP/initialize.f:116
  402336:	4c 8d 64 24 50              	(arith) 	lea	0x50(%rsp),%r12
/home/jgarcia/TFG/source_code/SP/initialize.f:5
  40233b:	49 8d 6c 24 28              	(arith) 	lea	0x28(%r12),%rbp
; ------- Loop 23 entry
227 (loop 23):	
/home/jgarcia/TFG/source_code/SP/initialize.f:113
  402340:	f2 0f 2a 44 24 08           	(conv)  	cvtsi2sdl	0x8(%rsp),%xmm0
  402346:	f2 0f 59 05 a2 d6 20 00     	(arith) 	mulsd	0x20d6a2(%rip),%xmm0
  40234e:	f2 0f 11 44 24 40           	(move)  	movsd	%xmm0,0x40(%rsp)
/home/jgarcia/TFG/source_code/SP/initialize.f:114
  402354:	44 8b 3d a9 d7 20 00        	(move)  	mov	0x20d7a9(%rip),%r15d
  40235b:	41 83 ef 01                 	(arith) 	sub	$0x1,%r15d
  40235f:	0f 88 9a 00 00 00           	(control)	js	4023ff <initialize_+0x65b>	; ↲ label 228
229:	
/home/jgarcia/TFG/source_code/SP/initialize.f:118
  402365:	48 63 44 24 08              	(move)  	movsxd	0x8(%rsp),%rax
  40236a:	48 69 c0 35 c3 0c 00        	(arith) 	imul	$0xcc335,%rax,%rax
  402371:	bb 00 00 00 00              	(move)  	mov	$0,%ebx
/home/jgarcia/TFG/source_code/SP/initialize.f:115
  402376:	41 bd e8 f9 60 00           	(move)  	mov	$0x60f9e8,%r13d
/home/jgarcia/TFG/source_code/SP/initialize.f:116
  40237c:	48 8b 54 24 18              	(move)  	mov	0x18(%rsp),%rdx
  402381:	48 8d 44 02 01              	(arith) 	lea	0x1(%rdx,%rax,1),%rax
  402386:	48 89 04 24                 	(move)  	mov	%rax,(%rsp)
  40238a:	49 be 20 18 94 01 00 00 00 00	(move)  	mov	$0x1941820,%r14
; ------- Loop 25 entry
230 (loop 25):	
/home/jgarcia/TFG/source_code/SP/initialize.f:115
  402394:	f2 0f 2a c3                 	(conv)  	cvtsi2sd	%ebx,%xmm0
  402398:	f2 41 0f 59 45 00           	(arith) 	mulsd	(%r13),%xmm0
  40239e:	f2 0f 11 84 24 88 01 00 00  	(move)  	movsd	%xmm0,0x188(%rsp)
/home/jgarcia/TFG/source_code/SP/initialize.f:116
  4023a7:	4c 89 e1                    	(move)  	mov	%r12,%rcx
  4023aa:	48 8d 54 24 40              	(arith) 	lea	0x40(%rsp),%rdx
  4023af:	48 8d b4 24 88 01 00 00     	(arith) 	lea	0x188(%rsp),%rsi
  4023b7:	48 8d 7c 24 48              	(arith) 	lea	0x48(%rsp),%rdi
  4023bc:	b8 00 00 00 00              	(move)  	mov	$0,%eax
  4023c1:	e8 82 04 00 00              	(control)	call	402848 <exact_solution_>	; ⇄ exact_solution
231:	
  4023c6:	4c 89 e0                    	(move)  	mov	%r12,%rax
  4023c9:	48 63 d3                    	(move)  	movsxd	%ebx,%rdx
  4023cc:	48 89 d1                    	(move)  	mov	%rdx,%rcx
  4023cf:	48 c1 e1 09                 	(logic) 	sal	$0x9,%rcx
  4023d3:	48 29 d1                    	(arith) 	sub	%rdx,%rcx
  4023d6:	48 8d 14 8a                 	(arith) 	lea	(%rdx,%rcx,4),%rdx
  4023da:	48 03 14 24                 	(arith) 	add	(%rsp),%rdx
  4023de:	49 8d 14 d6                 	(arith) 	lea	(%r14,%rdx,8),%rdx
; ------- Loop 24 entry
232 (loop 24):	
/home/jgarcia/TFG/source_code/SP/initialize.f:118
  4023e2:	48 8b 08                    	(move)  	mov	(%rax),%rcx
  4023e5:	48 89 0a                    	(move)  	mov	%rcx,(%rdx)
  4023e8:	48 83 c0 08                 	(arith) 	add	$0x8,%rax
  4023ec:	48 83 c2 08                 	(arith) 	add	$0x8,%rdx
/home/jgarcia/TFG/source_code/SP/initialize.f:117
  4023f0:	48 39 e8                    	(arith) 	cmp	%rbp,%rax
  4023f3:	75 ed                       	(control)	jne	4023e2 <initialize_+0x63e>	; ↰ label 232 (loop 24)
; ------- Loop 24 exit
233:	
/home/jgarcia/TFG/source_code/SP/initialize.f:114
  4023f5:	44 39 fb                    	(arith) 	cmp	%r15d,%ebx
  4023f8:	74 05                       	(control)	je	4023ff <initialize_+0x65b>	; ↲ label 228
234:	
  4023fa:	83 c3 01                    	(arith) 	add	$0x1,%ebx
  4023fd:	eb 95                       	(control)	jmp	402394 <initialize_+0x5f0>	; ↰ label 230 (loop 25)
; ------- Loop 25 exit
228:	
/home/jgarcia/TFG/source_code/SP/initialize.f:112
  4023ff:	8b 5c 24 14                 	(move)  	mov	0x14(%rsp),%ebx
  402403:	39 5c 24 08                 	(arith) 	cmp	%ebx,0x8(%rsp)
  402407:	74 0a                       	(control)	je	402413 <initialize_+0x66f>	; ↲ label 225
235:	
  402409:	83 44 24 08 01              	(arith) 	addl	$0x1,0x8(%rsp)
  40240e:	e9 2d ff ff ff              	(control)	jmp	402340 <initialize_+0x59c>	; ↰ label 227 (loop 23)
; ------- Loop 23 exit
225:	
/home/jgarcia/TFG/source_code/SP/initialize.f:127
  402413:	48 c7 84 24 88 01 00 00 00 00 00 00	(move)  	movq	$0,0x188(%rsp)
/home/jgarcia/TFG/source_code/SP/initialize.f:129
  40241f:	8b 05 e3 d6 20 00           	(move)  	mov	0x20d6e3(%rip),%eax
  402425:	83 e8 01                    	(arith) 	sub	$0x1,%eax
  402428:	89 44 24 14                 	(move)  	mov	%eax,0x14(%rsp)
  40242c:	0f 88 ce 00 00 00           	(control)	js	402500 <initialize_+0x75c>	; ↲ label 236
237:	
  402432:	c7 44 24 08 00 00 00 00     	(move)  	movl	$0,0x8(%rsp)
/home/jgarcia/TFG/source_code/SP/initialize.f:133
  40243a:	4c 8d 64 24 50              	(arith) 	lea	0x50(%rsp),%r12
/home/jgarcia/TFG/source_code/SP/initialize.f:5
  40243f:	49 8d 6c 24 28              	(arith) 	lea	0x28(%r12),%rbp
; ------- Loop 20 entry
238 (loop 20):	
/home/jgarcia/TFG/source_code/SP/initialize.f:130
  402444:	f2 0f 2a 44 24 08           	(conv)  	cvtsi2sdl	0x8(%rsp),%xmm0
  40244a:	f2 0f 59 05 9e d5 20 00     	(arith) 	mulsd	0x20d59e(%rip),%xmm0
  402452:	f2 0f 11 44 24 40           	(move)  	movsd	%xmm0,0x40(%rsp)
/home/jgarcia/TFG/source_code/SP/initialize.f:131
  402458:	44 8b 3d a1 d6 20 00        	(move)  	mov	0x20d6a1(%rip),%r15d
  40245f:	41 83 ef 01                 	(arith) 	sub	$0x1,%r15d
  402463:	0f 88 83 00 00 00           	(control)	js	4024ec <initialize_+0x748>	; ↲ label 239
240:	
/home/jgarcia/TFG/source_code/SP/initialize.f:135
  402469:	48 63 44 24 08              	(move)  	movsxd	0x8(%rsp),%rax
  40246e:	bb 00 00 00 00              	(move)  	mov	$0,%ebx
/home/jgarcia/TFG/source_code/SP/initialize.f:132
  402473:	41 bd e0 f9 60 00           	(move)  	mov	$0x60f9e0,%r13d
/home/jgarcia/TFG/source_code/SP/initialize.f:133
  402479:	48 69 c0 35 c3 0c 00        	(arith) 	imul	$0xcc335,%rax,%rax
  402480:	48 89 04 24                 	(move)  	mov	%rax,(%rsp)
  402484:	49 be 20 18 94 01 00 00 00 00	(move)  	mov	$0x1941820,%r14
; ------- Loop 22 entry
241 (loop 22):	
/home/jgarcia/TFG/source_code/SP/initialize.f:132
  40248e:	f2 0f 2a c3                 	(conv)  	cvtsi2sd	%ebx,%xmm0
  402492:	f2 41 0f 59 45 00           	(arith) 	mulsd	(%r13),%xmm0
  402498:	f2 0f 11 44 24 48           	(move)  	movsd	%xmm0,0x48(%rsp)
/home/jgarcia/TFG/source_code/SP/initialize.f:133
  40249e:	4c 89 e1                    	(move)  	mov	%r12,%rcx
  4024a1:	48 8d 54 24 40              	(arith) 	lea	0x40(%rsp),%rdx
  4024a6:	48 8d b4 24 88 01 00 00     	(arith) 	lea	0x188(%rsp),%rsi
  4024ae:	48 8d 7c 24 48              	(arith) 	lea	0x48(%rsp),%rdi
  4024b3:	b8 00 00 00 00              	(move)  	mov	$0,%eax
  4024b8:	e8 8b 03 00 00              	(control)	call	402848 <exact_solution_>	; ⇄ exact_solution
242:	
  4024bd:	4c 89 e0                    	(move)  	mov	%r12,%rax
  4024c0:	48 63 d3                    	(move)  	movsxd	%ebx,%rdx
  4024c3:	48 8d 14 92                 	(arith) 	lea	(%rdx,%rdx,4),%rdx
  4024c7:	48 03 14 24                 	(arith) 	add	(%rsp),%rdx
  4024cb:	49 8d 14 d6                 	(arith) 	lea	(%r14,%rdx,8),%rdx
; ------- Loop 21 entry
243 (loop 21):	
/home/jgarcia/TFG/source_code/SP/initialize.f:135
  4024cf:	48 8b 08                    	(move)  	mov	(%rax),%rcx
  4024d2:	48 89 0a                    	(move)  	mov	%rcx,(%rdx)
  4024d5:	48 83 c0 08                 	(arith) 	add	$0x8,%rax
  4024d9:	48 83 c2 08                 	(arith) 	add	$0x8,%rdx
/home/jgarcia/TFG/source_code/SP/initialize.f:134
  4024dd:	48 39 e8                    	(arith) 	cmp	%rbp,%rax
  4024e0:	75 ed                       	(control)	jne	4024cf <initialize_+0x72b>	; ↰ label 243 (loop 21)
; ------- Loop 21 exit
244:	
/home/jgarcia/TFG/source_code/SP/initialize.f:131
  4024e2:	44 39 fb                    	(arith) 	cmp	%r15d,%ebx
  4024e5:	74 05                       	(control)	je	4024ec <initialize_+0x748>	; ↲ label 239
245:	
  4024e7:	83 c3 01                    	(arith) 	add	$0x1,%ebx
  4024ea:	eb a2                       	(control)	jmp	40248e <initialize_+0x6ea>	; ↰ label 241 (loop 22)
; ------- Loop 22 exit
239:	
/home/jgarcia/TFG/source_code/SP/initialize.f:129
  4024ec:	8b 44 24 14                 	(move)  	mov	0x14(%rsp),%eax
  4024f0:	39 44 24 08                 	(arith) 	cmp	%eax,0x8(%rsp)
  4024f4:	74 0a                       	(control)	je	402500 <initialize_+0x75c>	; ↲ label 236
246:	
  4024f6:	83 44 24 08 01              	(arith) 	addl	$0x1,0x8(%rsp)
  4024fb:	e9 44 ff ff ff              	(control)	jmp	402444 <initialize_+0x6a0>	; ↰ label 238 (loop 20)
; ------- Loop 20 exit
236:	
/home/jgarcia/TFG/source_code/SP/initialize.f:145
  402500:	c7 84 24 88 01 00 00 00 00 00 00	(move)  	movl	$0,0x188(%rsp)
  40250b:	c7 84 24 8c 01 00 00 00 00 f0 3f	(move)  	movl	$0x3ff00000,0x18c(%rsp)
/home/jgarcia/TFG/source_code/SP/initialize.f:146
  402516:	8b 05 e8 d5 20 00           	(move)  	mov	0x20d5e8(%rip),%eax
  40251c:	83 e8 01                    	(arith) 	sub	$0x1,%eax
/home/jgarcia/TFG/source_code/SP/initialize.f:147
  40251f:	8b 15 e3 d5 20 00           	(move)  	mov	0x20d5e3(%rip),%edx
  402525:	83 ea 01                    	(arith) 	sub	$0x1,%edx
  402528:	89 54 24 14                 	(move)  	mov	%edx,0x14(%rsp)
  40252c:	0f 88 ee 00 00 00           	(control)	js	402620 <initialize_+0x87c>	; ↲ label 247
248:	
/home/jgarcia/TFG/source_code/SP/initialize.f:153
  402532:	48 98                       	(conv)  	cltq
  402534:	48 89 c2                    	(move)  	mov	%rax,%rdx
  402537:	48 c1 e2 09                 	(logic) 	sal	$0x9,%rdx
  40253b:	48 29 c2                    	(arith) 	sub	%rax,%rdx
  40253e:	48 8d 54 90 ff              	(arith) 	lea	-0x1(%rax,%rdx,4),%rdx
  402543:	48 89 54 24 18              	(move)  	mov	%rdx,0x18(%rsp)
  402548:	c7 44 24 08 00 00 00 00     	(move)  	movl	$0,0x8(%rsp)
/home/jgarcia/TFG/source_code/SP/initialize.f:151
  402550:	4c 8d 64 24 50              	(arith) 	lea	0x50(%rsp),%r12
/home/jgarcia/TFG/source_code/SP/initialize.f:5
  402555:	49 8d 6c 24 28              	(arith) 	lea	0x28(%r12),%rbp
; ------- Loop 17 entry
249 (loop 17):	
/home/jgarcia/TFG/source_code/SP/initialize.f:148
  40255a:	f2 0f 2a 44 24 08           	(conv)  	cvtsi2sdl	0x8(%rsp),%xmm0
  402560:	f2 0f 59 05 88 d4 20 00     	(arith) 	mulsd	0x20d488(%rip),%xmm0
  402568:	f2 0f 11 44 24 40           	(move)  	movsd	%xmm0,0x40(%rsp)
/home/jgarcia/TFG/source_code/SP/initialize.f:149
  40256e:	44 8b 3d 8b d5 20 00        	(move)  	mov	0x20d58b(%rip),%r15d
  402575:	41 83 ef 01                 	(arith) 	sub	$0x1,%r15d
  402579:	0f 88 8d 00 00 00           	(control)	js	40260c <initialize_+0x868>	; ↲ label 250
251:	
/home/jgarcia/TFG/source_code/SP/initialize.f:153
  40257f:	48 63 44 24 08              	(move)  	movsxd	0x8(%rsp),%rax
  402584:	48 69 c0 35 c3 0c 00        	(arith) 	imul	$0xcc335,%rax,%rax
  40258b:	bb 00 00 00 00              	(move)  	mov	$0,%ebx
/home/jgarcia/TFG/source_code/SP/initialize.f:150
  402590:	41 bd e0 f9 60 00           	(move)  	mov	$0x60f9e0,%r13d
/home/jgarcia/TFG/source_code/SP/initialize.f:151
  402596:	48 8b 54 24 18              	(move)  	mov	0x18(%rsp),%rdx
  40259b:	48 8d 44 02 01              	(arith) 	lea	0x1(%rdx,%rax,1),%rax
  4025a0:	48 89 04 24                 	(move)  	mov	%rax,(%rsp)
  4025a4:	49 be 20 18 94 01 00 00 00 00	(move)  	mov	$0x1941820,%r14
; ------- Loop 19 entry
252 (loop 19):	
/home/jgarcia/TFG/source_code/SP/initialize.f:150
  4025ae:	f2 0f 2a c3                 	(conv)  	cvtsi2sd	%ebx,%xmm0
  4025b2:	f2 41 0f 59 45 00           	(arith) 	mulsd	(%r13),%xmm0
  4025b8:	f2 0f 11 44 24 48           	(move)  	movsd	%xmm0,0x48(%rsp)
/home/jgarcia/TFG/source_code/SP/initialize.f:151
  4025be:	4c 89 e1                    	(move)  	mov	%r12,%rcx
  4025c1:	48 8d 54 24 40              	(arith) 	lea	0x40(%rsp),%rdx
  4025c6:	48 8d b4 24 88 01 00 00     	(arith) 	lea	0x188(%rsp),%rsi
  4025ce:	48 8d 7c 24 48              	(arith) 	lea	0x48(%rsp),%rdi
  4025d3:	b8 00 00 00 00              	(move)  	mov	$0,%eax
  4025d8:	e8 6b 02 00 00              	(control)	call	402848 <exact_solution_>	; ⇄ exact_solution
253:	
  4025dd:	4c 89 e0                    	(move)  	mov	%r12,%rax
  4025e0:	48 63 d3                    	(move)  	movsxd	%ebx,%rdx
  4025e3:	48 8d 14 92                 	(arith) 	lea	(%rdx,%rdx,4),%rdx
  4025e7:	48 03 14 24                 	(arith) 	add	(%rsp),%rdx
  4025eb:	49 8d 14 d6                 	(arith) 	lea	(%r14,%rdx,8),%rdx
; ------- Loop 18 entry
254 (loop 18):	
/home/jgarcia/TFG/source_code/SP/initialize.f:153
  4025ef:	48 8b 08                    	(move)  	mov	(%rax),%rcx
  4025f2:	48 89 0a                    	(move)  	mov	%rcx,(%rdx)
  4025f5:	48 83 c0 08                 	(arith) 	add	$0x8,%rax
  4025f9:	48 83 c2 08                 	(arith) 	add	$0x8,%rdx
/home/jgarcia/TFG/source_code/SP/initialize.f:152
  4025fd:	48 39 e8                    	(arith) 	cmp	%rbp,%rax
  402600:	75 ed                       	(control)	jne	4025ef <initialize_+0x84b>	; ↰ label 254 (loop 18)
; ------- Loop 18 exit
255:	
/home/jgarcia/TFG/source_code/SP/initialize.f:149
  402602:	44 39 fb                    	(arith) 	cmp	%r15d,%ebx
  402605:	74 05                       	(control)	je	40260c <initialize_+0x868>	; ↲ label 250
256:	
  402607:	83 c3 01                    	(arith) 	add	$0x1,%ebx
  40260a:	eb a2                       	(control)	jmp	4025ae <initialize_+0x80a>	; ↰ label 252 (loop 19)
; ------- Loop 19 exit
250:	
/home/jgarcia/TFG/source_code/SP/initialize.f:147
  40260c:	8b 5c 24 14                 	(move)  	mov	0x14(%rsp),%ebx
  402610:	39 5c 24 08                 	(arith) 	cmp	%ebx,0x8(%rsp)
  402614:	74 0a                       	(control)	je	402620 <initialize_+0x87c>	; ↲ label 247
257:	
  402616:	83 44 24 08 01              	(arith) 	addl	$0x1,0x8(%rsp)
  40261b:	e9 3a ff ff ff              	(control)	jmp	40255a <initialize_+0x7b6>	; ↰ label 249 (loop 17)
; ------- Loop 17 exit
247:	
/home/jgarcia/TFG/source_code/SP/initialize.f:162
  402620:	48 c7 44 24 40 00 00 00 00  	(move)  	movq	$0,0x40(%rsp)
/home/jgarcia/TFG/source_code/SP/initialize.f:164
  402629:	8b 05 d5 d4 20 00           	(move)  	mov	0x20d4d5(%rip),%eax
  40262f:	83 e8 01                    	(arith) 	sub	$0x1,%eax
  402632:	89 44 24 14                 	(move)  	mov	%eax,0x14(%rsp)
  402636:	0f 88 d8 00 00 00           	(control)	js	402714 <initialize_+0x970>	; ↲ label 258
259:	
  40263c:	c7 44 24 08 00 00 00 00     	(move)  	movl	$0,0x8(%rsp)
/home/jgarcia/TFG/source_code/SP/initialize.f:168
  402644:	4c 8d 64 24 50              	(arith) 	lea	0x50(%rsp),%r12
/home/jgarcia/TFG/source_code/SP/initialize.f:5
  402649:	49 8d 6c 24 28              	(arith) 	lea	0x28(%r12),%rbp
; ------- Loop 14 entry
260 (loop 14):	
/home/jgarcia/TFG/source_code/SP/initialize.f:165
  40264e:	f2 0f 2a 44 24 08           	(conv)  	cvtsi2sdl	0x8(%rsp),%xmm0
  402654:	f2 0f 59 05 8c d3 20 00     	(arith) 	mulsd	0x20d38c(%rip),%xmm0
  40265c:	f2 0f 11 84 24 88 01 00 00  	(move)  	movsd	%xmm0,0x188(%rsp)
/home/jgarcia/TFG/source_code/SP/initialize.f:166
  402665:	44 8b 3d 94 d4 20 00        	(move)  	mov	0x20d494(%rip),%r15d
  40266c:	41 83 ef 01                 	(arith) 	sub	$0x1,%r15d
  402670:	0f 88 8a 00 00 00           	(control)	js	402700 <initialize_+0x95c>	; ↲ label 261
262:	
/home/jgarcia/TFG/source_code/SP/initialize.f:170
  402676:	48 63 44 24 08              	(move)  	movsxd	0x8(%rsp),%rax
  40267b:	48 89 c2                    	(move)  	mov	%rax,%rdx
  40267e:	48 c1 e2 09                 	(logic) 	sal	$0x9,%rdx
  402682:	48 29 c2                    	(arith) 	sub	%rax,%rdx
  402685:	bb 00 00 00 00              	(move)  	mov	$0,%ebx
/home/jgarcia/TFG/source_code/SP/initialize.f:167
  40268a:	41 bd e0 f9 60 00           	(move)  	mov	$0x60f9e0,%r13d
/home/jgarcia/TFG/source_code/SP/initialize.f:168
  402690:	48 8d 14 90                 	(arith) 	lea	(%rax,%rdx,4),%rdx
  402694:	48 89 14 24                 	(move)  	mov	%rdx,(%rsp)
  402698:	49 be 20 18 94 01 00 00 00 00	(move)  	mov	$0x1941820,%r14
; ------- Loop 16 entry
263 (loop 16):	
/home/jgarcia/TFG/source_code/SP/initialize.f:167
  4026a2:	f2 0f 2a c3                 	(conv)  	cvtsi2sd	%ebx,%xmm0
  4026a6:	f2 41 0f 59 45 00           	(arith) 	mulsd	(%r13),%xmm0
  4026ac:	f2 0f 11 44 24 48           	(move)  	movsd	%xmm0,0x48(%rsp)
/home/jgarcia/TFG/source_code/SP/initialize.f:168
  4026b2:	4c 89 e1                    	(move)  	mov	%r12,%rcx
  4026b5:	48 8d 54 24 40              	(arith) 	lea	0x40(%rsp),%rdx
  4026ba:	48 8d b4 24 88 01 00 00     	(arith) 	lea	0x188(%rsp),%rsi
  4026c2:	48 8d 7c 24 48              	(arith) 	lea	0x48(%rsp),%rdi
  4026c7:	b8 00 00 00 00              	(move)  	mov	$0,%eax
  4026cc:	e8 77 01 00 00              	(control)	call	402848 <exact_solution_>	; ⇄ exact_solution
264:	
  4026d1:	4c 89 e0                    	(move)  	mov	%r12,%rax
  4026d4:	48 63 d3                    	(move)  	movsxd	%ebx,%rdx
  4026d7:	48 8d 14 92                 	(arith) 	lea	(%rdx,%rdx,4),%rdx
  4026db:	48 03 14 24                 	(arith) 	add	(%rsp),%rdx
  4026df:	49 8d 14 d6                 	(arith) 	lea	(%r14,%rdx,8),%rdx
; ------- Loop 15 entry
265 (loop 15):	
/home/jgarcia/TFG/source_code/SP/initialize.f:170
  4026e3:	48 8b 08                    	(move)  	mov	(%rax),%rcx
  4026e6:	48 89 0a                    	(move)  	mov	%rcx,(%rdx)
  4026e9:	48 83 c0 08                 	(arith) 	add	$0x8,%rax
  4026ed:	48 83 c2 08                 	(arith) 	add	$0x8,%rdx
/home/jgarcia/TFG/source_code/SP/initialize.f:169
  4026f1:	48 39 e8                    	(arith) 	cmp	%rbp,%rax
  4026f4:	75 ed                       	(control)	jne	4026e3 <initialize_+0x93f>	; ↰ label 265 (loop 15)
; ------- Loop 15 exit
266:	
/home/jgarcia/TFG/source_code/SP/initialize.f:166
  4026f6:	44 39 fb                    	(arith) 	cmp	%r15d,%ebx
  4026f9:	74 05                       	(control)	je	402700 <initialize_+0x95c>	; ↲ label 261
267:	
  4026fb:	83 c3 01                    	(arith) 	add	$0x1,%ebx
  4026fe:	eb a2                       	(control)	jmp	4026a2 <initialize_+0x8fe>	; ↰ label 263 (loop 16)
; ------- Loop 16 exit
261:	
/home/jgarcia/TFG/source_code/SP/initialize.f:164
  402700:	8b 44 24 14                 	(move)  	mov	0x14(%rsp),%eax
  402704:	39 44 24 08                 	(arith) 	cmp	%eax,0x8(%rsp)
  402708:	74 0a                       	(control)	je	402714 <initialize_+0x970>	; ↲ label 258
268:	
  40270a:	83 44 24 08 01              	(arith) 	addl	$0x1,0x8(%rsp)
  40270f:	e9 3a ff ff ff              	(control)	jmp	40264e <initialize_+0x8aa>	; ↰ label 260 (loop 14)
; ------- Loop 14 exit
258:	
/home/jgarcia/TFG/source_code/SP/initialize.f:179
  402714:	c7 44 24 40 00 00 00 00     	(move)  	movl	$0,0x40(%rsp)
  40271c:	c7 44 24 44 00 00 f0 3f     	(move)  	movl	$0x3ff00000,0x44(%rsp)
/home/jgarcia/TFG/source_code/SP/initialize.f:180
  402724:	8b 15 de d3 20 00           	(move)  	mov	0x20d3de(%rip),%edx
  40272a:	83 ea 01                    	(arith) 	sub	$0x1,%edx
/home/jgarcia/TFG/source_code/SP/initialize.f:181
  40272d:	8b 05 d1 d3 20 00           	(move)  	mov	0x20d3d1(%rip),%eax
  402733:	83 e8 01                    	(arith) 	sub	$0x1,%eax
  402736:	89 44 24 14                 	(move)  	mov	%eax,0x14(%rsp)
  40273a:	0f 88 f5 00 00 00           	(control)	js	402835 <initialize_+0xa91>	; ↲ label 269
270:	
/home/jgarcia/TFG/source_code/SP/initialize.f:187
  402740:	48 63 c2                    	(move)  	movsxd	%edx,%rax
  402743:	48 69 c0 35 c3 0c 00        	(arith) 	imul	$0xcc335,%rax,%rax
  40274a:	48 83 e8 01                 	(arith) 	sub	$0x1,%rax
  40274e:	48 89 44 24 18              	(move)  	mov	%rax,0x18(%rsp)
  402753:	c7 44 24 08 00 00 00 00     	(move)  	movl	$0,0x8(%rsp)
/home/jgarcia/TFG/source_code/SP/initialize.f:185
  40275b:	4c 8d 64 24 50              	(arith) 	lea	0x50(%rsp),%r12
/home/jgarcia/TFG/source_code/SP/initialize.f:5
  402760:	49 8d 6c 24 28              	(arith) 	lea	0x28(%r12),%rbp
; ------- Loop 11 entry
271 (loop 11):	
/home/jgarcia/TFG/source_code/SP/initialize.f:182
  402765:	f2 0f 2a 44 24 08           	(conv)  	cvtsi2sdl	0x8(%rsp),%xmm0
  40276b:	f2 0f 59 05 75 d2 20 00     	(arith) 	mulsd	0x20d275(%rip),%xmm0
  402773:	f2 0f 11 84 24 88 01 00 00  	(move)  	movsd	%xmm0,0x188(%rsp)
/home/jgarcia/TFG/source_code/SP/initialize.f:183
  40277c:	44 8b 3d 7d d3 20 00        	(move)  	mov	0x20d37d(%rip),%r15d
  402783:	41 83 ef 01                 	(arith) 	sub	$0x1,%r15d
  402787:	0f 88 94 00 00 00           	(control)	js	402821 <initialize_+0xa7d>	; ↲ label 272
273:	
/home/jgarcia/TFG/source_code/SP/initialize.f:187
  40278d:	48 63 44 24 08              	(move)  	movsxd	0x8(%rsp),%rax
  402792:	48 89 c2                    	(move)  	mov	%rax,%rdx
  402795:	48 c1 e2 09                 	(logic) 	sal	$0x9,%rdx
  402799:	48 29 c2                    	(arith) 	sub	%rax,%rdx
  40279c:	48 8d 04 90                 	(arith) 	lea	(%rax,%rdx,4),%rax
  4027a0:	bb 00 00 00 00              	(move)  	mov	$0,%ebx
/home/jgarcia/TFG/source_code/SP/initialize.f:184
  4027a5:	41 bd e0 f9 60 00           	(move)  	mov	$0x60f9e0,%r13d
/home/jgarcia/TFG/source_code/SP/initialize.f:185
  4027ab:	48 8b 54 24 18              	(move)  	mov	0x18(%rsp),%rdx
  4027b0:	48 8d 44 02 01              	(arith) 	lea	0x1(%rdx,%rax,1),%rax
  4027b5:	48 89 04 24                 	(move)  	mov	%rax,(%rsp)
  4027b9:	49 be 20 18 94 01 00 00 00 00	(move)  	mov	$0x1941820,%r14
; ------- Loop 13 entry
274 (loop 13):	
/home/jgarcia/TFG/source_code/SP/initialize.f:184
  4027c3:	f2 0f 2a c3                 	(conv)  	cvtsi2sd	%ebx,%xmm0
  4027c7:	f2 41 0f 59 45 00           	(arith) 	mulsd	(%r13),%xmm0
  4027cd:	f2 0f 11 44 24 48           	(move)  	movsd	%xmm0,0x48(%rsp)
/home/jgarcia/TFG/source_code/SP/initialize.f:185
  4027d3:	4c 89 e1                    	(move)  	mov	%r12,%rcx
  4027d6:	48 8d 54 24 40              	(arith) 	lea	0x40(%rsp),%rdx
  4027db:	48 8d b4 24 88 01 00 00     	(arith) 	lea	0x188(%rsp),%rsi
  4027e3:	48 8d 7c 24 48              	(arith) 	lea	0x48(%rsp),%rdi
  4027e8:	b8 00 00 00 00              	(move)  	mov	$0,%eax
  4027ed:	e8 56 00 00 00              	(control)	call	402848 <exact_solution_>	; ⇄ exact_solution
275:	
  4027f2:	4c 89 e0                    	(move)  	mov	%r12,%rax
  4027f5:	48 63 d3                    	(move)  	movsxd	%ebx,%rdx
  4027f8:	48 8d 14 92                 	(arith) 	lea	(%rdx,%rdx,4),%rdx
  4027fc:	48 03 14 24                 	(arith) 	add	(%rsp),%rdx
  402800:	49 8d 14 d6                 	(arith) 	lea	(%r14,%rdx,8),%rdx
; ------- Loop 12 entry
276 (loop 12):	
/home/jgarcia/TFG/source_code/SP/initialize.f:187
  402804:	48 8b 08                    	(move)  	mov	(%rax),%rcx
  402807:	48 89 0a                    	(move)  	mov	%rcx,(%rdx)
  40280a:	48 83 c0 08                 	(arith) 	add	$0x8,%rax
  40280e:	48 83 c2 08                 	(arith) 	add	$0x8,%rdx
/home/jgarcia/TFG/source_code/SP/initialize.f:186
  402812:	48 39 e8                    	(arith) 	cmp	%rbp,%rax
  402815:	75 ed                       	(control)	jne	402804 <initialize_+0xa60>	; ↰ label 276 (loop 12)
; ------- Loop 12 exit
277:	
/home/jgarcia/TFG/source_code/SP/initialize.f:183
  402817:	44 39 fb                    	(arith) 	cmp	%r15d,%ebx
  40281a:	74 05                       	(control)	je	402821 <initialize_+0xa7d>	; ↲ label 272
278:	
  40281c:	83 c3 01                    	(arith) 	add	$0x1,%ebx
  40281f:	eb a2                       	(control)	jmp	4027c3 <initialize_+0xa1f>	; ↰ label 274 (loop 13)
; ------- Loop 13 exit
272:	
/home/jgarcia/TFG/source_code/SP/initialize.f:181
  402821:	8b 5c 24 14                 	(move)  	mov	0x14(%rsp),%ebx
  402825:	39 5c 24 08                 	(arith) 	cmp	%ebx,0x8(%rsp)
  402829:	74 0a                       	(control)	je	402835 <initialize_+0xa91>	; ↲ label 269
279:	
  40282b:	83 44 24 08 01              	(arith) 	addl	$0x1,0x8(%rsp)
  402830:	e9 30 ff ff ff              	(control)	jmp	402765 <initialize_+0x9c1>	; ↰ label 271 (loop 11)
; ------- Loop 11 exit
269:	
/home/jgarcia/TFG/source_code/SP/initialize.f:193
  402835:	48 81 c4 98 01 00 00        	(arith) 	add	$0x198,%rsp
  40283c:	5b                          	(move)  	pop	%rbx
  40283d:	5d                          	(move)  	pop	%rbp
  40283e:	41 5c                       	(move)  	pop	%r12
  402840:	41 5d                       	(move)  	pop	%r13
  402842:	41 5e                       	(move)  	pop	%r14
  402844:	41 5f                       	(move)  	pop	%r15
  402846:	c3                          	(control)	ret
280:	
/home/jgarcia/TFG/source_code/SP/exact_solution.f:5
  402847:	90                          	(other) 	nop


0000000000402848 <exact_solution>:
202 (function exact_solution_):	
/home/jgarcia/TFG/source_code/SP/exact_solution.f:5
  402848:	41 54                       	(move)  	push	%r12
  40284a:	55                          	(move)  	push	%rbp
  40284b:	53                          	(move)  	push	%rbx
/home/jgarcia/TFG/source_code/SP/exact_solution.f:24
  40284c:	f2 0f 10 17                 	(move)  	movsd	(%rdi),%xmm2
  402850:	f2 0f 10 0e                 	(move)  	movsd	(%rsi),%xmm1
  402854:	f2 0f 10 02                 	(move)  	movsd	(%rdx),%xmm0
  402858:	b8 00 00 00 00              	(move)  	mov	$0,%eax
  40285d:	41 bc d0 f6 60 00           	(move)  	mov	$0x60f6d0,%r12d
  402863:	bd f8 f6 60 00              	(move)  	mov	$0x60f6f8,%ebp
  402868:	bb 70 f7 60 00              	(move)  	mov	$0x60f770,%ebx
  40286d:	41 bb e8 f7 60 00           	(move)  	mov	$0x60f7e8,%r11d
  402873:	41 ba 60 f8 60 00           	(move)  	mov	$0x60f860,%r10d
  402879:	41 b9 20 f7 60 00           	(move)  	mov	$0x60f720,%r9d
  40287f:	41 b8 98 f7 60 00           	(move)  	mov	$0x60f798,%r8d
  402885:	bf 10 f8 60 00              	(move)  	mov	$0x60f810,%edi
  40288a:	be 88 f8 60 00              	(move)  	mov	$0x60f888,%esi
  40288f:	ba 48 f7 60 00              	(move)  	mov	$0x60f748,%edx
; ------- Loop 36 entry
281 (loop 36):	
  402894:	66 0f 28 e2                 	(move)  	movapd	%xmm2,%xmm4
  402898:	f2 41 0f 59 24 02           	(arith) 	mulsd	(%r10,%rax,1),%xmm4
  40289e:	f2 41 0f 58 24 03           	(arith) 	addsd	(%r11,%rax,1),%xmm4
  4028a4:	f2 0f 59 e2                 	(arith) 	mulsd	%xmm2,%xmm4
  4028a8:	f2 0f 58 24 03              	(arith) 	addsd	(%rbx,%rax,1),%xmm4
  4028ad:	f2 0f 59 e2                 	(arith) 	mulsd	%xmm2,%xmm4
  4028b1:	f2 0f 58 64 05 00           	(arith) 	addsd	(%rbp,%rax,1),%xmm4
  4028b7:	f2 0f 59 e2                 	(arith) 	mulsd	%xmm2,%xmm4
  4028bb:	f2 41 0f 58 24 04           	(arith) 	addsd	(%r12,%rax,1),%xmm4
  4028c1:	66 0f 28 d9                 	(move)  	movapd	%xmm1,%xmm3
  4028c5:	f2 0f 59 1c 06              	(arith) 	mulsd	(%rsi,%rax,1),%xmm3
  4028ca:	f2 0f 58 1c 07              	(arith) 	addsd	(%rdi,%rax,1),%xmm3
  4028cf:	f2 0f 59 d9                 	(arith) 	mulsd	%xmm1,%xmm3
  4028d3:	f2 41 0f 58 1c 00           	(arith) 	addsd	(%r8,%rax,1),%xmm3
  4028d9:	f2 0f 59 d9                 	(arith) 	mulsd	%xmm1,%xmm3
  4028dd:	f2 41 0f 58 1c 01           	(arith) 	addsd	(%r9,%rax,1),%xmm3
  4028e3:	f2 0f 59 d9                 	(arith) 	mulsd	%xmm1,%xmm3
  4028e7:	f2 0f 58 dc                 	(arith) 	addsd	%xmm4,%xmm3
  4028eb:	66 0f 28 e0                 	(move)  	movapd	%xmm0,%xmm4
  4028ef:	f2 0f 59 a0 b0 f8 60 00     	(arith) 	mulsd	0x60f8b0(%rax),%xmm4
  4028f7:	f2 0f 58 a0 38 f8 60 00     	(arith) 	addsd	0x60f838(%rax),%xmm4
  4028ff:	f2 0f 59 e0                 	(arith) 	mulsd	%xmm0,%xmm4
  402903:	f2 0f 58 a0 c0 f7 60 00     	(arith) 	addsd	0x60f7c0(%rax),%xmm4
  40290b:	f2 0f 59 e0                 	(arith) 	mulsd	%xmm0,%xmm4
  40290f:	f2 0f 58 24 02              	(arith) 	addsd	(%rdx,%rax,1),%xmm4
  402914:	f2 0f 59 e0                 	(arith) 	mulsd	%xmm0,%xmm4
  402918:	f2 0f 58 dc                 	(arith) 	addsd	%xmm4,%xmm3
  40291c:	f2 0f 11 1c 01              	(move)  	movsd	%xmm3,(%rcx,%rax,1)
  402921:	48 83 c0 08                 	(arith) 	add	$0x8,%rax
/home/jgarcia/TFG/source_code/SP/exact_solution.f:19
  402925:	48 83 f8 28                 	(arith) 	cmp	$0x28,%rax
  402929:	0f 85 65 ff ff ff           	(control)	jne	402894 <exact_solution_+0x4c>	; ↰ label 281 (loop 36)
; ------- Loop 36 exit
282:	
/home/jgarcia/TFG/source_code/SP/exact_solution.f:28
  40292f:	5b                          	(move)  	pop	%rbx
  402930:	5d                          	(move)  	pop	%rbp
  402931:	41 5c                       	(move)  	pop	%r12
  402933:	c3                          	(control)	ret
283:	
/home/jgarcia/TFG/source_code/SP/exact_rhs.f:5
  402934:	90                          	(other) 	nop
  402935:	90                          	(other) 	nop
  402936:	90                          	(other) 	nop
  402937:	90                          	(other) 	nop
  402938:	90                          	(other) 	nop
  402939:	90                          	(other) 	nop
  40293a:	90                          	(other) 	nop
  40293b:	90                          	(other) 	nop
  40293c:	90                          	(other) 	nop
  40293d:	90                          	(other) 	nop
  40293e:	90                          	(other) 	nop
  40293f:	90                          	(other) 	nop


0000000000402940 <exact_rhs>:
94 (function exact_rhs_):	
/home/jgarcia/TFG/source_code/SP/exact_rhs.f:5
  402940:	41 57                       	(move)  	push	%r15
  402942:	41 56                       	(move)  	push	%r14
  402944:	41 55                       	(move)  	push	%r13
  402946:	41 54                       	(move)  	push	%r12
  402948:	55                          	(move)  	push	%rbp
  402949:	53                          	(move)  	push	%rbx
  40294a:	48 81 ec 18 01 00 00        	(arith) 	sub	$0x118,%rsp
/home/jgarcia/TFG/source_code/SP/exact_rhs.f:23
  402951:	44 8b 35 b0 d1 20 00        	(move)  	mov	0x20d1b0(%rip),%r14d
  402958:	41 83 ee 01                 	(arith) 	sub	$0x1,%r14d
  40295c:	0f 88 ad 00 00 00           	(control)	js	402a0f <exact_rhs_+0xcf>	; ↲ label 284
285:	
/home/jgarcia/TFG/source_code/SP/exact_rhs.f:24
  402962:	44 8b 15 9b d1 20 00        	(move)  	mov	0x20d19b(%rip),%r10d
  402969:	41 83 ea 01                 	(arith) 	sub	$0x1,%r10d
/home/jgarcia/TFG/source_code/SP/exact_rhs.f:25
  40296d:	8b 35 8d d1 20 00           	(move)  	mov	0x20d18d(%rip),%esi
  402973:	83 ee 01                    	(arith) 	sub	$0x1,%esi
  402976:	41 bd 00 00 00 00           	(move)  	mov	$0,%r13d
/home/jgarcia/TFG/source_code/SP/exact_rhs.f:27
  40297c:	49 b8 20 18 94 01 00 00 00 00	(move)  	mov	$0x1941820,%r8
  402986:	b9 00 00 00 00              	(move)  	mov	$0,%ecx
  40298b:	bd 01 00 00 00              	(move)  	mov	$0x1,%ebp
; ------- Loop 71 entry
286 (loop 71):	
/home/jgarcia/TFG/source_code/SP/exact_rhs.f:24
  402990:	45 85 d2                    	(arith) 	test	%r10d,%r10d
  402993:	78 6f                       	(control)	js	402a04 <exact_rhs_+0xc4>	; ↲ label 287
288:	
/home/jgarcia/TFG/source_code/SP/exact_rhs.f:27
  402995:	4d 63 e5                    	(move)  	movsxd	%r13d,%r12
  402998:	4d 69 e4 35 c3 0c 00        	(arith) 	imul	$0xcc335,%r12,%r12
  40299f:	49 83 ec 01                 	(arith) 	sub	$0x1,%r12
  4029a3:	41 b9 00 00 00 00           	(move)  	mov	$0,%r9d
  4029a9:	41 bb 00 00 00 00           	(move)  	mov	$0,%r11d
; ------- Loop 72 entry
289 (loop 72):	
/home/jgarcia/TFG/source_code/SP/exact_rhs.f:25
  4029af:	85 f6                       	(arith) 	test	%esi,%esi
  4029b1:	78 46                       	(control)	js	4029f9 <exact_rhs_+0xb9>	; ↲ label 290
291:	
/home/jgarcia/TFG/source_code/SP/exact_rhs.f:27
  4029b3:	49 63 c1                    	(move)  	movsxd	%r9d,%rax
  4029b6:	48 89 c2                    	(move)  	mov	%rax,%rdx
  4029b9:	48 c1 e2 09                 	(logic) 	sal	$0x9,%rdx
  4029bd:	48 29 c2                    	(arith) 	sub	%rax,%rdx
  4029c0:	48 8d 04 90                 	(arith) 	lea	(%rax,%rdx,4),%rax
  4029c4:	44 89 db                    	(move)  	mov	%r11d,%ebx
  4029c7:	49 8d 7c 04 01              	(arith) 	lea	0x1(%r12,%rax,1),%rdi
; ------- Loop 74 entry
292 (loop 74):	
  4029cc:	48 63 c3                    	(move)  	movsxd	%ebx,%rax
  4029cf:	48 8d 04 80                 	(arith) 	lea	(%rax,%rax,4),%rax
  4029d3:	48 8d 84 38 98 2d 28 45     	(arith) 	lea	0x45282d98(%rax,%rdi,1),%rax
  4029db:	49 8d 14 c0                 	(arith) 	lea	(%r8,%rax,8),%rdx
  4029df:	89 e8                       	(move)  	mov	%ebp,%eax
; ------- Loop 73 entry
293 (loop 73):	
  4029e1:	48 89 0a                    	(move)  	mov	%rcx,(%rdx)
/home/jgarcia/TFG/source_code/SP/exact_rhs.f:26
  4029e4:	83 c0 01                    	(arith) 	add	$0x1,%eax
  4029e7:	48 83 c2 08                 	(arith) 	add	$0x8,%rdx
  4029eb:	83 f8 06                    	(arith) 	cmp	$0x6,%eax
  4029ee:	75 f1                       	(control)	jne	4029e1 <exact_rhs_+0xa1>	; ↰ label 293 (loop 73)
; ------- Loop 73 exit
294:	
/home/jgarcia/TFG/source_code/SP/exact_rhs.f:25
  4029f0:	39 f3                       	(arith) 	cmp	%esi,%ebx
  4029f2:	74 05                       	(control)	je	4029f9 <exact_rhs_+0xb9>	; ↲ label 290
295:	
  4029f4:	83 c3 01                    	(arith) 	add	$0x1,%ebx
  4029f7:	eb d3                       	(control)	jmp	4029cc <exact_rhs_+0x8c>	; ↰ label 292 (loop 74)
; ------- Loop 74 exit
290:	
/home/jgarcia/TFG/source_code/SP/exact_rhs.f:24
  4029f9:	45 39 d1                    	(arith) 	cmp	%r10d,%r9d
  4029fc:	74 06                       	(control)	je	402a04 <exact_rhs_+0xc4>	; ↲ label 287
296:	
  4029fe:	41 83 c1 01                 	(arith) 	add	$0x1,%r9d
  402a02:	eb ab                       	(control)	jmp	4029af <exact_rhs_+0x6f>	; ↰ label 289 (loop 72)
; ------- Loop 72 exit
287:	
/home/jgarcia/TFG/source_code/SP/exact_rhs.f:23
  402a04:	45 39 f5                    	(arith) 	cmp	%r14d,%r13d
  402a07:	74 06                       	(control)	je	402a0f <exact_rhs_+0xcf>	; ↲ label 284
297:	
  402a09:	41 83 c5 01                 	(arith) 	add	$0x1,%r13d
  402a0d:	eb 81                       	(control)	jmp	402990 <exact_rhs_+0x50>	; ↰ label 286 (loop 71)
; ------- Loop 71 exit
284:	
/home/jgarcia/TFG/source_code/SP/exact_rhs.f:36
  402a0f:	8b 05 f3 d0 20 00           	(move)  	mov	0x20d0f3(%rip),%eax
  402a15:	83 e8 02                    	(arith) 	sub	$0x2,%eax
  402a18:	89 84 24 b8 00 00 00        	(move)  	mov	%eax,0xb8(%rsp)
  402a1f:	85 c0                       	(arith) 	test	%eax,%eax
  402a21:	0f 8e ca 14 00 00           	(control)	jle	403ef1 <exact_rhs_+0x15b1>	; ↲ label 298
299:	
  402a27:	c7 84 24 b0 00 00 00 01 00 00 00	(move)  	movl	$0x1,0xb0(%rsp)
/home/jgarcia/TFG/source_code/SP/exact_rhs.f:44
  402a32:	48 8d 84 24 e0 00 00 00     	(arith) 	lea	0xe0(%rsp),%rax
  402a3a:	48 89 44 24 28              	(move)  	mov	%rax,0x28(%rsp)
/home/jgarcia/TFG/source_code/SP/exact_rhs.f:5
  402a3f:	48 89 c5                    	(move)  	mov	%rax,%rbp
  402a42:	48 83 c5 28                 	(arith) 	add	$0x28,%rbp
; ------- Loop 61 entry
300 (loop 61):	
/home/jgarcia/TFG/source_code/SP/exact_rhs.f:37
  402a46:	f2 0f 2a 84 24 b0 00 00 00  	(conv)  	cvtsi2sdl	0xb0(%rsp),%xmm0
  402a4f:	f2 0f 59 05 99 cf 20 00     	(arith) 	mulsd	0x20cf99(%rip),%xmm0
  402a57:	f2 0f 11 84 24 c8 00 00 00  	(move)  	movsd	%xmm0,0xc8(%rsp)
/home/jgarcia/TFG/source_code/SP/exact_rhs.f:38
  402a60:	8b 05 9e d0 20 00           	(move)  	mov	0x20d09e(%rip),%eax
  402a66:	83 e8 02                    	(arith) 	sub	$0x2,%eax
  402a69:	89 84 24 90 00 00 00        	(move)  	mov	%eax,0x90(%rsp)
  402a70:	85 c0                       	(arith) 	test	%eax,%eax
  402a72:	0f 8e df 09 00 00           	(control)	jle	403457 <exact_rhs_+0xb17>	; ↲ label 301
302:	
/home/jgarcia/TFG/source_code/SP/exact_rhs.f:69
  402a78:	48 63 84 24 b0 00 00 00     	(move)  	movsxd	0xb0(%rsp),%rax
  402a80:	48 69 c0 35 c3 0c 00        	(arith) 	imul	$0xcc335,%rax,%rax
  402a87:	48 89 44 24 18              	(move)  	mov	%rax,0x18(%rsp)
/home/jgarcia/TFG/source_code/SP/exact_rhs.f:75
  402a8c:	48 83 c0 01                 	(arith) 	add	$0x1,%rax
  402a90:	48 89 84 24 88 00 00 00     	(move)  	mov	%rax,0x88(%rsp)
/home/jgarcia/TFG/source_code/SP/exact_rhs.f:80
  402a98:	48 8b 54 24 18              	(move)  	mov	0x18(%rsp),%rdx
  402a9d:	48 83 c2 02                 	(arith) 	add	$0x2,%rdx
  402aa1:	48 89 94 24 80 00 00 00     	(move)  	mov	%rdx,0x80(%rsp)
/home/jgarcia/TFG/source_code/SP/exact_rhs.f:85
  402aa9:	48 8b 5c 24 18              	(move)  	mov	0x18(%rsp),%rbx
  402aae:	48 83 c3 03                 	(arith) 	add	$0x3,%rbx
  402ab2:	48 89 5c 24 78              	(move)  	mov	%rbx,0x78(%rsp)
/home/jgarcia/TFG/source_code/SP/exact_rhs.f:94
  402ab7:	48 8b 7c 24 18              	(move)  	mov	0x18(%rsp),%rdi
  402abc:	48 83 ef 01                 	(arith) 	sub	$0x1,%rdi
  402ac0:	48 89 bc 24 a8 00 00 00     	(move)  	mov	%rdi,0xa8(%rsp)
/home/jgarcia/TFG/source_code/SP/exact_rhs.f:103
  402ac8:	4c 8b 4c 24 18              	(move)  	mov	0x18(%rsp),%r9
  402acd:	49 83 c1 04                 	(arith) 	add	$0x4,%r9
  402ad1:	4c 89 8c 24 a0 00 00 00     	(move)  	mov	%r9,0xa0(%rsp)
/home/jgarcia/TFG/source_code/SP/exact_rhs.f:107
  402ad9:	4c 8b 5c 24 18              	(move)  	mov	0x18(%rsp),%r11
  402ade:	49 83 c3 09                 	(arith) 	add	$0x9,%r11
  402ae2:	4c 89 9c 24 98 00 00 00     	(move)  	mov	%r11,0x98(%rsp)
  402aea:	c7 44 24 70 01 00 00 00     	(move)  	movl	$0x1,0x70(%rsp)
; ------- Loop 65 entry
303 (loop 65):	
/home/jgarcia/TFG/source_code/SP/exact_rhs.f:39
  402af2:	f2 0f 2a 44 24 70           	(conv)  	cvtsi2sdl	0x70(%rsp),%xmm0
  402af8:	f2 0f 59 05 e8 ce 20 00     	(arith) 	mulsd	0x20cee8(%rip),%xmm0
  402b00:	f2 0f 11 84 24 d8 00 00 00  	(move)  	movsd	%xmm0,0xd8(%rsp)
/home/jgarcia/TFG/source_code/SP/exact_rhs.f:41
  402b09:	44 8b 35 f0 cf 20 00        	(move)  	mov	0x20cff0(%rip),%r14d
  402b10:	41 83 ee 01                 	(arith) 	sub	$0x1,%r14d
  402b14:	0f 88 62 01 00 00           	(control)	js	402c7c <exact_rhs_+0x33c>	; ↲ label 304
305:	
  402b1a:	41 bc 00 00 00 00           	(move)  	mov	$0,%r12d
/home/jgarcia/TFG/source_code/SP/exact_rhs.f:42
  402b20:	41 bd e0 f9 60 00           	(move)  	mov	$0x60f9e0,%r13d
/home/jgarcia/TFG/source_code/SP/exact_rhs.f:44
  402b26:	4c 8d bc 24 d8 00 00 00     	(arith) 	lea	0xd8(%rsp),%r15
/home/jgarcia/TFG/source_code/SP/exact_rhs.f:49
  402b2e:	48 8d 84 24 e0 00 00 00     	(arith) 	lea	0xe0(%rsp),%rax
  402b36:	48 83 c0 08                 	(arith) 	add	$0x8,%rax
  402b3a:	48 89 44 24 20              	(move)  	mov	%rax,0x20(%rsp)
/home/jgarcia/TFG/source_code/SP/exact_rhs.f:55
  402b3f:	bb 20 fb 60 00              	(move)  	mov	$0x60fb20,%ebx
; ------- Loop 70 entry
306 (loop 70):	
/home/jgarcia/TFG/source_code/SP/exact_rhs.f:42
  402b44:	f2 41 0f 2a c4              	(conv)  	cvtsi2sd	%r12d,%xmm0
  402b49:	f2 41 0f 59 45 00           	(arith) 	mulsd	(%r13),%xmm0
  402b4f:	f2 0f 11 84 24 d0 00 00 00  	(move)  	movsd	%xmm0,0xd0(%rsp)
/home/jgarcia/TFG/source_code/SP/exact_rhs.f:44
  402b58:	48 8b 4c 24 28              	(move)  	mov	0x28(%rsp),%rcx
  402b5d:	48 8d 94 24 c8 00 00 00     	(arith) 	lea	0xc8(%rsp),%rdx
  402b65:	4c 89 fe                    	(move)  	mov	%r15,%rsi
  402b68:	48 8d bc 24 d0 00 00 00     	(arith) 	lea	0xd0(%rsp),%rdi
  402b70:	b8 00 00 00 00              	(move)  	mov	$0,%eax
  402b75:	e8 ce fc ff ff              	(control)	call	402848 <exact_solution_>	; ⇄ exact_solution
307:	
  402b7a:	48 8b 54 24 28              	(move)  	mov	0x28(%rsp),%rdx
/home/jgarcia/TFG/source_code/SP/exact_rhs.f:5
  402b7f:	49 63 c4                    	(move)  	movsxd	%r12d,%rax
  402b82:	48 8d 0c c5 a0 47 61 00     	(arith) 	lea	0x6147a0(,%rax,8),%rcx
; ------- Loop 68 entry
308 (loop 68):	
/home/jgarcia/TFG/source_code/SP/exact_rhs.f:46
  402b8a:	48 8b 32                    	(move)  	mov	(%rdx),%rsi
  402b8d:	48 89 31                    	(move)  	mov	%rsi,(%rcx)
  402b90:	48 83 c2 08                 	(arith) 	add	$0x8,%rdx
  402b94:	48 81 c1 c0 0c 00 00        	(arith) 	add	$0xcc0,%rcx
/home/jgarcia/TFG/source_code/SP/exact_rhs.f:45
  402b9b:	48 39 ea                    	(arith) 	cmp	%rbp,%rdx
  402b9e:	75 ea                       	(control)	jne	402b8a <exact_rhs_+0x24a>	; ↰ label 308 (loop 68)
; ------- Loop 68 exit
309:	
/home/jgarcia/TFG/source_code/SP/exact_rhs.f:49
  402ba0:	f2 0f 10 0d 08 b9 00 00     	(move)  	movsd	0xb908(%rip),%xmm1
  402ba8:	f2 0f 5e 8c 24 e0 00 00 00  	(arith) 	divsd	0xe0(%rsp),%xmm1
  402bb1:	48 8b 54 24 20              	(move)  	mov	0x20(%rsp),%rdx
/home/jgarcia/TFG/source_code/SP/exact_rhs.f:5
  402bb6:	48 8d b0 98 01 00 00        	(arith) 	lea	0x198(%rax),%rsi
  402bbd:	48 8d 0c c5 20 94 61 00     	(arith) 	lea	0x619420(,%rax,8),%rcx
; ------- Loop 69 entry
310 (loop 69):	
/home/jgarcia/TFG/source_code/SP/exact_rhs.f:52
  402bc5:	f2 0f 10 02                 	(move)  	movsd	(%rdx),%xmm0
  402bc9:	f2 0f 59 c1                 	(arith) 	mulsd	%xmm1,%xmm0
  402bcd:	f2 0f 11 01                 	(move)  	movsd	%xmm0,(%rcx)
  402bd1:	48 83 c2 08                 	(arith) 	add	$0x8,%rdx
  402bd5:	48 81 c1 c0 0c 00 00        	(arith) 	add	$0xcc0,%rcx
/home/jgarcia/TFG/source_code/SP/exact_rhs.f:51
  402bdc:	48 39 ea                    	(arith) 	cmp	%rbp,%rdx
  402bdf:	75 e4                       	(control)	jne	402bc5 <exact_rhs_+0x285>	; ↰ label 310 (loop 69)
; ------- Loop 69 exit
311:	
/home/jgarcia/TFG/source_code/SP/exact_rhs.f:55
  402be1:	48 8d be 88 11 00 00        	(arith) 	lea	0x1188(%rsi),%rdi
  402be8:	f2 0f 10 0c fb              	(move)  	movsd	(%rbx,%rdi,8),%xmm1
  402bed:	f2 0f 59 c9                 	(arith) 	mulsd	%xmm1,%xmm1
  402bf1:	f2 0f 11 8c c3 00 33 00 00  	(move)  	movsd	%xmm1,0x3300(%rbx,%rax,8)
/home/jgarcia/TFG/source_code/SP/exact_rhs.f:57
  402bfa:	48 8d 88 b8 14 00 00        	(arith) 	lea	0x14b8(%rax),%rcx
  402c01:	f2 0f 10 14 cb              	(move)  	movsd	(%rbx,%rcx,8),%xmm2
  402c06:	48 8d 90 50 16 00 00        	(arith) 	lea	0x1650(%rax),%rdx
  402c0d:	f2 0f 10 04 d3              	(move)  	movsd	(%rbx,%rdx,8),%xmm0
  402c12:	f2 0f 59 d2                 	(arith) 	mulsd	%xmm2,%xmm2
  402c16:	f2 0f 58 ca                 	(arith) 	addsd	%xmm2,%xmm1
  402c1a:	f2 0f 59 c0                 	(arith) 	mulsd	%xmm0,%xmm0
  402c1e:	f2 0f 58 c1                 	(arith) 	addsd	%xmm1,%xmm0
  402c22:	f2 0f 11 84 c3 40 8c 00 00  	(move)  	movsd	%xmm0,0x8c40(%rbx,%rax,8)
/home/jgarcia/TFG/source_code/SP/exact_rhs.f:59
  402c2b:	f2 0f 10 0c fb              	(move)  	movsd	(%rbx,%rdi,8),%xmm1
  402c30:	f2 0f 59 8c f3 80 4c 00 00  	(arith) 	mulsd	0x4c80(%rbx,%rsi,8),%xmm1
  402c39:	f2 0f 10 04 cb              	(move)  	movsd	(%rbx,%rcx,8),%xmm0
  402c3e:	f2 0f 59 84 c3 00 66 00 00  	(arith) 	mulsd	0x6600(%rbx,%rax,8),%xmm0
  402c47:	f2 0f 58 c1                 	(arith) 	addsd	%xmm1,%xmm0
  402c4b:	f2 0f 10 0c d3              	(move)  	movsd	(%rbx,%rdx,8),%xmm1
  402c50:	f2 0f 59 8c c3 c0 72 00 00  	(arith) 	mulsd	0x72c0(%rbx,%rax,8),%xmm1
  402c59:	f2 0f 58 c1                 	(arith) 	addsd	%xmm1,%xmm0
  402c5d:	f2 0f 59 05 53 b8 00 00     	(arith) 	mulsd	0xb853(%rip),%xmm0
  402c65:	f2 0f 11 84 c3 c0 3f 00 00  	(move)  	movsd	%xmm0,0x3fc0(%rbx,%rax,8)
/home/jgarcia/TFG/source_code/SP/exact_rhs.f:41
  402c6e:	45 39 f4                    	(arith) 	cmp	%r14d,%r12d
  402c71:	74 09                       	(control)	je	402c7c <exact_rhs_+0x33c>	; ↲ label 304
312:	
  402c73:	41 83 c4 01                 	(arith) 	add	$0x1,%r12d
  402c77:	e9 c8 fe ff ff              	(control)	jmp	402b44 <exact_rhs_+0x204>	; ↰ label 306 (loop 70)
; ------- Loop 70 exit
304:	
/home/jgarcia/TFG/source_code/SP/exact_rhs.f:63
  402c7c:	8b 05 7e ce 20 00           	(move)  	mov	0x20ce7e(%rip),%eax
  402c82:	83 e8 02                    	(arith) 	sub	$0x2,%eax
  402c85:	89 44 24 20                 	(move)  	mov	%eax,0x20(%rsp)
  402c89:	85 c0                       	(arith) 	test	%eax,%eax
  402c8b:	0f 8e a5 04 00 00           	(control)	jle	403136 <exact_rhs_+0x7f6>	; ↲ label 313
314:	
/home/jgarcia/TFG/source_code/SP/exact_rhs.f:69
  402c91:	48 63 44 24 70              	(move)  	movsxd	0x70(%rsp),%rax
  402c96:	48 89 c2                    	(move)  	mov	%rax,%rdx
  402c99:	48 c1 e2 09                 	(logic) 	sal	$0x9,%rdx
  402c9d:	48 29 c2                    	(arith) 	sub	%rax,%rdx
  402ca0:	48 8d 14 90                 	(arith) 	lea	(%rax,%rdx,4),%rdx
  402ca4:	48 89 54 24 30              	(move)  	mov	%rdx,0x30(%rsp)
  402ca9:	f2 0f 10 0d 57 c9 20 00     	(move)  	movsd	0x20c957(%rip),%xmm1
  402cb1:	f2 44 0f 10 3d 5e cc 20 00  	(move)  	movsd	0x20cc5e(%rip),%xmm15
/home/jgarcia/TFG/source_code/SP/exact_rhs.f:75
  402cba:	f2 0f 10 15 66 cd 20 00     	(move)  	movsd	0x20cd66(%rip),%xmm2
  402cc2:	f2 0f 10 05 26 cc 20 00     	(move)  	movsd	0x20cc26(%rip),%xmm0
  402cca:	f2 0f 11 44 24 68           	(move)  	movsd	%xmm0,0x68(%rsp)
  402cd0:	f2 0f 10 05 48 cc 20 00     	(move)  	movsd	0x20cc48(%rip),%xmm0
  402cd8:	f2 0f 11 44 24 60           	(move)  	movsd	%xmm0,0x60(%rsp)
/home/jgarcia/TFG/source_code/SP/exact_rhs.f:80
  402cde:	f2 44 0f 10 15 11 cc 20 00  	(move)  	movsd	0x20cc11(%rip),%xmm10
  402ce7:	f2 0f 10 05 39 cc 20 00     	(move)  	movsd	0x20cc39(%rip),%xmm0
  402cef:	f2 0f 11 44 24 58           	(move)  	movsd	%xmm0,0x58(%rsp)
/home/jgarcia/TFG/source_code/SP/exact_rhs.f:85
  402cf5:	f2 0f 10 05 33 cc 20 00     	(move)  	movsd	0x20cc33(%rip),%xmm0
  402cfd:	f2 0f 11 44 24 50           	(move)  	movsd	%xmm0,0x50(%rsp)
/home/jgarcia/TFG/source_code/SP/exact_rhs.f:94
  402d03:	49 89 d7                    	(move)  	mov	%rdx,%r15
  402d06:	4c 03 bc 24 a8 00 00 00     	(arith) 	add	0xa8(%rsp),%r15
  402d0e:	f2 44 0f 10 0d 09 cd 20 00  	(move)  	movsd	0x20cd09(%rip),%xmm9
  402d17:	f2 44 0f 10 35 98 b7 00 00  	(move)  	movsd	0xb798(%rip),%xmm14
  402d20:	f2 44 0f 59 35 d7 cb 20 00  	(arith) 	mulsd	0x20cbd7(%rip),%xmm14
  402d29:	f2 0f 10 05 d7 cb 20 00     	(move)  	movsd	0x20cbd7(%rip),%xmm0
  402d31:	f2 0f 11 44 24 48           	(move)  	movsd	%xmm0,0x48(%rsp)
  402d37:	f2 0f 10 05 d1 cb 20 00     	(move)  	movsd	0x20cbd1(%rip),%xmm0
  402d3f:	f2 0f 11 44 24 40           	(move)  	movsd	%xmm0,0x40(%rsp)
  402d45:	f2 0f 10 05 eb cb 20 00     	(move)  	movsd	0x20cbeb(%rip),%xmm0
  402d4d:	f2 0f 11 44 24 38           	(move)  	movsd	%xmm0,0x38(%rsp)
  402d53:	41 ba 00 00 00 00           	(move)  	mov	$0,%r10d
  402d59:	ba 01 00 00 00              	(move)  	mov	$0x1,%edx
/home/jgarcia/TFG/source_code/SP/exact_rhs.f:69
  402d5e:	48 be 20 18 94 01 00 00 00 00	(move)  	mov	$0x1941820,%rsi
  402d68:	b8 20 fb 60 00              	(move)  	mov	$0x60fb20,%eax
  402d6d:	f2 0f 10 05 4b b7 00 00     	(move)  	movsd	0xb74b(%rip),%xmm0
  402d75:	48 89 6c 24 08              	(move)  	mov	%rbp,0x8(%rsp)
; ------- Loop 67 entry
315 (loop 67):	
/home/jgarcia/TFG/source_code/SP/exact_rhs.f:65
  402d7a:	44 8d 72 01                 	(arith) 	lea	0x1(%rdx),%r14d
/home/jgarcia/TFG/source_code/SP/exact_rhs.f:69
  402d7e:	48 63 d2                    	(move)  	movsxd	%edx,%rdx
  402d81:	4c 8d 0c 92                 	(arith) 	lea	(%rdx,%rdx,4),%r9
  402d85:	4c 03 4c 24 30              	(arith) 	add	0x30(%rsp),%r9
  402d8a:	49 63 de                    	(move)  	movsxd	%r14d,%rbx
  402d8d:	49 63 ca                    	(move)  	movsxd	%r10d,%rcx
  402d90:	4c 8b 5c 24 18              	(move)  	mov	0x18(%rsp),%r11
  402d95:	4f 8d 84 0b 98 2d 28 45     	(arith) 	lea	0x45282d98(%r11,%r9,1),%r8
  402d9d:	48 8d b9 28 0b 00 00        	(arith) 	lea	0xb28(%rcx),%rdi
  402da4:	f2 0f 10 ac d8 40 59 00 00  	(move)  	movsd	0x5940(%rax,%rbx,8),%xmm5
  402dad:	66 0f 28 f5                 	(move)  	movapd	%xmm5,%xmm6
  402db1:	f2 0f 5c 34 f8              	(arith) 	subsd	(%rax,%rdi,8),%xmm6
  402db6:	f2 0f 59 f1                 	(arith) 	mulsd	%xmm1,%xmm6
  402dba:	f2 42 0f 10 24 c6           	(move)  	movsd	(%rsi,%r8,8),%xmm4
  402dc0:	f2 0f 5c e6                 	(arith) 	subsd	%xmm6,%xmm4
  402dc4:	66 0f 28 d8                 	(move)  	movapd	%xmm0,%xmm3
  402dc8:	f2 0f 59 9c d0 80 4c 00 00  	(arith) 	mulsd	0x4c80(%rax,%rdx,8),%xmm3
  402dd1:	f2 0f 58 9c d8 80 4c 00 00  	(arith) 	addsd	0x4c80(%rax,%rbx,8),%xmm3
  402dda:	f2 0f 58 9c c8 80 4c 00 00  	(arith) 	addsd	0x4c80(%rax,%rcx,8),%xmm3
  402de3:	f2 41 0f 59 df              	(arith) 	mulsd	%xmm15,%xmm3
  402de8:	f2 0f 58 dc                 	(arith) 	addsd	%xmm4,%xmm3
  402dec:	f2 42 0f 11 1c c6           	(move)  	movsd	%xmm3,(%rsi,%r8,8)
/home/jgarcia/TFG/source_code/SP/exact_rhs.f:75
  402df2:	4c 8d 83 20 13 00 00        	(arith) 	lea	0x1320(%rbx),%r8
  402df9:	f2 46 0f 10 04 c0           	(move)  	movsd	(%rax,%r8,8),%xmm8
  402dff:	f2 0f 10 34 f8              	(move)  	movsd	(%rax,%rdi,8),%xmm6
  402e04:	48 8d b9 20 13 00 00        	(arith) 	lea	0x1320(%rcx),%rdi
  402e0b:	f2 0f 10 3c f8              	(move)  	movsd	(%rax,%rdi,8),%xmm7
  402e10:	4c 8b a4 24 88 00 00 00     	(move)  	mov	0x88(%rsp),%r12
  402e18:	4f 8d ac 21 98 2d 28 45     	(arith) 	lea	0x45282d98(%r9,%r12,1),%r13
  402e20:	66 0f 28 dd                 	(move)  	movapd	%xmm5,%xmm3
  402e24:	f2 41 0f 59 d8              	(arith) 	mulsd	%xmm8,%xmm3
  402e29:	4c 8d a3 f8 07 00 00        	(arith) 	lea	0x7f8(%rbx),%r12
  402e30:	f2 0f 10 a4 d8 80 7f 00 00  	(move)  	movsd	0x7f80(%rax,%rbx,8),%xmm4
  402e39:	66 44 0f 28 dc              	(move)  	movapd	%xmm4,%xmm11
  402e3e:	f2 46 0f 5c 1c e0           	(arith) 	subsd	(%rax,%r12,8),%xmm11
  402e44:	f2 44 0f 59 da              	(arith) 	mulsd	%xmm2,%xmm11
  402e49:	f2 44 0f 58 db              	(arith) 	addsd	%xmm3,%xmm11
  402e4e:	66 44 0f 28 ee              	(move)  	movapd	%xmm6,%xmm13
  402e53:	f2 44 0f 59 ef              	(arith) 	mulsd	%xmm7,%xmm13
  402e58:	4c 8d 99 f8 07 00 00        	(arith) 	lea	0x7f8(%rcx),%r11
  402e5f:	f2 0f 10 9c c8 80 7f 00 00  	(move)  	movsd	0x7f80(%rax,%rcx,8),%xmm3
  402e68:	66 44 0f 28 e3              	(move)  	movapd	%xmm3,%xmm12
  402e6d:	f2 46 0f 5c 24 d8           	(arith) 	subsd	(%rax,%r11,8),%xmm12
  402e73:	f2 44 0f 59 e2              	(arith) 	mulsd	%xmm2,%xmm12
  402e78:	f2 45 0f 58 e5              	(arith) 	addsd	%xmm13,%xmm12
  402e7d:	f2 45 0f 5c dc              	(arith) 	subsd	%xmm12,%xmm11
  402e82:	66 44 0f 28 e1              	(move)  	movapd	%xmm1,%xmm12
  402e87:	f2 45 0f 59 e3              	(arith) 	mulsd	%xmm11,%xmm12
  402e8c:	f2 46 0f 10 1c ee           	(move)  	movsd	(%rsi,%r13,8),%xmm11
  402e92:	f2 45 0f 5c dc              	(arith) 	subsd	%xmm12,%xmm11
  402e97:	66 44 0f 28 e0              	(move)  	movapd	%xmm0,%xmm12
  402e9c:	f2 44 0f 59 a4 d0 00 99 00 00	(arith) 	mulsd	0x9900(%rax,%rdx,8),%xmm12
  402ea6:	f2 45 0f 58 c4              	(arith) 	addsd	%xmm12,%xmm8
  402eab:	f2 44 0f 58 c7              	(arith) 	addsd	%xmm7,%xmm8
  402eb0:	f2 44 0f 59 44 24 68        	(arith) 	mulsd	0x68(%rsp),%xmm8
  402eb7:	f2 45 0f 58 d8              	(arith) 	addsd	%xmm8,%xmm11
  402ebc:	66 0f 28 f8                 	(move)  	movapd	%xmm0,%xmm7
  402ec0:	f2 0f 59 bc d0 40 59 00 00  	(arith) 	mulsd	0x5940(%rax,%rdx,8),%xmm7
  402ec9:	f2 0f 58 ef                 	(arith) 	addsd	%xmm7,%xmm5
  402ecd:	f2 0f 58 ee                 	(arith) 	addsd	%xmm6,%xmm5
  402ed1:	f2 0f 59 6c 24 60           	(arith) 	mulsd	0x60(%rsp),%xmm5
  402ed7:	f2 44 0f 58 dd              	(arith) 	addsd	%xmm5,%xmm11
  402edc:	f2 46 0f 11 1c ee           	(move)  	movsd	%xmm11,(%rsi,%r13,8)
/home/jgarcia/TFG/source_code/SP/exact_rhs.f:80
  402ee2:	f2 0f 10 b4 d8 00 66 00 00  	(move)  	movsd	0x6600(%rax,%rbx,8),%xmm6
  402eeb:	f2 0f 10 ac c8 00 66 00 00  	(move)  	movsd	0x6600(%rax,%rcx,8),%xmm5
  402ef4:	48 8b ac 24 80 00 00 00     	(move)  	mov	0x80(%rsp),%rbp
  402efc:	4d 8d ac 29 98 2d 28 45     	(arith) 	lea	0x45282d98(%r9,%rbp,1),%r13
  402f04:	66 44 0f 28 c6              	(move)  	movapd	%xmm6,%xmm8
  402f09:	f2 46 0f 59 04 c0           	(arith) 	mulsd	(%rax,%r8,8),%xmm8
  402f0f:	66 44 0f 28 dd              	(move)  	movapd	%xmm5,%xmm11
  402f14:	f2 44 0f 59 1c f8           	(arith) 	mulsd	(%rax,%rdi,8),%xmm11
  402f1a:	f2 45 0f 5c c3              	(arith) 	subsd	%xmm11,%xmm8
  402f1f:	f2 44 0f 59 c1              	(arith) 	mulsd	%xmm1,%xmm8
  402f24:	f2 42 0f 10 3c ee           	(move)  	movsd	(%rsi,%r13,8),%xmm7
  402f2a:	f2 41 0f 5c f8              	(arith) 	subsd	%xmm8,%xmm7
  402f2f:	66 44 0f 28 c0              	(move)  	movapd	%xmm0,%xmm8
  402f34:	f2 44 0f 59 84 d0 c0 a5 00 00	(arith) 	mulsd	0xa5c0(%rax,%rdx,8),%xmm8
  402f3e:	f2 44 0f 58 84 d8 c0 a5 00 00	(arith) 	addsd	0xa5c0(%rax,%rbx,8),%xmm8
  402f48:	f2 44 0f 58 84 c8 c0 a5 00 00	(arith) 	addsd	0xa5c0(%rax,%rcx,8),%xmm8
  402f52:	f2 45 0f 59 c2              	(arith) 	mulsd	%xmm10,%xmm8
  402f57:	f2 41 0f 58 f8              	(arith) 	addsd	%xmm8,%xmm7
  402f5c:	66 44 0f 28 c0              	(move)  	movapd	%xmm0,%xmm8
  402f61:	f2 44 0f 59 84 d0 00 66 00 00	(arith) 	mulsd	0x6600(%rax,%rdx,8),%xmm8
  402f6b:	f2 41 0f 58 f0              	(arith) 	addsd	%xmm8,%xmm6
  402f70:	f2 0f 58 f5                 	(arith) 	addsd	%xmm5,%xmm6
  402f74:	f2 0f 59 74 24 58           	(arith) 	mulsd	0x58(%rsp),%xmm6
  402f7a:	f2 0f 58 f7                 	(arith) 	addsd	%xmm7,%xmm6
  402f7e:	f2 42 0f 11 34 ee           	(move)  	movsd	%xmm6,(%rsi,%r13,8)
/home/jgarcia/TFG/source_code/SP/exact_rhs.f:85
  402f84:	f2 0f 10 b4 d8 c0 72 00 00  	(move)  	movsd	0x72c0(%rax,%rbx,8),%xmm6
  402f8d:	f2 0f 10 ac c8 c0 72 00 00  	(move)  	movsd	0x72c0(%rax,%rcx,8),%xmm5
  402f96:	4c 8b 6c 24 78              	(move)  	mov	0x78(%rsp),%r13
  402f9b:	4f 8d 8c 29 98 2d 28 45     	(arith) 	lea	0x45282d98(%r9,%r13,1),%r9
  402fa3:	66 44 0f 28 c6              	(move)  	movapd	%xmm6,%xmm8
  402fa8:	f2 46 0f 59 04 c0           	(arith) 	mulsd	(%rax,%r8,8),%xmm8
  402fae:	66 44 0f 28 dd              	(move)  	movapd	%xmm5,%xmm11
  402fb3:	f2 44 0f 59 1c f8           	(arith) 	mulsd	(%rax,%rdi,8),%xmm11
  402fb9:	f2 45 0f 5c c3              	(arith) 	subsd	%xmm11,%xmm8
  402fbe:	f2 44 0f 59 c1              	(arith) 	mulsd	%xmm1,%xmm8
  402fc3:	f2 42 0f 10 3c ce           	(move)  	movsd	(%rsi,%r9,8),%xmm7
  402fc9:	f2 41 0f 5c f8              	(arith) 	subsd	%xmm8,%xmm7
  402fce:	66 44 0f 28 c0              	(move)  	movapd	%xmm0,%xmm8
  402fd3:	f2 44 0f 59 84 d0 80 b2 00 00	(arith) 	mulsd	0xb280(%rax,%rdx,8),%xmm8
  402fdd:	f2 44 0f 58 84 d8 80 b2 00 00	(arith) 	addsd	0xb280(%rax,%rbx,8),%xmm8
  402fe7:	f2 44 0f 58 84 c8 80 b2 00 00	(arith) 	addsd	0xb280(%rax,%rcx,8),%xmm8
  402ff1:	f2 45 0f 59 c2              	(arith) 	mulsd	%xmm10,%xmm8
  402ff6:	f2 41 0f 58 f8              	(arith) 	addsd	%xmm8,%xmm7
  402ffb:	66 44 0f 28 c0              	(move)  	movapd	%xmm0,%xmm8
  403000:	f2 44 0f 59 84 d0 c0 72 00 00	(arith) 	mulsd	0x72c0(%rax,%rdx,8),%xmm8
  40300a:	f2 41 0f 58 f0              	(arith) 	addsd	%xmm8,%xmm6
  40300f:	f2 0f 58 f5                 	(arith) 	addsd	%xmm5,%xmm6
  403013:	f2 0f 59 74 24 50           	(arith) 	mulsd	0x50(%rsp),%xmm6
  403019:	f2 0f 58 f7                 	(arith) 	addsd	%xmm7,%xmm6
  40301d:	f2 42 0f 11 34 ce           	(move)  	movsd	%xmm6,(%rsi,%r9,8)
/home/jgarcia/TFG/source_code/SP/exact_rhs.f:94
  403023:	4c 8d 4c 92 05              	(arith) 	lea	0x5(%rdx,%rdx,4),%r9
  403028:	4f 8d 8c 0f 98 2d 28 45     	(arith) 	lea	0x45282d98(%r15,%r9,1),%r9
  403030:	66 0f 28 ec                 	(move)  	movapd	%xmm4,%xmm5
  403034:	f2 41 0f 59 e9              	(arith) 	mulsd	%xmm9,%xmm5
  403039:	66 0f 28 f2                 	(move)  	movapd	%xmm2,%xmm6
  40303d:	f2 42 0f 59 34 e0           	(arith) 	mulsd	(%rax,%r12,8),%xmm6
  403043:	f2 0f 5c ee                 	(arith) 	subsd	%xmm6,%xmm5
  403047:	f2 42 0f 59 2c c0           	(arith) 	mulsd	(%rax,%r8,8),%xmm5
  40304d:	66 41 0f 28 f9              	(move)  	movapd	%xmm9,%xmm7
  403052:	f2 0f 59 fb                 	(arith) 	mulsd	%xmm3,%xmm7
  403056:	66 0f 28 f2                 	(move)  	movapd	%xmm2,%xmm6
  40305a:	f2 42 0f 59 34 d8           	(arith) 	mulsd	(%rax,%r11,8),%xmm6
  403060:	f2 0f 5c fe                 	(arith) 	subsd	%xmm6,%xmm7
  403064:	f2 0f 59 3c f8              	(arith) 	mulsd	(%rax,%rdi,8),%xmm7
  403069:	f2 0f 5c ef                 	(arith) 	subsd	%xmm7,%xmm5
  40306d:	66 0f 28 f1                 	(move)  	movapd	%xmm1,%xmm6
  403071:	f2 0f 59 f5                 	(arith) 	mulsd	%xmm5,%xmm6
  403075:	f2 42 0f 10 2c ce           	(move)  	movsd	(%rsi,%r9,8),%xmm5
  40307b:	f2 0f 5c ee                 	(arith) 	subsd	%xmm6,%xmm5
  40307f:	66 0f 28 f0                 	(move)  	movapd	%xmm0,%xmm6
  403083:	f2 0f 59 b4 d0 40 8c 00 00  	(arith) 	mulsd	0x8c40(%rax,%rdx,8),%xmm6
  40308c:	f2 0f 58 b4 d8 40 8c 00 00  	(arith) 	addsd	0x8c40(%rax,%rbx,8),%xmm6
  403095:	f2 0f 58 b4 c8 40 8c 00 00  	(arith) 	addsd	0x8c40(%rax,%rcx,8),%xmm6
  40309e:	f2 41 0f 59 f6              	(arith) 	mulsd	%xmm14,%xmm6
  4030a3:	f2 0f 58 ee                 	(arith) 	addsd	%xmm6,%xmm5
  4030a7:	66 0f 28 f0                 	(move)  	movapd	%xmm0,%xmm6
  4030ab:	f2 0f 59 b4 d0 00 33 00 00  	(arith) 	mulsd	0x3300(%rax,%rdx,8),%xmm6
  4030b4:	f2 0f 58 b4 d8 00 33 00 00  	(arith) 	addsd	0x3300(%rax,%rbx,8),%xmm6
  4030bd:	f2 0f 58 b4 c8 00 33 00 00  	(arith) 	addsd	0x3300(%rax,%rcx,8),%xmm6
  4030c6:	f2 0f 59 74 24 48           	(arith) 	mulsd	0x48(%rsp),%xmm6
  4030cc:	f2 0f 58 ee                 	(arith) 	addsd	%xmm6,%xmm5
  4030d0:	66 0f 28 f0                 	(move)  	movapd	%xmm0,%xmm6
  4030d4:	f2 0f 59 b4 d0 40 bf 00 00  	(arith) 	mulsd	0xbf40(%rax,%rdx,8),%xmm6
  4030dd:	f2 0f 58 b4 d8 40 bf 00 00  	(arith) 	addsd	0xbf40(%rax,%rbx,8),%xmm6
  4030e6:	f2 0f 58 b4 c8 40 bf 00 00  	(arith) 	addsd	0xbf40(%rax,%rcx,8),%xmm6
  4030ef:	f2 0f 59 74 24 40           	(arith) 	mulsd	0x40(%rsp),%xmm6
  4030f5:	f2 0f 58 ee                 	(arith) 	addsd	%xmm6,%xmm5
  4030f9:	66 0f 28 f0                 	(move)  	movapd	%xmm0,%xmm6
  4030fd:	f2 0f 59 b4 d0 80 7f 00 00  	(arith) 	mulsd	0x7f80(%rax,%rdx,8),%xmm6
  403106:	f2 0f 58 e6                 	(arith) 	addsd	%xmm6,%xmm4
  40310a:	f2 0f 58 e3                 	(arith) 	addsd	%xmm3,%xmm4
  40310e:	f2 0f 59 64 24 38           	(arith) 	mulsd	0x38(%rsp),%xmm4
  403114:	f2 0f 58 ec                 	(arith) 	addsd	%xmm4,%xmm5
  403118:	f2 42 0f 11 2c ce           	(move)  	movsd	%xmm5,(%rsi,%r9,8)
  40311e:	41 83 c2 01                 	(arith) 	add	$0x1,%r10d
/home/jgarcia/TFG/source_code/SP/exact_rhs.f:63
  403122:	44 3b 54 24 20              	(arith) 	cmp	0x20(%rsp),%r10d
  403127:	74 08                       	(control)	je	403131 <exact_rhs_+0x7f1>	; ↲ label 316
317:	
  403129:	44 89 f2                    	(move)  	mov	%r14d,%edx
  40312c:	e9 49 fc ff ff              	(control)	jmp	402d7a <exact_rhs_+0x43a>	; ↰ label 315 (loop 67)
; ------- Loop 67 exit
316:	
  403131:	48 8b 6c 24 08              	(move)  	mov	0x8(%rsp),%rbp
313:	
/home/jgarcia/TFG/source_code/SP/exact_rhs.f:103
  403136:	48 63 44 24 70              	(move)  	movsxd	0x70(%rsp),%rax
  40313b:	48 89 c2                    	(move)  	mov	%rax,%rdx
  40313e:	48 c1 e2 09                 	(logic) 	sal	$0x9,%rdx
  403142:	48 29 c2                    	(arith) 	sub	%rax,%rdx
  403145:	4c 8d 34 90                 	(arith) 	lea	(%rax,%rdx,4),%r14
  403149:	f2 0f 10 0d 6f c5 20 00     	(move)  	movsd	0x20c56f(%rip),%xmm1
  403151:	48 8b 84 24 a0 00 00 00     	(move)  	mov	0xa0(%rsp),%rax
  403159:	4a 8d 94 30 99 2d 28 45     	(arith) 	lea	0x45282d99(%rax,%r14,1),%rdx
  403161:	48 b8 20 18 94 01 00 00 00 00	(move)  	mov	$0x1941820,%rax
  40316b:	48 8d 0c d0                 	(arith) 	lea	(%rax,%rdx,8),%rcx
  40316f:	48 8b 9c 24 98 00 00 00     	(move)  	mov	0x98(%rsp),%rbx
  403177:	4a 8d 94 33 99 2d 28 45     	(arith) 	lea	0x45282d99(%rbx,%r14,1),%rdx
  40317f:	48 8d 14 d0                 	(arith) 	lea	(%rax,%rdx,8),%rdx
  403183:	b8 00 00 00 00              	(move)  	mov	$0,%eax
  403188:	bf a8 47 61 00              	(move)  	mov	$0x6147a8,%edi
  40318d:	f2 0f 10 2d 33 b3 00 00     	(move)  	movsd	0xb333(%rip),%xmm5
  403195:	be b0 47 61 00              	(move)  	mov	$0x6147b0,%esi
  40319a:	f2 0f 10 05 2e b3 00 00     	(move)  	movsd	0xb32e(%rip),%xmm0
  4031a2:	bb b8 47 61 00              	(move)  	mov	$0x6147b8,%ebx
/home/jgarcia/TFG/source_code/SP/exact_rhs.f:107
  4031a7:	f2 0f 10 25 29 b3 00 00     	(move)  	movsd	0xb329(%rip),%xmm4
  4031af:	41 b8 c0 47 61 00           	(move)  	mov	$0x6147c0,%r8d
; ------- Loop 62 entry
318 (loop 62):	
/home/jgarcia/TFG/source_code/SP/exact_rhs.f:103
  4031b5:	66 0f 28 dd                 	(move)  	movapd	%xmm5,%xmm3
  4031b9:	f2 0f 59 1c 07              	(arith) 	mulsd	(%rdi,%rax,1),%xmm3
  4031be:	66 0f 28 d0                 	(move)  	movapd	%xmm0,%xmm2
  4031c2:	f2 0f 59 14 06              	(arith) 	mulsd	(%rsi,%rax,1),%xmm2
  4031c7:	f2 0f 58 da                 	(arith) 	addsd	%xmm2,%xmm3
  4031cb:	f2 0f 58 1c 03              	(arith) 	addsd	(%rbx,%rax,1),%xmm3
  4031d0:	f2 0f 59 d9                 	(arith) 	mulsd	%xmm1,%xmm3
  4031d4:	f2 0f 10 11                 	(move)  	movsd	(%rcx),%xmm2
  4031d8:	f2 0f 5c d3                 	(arith) 	subsd	%xmm3,%xmm2
  4031dc:	f2 0f 11 11                 	(move)  	movsd	%xmm2,(%rcx)
/home/jgarcia/TFG/source_code/SP/exact_rhs.f:107
  4031e0:	66 0f 28 d8                 	(move)  	movapd	%xmm0,%xmm3
  4031e4:	f2 0f 59 1c 07              	(arith) 	mulsd	(%rdi,%rax,1),%xmm3
  4031e9:	66 0f 28 d4                 	(move)  	movapd	%xmm4,%xmm2
  4031ed:	f2 0f 59 14 06              	(arith) 	mulsd	(%rsi,%rax,1),%xmm2
  4031f2:	f2 0f 58 da                 	(arith) 	addsd	%xmm2,%xmm3
  4031f6:	66 0f 28 d0                 	(move)  	movapd	%xmm0,%xmm2
  4031fa:	f2 0f 59 14 03              	(arith) 	mulsd	(%rbx,%rax,1),%xmm2
  4031ff:	f2 0f 58 da                 	(arith) 	addsd	%xmm2,%xmm3
  403203:	f2 41 0f 58 1c 00           	(arith) 	addsd	(%r8,%rax,1),%xmm3
  403209:	f2 0f 59 d9                 	(arith) 	mulsd	%xmm1,%xmm3
  40320d:	f2 0f 10 12                 	(move)  	movsd	(%rdx),%xmm2
  403211:	f2 0f 5c d3                 	(arith) 	subsd	%xmm3,%xmm2
  403215:	f2 0f 11 12                 	(move)  	movsd	%xmm2,(%rdx)
  403219:	48 83 c1 08                 	(arith) 	add	$0x8,%rcx
  40321d:	48 05 c0 0c 00 00           	(arith) 	add	$0xcc0,%rax
  403223:	48 83 c2 08                 	(arith) 	add	$0x8,%rdx
/home/jgarcia/TFG/source_code/SP/exact_rhs.f:100
  403227:	48 3d c0 3f 00 00           	(arith) 	cmp	$0x3fc0,%rax
  40322d:	75 86                       	(control)	jne	4031b5 <exact_rhs_+0x875>	; ↰ label 318 (loop 62)
; ------- Loop 62 exit
319:	
/home/jgarcia/TFG/source_code/SP/exact_rhs.f:111
  40322f:	44 8b 25 ca c8 20 00        	(move)  	mov	0x20c8ca(%rip),%r12d
  403236:	41 83 ec 04                 	(arith) 	sub	$0x4,%r12d
/home/jgarcia/TFG/source_code/SP/exact_rhs.f:114
  40323a:	f2 0f 10 1d 7e c4 20 00     	(move)  	movsd	0x20c47e(%rip),%xmm3
  403242:	4c 8b 5c 24 18              	(move)  	mov	0x18(%rsp),%r11
  403247:	4d 01 f3                    	(arith) 	add	%r14,%r11
  40324a:	41 bd 00 00 00 00           	(move)  	mov	$0,%r13d
/home/jgarcia/TFG/source_code/SP/exact_rhs.f:111
  403250:	41 bf 02 00 00 00           	(move)  	mov	$0x2,%r15d
/home/jgarcia/TFG/source_code/SP/exact_rhs.f:114
  403256:	b9 20 fb 60 00              	(move)  	mov	$0x60fb20,%ecx
  40325b:	48 bf 20 18 94 01 00 00 00 00	(move)  	mov	$0x1941820,%rdi
; ------- Loop 63 entry
320 (loop 63):	
/home/jgarcia/TFG/source_code/SP/exact_rhs.f:111
  403265:	41 83 fc 02                 	(arith) 	cmp	$0x2,%r12d
  403269:	0f 8e b4 00 00 00           	(control)	jle	403323 <exact_rhs_+0x9e3>	; ↲ label 321
322:	
  40326f:	4c 89 ea                    	(move)  	mov	%r13,%rdx
  403272:	44 89 fb                    	(move)  	mov	%r15d,%ebx
  403275:	b8 03 00 00 00              	(move)  	mov	$0x3,%eax
; ------- Loop 66 entry
323 (loop 66):	
/home/jgarcia/TFG/source_code/SP/exact_rhs.f:114
  40327a:	48 63 f0                    	(move)  	movsxd	%eax,%rsi
  40327d:	4c 8d 04 b6                 	(arith) 	lea	(%rsi,%rsi,4),%r8
  403281:	44 8d 48 fe                 	(arith) 	lea	-0x2(%rax),%r9d
  403285:	4d 63 c9                    	(move)  	movsxd	%r9d,%r9
  403288:	4e 8d 8c 0a 90 09 00 00     	(arith) 	lea	0x990(%rdx,%r9,1),%r9
  403290:	4c 63 d3                    	(move)  	movsxd	%ebx,%r10
  403293:	4e 8d 94 12 90 09 00 00     	(arith) 	lea	0x990(%rdx,%r10,1),%r10
  40329b:	f2 0f 10 0d 2d b2 00 00     	(move)  	movsd	0xb22d(%rip),%xmm1
  4032a3:	f2 42 0f 59 0c d1           	(arith) 	mulsd	(%rcx,%r10,8),%xmm1
  4032a9:	f2 42 0f 58 0c c9           	(arith) 	addsd	(%rcx,%r9,8),%xmm1
  4032af:	48 8d b4 16 90 09 00 00     	(arith) 	lea	0x990(%rsi,%rdx,1),%rsi
  4032b7:	f2 0f 10 05 19 b2 00 00     	(move)  	movsd	0xb219(%rip),%xmm0
  4032bf:	f2 0f 59 04 f1              	(arith) 	mulsd	(%rcx,%rsi,8),%xmm0
  4032c4:	f2 0f 58 c8                 	(arith) 	addsd	%xmm0,%xmm1
  4032c8:	83 c0 01                    	(arith) 	add	$0x1,%eax
  4032cb:	4b 8d b4 03 98 2d 28 45     	(arith) 	lea	0x45282d98(%r11,%r8,1),%rsi
  4032d3:	4c 63 c0                    	(move)  	movsxd	%eax,%r8
  4032d6:	4e 8d 84 02 90 09 00 00     	(arith) 	lea	0x990(%rdx,%r8,1),%r8
  4032de:	f2 0f 10 15 ea b1 00 00     	(move)  	movsd	0xb1ea(%rip),%xmm2
  4032e6:	f2 42 0f 59 14 c1           	(arith) 	mulsd	(%rcx,%r8,8),%xmm2
  4032ec:	f2 0f 58 ca                 	(arith) 	addsd	%xmm2,%xmm1
  4032f0:	44 8d 40 01                 	(arith) 	lea	0x1(%rax),%r8d
  4032f4:	4d 63 c0                    	(move)  	movsxd	%r8d,%r8
  4032f7:	4e 8d 84 02 90 09 00 00     	(arith) 	lea	0x990(%rdx,%r8,1),%r8
  4032ff:	f2 42 0f 58 0c c1           	(arith) 	addsd	(%rcx,%r8,8),%xmm1
  403305:	f2 0f 59 cb                 	(arith) 	mulsd	%xmm3,%xmm1
  403309:	f2 0f 10 04 f7              	(move)  	movsd	(%rdi,%rsi,8),%xmm0
  40330e:	f2 0f 5c c1                 	(arith) 	subsd	%xmm1,%xmm0
  403312:	f2 0f 11 04 f7              	(move)  	movsd	%xmm0,(%rdi,%rsi,8)
  403317:	83 c3 01                    	(arith) 	add	$0x1,%ebx
/home/jgarcia/TFG/source_code/SP/exact_rhs.f:111
  40331a:	44 39 e3                    	(arith) 	cmp	%r12d,%ebx
  40331d:	0f 85 57 ff ff ff           	(control)	jne	40327a <exact_rhs_+0x93a>	; ↰ label 323 (loop 66)
; ------- Loop 66 exit
321:	
  403323:	49 83 c3 01                 	(arith) 	add	$0x1,%r11
  403327:	49 81 c5 98 01 00 00        	(arith) 	add	$0x198,%r13
/home/jgarcia/TFG/source_code/SP/exact_rhs.f:110
  40332e:	49 81 fd f8 07 00 00        	(arith) 	cmp	$0x7f8,%r13
  403335:	0f 85 2a ff ff ff           	(control)	jne	403265 <exact_rhs_+0x925>	; ↰ label 320 (loop 63)
; ------- Loop 63 exit
324:	
/home/jgarcia/TFG/source_code/SP/exact_rhs.f:119
  40333b:	8b 0d bf c7 20 00           	(move)  	mov	0x20c7bf(%rip),%ecx
/home/jgarcia/TFG/source_code/SP/exact_rhs.f:122
  403341:	8d 41 fd                    	(arith) 	lea	-0x3(%rcx),%eax
  403344:	48 98                       	(conv)  	cltq
  403346:	48 8d 5c 80 ff              	(arith) 	lea	-0x1(%rax,%rax,4),%rbx
  40334b:	48 03 5c 24 18              	(arith) 	add	0x18(%rsp),%rbx
  403350:	49 8d 1c 1e                 	(arith) 	lea	(%r14,%rbx,1),%rbx
  403354:	f2 0f 10 0d 64 c3 20 00     	(move)  	movsd	0x20c364(%rip),%xmm1
  40335c:	48 8d 83 99 2d 28 45        	(arith) 	lea	0x45282d99(%rbx),%rax
  403363:	48 bf 20 18 94 01 00 00 00 00	(move)  	mov	$0x1941820,%rdi
  40336d:	48 8d 14 c7                 	(arith) 	lea	(%rdi,%rax,8),%rdx
  403371:	48 63 f1                    	(move)  	movsxd	%ecx,%rsi
  403374:	48 8d 04 f5 78 47 61 00     	(arith) 	lea	0x614778(,%rsi,8),%rax
  40337c:	83 e9 02                    	(arith) 	sub	$0x2,%ecx
  40337f:	48 63 c9                    	(move)  	movsxd	%ecx,%rcx
  403382:	48 8d 0c 89                 	(arith) 	lea	(%rcx,%rcx,4),%rcx
  403386:	48 03 4c 24 18              	(arith) 	add	0x18(%rsp),%rcx
  40338b:	49 8d 8c 0e 98 2d 28 45     	(arith) 	lea	0x45282d98(%r14,%rcx,1),%rcx
  403393:	48 8d 3c cf                 	(arith) 	lea	(%rdi,%rcx,8),%rdi
  403397:	48 8d 0c f5 80 47 61 00     	(arith) 	lea	0x614780(,%rsi,8),%rcx
/home/jgarcia/TFG/source_code/SP/exact_rhs.f:5
  40339f:	48 be 10 85 d5 2a 02 00 00 00	(move)  	mov	$0x22ad58510,%rsi
  4033a9:	48 8d 1c de                 	(arith) 	lea	(%rsi,%rbx,8),%rbx
/home/jgarcia/TFG/source_code/SP/exact_rhs.f:122
  4033ad:	f2 0f 10 05 1b b1 00 00     	(move)  	movsd	0xb11b(%rip),%xmm0
  4033b5:	f2 0f 10 35 1b b1 00 00     	(move)  	movsd	0xb11b(%rip),%xmm6
/home/jgarcia/TFG/source_code/SP/exact_rhs.f:125
  4033bd:	f2 0f 10 2d 03 b1 00 00     	(move)  	movsd	0xb103(%rip),%xmm5
; ------- Loop 64 entry
325 (loop 64):	
/home/jgarcia/TFG/source_code/SP/exact_rhs.f:122
  4033c5:	66 0f 28 d8                 	(move)  	movapd	%xmm0,%xmm3
  4033c9:	f2 0f 59 58 08              	(arith) 	mulsd	0x8(%rax),%xmm3
  4033ce:	f2 0f 58 18                 	(arith) 	addsd	(%rax),%xmm3
  4033d2:	66 0f 28 d6                 	(move)  	movapd	%xmm6,%xmm2
  4033d6:	f2 0f 59 50 10              	(arith) 	mulsd	0x10(%rax),%xmm2
  4033db:	f2 0f 58 da                 	(arith) 	addsd	%xmm2,%xmm3
  4033df:	66 0f 28 e0                 	(move)  	movapd	%xmm0,%xmm4
  4033e3:	f2 0f 59 60 18              	(arith) 	mulsd	0x18(%rax),%xmm4
  4033e8:	f2 0f 58 dc                 	(arith) 	addsd	%xmm4,%xmm3
  4033ec:	f2 0f 59 d9                 	(arith) 	mulsd	%xmm1,%xmm3
  4033f0:	f2 0f 10 12                 	(move)  	movsd	(%rdx),%xmm2
  4033f4:	f2 0f 5c d3                 	(arith) 	subsd	%xmm3,%xmm2
  4033f8:	f2 0f 11 12                 	(move)  	movsd	%xmm2,(%rdx)
/home/jgarcia/TFG/source_code/SP/exact_rhs.f:125
  4033fc:	66 0f 28 d8                 	(move)  	movapd	%xmm0,%xmm3
  403400:	f2 0f 59 59 08              	(arith) 	mulsd	0x8(%rcx),%xmm3
  403405:	f2 0f 58 19                 	(arith) 	addsd	(%rcx),%xmm3
  403409:	66 0f 28 e5                 	(move)  	movapd	%xmm5,%xmm4
  40340d:	f2 0f 59 61 10              	(arith) 	mulsd	0x10(%rcx),%xmm4
  403412:	f2 0f 58 dc                 	(arith) 	addsd	%xmm4,%xmm3
  403416:	f2 0f 59 d9                 	(arith) 	mulsd	%xmm1,%xmm3
  40341a:	f2 0f 10 17                 	(move)  	movsd	(%rdi),%xmm2
  40341e:	f2 0f 5c d3                 	(arith) 	subsd	%xmm3,%xmm2
  403422:	f2 0f 11 17                 	(move)  	movsd	%xmm2,(%rdi)
  403426:	48 83 c2 08                 	(arith) 	add	$0x8,%rdx
  40342a:	48 05 c0 0c 00 00           	(arith) 	add	$0xcc0,%rax
  403430:	48 83 c7 08                 	(arith) 	add	$0x8,%rdi
  403434:	48 81 c1 c0 0c 00 00        	(arith) 	add	$0xcc0,%rcx
/home/jgarcia/TFG/source_code/SP/exact_rhs.f:118
  40343b:	48 39 da                    	(arith) 	cmp	%rbx,%rdx
  40343e:	75 85                       	(control)	jne	4033c5 <exact_rhs_+0xa85>	; ↰ label 325 (loop 64)
; ------- Loop 64 exit
326:	
/home/jgarcia/TFG/source_code/SP/exact_rhs.f:38
  403440:	8b bc 24 90 00 00 00        	(move)  	mov	0x90(%rsp),%edi
  403447:	39 7c 24 70                 	(arith) 	cmp	%edi,0x70(%rsp)
  40344b:	74 0a                       	(control)	je	403457 <exact_rhs_+0xb17>	; ↲ label 301
327:	
  40344d:	83 44 24 70 01              	(arith) 	addl	$0x1,0x70(%rsp)
  403452:	e9 9b f6 ff ff              	(control)	jmp	402af2 <exact_rhs_+0x1b2>	; ↰ label 303 (loop 65)
; ------- Loop 65 exit
301:	
/home/jgarcia/TFG/source_code/SP/exact_rhs.f:36
  403457:	44 8b 8c 24 b8 00 00 00     	(move)  	mov	0xb8(%rsp),%r9d
  40345f:	44 39 8c 24 b0 00 00 00     	(arith) 	cmp	%r9d,0xb0(%rsp)
  403467:	74 0d                       	(control)	je	403476 <exact_rhs_+0xb36>	; ↲ label 328
329:	
  403469:	83 84 24 b0 00 00 00 01     	(arith) 	addl	$0x1,0xb0(%rsp)
  403471:	e9 d0 f5 ff ff              	(control)	jmp	402a46 <exact_rhs_+0x106>	; ↰ label 300 (loop 61)
; ------- Loop 61 exit
328:	
/home/jgarcia/TFG/source_code/SP/exact_rhs.f:134
  403476:	8b 05 8c c6 20 00           	(move)  	mov	0x20c68c(%rip),%eax
  40347c:	83 e8 02                    	(arith) 	sub	$0x2,%eax
  40347f:	89 84 24 bc 00 00 00        	(move)  	mov	%eax,0xbc(%rsp)
  403486:	85 c0                       	(arith) 	test	%eax,%eax
  403488:	0f 8e 63 0a 00 00           	(control)	jle	403ef1 <exact_rhs_+0x15b1>	; ↲ label 298
330:	
  40348e:	c7 84 24 b8 00 00 00 01 00 00 00	(move)  	movl	$0x1,0xb8(%rsp)
/home/jgarcia/TFG/source_code/SP/exact_rhs.f:142
  403499:	4c 8d 9c 24 e0 00 00 00     	(arith) 	lea	0xe0(%rsp),%r11
  4034a1:	4c 89 5c 24 28              	(move)  	mov	%r11,0x28(%rsp)
/home/jgarcia/TFG/source_code/SP/exact_rhs.f:5
  4034a6:	4c 89 dd                    	(move)  	mov	%r11,%rbp
  4034a9:	48 83 c5 28                 	(arith) 	add	$0x28,%rbp
; ------- Loop 51 entry
331 (loop 51):	
/home/jgarcia/TFG/source_code/SP/exact_rhs.f:135
  4034ad:	f2 0f 2a 84 24 b8 00 00 00  	(conv)  	cvtsi2sdl	0xb8(%rsp),%xmm0
  4034b6:	f2 0f 59 05 32 c5 20 00     	(arith) 	mulsd	0x20c532(%rip),%xmm0
  4034be:	f2 0f 11 84 24 c8 00 00 00  	(move)  	movsd	%xmm0,0xc8(%rsp)
/home/jgarcia/TFG/source_code/SP/exact_rhs.f:136
  4034c7:	8b 05 33 c6 20 00           	(move)  	mov	0x20c633(%rip),%eax
  4034cd:	83 e8 02                    	(arith) 	sub	$0x2,%eax
  4034d0:	89 84 24 98 00 00 00        	(move)  	mov	%eax,0x98(%rsp)
  4034d7:	85 c0                       	(arith) 	test	%eax,%eax
  4034d9:	0f 8e f3 09 00 00           	(control)	jle	403ed2 <exact_rhs_+0x1592>	; ↲ label 332
333:	
/home/jgarcia/TFG/source_code/SP/exact_rhs.f:165
  4034df:	48 63 84 24 b8 00 00 00     	(move)  	movsxd	0xb8(%rsp),%rax
  4034e7:	48 69 c0 35 c3 0c 00        	(arith) 	imul	$0xcc335,%rax,%rax
  4034ee:	48 89 44 24 18              	(move)  	mov	%rax,0x18(%rsp)
/home/jgarcia/TFG/source_code/SP/exact_rhs.f:170
  4034f3:	48 83 c0 01                 	(arith) 	add	$0x1,%rax
  4034f7:	48 89 84 24 88 00 00 00     	(move)  	mov	%rax,0x88(%rsp)
/home/jgarcia/TFG/source_code/SP/exact_rhs.f:176
  4034ff:	4c 8b 64 24 18              	(move)  	mov	0x18(%rsp),%r12
  403504:	49 83 c4 02                 	(arith) 	add	$0x2,%r12
  403508:	4c 89 a4 24 80 00 00 00     	(move)  	mov	%r12,0x80(%rsp)
/home/jgarcia/TFG/source_code/SP/exact_rhs.f:181
  403510:	4c 8b 6c 24 18              	(move)  	mov	0x18(%rsp),%r13
  403515:	49 83 c5 03                 	(arith) 	add	$0x3,%r13
  403519:	4c 89 6c 24 78              	(move)  	mov	%r13,0x78(%rsp)
/home/jgarcia/TFG/source_code/SP/exact_rhs.f:190
  40351e:	48 8b 44 24 18              	(move)  	mov	0x18(%rsp),%rax
  403523:	48 83 e8 01                 	(arith) 	sub	$0x1,%rax
  403527:	48 89 84 24 b0 00 00 00     	(move)  	mov	%rax,0xb0(%rsp)
/home/jgarcia/TFG/source_code/SP/exact_rhs.f:199
  40352f:	48 8b 54 24 18              	(move)  	mov	0x18(%rsp),%rdx
  403534:	48 81 c2 fc 07 00 00        	(arith) 	add	$0x7fc,%rdx
  40353b:	48 89 94 24 a8 00 00 00     	(move)  	mov	%rdx,0xa8(%rsp)
/home/jgarcia/TFG/source_code/SP/exact_rhs.f:203
  403543:	48 8b 5c 24 18              	(move)  	mov	0x18(%rsp),%rbx
  403548:	48 81 c3 f9 0f 00 00        	(arith) 	add	$0xff9,%rbx
  40354f:	48 89 9c 24 a0 00 00 00     	(move)  	mov	%rbx,0xa0(%rsp)
  403557:	c7 44 24 70 01 00 00 00     	(move)  	movl	$0x1,0x70(%rsp)
; ------- Loop 55 entry
334 (loop 55):	
/home/jgarcia/TFG/source_code/SP/exact_rhs.f:137
  40355f:	f2 0f 2a 44 24 70           	(conv)  	cvtsi2sdl	0x70(%rsp),%xmm0
  403565:	f2 0f 59 05 73 c4 20 00     	(arith) 	mulsd	0x20c473(%rip),%xmm0
  40356d:	f2 0f 11 84 24 d0 00 00 00  	(move)  	movsd	%xmm0,0xd0(%rsp)
/home/jgarcia/TFG/source_code/SP/exact_rhs.f:139
  403576:	44 8b 35 87 c5 20 00        	(move)  	mov	0x20c587(%rip),%r14d
  40357d:	41 83 ee 01                 	(arith) 	sub	$0x1,%r14d
  403581:	0f 88 62 01 00 00           	(control)	js	4036e9 <exact_rhs_+0xda9>	; ↲ label 335
336:	
  403587:	41 bc 00 00 00 00           	(move)  	mov	$0,%r12d
/home/jgarcia/TFG/source_code/SP/exact_rhs.f:140
  40358d:	41 bd e8 f9 60 00           	(move)  	mov	$0x60f9e8,%r13d
/home/jgarcia/TFG/source_code/SP/exact_rhs.f:142
  403593:	4c 8d bc 24 d8 00 00 00     	(arith) 	lea	0xd8(%rsp),%r15
/home/jgarcia/TFG/source_code/SP/exact_rhs.f:146
  40359b:	48 8d bc 24 e0 00 00 00     	(arith) 	lea	0xe0(%rsp),%rdi
  4035a3:	48 83 c7 08                 	(arith) 	add	$0x8,%rdi
  4035a7:	48 89 7c 24 20              	(move)  	mov	%rdi,0x20(%rsp)
/home/jgarcia/TFG/source_code/SP/exact_rhs.f:152
  4035ac:	bb 20 fb 60 00              	(move)  	mov	$0x60fb20,%ebx
; ------- Loop 60 entry
337 (loop 60):	
/home/jgarcia/TFG/source_code/SP/exact_rhs.f:140
  4035b1:	f2 41 0f 2a c4              	(conv)  	cvtsi2sd	%r12d,%xmm0
  4035b6:	f2 41 0f 59 45 00           	(arith) 	mulsd	(%r13),%xmm0
  4035bc:	f2 0f 11 84 24 d8 00 00 00  	(move)  	movsd	%xmm0,0xd8(%rsp)
/home/jgarcia/TFG/source_code/SP/exact_rhs.f:142
  4035c5:	48 8b 4c 24 28              	(move)  	mov	0x28(%rsp),%rcx
  4035ca:	48 8d 94 24 c8 00 00 00     	(arith) 	lea	0xc8(%rsp),%rdx
  4035d2:	4c 89 fe                    	(move)  	mov	%r15,%rsi
  4035d5:	48 8d bc 24 d0 00 00 00     	(arith) 	lea	0xd0(%rsp),%rdi
  4035dd:	b8 00 00 00 00              	(move)  	mov	$0,%eax
  4035e2:	e8 61 f2 ff ff              	(control)	call	402848 <exact_solution_>	; ⇄ exact_solution
338:	
  4035e7:	48 8b 54 24 28              	(move)  	mov	0x28(%rsp),%rdx
/home/jgarcia/TFG/source_code/SP/exact_rhs.f:5
  4035ec:	49 63 c4                    	(move)  	movsxd	%r12d,%rax
  4035ef:	48 8d 0c c5 a0 47 61 00     	(arith) 	lea	0x6147a0(,%rax,8),%rcx
; ------- Loop 58 entry
339 (loop 58):	
/home/jgarcia/TFG/source_code/SP/exact_rhs.f:144
  4035f7:	48 8b 32                    	(move)  	mov	(%rdx),%rsi
  4035fa:	48 89 31                    	(move)  	mov	%rsi,(%rcx)
  4035fd:	48 83 c2 08                 	(arith) 	add	$0x8,%rdx
  403601:	48 81 c1 c0 0c 00 00        	(arith) 	add	$0xcc0,%rcx
/home/jgarcia/TFG/source_code/SP/exact_rhs.f:143
  403608:	48 39 ea                    	(arith) 	cmp	%rbp,%rdx
  40360b:	75 ea                       	(control)	jne	4035f7 <exact_rhs_+0xcb7>	; ↰ label 339 (loop 58)
; ------- Loop 58 exit
340:	
/home/jgarcia/TFG/source_code/SP/exact_rhs.f:146
  40360d:	f2 0f 10 0d 9b ae 00 00     	(move)  	movsd	0xae9b(%rip),%xmm1
  403615:	f2 0f 5e 8c 24 e0 00 00 00  	(arith) 	divsd	0xe0(%rsp),%xmm1
  40361e:	48 8b 54 24 20              	(move)  	mov	0x20(%rsp),%rdx
/home/jgarcia/TFG/source_code/SP/exact_rhs.f:5
  403623:	48 8d b0 98 01 00 00        	(arith) 	lea	0x198(%rax),%rsi
  40362a:	48 8d 0c c5 20 94 61 00     	(arith) 	lea	0x619420(,%rax,8),%rcx
; ------- Loop 59 entry
341 (loop 59):	
/home/jgarcia/TFG/source_code/SP/exact_rhs.f:149
  403632:	f2 0f 10 02                 	(move)  	movsd	(%rdx),%xmm0
  403636:	f2 0f 59 c1                 	(arith) 	mulsd	%xmm1,%xmm0
  40363a:	f2 0f 11 01                 	(move)  	movsd	%xmm0,(%rcx)
  40363e:	48 83 c2 08                 	(arith) 	add	$0x8,%rdx
  403642:	48 81 c1 c0 0c 00 00        	(arith) 	add	$0xcc0,%rcx
/home/jgarcia/TFG/source_code/SP/exact_rhs.f:148
  403649:	48 39 ea                    	(arith) 	cmp	%rbp,%rdx
  40364c:	75 e4                       	(control)	jne	403632 <exact_rhs_+0xcf2>	; ↰ label 341 (loop 59)
; ------- Loop 59 exit
342:	
/home/jgarcia/TFG/source_code/SP/exact_rhs.f:152
  40364e:	48 8d 88 b8 14 00 00        	(arith) 	lea	0x14b8(%rax),%rcx
  403655:	f2 0f 10 0c cb              	(move)  	movsd	(%rbx,%rcx,8),%xmm1
  40365a:	f2 0f 59 c9                 	(arith) 	mulsd	%xmm1,%xmm1
  40365e:	f2 0f 11 8c c3 00 33 00 00  	(move)  	movsd	%xmm1,0x3300(%rbx,%rax,8)
/home/jgarcia/TFG/source_code/SP/exact_rhs.f:154
  403667:	48 8d be 88 11 00 00        	(arith) 	lea	0x1188(%rsi),%rdi
  40366e:	f2 0f 10 14 fb              	(move)  	movsd	(%rbx,%rdi,8),%xmm2
  403673:	48 8d 90 50 16 00 00        	(arith) 	lea	0x1650(%rax),%rdx
  40367a:	f2 0f 10 04 d3              	(move)  	movsd	(%rbx,%rdx,8),%xmm0
  40367f:	f2 0f 59 d2                 	(arith) 	mulsd	%xmm2,%xmm2
  403683:	f2 0f 58 ca                 	(arith) 	addsd	%xmm2,%xmm1
  403687:	f2 0f 59 c0                 	(arith) 	mulsd	%xmm0,%xmm0
  40368b:	f2 0f 58 c1                 	(arith) 	addsd	%xmm1,%xmm0
  40368f:	f2 0f 11 84 c3 40 8c 00 00  	(move)  	movsd	%xmm0,0x8c40(%rbx,%rax,8)
/home/jgarcia/TFG/source_code/SP/exact_rhs.f:156
  403698:	f2 0f 10 0c fb              	(move)  	movsd	(%rbx,%rdi,8),%xmm1
  40369d:	f2 0f 59 8c f3 80 4c 00 00  	(arith) 	mulsd	0x4c80(%rbx,%rsi,8),%xmm1
  4036a6:	f2 0f 10 04 cb              	(move)  	movsd	(%rbx,%rcx,8),%xmm0
  4036ab:	f2 0f 59 84 c3 00 66 00 00  	(arith) 	mulsd	0x6600(%rbx,%rax,8),%xmm0
  4036b4:	f2 0f 58 c1                 	(arith) 	addsd	%xmm1,%xmm0
  4036b8:	f2 0f 10 0c d3              	(move)  	movsd	(%rbx,%rdx,8),%xmm1
  4036bd:	f2 0f 59 8c c3 c0 72 00 00  	(arith) 	mulsd	0x72c0(%rbx,%rax,8),%xmm1
  4036c6:	f2 0f 58 c1                 	(arith) 	addsd	%xmm1,%xmm0
  4036ca:	f2 0f 59 05 e6 ad 00 00     	(arith) 	mulsd	0xade6(%rip),%xmm0
  4036d2:	f2 0f 11 84 c3 c0 3f 00 00  	(move)  	movsd	%xmm0,0x3fc0(%rbx,%rax,8)
/home/jgarcia/TFG/source_code/SP/exact_rhs.f:139
  4036db:	45 39 f4                    	(arith) 	cmp	%r14d,%r12d
  4036de:	74 09                       	(control)	je	4036e9 <exact_rhs_+0xda9>	; ↲ label 335
343:	
  4036e0:	41 83 c4 01                 	(arith) 	add	$0x1,%r12d
  4036e4:	e9 c8 fe ff ff              	(control)	jmp	4035b1 <exact_rhs_+0xc71>	; ↰ label 337 (loop 60)
; ------- Loop 60 exit
335:	
/home/jgarcia/TFG/source_code/SP/exact_rhs.f:159
  4036e9:	8b 05 15 c4 20 00           	(move)  	mov	0x20c415(%rip),%eax
  4036ef:	83 e8 02                    	(arith) 	sub	$0x2,%eax
  4036f2:	89 44 24 20                 	(move)  	mov	%eax,0x20(%rsp)
  4036f6:	85 c0                       	(arith) 	test	%eax,%eax
  4036f8:	0f 8e 9f 04 00 00           	(control)	jle	403b9d <exact_rhs_+0x125d>	; ↲ label 344
345:	
/home/jgarcia/TFG/source_code/SP/exact_rhs.f:165
  4036fe:	48 63 44 24 70              	(move)  	movsxd	0x70(%rsp),%rax
  403703:	4c 8d 3c 80                 	(arith) 	lea	(%rax,%rax,4),%r15
  403707:	f2 0f 10 0d 11 bf 20 00     	(move)  	movsd	0x20bf11(%rip),%xmm1
  40370f:	f2 44 0f 10 3d 50 c2 20 00  	(move)  	movsd	0x20c250(%rip),%xmm15
/home/jgarcia/TFG/source_code/SP/exact_rhs.f:170
  403718:	f2 44 0f 10 15 27 c2 20 00  	(move)  	movsd	0x20c227(%rip),%xmm10
  403721:	f2 0f 10 05 47 c2 20 00     	(move)  	movsd	0x20c247(%rip),%xmm0
  403729:	f2 0f 11 44 24 68           	(move)  	movsd	%xmm0,0x68(%rsp)
/home/jgarcia/TFG/source_code/SP/exact_rhs.f:176
  40372f:	f2 0f 10 15 f1 c2 20 00     	(move)  	movsd	0x20c2f1(%rip),%xmm2
  403737:	f2 0f 10 05 01 c2 20 00     	(move)  	movsd	0x20c201(%rip),%xmm0
  40373f:	f2 0f 11 44 24 60           	(move)  	movsd	%xmm0,0x60(%rsp)
  403745:	f2 0f 10 05 2b c2 20 00     	(move)  	movsd	0x20c22b(%rip),%xmm0
  40374d:	f2 0f 11 44 24 58           	(move)  	movsd	%xmm0,0x58(%rsp)
/home/jgarcia/TFG/source_code/SP/exact_rhs.f:181
  403753:	f2 0f 10 05 25 c2 20 00     	(move)  	movsd	0x20c225(%rip),%xmm0
  40375b:	f2 0f 11 44 24 50           	(move)  	movsd	%xmm0,0x50(%rsp)
/home/jgarcia/TFG/source_code/SP/exact_rhs.f:190
  403761:	48 8d 44 80 05              	(arith) 	lea	0x5(%rax,%rax,4),%rax
  403766:	48 03 84 24 b0 00 00 00     	(arith) 	add	0xb0(%rsp),%rax
  40376e:	48 89 44 24 30              	(move)  	mov	%rax,0x30(%rsp)
  403773:	f2 44 0f 10 0d a4 c2 20 00  	(move)  	movsd	0x20c2a4(%rip),%xmm9
  40377c:	f2 44 0f 10 35 33 ad 00 00  	(move)  	movsd	0xad33(%rip),%xmm14
  403785:	f2 44 0f 59 35 c2 c1 20 00  	(arith) 	mulsd	0x20c1c2(%rip),%xmm14
  40378e:	f2 0f 10 05 c2 c1 20 00     	(move)  	movsd	0x20c1c2(%rip),%xmm0
  403796:	f2 0f 11 44 24 48           	(move)  	movsd	%xmm0,0x48(%rsp)
  40379c:	f2 0f 10 05 bc c1 20 00     	(move)  	movsd	0x20c1bc(%rip),%xmm0
  4037a4:	f2 0f 11 44 24 40           	(move)  	movsd	%xmm0,0x40(%rsp)
  4037aa:	f2 0f 10 05 d6 c1 20 00     	(move)  	movsd	0x20c1d6(%rip),%xmm0
  4037b2:	f2 0f 11 44 24 38           	(move)  	movsd	%xmm0,0x38(%rsp)
  4037b8:	41 ba 00 00 00 00           	(move)  	mov	$0,%r10d
  4037be:	ba 01 00 00 00              	(move)  	mov	$0x1,%edx
/home/jgarcia/TFG/source_code/SP/exact_rhs.f:165
  4037c3:	48 be 20 18 94 01 00 00 00 00	(move)  	mov	$0x1941820,%rsi
  4037cd:	b8 20 fb 60 00              	(move)  	mov	$0x60fb20,%eax
  4037d2:	f2 0f 10 05 e6 ac 00 00     	(move)  	movsd	0xace6(%rip),%xmm0
  4037da:	48 89 ac 24 90 00 00 00     	(move)  	mov	%rbp,0x90(%rsp)
; ------- Loop 57 entry
346 (loop 57):	
/home/jgarcia/TFG/source_code/SP/exact_rhs.f:161
  4037e2:	44 8d 72 01                 	(arith) 	lea	0x1(%rdx),%r14d
/home/jgarcia/TFG/source_code/SP/exact_rhs.f:165
  4037e6:	48 63 d2                    	(move)  	movsxd	%edx,%rdx
  4037e9:	48 89 d1                    	(move)  	mov	%rdx,%rcx
  4037ec:	48 c1 e1 09                 	(logic) 	sal	$0x9,%rcx
  4037f0:	48 29 d1                    	(arith) 	sub	%rdx,%rcx
  4037f3:	4c 8d 24 8a                 	(arith) 	lea	(%rdx,%rcx,4),%r12
  4037f7:	4f 8d 04 3c                 	(arith) 	lea	(%r12,%r15,1),%r8
  4037fb:	49 63 de                    	(move)  	movsxd	%r14d,%rbx
  4037fe:	49 63 ca                    	(move)  	movsxd	%r10d,%rcx
  403801:	4c 8b 4c 24 18              	(move)  	mov	0x18(%rsp),%r9
  403806:	4b 8d bc 01 98 2d 28 45     	(arith) 	lea	0x45282d98(%r9,%r8,1),%rdi
  40380e:	4c 8d 89 c0 0c 00 00        	(arith) 	lea	0xcc0(%rcx),%r9
  403815:	f2 0f 10 ac d8 00 66 00 00  	(move)  	movsd	0x6600(%rax,%rbx,8),%xmm5
  40381e:	66 0f 28 f5                 	(move)  	movapd	%xmm5,%xmm6
  403822:	f2 42 0f 5c 34 c8           	(arith) 	subsd	(%rax,%r9,8),%xmm6
  403828:	f2 0f 59 f1                 	(arith) 	mulsd	%xmm1,%xmm6
  40382c:	f2 0f 10 24 fe              	(move)  	movsd	(%rsi,%rdi,8),%xmm4
  403831:	f2 0f 5c e6                 	(arith) 	subsd	%xmm6,%xmm4
  403835:	66 0f 28 d8                 	(move)  	movapd	%xmm0,%xmm3
  403839:	f2 0f 59 9c d0 80 4c 00 00  	(arith) 	mulsd	0x4c80(%rax,%rdx,8),%xmm3
  403842:	f2 0f 58 9c d8 80 4c 00 00  	(arith) 	addsd	0x4c80(%rax,%rbx,8),%xmm3
  40384b:	f2 0f 58 9c c8 80 4c 00 00  	(arith) 	addsd	0x4c80(%rax,%rcx,8),%xmm3
  403854:	f2 41 0f 59 df              	(arith) 	mulsd	%xmm15,%xmm3
  403859:	f2 0f 58 dc                 	(arith) 	addsd	%xmm4,%xmm3
  40385d:	f2 0f 11 1c fe              	(move)  	movsd	%xmm3,(%rsi,%rdi,8)
/home/jgarcia/TFG/source_code/SP/exact_rhs.f:170
  403862:	f2 0f 10 a4 d8 40 59 00 00  	(move)  	movsd	0x5940(%rax,%rbx,8),%xmm4
  40386b:	f2 0f 10 9c c8 40 59 00 00  	(move)  	movsd	0x5940(%rax,%rcx,8),%xmm3
  403874:	4c 8b ac 24 88 00 00 00     	(move)  	mov	0x88(%rsp),%r13
  40387c:	4f 8d 9c 05 98 2d 28 45     	(arith) 	lea	0x45282d98(%r13,%r8,1),%r11
  403884:	48 8d ab b8 14 00 00        	(arith) 	lea	0x14b8(%rbx),%rbp
  40388b:	66 0f 28 fc                 	(move)  	movapd	%xmm4,%xmm7
  40388f:	f2 0f 59 3c e8              	(arith) 	mulsd	(%rax,%rbp,8),%xmm7
  403894:	48 8d b9 b8 14 00 00        	(arith) 	lea	0x14b8(%rcx),%rdi
  40389b:	66 44 0f 28 c3              	(move)  	movapd	%xmm3,%xmm8
  4038a0:	f2 44 0f 59 04 f8           	(arith) 	mulsd	(%rax,%rdi,8),%xmm8
  4038a6:	f2 41 0f 5c f8              	(arith) 	subsd	%xmm8,%xmm7
  4038ab:	f2 0f 59 f9                 	(arith) 	mulsd	%xmm1,%xmm7
  4038af:	f2 42 0f 10 34 de           	(move)  	movsd	(%rsi,%r11,8),%xmm6
  4038b5:	f2 0f 5c f7                 	(arith) 	subsd	%xmm7,%xmm6
  4038b9:	66 0f 28 f8                 	(move)  	movapd	%xmm0,%xmm7
  4038bd:	f2 0f 59 bc d0 00 99 00 00  	(arith) 	mulsd	0x9900(%rax,%rdx,8),%xmm7
  4038c6:	f2 0f 58 bc d8 00 99 00 00  	(arith) 	addsd	0x9900(%rax,%rbx,8),%xmm7
  4038cf:	f2 0f 58 bc c8 00 99 00 00  	(arith) 	addsd	0x9900(%rax,%rcx,8),%xmm7
  4038d8:	f2 41 0f 59 fa              	(arith) 	mulsd	%xmm10,%xmm7
  4038dd:	f2 0f 58 f7                 	(arith) 	addsd	%xmm7,%xmm6
  4038e1:	66 0f 28 f8                 	(move)  	movapd	%xmm0,%xmm7
  4038e5:	f2 0f 59 bc d0 40 59 00 00  	(arith) 	mulsd	0x5940(%rax,%rdx,8),%xmm7
  4038ee:	f2 0f 58 e7                 	(arith) 	addsd	%xmm7,%xmm4
  4038f2:	f2 0f 58 e3                 	(arith) 	addsd	%xmm3,%xmm4
  4038f6:	f2 0f 59 64 24 68           	(arith) 	mulsd	0x68(%rsp),%xmm4
  4038fc:	f2 0f 58 e6                 	(arith) 	addsd	%xmm6,%xmm4
  403900:	f2 42 0f 11 24 de           	(move)  	movsd	%xmm4,(%rsi,%r11,8)
/home/jgarcia/TFG/source_code/SP/exact_rhs.f:176
  403906:	f2 44 0f 10 04 e8           	(move)  	movsd	(%rax,%rbp,8),%xmm8
  40390c:	f2 42 0f 10 34 c8           	(move)  	movsd	(%rax,%r9,8),%xmm6
  403912:	f2 0f 10 3c f8              	(move)  	movsd	(%rax,%rdi,8),%xmm7
  403917:	4c 8b 8c 24 80 00 00 00     	(move)  	mov	0x80(%rsp),%r9
  40391f:	4f 8d ac 01 98 2d 28 45     	(arith) 	lea	0x45282d98(%r9,%r8,1),%r13
  403927:	66 0f 28 dd                 	(move)  	movapd	%xmm5,%xmm3
  40392b:	f2 41 0f 59 d8              	(arith) 	mulsd	%xmm8,%xmm3
  403930:	4c 8d 9b f8 07 00 00        	(arith) 	lea	0x7f8(%rbx),%r11
  403937:	f2 0f 10 a4 d8 80 7f 00 00  	(move)  	movsd	0x7f80(%rax,%rbx,8),%xmm4
  403940:	66 44 0f 28 dc              	(move)  	movapd	%xmm4,%xmm11
  403945:	f2 46 0f 5c 1c d8           	(arith) 	subsd	(%rax,%r11,8),%xmm11
  40394b:	f2 44 0f 59 da              	(arith) 	mulsd	%xmm2,%xmm11
  403950:	f2 44 0f 58 db              	(arith) 	addsd	%xmm3,%xmm11
  403955:	66 44 0f 28 ee              	(move)  	movapd	%xmm6,%xmm13
  40395a:	f2 44 0f 59 ef              	(arith) 	mulsd	%xmm7,%xmm13
  40395f:	4c 8d 89 f8 07 00 00        	(arith) 	lea	0x7f8(%rcx),%r9
  403966:	f2 0f 10 9c c8 80 7f 00 00  	(move)  	movsd	0x7f80(%rax,%rcx,8),%xmm3
  40396f:	66 44 0f 28 e3              	(move)  	movapd	%xmm3,%xmm12
  403974:	f2 46 0f 5c 24 c8           	(arith) 	subsd	(%rax,%r9,8),%xmm12
  40397a:	f2 44 0f 59 e2              	(arith) 	mulsd	%xmm2,%xmm12
  40397f:	f2 45 0f 58 e5              	(arith) 	addsd	%xmm13,%xmm12
  403984:	f2 45 0f 5c dc              	(arith) 	subsd	%xmm12,%xmm11
  403989:	66 44 0f 28 e1              	(move)  	movapd	%xmm1,%xmm12
  40398e:	f2 45 0f 59 e3              	(arith) 	mulsd	%xmm11,%xmm12
  403993:	f2 46 0f 10 1c ee           	(move)  	movsd	(%rsi,%r13,8),%xmm11
  403999:	f2 45 0f 5c dc              	(arith) 	subsd	%xmm12,%xmm11
  40399e:	66 44 0f 28 e0              	(move)  	movapd	%xmm0,%xmm12
  4039a3:	f2 44 0f 59 a4 d0 c0 a5 00 00	(arith) 	mulsd	0xa5c0(%rax,%rdx,8),%xmm12
  4039ad:	f2 45 0f 58 c4              	(arith) 	addsd	%xmm12,%xmm8
  4039b2:	f2 44 0f 58 c7              	(arith) 	addsd	%xmm7,%xmm8
  4039b7:	f2 44 0f 59 44 24 60        	(arith) 	mulsd	0x60(%rsp),%xmm8
  4039be:	f2 45 0f 58 d8              	(arith) 	addsd	%xmm8,%xmm11
  4039c3:	66 0f 28 f8                 	(move)  	movapd	%xmm0,%xmm7
  4039c7:	f2 0f 59 bc d0 00 66 00 00  	(arith) 	mulsd	0x6600(%rax,%rdx,8),%xmm7
  4039d0:	f2 0f 58 ef                 	(arith) 	addsd	%xmm7,%xmm5
  4039d4:	f2 0f 58 ee                 	(arith) 	addsd	%xmm6,%xmm5
  4039d8:	f2 0f 59 6c 24 58           	(arith) 	mulsd	0x58(%rsp),%xmm5
  4039de:	f2 44 0f 58 dd              	(arith) 	addsd	%xmm5,%xmm11
  4039e3:	f2 46 0f 11 1c ee           	(move)  	movsd	%xmm11,(%rsi,%r13,8)
/home/jgarcia/TFG/source_code/SP/exact_rhs.f:181
  4039e9:	f2 0f 10 b4 d8 c0 72 00 00  	(move)  	movsd	0x72c0(%rax,%rbx,8),%xmm6
  4039f2:	f2 0f 10 ac c8 c0 72 00 00  	(move)  	movsd	0x72c0(%rax,%rcx,8),%xmm5
  4039fb:	4c 8b 6c 24 78              	(move)  	mov	0x78(%rsp),%r13
  403a00:	4f 8d 84 05 98 2d 28 45     	(arith) 	lea	0x45282d98(%r13,%r8,1),%r8
  403a08:	66 44 0f 28 c6              	(move)  	movapd	%xmm6,%xmm8
  403a0d:	f2 44 0f 59 04 e8           	(arith) 	mulsd	(%rax,%rbp,8),%xmm8
  403a13:	66 44 0f 28 dd              	(move)  	movapd	%xmm5,%xmm11
  403a18:	f2 44 0f 59 1c f8           	(arith) 	mulsd	(%rax,%rdi,8),%xmm11
  403a1e:	f2 45 0f 5c c3              	(arith) 	subsd	%xmm11,%xmm8
  403a23:	f2 44 0f 59 c1              	(arith) 	mulsd	%xmm1,%xmm8
  403a28:	f2 42 0f 10 3c c6           	(move)  	movsd	(%rsi,%r8,8),%xmm7
  403a2e:	f2 41 0f 5c f8              	(arith) 	subsd	%xmm8,%xmm7
  403a33:	66 44 0f 28 c0              	(move)  	movapd	%xmm0,%xmm8
  403a38:	f2 44 0f 59 84 d0 80 b2 00 00	(arith) 	mulsd	0xb280(%rax,%rdx,8),%xmm8
  403a42:	f2 44 0f 58 84 d8 80 b2 00 00	(arith) 	addsd	0xb280(%rax,%rbx,8),%xmm8
  403a4c:	f2 44 0f 58 84 c8 80 b2 00 00	(arith) 	addsd	0xb280(%rax,%rcx,8),%xmm8
  403a56:	f2 45 0f 59 c2              	(arith) 	mulsd	%xmm10,%xmm8
  403a5b:	f2 41 0f 58 f8              	(arith) 	addsd	%xmm8,%xmm7
  403a60:	66 44 0f 28 c0              	(move)  	movapd	%xmm0,%xmm8
  403a65:	f2 44 0f 59 84 d0 c0 72 00 00	(arith) 	mulsd	0x72c0(%rax,%rdx,8),%xmm8
  403a6f:	f2 41 0f 58 f0              	(arith) 	addsd	%xmm8,%xmm6
  403a74:	f2 0f 58 f5                 	(arith) 	addsd	%xmm5,%xmm6
  403a78:	f2 0f 59 74 24 50           	(arith) 	mulsd	0x50(%rsp),%xmm6
  403a7e:	f2 0f 58 f7                 	(arith) 	addsd	%xmm7,%xmm6
  403a82:	f2 42 0f 11 34 c6           	(move)  	movsd	%xmm6,(%rsi,%r8,8)
/home/jgarcia/TFG/source_code/SP/exact_rhs.f:190
  403a88:	4c 8b 6c 24 30              	(move)  	mov	0x30(%rsp),%r13
  403a8d:	4f 8d 84 25 98 2d 28 45     	(arith) 	lea	0x45282d98(%r13,%r12,1),%r8
  403a95:	66 0f 28 ec                 	(move)  	movapd	%xmm4,%xmm5
  403a99:	f2 41 0f 59 e9              	(arith) 	mulsd	%xmm9,%xmm5
  403a9e:	66 0f 28 f2                 	(move)  	movapd	%xmm2,%xmm6
  403aa2:	f2 42 0f 59 34 d8           	(arith) 	mulsd	(%rax,%r11,8),%xmm6
  403aa8:	f2 0f 5c ee                 	(arith) 	subsd	%xmm6,%xmm5
  403aac:	f2 0f 59 2c e8              	(arith) 	mulsd	(%rax,%rbp,8),%xmm5
  403ab1:	66 41 0f 28 f9              	(move)  	movapd	%xmm9,%xmm7
  403ab6:	f2 0f 59 fb                 	(arith) 	mulsd	%xmm3,%xmm7
  403aba:	66 0f 28 f2                 	(move)  	movapd	%xmm2,%xmm6
  403abe:	f2 42 0f 59 34 c8           	(arith) 	mulsd	(%rax,%r9,8),%xmm6
  403ac4:	f2 0f 5c fe                 	(arith) 	subsd	%xmm6,%xmm7
  403ac8:	f2 0f 59 3c f8              	(arith) 	mulsd	(%rax,%rdi,8),%xmm7
  403acd:	f2 0f 5c ef                 	(arith) 	subsd	%xmm7,%xmm5
  403ad1:	66 0f 28 f1                 	(move)  	movapd	%xmm1,%xmm6
  403ad5:	f2 0f 59 f5                 	(arith) 	mulsd	%xmm5,%xmm6
  403ad9:	f2 42 0f 10 2c c6           	(move)  	movsd	(%rsi,%r8,8),%xmm5
  403adf:	f2 0f 5c ee                 	(arith) 	subsd	%xmm6,%xmm5
  403ae3:	66 0f 28 f0                 	(move)  	movapd	%xmm0,%xmm6
  403ae7:	f2 0f 59 b4 d0 40 8c 00 00  	(arith) 	mulsd	0x8c40(%rax,%rdx,8),%xmm6
  403af0:	f2 0f 58 b4 d8 40 8c 00 00  	(arith) 	addsd	0x8c40(%rax,%rbx,8),%xmm6
  403af9:	f2 0f 58 b4 c8 40 8c 00 00  	(arith) 	addsd	0x8c40(%rax,%rcx,8),%xmm6
  403b02:	f2 41 0f 59 f6              	(arith) 	mulsd	%xmm14,%xmm6
  403b07:	f2 0f 58 ee                 	(arith) 	addsd	%xmm6,%xmm5
  403b0b:	66 0f 28 f0                 	(move)  	movapd	%xmm0,%xmm6
  403b0f:	f2 0f 59 b4 d0 00 33 00 00  	(arith) 	mulsd	0x3300(%rax,%rdx,8),%xmm6
  403b18:	f2 0f 58 b4 d8 00 33 00 00  	(arith) 	addsd	0x3300(%rax,%rbx,8),%xmm6
  403b21:	f2 0f 58 b4 c8 00 33 00 00  	(arith) 	addsd	0x3300(%rax,%rcx,8),%xmm6
  403b2a:	f2 0f 59 74 24 48           	(arith) 	mulsd	0x48(%rsp),%xmm6
  403b30:	f2 0f 58 ee                 	(arith) 	addsd	%xmm6,%xmm5
  403b34:	66 0f 28 f0                 	(move)  	movapd	%xmm0,%xmm6
  403b38:	f2 0f 59 b4 d0 40 bf 00 00  	(arith) 	mulsd	0xbf40(%rax,%rdx,8),%xmm6
  403b41:	f2 0f 58 b4 d8 40 bf 00 00  	(arith) 	addsd	0xbf40(%rax,%rbx,8),%xmm6
  403b4a:	f2 0f 58 b4 c8 40 bf 00 00  	(arith) 	addsd	0xbf40(%rax,%rcx,8),%xmm6
  403b53:	f2 0f 59 74 24 40           	(arith) 	mulsd	0x40(%rsp),%xmm6
  403b59:	f2 0f 58 ee                 	(arith) 	addsd	%xmm6,%xmm5
  403b5d:	66 0f 28 f0                 	(move)  	movapd	%xmm0,%xmm6
  403b61:	f2 0f 59 b4 d0 80 7f 00 00  	(arith) 	mulsd	0x7f80(%rax,%rdx,8),%xmm6
  403b6a:	f2 0f 58 e6                 	(arith) 	addsd	%xmm6,%xmm4
  403b6e:	f2 0f 58 e3                 	(arith) 	addsd	%xmm3,%xmm4
  403b72:	f2 0f 59 64 24 38           	(arith) 	mulsd	0x38(%rsp),%xmm4
  403b78:	f2 0f 58 ec                 	(arith) 	addsd	%xmm4,%xmm5
  403b7c:	f2 42 0f 11 2c c6           	(move)  	movsd	%xmm5,(%rsi,%r8,8)
  403b82:	41 83 c2 01                 	(arith) 	add	$0x1,%r10d
/home/jgarcia/TFG/source_code/SP/exact_rhs.f:159
  403b86:	44 3b 54 24 20              	(arith) 	cmp	0x20(%rsp),%r10d
  403b8b:	74 08                       	(control)	je	403b95 <exact_rhs_+0x1255>	; ↲ label 347
348:	
  403b8d:	44 89 f2                    	(move)  	mov	%r14d,%edx
  403b90:	e9 4d fc ff ff              	(control)	jmp	4037e2 <exact_rhs_+0xea2>	; ↰ label 346 (loop 57)
; ------- Loop 57 exit
347:	
  403b95:	48 8b ac 24 90 00 00 00     	(move)  	mov	0x90(%rsp),%rbp
344:	
/home/jgarcia/TFG/source_code/SP/exact_rhs.f:199
  403b9d:	48 63 44 24 70              	(move)  	movsxd	0x70(%rsp),%rax
  403ba2:	4c 8d 34 80                 	(arith) 	lea	(%rax,%rax,4),%r14
  403ba6:	f2 0f 10 0d 12 bb 20 00     	(move)  	movsd	0x20bb12(%rip),%xmm1
  403bae:	48 8b 84 24 a8 00 00 00     	(move)  	mov	0xa8(%rsp),%rax
  403bb6:	4a 8d 94 30 99 2d 28 45     	(arith) 	lea	0x45282d99(%rax,%r14,1),%rdx
  403bbe:	48 b8 20 18 94 01 00 00 00 00	(move)  	mov	$0x1941820,%rax
  403bc8:	48 8d 0c d0                 	(arith) 	lea	(%rax,%rdx,8),%rcx
  403bcc:	48 8b 9c 24 a0 00 00 00     	(move)  	mov	0xa0(%rsp),%rbx
  403bd4:	4a 8d 94 33 99 2d 28 45     	(arith) 	lea	0x45282d99(%rbx,%r14,1),%rdx
  403bdc:	48 8d 14 d0                 	(arith) 	lea	(%rax,%rdx,8),%rdx
  403be0:	b8 00 00 00 00              	(move)  	mov	$0,%eax
  403be5:	bf a8 47 61 00              	(move)  	mov	$0x6147a8,%edi
  403bea:	f2 0f 10 2d d6 a8 00 00     	(move)  	movsd	0xa8d6(%rip),%xmm5
  403bf2:	be b0 47 61 00              	(move)  	mov	$0x6147b0,%esi
  403bf7:	f2 0f 10 05 d1 a8 00 00     	(move)  	movsd	0xa8d1(%rip),%xmm0
  403bff:	bb b8 47 61 00              	(move)  	mov	$0x6147b8,%ebx
/home/jgarcia/TFG/source_code/SP/exact_rhs.f:203
  403c04:	f2 0f 10 25 cc a8 00 00     	(move)  	movsd	0xa8cc(%rip),%xmm4
  403c0c:	41 b8 c0 47 61 00           	(move)  	mov	$0x6147c0,%r8d
; ------- Loop 52 entry
349 (loop 52):	
/home/jgarcia/TFG/source_code/SP/exact_rhs.f:199
  403c12:	66 0f 28 dd                 	(move)  	movapd	%xmm5,%xmm3
  403c16:	f2 0f 59 1c 07              	(arith) 	mulsd	(%rdi,%rax,1),%xmm3
  403c1b:	66 0f 28 d0                 	(move)  	movapd	%xmm0,%xmm2
  403c1f:	f2 0f 59 14 06              	(arith) 	mulsd	(%rsi,%rax,1),%xmm2
  403c24:	f2 0f 58 da                 	(arith) 	addsd	%xmm2,%xmm3
  403c28:	f2 0f 58 1c 03              	(arith) 	addsd	(%rbx,%rax,1),%xmm3
  403c2d:	f2 0f 59 d9                 	(arith) 	mulsd	%xmm1,%xmm3
  403c31:	f2 0f 10 11                 	(move)  	movsd	(%rcx),%xmm2
  403c35:	f2 0f 5c d3                 	(arith) 	subsd	%xmm3,%xmm2
  403c39:	f2 0f 11 11                 	(move)  	movsd	%xmm2,(%rcx)
/home/jgarcia/TFG/source_code/SP/exact_rhs.f:203
  403c3d:	66 0f 28 d8                 	(move)  	movapd	%xmm0,%xmm3
  403c41:	f2 0f 59 1c 07              	(arith) 	mulsd	(%rdi,%rax,1),%xmm3
  403c46:	66 0f 28 d4                 	(move)  	movapd	%xmm4,%xmm2
  403c4a:	f2 0f 59 14 06              	(arith) 	mulsd	(%rsi,%rax,1),%xmm2
  403c4f:	f2 0f 58 da                 	(arith) 	addsd	%xmm2,%xmm3
  403c53:	66 0f 28 d0                 	(move)  	movapd	%xmm0,%xmm2
  403c57:	f2 0f 59 14 03              	(arith) 	mulsd	(%rbx,%rax,1),%xmm2
  403c5c:	f2 0f 58 da                 	(arith) 	addsd	%xmm2,%xmm3
  403c60:	f2 41 0f 58 1c 00           	(arith) 	addsd	(%r8,%rax,1),%xmm3
  403c66:	f2 0f 59 d9                 	(arith) 	mulsd	%xmm1,%xmm3
  403c6a:	f2 0f 10 12                 	(move)  	movsd	(%rdx),%xmm2
  403c6e:	f2 0f 5c d3                 	(arith) 	subsd	%xmm3,%xmm2
  403c72:	f2 0f 11 12                 	(move)  	movsd	%xmm2,(%rdx)
  403c76:	48 83 c1 08                 	(arith) 	add	$0x8,%rcx
  403c7a:	48 05 c0 0c 00 00           	(arith) 	add	$0xcc0,%rax
  403c80:	48 83 c2 08                 	(arith) 	add	$0x8,%rdx
/home/jgarcia/TFG/source_code/SP/exact_rhs.f:196
  403c84:	48 3d c0 3f 00 00           	(arith) 	cmp	$0x3fc0,%rax
  403c8a:	75 86                       	(control)	jne	403c12 <exact_rhs_+0x12d2>	; ↰ label 349 (loop 52)
; ------- Loop 52 exit
350:	
/home/jgarcia/TFG/source_code/SP/exact_rhs.f:207
  403c8c:	44 8b 25 71 be 20 00        	(move)  	mov	0x20be71(%rip),%r12d
  403c93:	41 83 ec 04                 	(arith) 	sub	$0x4,%r12d
/home/jgarcia/TFG/source_code/SP/exact_rhs.f:210
  403c97:	f2 0f 10 1d 21 ba 20 00     	(move)  	movsd	0x20ba21(%rip),%xmm3
  403c9f:	4c 8b 5c 24 18              	(move)  	mov	0x18(%rsp),%r11
  403ca4:	4d 01 f3                    	(arith) 	add	%r14,%r11
  403ca7:	41 bd 00 00 00 00           	(move)  	mov	$0,%r13d
/home/jgarcia/TFG/source_code/SP/exact_rhs.f:207
  403cad:	41 bf 02 00 00 00           	(move)  	mov	$0x2,%r15d
/home/jgarcia/TFG/source_code/SP/exact_rhs.f:210
  403cb3:	b9 20 fb 60 00              	(move)  	mov	$0x60fb20,%ecx
  403cb8:	48 bf 20 18 94 01 00 00 00 00	(move)  	mov	$0x1941820,%rdi
; ------- Loop 53 entry
351 (loop 53):	
/home/jgarcia/TFG/source_code/SP/exact_rhs.f:207
  403cc2:	41 83 fc 02                 	(arith) 	cmp	$0x2,%r12d
  403cc6:	0f 8e be 00 00 00           	(control)	jle	403d8a <exact_rhs_+0x144a>	; ↲ label 352
353:	
  403ccc:	4c 89 ea                    	(move)  	mov	%r13,%rdx
  403ccf:	44 89 fe                    	(move)  	mov	%r15d,%esi
  403cd2:	b8 03 00 00 00              	(move)  	mov	$0x3,%eax
; ------- Loop 56 entry
354 (loop 56):	
/home/jgarcia/TFG/source_code/SP/exact_rhs.f:210
  403cd7:	48 63 d8                    	(move)  	movsxd	%eax,%rbx
  403cda:	49 89 d8                    	(move)  	mov	%rbx,%r8
  403cdd:	49 c1 e0 09                 	(logic) 	sal	$0x9,%r8
  403ce1:	49 29 d8                    	(arith) 	sub	%rbx,%r8
  403ce4:	4e 8d 04 83                 	(arith) 	lea	(%rbx,%r8,4),%r8
  403ce8:	44 8d 48 fe                 	(arith) 	lea	-0x2(%rax),%r9d
  403cec:	4d 63 c9                    	(move)  	movsxd	%r9d,%r9
  403cef:	4e 8d 8c 0a 90 09 00 00     	(arith) 	lea	0x990(%rdx,%r9,1),%r9
  403cf7:	4c 63 d6                    	(move)  	movsxd	%esi,%r10
  403cfa:	4e 8d 94 12 90 09 00 00     	(arith) 	lea	0x990(%rdx,%r10,1),%r10
  403d02:	f2 0f 10 0d c6 a7 00 00     	(move)  	movsd	0xa7c6(%rip),%xmm1
  403d0a:	f2 42 0f 59 0c d1           	(arith) 	mulsd	(%rcx,%r10,8),%xmm1
  403d10:	f2 42 0f 58 0c c9           	(arith) 	addsd	(%rcx,%r9,8),%xmm1
  403d16:	48 8d 9c 13 90 09 00 00     	(arith) 	lea	0x990(%rbx,%rdx,1),%rbx
  403d1e:	f2 0f 10 05 b2 a7 00 00     	(move)  	movsd	0xa7b2(%rip),%xmm0
  403d26:	f2 0f 59 04 d9              	(arith) 	mulsd	(%rcx,%rbx,8),%xmm0
  403d2b:	f2 0f 58 c8                 	(arith) 	addsd	%xmm0,%xmm1
  403d2f:	83 c0 01                    	(arith) 	add	$0x1,%eax
  403d32:	4b 8d 9c 03 98 2d 28 45     	(arith) 	lea	0x45282d98(%r11,%r8,1),%rbx
  403d3a:	4c 63 c0                    	(move)  	movsxd	%eax,%r8
  403d3d:	4e 8d 84 02 90 09 00 00     	(arith) 	lea	0x990(%rdx,%r8,1),%r8
  403d45:	f2 0f 10 15 83 a7 00 00     	(move)  	movsd	0xa783(%rip),%xmm2
  403d4d:	f2 42 0f 59 14 c1           	(arith) 	mulsd	(%rcx,%r8,8),%xmm2
  403d53:	f2 0f 58 ca                 	(arith) 	addsd	%xmm2,%xmm1
  403d57:	44 8d 40 01                 	(arith) 	lea	0x1(%rax),%r8d
  403d5b:	4d 63 c0                    	(move)  	movsxd	%r8d,%r8
  403d5e:	4e 8d 84 02 90 09 00 00     	(arith) 	lea	0x990(%rdx,%r8,1),%r8
  403d66:	f2 42 0f 58 0c c1           	(arith) 	addsd	(%rcx,%r8,8),%xmm1
  403d6c:	f2 0f 59 cb                 	(arith) 	mulsd	%xmm3,%xmm1
  403d70:	f2 0f 10 04 df              	(move)  	movsd	(%rdi,%rbx,8),%xmm0
  403d75:	f2 0f 5c c1                 	(arith) 	subsd	%xmm1,%xmm0
  403d79:	f2 0f 11 04 df              	(move)  	movsd	%xmm0,(%rdi,%rbx,8)
  403d7e:	83 c6 01                    	(arith) 	add	$0x1,%esi
/home/jgarcia/TFG/source_code/SP/exact_rhs.f:207
  403d81:	44 39 e6                    	(arith) 	cmp	%r12d,%esi
  403d84:	0f 85 4d ff ff ff           	(control)	jne	403cd7 <exact_rhs_+0x1397>	; ↰ label 354 (loop 56)
; ------- Loop 56 exit
352:	
  403d8a:	49 83 c3 01                 	(arith) 	add	$0x1,%r11
  403d8e:	49 81 c5 98 01 00 00        	(arith) 	add	$0x198,%r13
/home/jgarcia/TFG/source_code/SP/exact_rhs.f:206
  403d95:	49 81 fd f8 07 00 00        	(arith) 	cmp	$0x7f8,%r13
  403d9c:	0f 85 20 ff ff ff           	(control)	jne	403cc2 <exact_rhs_+0x1382>	; ↰ label 351 (loop 53)
; ------- Loop 53 exit
355:	
/home/jgarcia/TFG/source_code/SP/exact_rhs.f:215
  403da2:	8b 0d 5c bd 20 00           	(move)  	mov	0x20bd5c(%rip),%ecx
/home/jgarcia/TFG/source_code/SP/exact_rhs.f:218
  403da8:	8d 41 fd                    	(arith) 	lea	-0x3(%rcx),%eax
  403dab:	48 98                       	(conv)  	cltq
  403dad:	48 89 c2                    	(move)  	mov	%rax,%rdx
  403db0:	48 c1 e2 09                 	(logic) 	sal	$0x9,%rdx
  403db4:	48 29 c2                    	(arith) 	sub	%rax,%rdx
  403db7:	48 8d 5c 90 ff              	(arith) 	lea	-0x1(%rax,%rdx,4),%rbx
  403dbc:	48 03 5c 24 18              	(arith) 	add	0x18(%rsp),%rbx
  403dc1:	49 8d 1c 1e                 	(arith) 	lea	(%r14,%rbx,1),%rbx
  403dc5:	f2 0f 10 0d f3 b8 20 00     	(move)  	movsd	0x20b8f3(%rip),%xmm1
  403dcd:	48 8d 83 99 2d 28 45        	(arith) 	lea	0x45282d99(%rbx),%rax
  403dd4:	48 bf 20 18 94 01 00 00 00 00	(move)  	mov	$0x1941820,%rdi
  403dde:	48 8d 14 c7                 	(arith) 	lea	(%rdi,%rax,8),%rdx
  403de2:	48 63 f1                    	(move)  	movsxd	%ecx,%rsi
  403de5:	48 8d 04 f5 78 47 61 00     	(arith) 	lea	0x614778(,%rsi,8),%rax
  403ded:	83 e9 02                    	(arith) 	sub	$0x2,%ecx
  403df0:	48 63 c9                    	(move)  	movsxd	%ecx,%rcx
  403df3:	49 89 c8                    	(move)  	mov	%rcx,%r8
  403df6:	49 c1 e0 09                 	(logic) 	sal	$0x9,%r8
  403dfa:	49 29 c8                    	(arith) 	sub	%rcx,%r8
  403dfd:	4a 8d 0c 81                 	(arith) 	lea	(%rcx,%r8,4),%rcx
  403e01:	48 03 4c 24 18              	(arith) 	add	0x18(%rsp),%rcx
  403e06:	49 8d 8c 0e 98 2d 28 45     	(arith) 	lea	0x45282d98(%r14,%rcx,1),%rcx
  403e0e:	48 8d 3c cf                 	(arith) 	lea	(%rdi,%rcx,8),%rdi
  403e12:	48 8d 0c f5 80 47 61 00     	(arith) 	lea	0x614780(,%rsi,8),%rcx
/home/jgarcia/TFG/source_code/SP/exact_rhs.f:5
  403e1a:	48 be 10 85 d5 2a 02 00 00 00	(move)  	mov	$0x22ad58510,%rsi
  403e24:	48 8d 1c de                 	(arith) 	lea	(%rsi,%rbx,8),%rbx
/home/jgarcia/TFG/source_code/SP/exact_rhs.f:218
  403e28:	f2 0f 10 05 a0 a6 00 00     	(move)  	movsd	0xa6a0(%rip),%xmm0
  403e30:	f2 0f 10 35 a0 a6 00 00     	(move)  	movsd	0xa6a0(%rip),%xmm6
/home/jgarcia/TFG/source_code/SP/exact_rhs.f:221
  403e38:	f2 0f 10 2d 88 a6 00 00     	(move)  	movsd	0xa688(%rip),%xmm5
; ------- Loop 54 entry
356 (loop 54):	
/home/jgarcia/TFG/source_code/SP/exact_rhs.f:218
  403e40:	66 0f 28 d8                 	(move)  	movapd	%xmm0,%xmm3
  403e44:	f2 0f 59 58 08              	(arith) 	mulsd	0x8(%rax),%xmm3
  403e49:	f2 0f 58 18                 	(arith) 	addsd	(%rax),%xmm3
  403e4d:	66 0f 28 d6                 	(move)  	movapd	%xmm6,%xmm2
  403e51:	f2 0f 59 50 10              	(arith) 	mulsd	0x10(%rax),%xmm2
  403e56:	f2 0f 58 da                 	(arith) 	addsd	%xmm2,%xmm3
  403e5a:	66 0f 28 e0                 	(move)  	movapd	%xmm0,%xmm4
  403e5e:	f2 0f 59 60 18              	(arith) 	mulsd	0x18(%rax),%xmm4
  403e63:	f2 0f 58 dc                 	(arith) 	addsd	%xmm4,%xmm3
  403e67:	f2 0f 59 d9                 	(arith) 	mulsd	%xmm1,%xmm3
  403e6b:	f2 0f 10 12                 	(move)  	movsd	(%rdx),%xmm2
  403e6f:	f2 0f 5c d3                 	(arith) 	subsd	%xmm3,%xmm2
  403e73:	f2 0f 11 12                 	(move)  	movsd	%xmm2,(%rdx)
/home/jgarcia/TFG/source_code/SP/exact_rhs.f:221
  403e77:	66 0f 28 d8                 	(move)  	movapd	%xmm0,%xmm3
  403e7b:	f2 0f 59 59 08              	(arith) 	mulsd	0x8(%rcx),%xmm3
  403e80:	f2 0f 58 19                 	(arith) 	addsd	(%rcx),%xmm3
  403e84:	66 0f 28 e5                 	(move)  	movapd	%xmm5,%xmm4
  403e88:	f2 0f 59 61 10              	(arith) 	mulsd	0x10(%rcx),%xmm4
  403e8d:	f2 0f 58 dc                 	(arith) 	addsd	%xmm4,%xmm3
  403e91:	f2 0f 59 d9                 	(arith) 	mulsd	%xmm1,%xmm3
  403e95:	f2 0f 10 17                 	(move)  	movsd	(%rdi),%xmm2
  403e99:	f2 0f 5c d3                 	(arith) 	subsd	%xmm3,%xmm2
  403e9d:	f2 0f 11 17                 	(move)  	movsd	%xmm2,(%rdi)
  403ea1:	48 83 c2 08                 	(arith) 	add	$0x8,%rdx
  403ea5:	48 05 c0 0c 00 00           	(arith) 	add	$0xcc0,%rax
  403eab:	48 83 c7 08                 	(arith) 	add	$0x8,%rdi
  403eaf:	48 81 c1 c0 0c 00 00        	(arith) 	add	$0xcc0,%rcx
/home/jgarcia/TFG/source_code/SP/exact_rhs.f:214
  403eb6:	48 39 da                    	(arith) 	cmp	%rbx,%rdx
  403eb9:	75 85                       	(control)	jne	403e40 <exact_rhs_+0x1500>	; ↰ label 356 (loop 54)
; ------- Loop 54 exit
357:	
/home/jgarcia/TFG/source_code/SP/exact_rhs.f:136
  403ebb:	8b bc 24 98 00 00 00        	(move)  	mov	0x98(%rsp),%edi
  403ec2:	39 7c 24 70                 	(arith) 	cmp	%edi,0x70(%rsp)
  403ec6:	74 0a                       	(control)	je	403ed2 <exact_rhs_+0x1592>	; ↲ label 332
358:	
  403ec8:	83 44 24 70 01              	(arith) 	addl	$0x1,0x70(%rsp)
  403ecd:	e9 8d f6 ff ff              	(control)	jmp	40355f <exact_rhs_+0xc1f>	; ↰ label 334 (loop 55)
; ------- Loop 55 exit
332:	
/home/jgarcia/TFG/source_code/SP/exact_rhs.f:134
  403ed2:	44 8b 8c 24 bc 00 00 00     	(move)  	mov	0xbc(%rsp),%r9d
  403eda:	44 39 8c 24 b8 00 00 00     	(arith) 	cmp	%r9d,0xb8(%rsp)
  403ee2:	74 0d                       	(control)	je	403ef1 <exact_rhs_+0x15b1>	; ↲ label 298
359:	
  403ee4:	83 84 24 b8 00 00 00 01     	(arith) 	addl	$0x1,0xb8(%rsp)
  403eec:	e9 bc f5 ff ff              	(control)	jmp	4034ad <exact_rhs_+0xb6d>	; ↰ label 331 (loop 51)
; ------- Loop 51 exit
298:	
/home/jgarcia/TFG/source_code/SP/exact_rhs.f:231
  403ef1:	8b 05 0d bc 20 00           	(move)  	mov	0x20bc0d(%rip),%eax
  403ef7:	83 e8 02                    	(arith) 	sub	$0x2,%eax
  403efa:	89 84 24 a8 00 00 00        	(move)  	mov	%eax,0xa8(%rsp)
  403f01:	85 c0                       	(arith) 	test	%eax,%eax
  403f03:	0f 8e e6 09 00 00           	(control)	jle	4048ef <exact_rhs_+0x1faf>	; ↲ label 360
361:	
  403f09:	c7 84 24 a0 00 00 00 01 00 00 00	(move)  	movl	$0x1,0xa0(%rsp)
/home/jgarcia/TFG/source_code/SP/exact_rhs.f:239
  403f14:	4c 8d 9c 24 e0 00 00 00     	(arith) 	lea	0xe0(%rsp),%r11
  403f1c:	4c 89 5c 24 28              	(move)  	mov	%r11,0x28(%rsp)
/home/jgarcia/TFG/source_code/SP/exact_rhs.f:5
  403f21:	4c 89 dd                    	(move)  	mov	%r11,%rbp
  403f24:	48 83 c5 28                 	(arith) 	add	$0x28,%rbp
; ------- Loop 41 entry
362 (loop 41):	
/home/jgarcia/TFG/source_code/SP/exact_rhs.f:232
  403f28:	f2 0f 2a 84 24 a0 00 00 00  	(conv)  	cvtsi2sdl	0xa0(%rsp),%xmm0
  403f31:	f2 0f 59 05 af ba 20 00     	(arith) 	mulsd	0x20baaf(%rip),%xmm0
  403f39:	f2 0f 11 84 24 d8 00 00 00  	(move)  	movsd	%xmm0,0xd8(%rsp)
/home/jgarcia/TFG/source_code/SP/exact_rhs.f:233
  403f42:	8b 05 b8 bb 20 00           	(move)  	mov	0x20bbb8(%rip),%eax
  403f48:	83 e8 02                    	(arith) 	sub	$0x2,%eax
  403f4b:	89 84 24 90 00 00 00        	(move)  	mov	%eax,0x90(%rsp)
  403f52:	85 c0                       	(arith) 	test	%eax,%eax
  403f54:	0f 8e 78 09 00 00           	(control)	jle	4048d2 <exact_rhs_+0x1f92>	; ↲ label 363
364:	
/home/jgarcia/TFG/source_code/SP/exact_rhs.f:263
  403f5a:	48 63 84 24 a0 00 00 00     	(move)  	movsxd	0xa0(%rsp),%rax
  403f62:	48 89 c2                    	(move)  	mov	%rax,%rdx
  403f65:	48 c1 e2 09                 	(logic) 	sal	$0x9,%rdx
  403f69:	48 29 c2                    	(arith) 	sub	%rax,%rdx
  403f6c:	48 8d 14 90                 	(arith) 	lea	(%rax,%rdx,4),%rdx
  403f70:	48 89 94 24 80 00 00 00     	(move)  	mov	%rdx,0x80(%rsp)
/home/jgarcia/TFG/source_code/SP/exact_rhs.f:288
  403f78:	48 83 ea 01                 	(arith) 	sub	$0x1,%rdx
  403f7c:	48 89 94 24 98 00 00 00     	(move)  	mov	%rdx,0x98(%rsp)
  403f84:	c7 44 24 78 01 00 00 00     	(move)  	movl	$0x1,0x78(%rsp)
; ------- Loop 45 entry
365 (loop 45):	
/home/jgarcia/TFG/source_code/SP/exact_rhs.f:234
  403f8c:	f2 0f 2a 44 24 78           	(conv)  	cvtsi2sdl	0x78(%rsp),%xmm0
  403f92:	f2 0f 59 05 46 ba 20 00     	(arith) 	mulsd	0x20ba46(%rip),%xmm0
  403f9a:	f2 0f 11 84 24 d0 00 00 00  	(move)  	movsd	%xmm0,0xd0(%rsp)
/home/jgarcia/TFG/source_code/SP/exact_rhs.f:236
  403fa3:	44 8b 35 5e bb 20 00        	(move)  	mov	0x20bb5e(%rip),%r14d
  403faa:	41 83 ee 01                 	(arith) 	sub	$0x1,%r14d
  403fae:	0f 88 62 01 00 00           	(control)	js	404116 <exact_rhs_+0x17d6>	; ↲ label 366
367:	
  403fb4:	41 bc 00 00 00 00           	(move)  	mov	$0,%r12d
/home/jgarcia/TFG/source_code/SP/exact_rhs.f:237
  403fba:	41 bd f0 f9 60 00           	(move)  	mov	$0x60f9f0,%r13d
/home/jgarcia/TFG/source_code/SP/exact_rhs.f:239
  403fc0:	4c 8d bc 24 d8 00 00 00     	(arith) 	lea	0xd8(%rsp),%r15
/home/jgarcia/TFG/source_code/SP/exact_rhs.f:244
  403fc8:	48 8d 84 24 e0 00 00 00     	(arith) 	lea	0xe0(%rsp),%rax
  403fd0:	48 83 c0 08                 	(arith) 	add	$0x8,%rax
  403fd4:	48 89 44 24 18              	(move)  	mov	%rax,0x18(%rsp)
/home/jgarcia/TFG/source_code/SP/exact_rhs.f:250
  403fd9:	bb 20 fb 60 00              	(move)  	mov	$0x60fb20,%ebx
; ------- Loop 50 entry
368 (loop 50):	
/home/jgarcia/TFG/source_code/SP/exact_rhs.f:237
  403fde:	f2 41 0f 2a c4              	(conv)  	cvtsi2sd	%r12d,%xmm0
  403fe3:	f2 41 0f 59 45 00           	(arith) 	mulsd	(%r13),%xmm0
  403fe9:	f2 0f 11 84 24 c8 00 00 00  	(move)  	movsd	%xmm0,0xc8(%rsp)
/home/jgarcia/TFG/source_code/SP/exact_rhs.f:239
  403ff2:	48 8b 4c 24 28              	(move)  	mov	0x28(%rsp),%rcx
  403ff7:	48 8d 94 24 c8 00 00 00     	(arith) 	lea	0xc8(%rsp),%rdx
  403fff:	4c 89 fe                    	(move)  	mov	%r15,%rsi
  404002:	48 8d bc 24 d0 00 00 00     	(arith) 	lea	0xd0(%rsp),%rdi
  40400a:	b8 00 00 00 00              	(move)  	mov	$0,%eax
  40400f:	e8 34 e8 ff ff              	(control)	call	402848 <exact_solution_>	; ⇄ exact_solution
369:	
  404014:	48 8b 54 24 28              	(move)  	mov	0x28(%rsp),%rdx
/home/jgarcia/TFG/source_code/SP/exact_rhs.f:5
  404019:	49 63 c4                    	(move)  	movsxd	%r12d,%rax
  40401c:	48 8d 0c c5 a0 47 61 00     	(arith) 	lea	0x6147a0(,%rax,8),%rcx
; ------- Loop 48 entry
370 (loop 48):	
/home/jgarcia/TFG/source_code/SP/exact_rhs.f:241
  404024:	48 8b 32                    	(move)  	mov	(%rdx),%rsi
  404027:	48 89 31                    	(move)  	mov	%rsi,(%rcx)
  40402a:	48 83 c2 08                 	(arith) 	add	$0x8,%rdx
  40402e:	48 81 c1 c0 0c 00 00        	(arith) 	add	$0xcc0,%rcx
/home/jgarcia/TFG/source_code/SP/exact_rhs.f:240
  404035:	48 39 ea                    	(arith) 	cmp	%rbp,%rdx
  404038:	75 ea                       	(control)	jne	404024 <exact_rhs_+0x16e4>	; ↰ label 370 (loop 48)
; ------- Loop 48 exit
371:	
/home/jgarcia/TFG/source_code/SP/exact_rhs.f:244
  40403a:	f2 0f 10 0d 6e a4 00 00     	(move)  	movsd	0xa46e(%rip),%xmm1
  404042:	f2 0f 5e 8c 24 e0 00 00 00  	(arith) 	divsd	0xe0(%rsp),%xmm1
  40404b:	48 8b 54 24 18              	(move)  	mov	0x18(%rsp),%rdx
/home/jgarcia/TFG/source_code/SP/exact_rhs.f:5
  404050:	48 8d b0 98 01 00 00        	(arith) 	lea	0x198(%rax),%rsi
  404057:	48 8d 0c c5 20 94 61 00     	(arith) 	lea	0x619420(,%rax,8),%rcx
; ------- Loop 49 entry
372 (loop 49):	
/home/jgarcia/TFG/source_code/SP/exact_rhs.f:247
  40405f:	f2 0f 10 02                 	(move)  	movsd	(%rdx),%xmm0
  404063:	f2 0f 59 c1                 	(arith) 	mulsd	%xmm1,%xmm0
  404067:	f2 0f 11 01                 	(move)  	movsd	%xmm0,(%rcx)
  40406b:	48 83 c2 08                 	(arith) 	add	$0x8,%rdx
  40406f:	48 81 c1 c0 0c 00 00        	(arith) 	add	$0xcc0,%rcx
/home/jgarcia/TFG/source_code/SP/exact_rhs.f:246
  404076:	48 39 ea                    	(arith) 	cmp	%rbp,%rdx
  404079:	75 e4                       	(control)	jne	40405f <exact_rhs_+0x171f>	; ↰ label 372 (loop 49)
; ------- Loop 49 exit
373:	
/home/jgarcia/TFG/source_code/SP/exact_rhs.f:250
  40407b:	48 8d 90 50 16 00 00        	(arith) 	lea	0x1650(%rax),%rdx
  404082:	f2 0f 10 0c d3              	(move)  	movsd	(%rbx,%rdx,8),%xmm1
  404087:	f2 0f 59 c9                 	(arith) 	mulsd	%xmm1,%xmm1
  40408b:	f2 0f 11 8c c3 00 33 00 00  	(move)  	movsd	%xmm1,0x3300(%rbx,%rax,8)
/home/jgarcia/TFG/source_code/SP/exact_rhs.f:252
  404094:	48 8d be 88 11 00 00        	(arith) 	lea	0x1188(%rsi),%rdi
  40409b:	f2 0f 10 14 fb              	(move)  	movsd	(%rbx,%rdi,8),%xmm2
  4040a0:	48 8d 88 b8 14 00 00        	(arith) 	lea	0x14b8(%rax),%rcx
  4040a7:	f2 0f 10 04 cb              	(move)  	movsd	(%rbx,%rcx,8),%xmm0
  4040ac:	f2 0f 59 d2                 	(arith) 	mulsd	%xmm2,%xmm2
  4040b0:	f2 0f 58 ca                 	(arith) 	addsd	%xmm2,%xmm1
  4040b4:	f2 0f 59 c0                 	(arith) 	mulsd	%xmm0,%xmm0
  4040b8:	f2 0f 58 c1                 	(arith) 	addsd	%xmm1,%xmm0
  4040bc:	f2 0f 11 84 c3 40 8c 00 00  	(move)  	movsd	%xmm0,0x8c40(%rbx,%rax,8)
/home/jgarcia/TFG/source_code/SP/exact_rhs.f:254
  4040c5:	f2 0f 10 0c fb              	(move)  	movsd	(%rbx,%rdi,8),%xmm1
  4040ca:	f2 0f 59 8c f3 80 4c 00 00  	(arith) 	mulsd	0x4c80(%rbx,%rsi,8),%xmm1
  4040d3:	f2 0f 10 04 cb              	(move)  	movsd	(%rbx,%rcx,8),%xmm0
  4040d8:	f2 0f 59 84 c3 00 66 00 00  	(arith) 	mulsd	0x6600(%rbx,%rax,8),%xmm0
  4040e1:	f2 0f 58 c1                 	(arith) 	addsd	%xmm1,%xmm0
  4040e5:	f2 0f 10 0c d3              	(move)  	movsd	(%rbx,%rdx,8),%xmm1
  4040ea:	f2 0f 59 8c c3 c0 72 00 00  	(arith) 	mulsd	0x72c0(%rbx,%rax,8),%xmm1
  4040f3:	f2 0f 58 c1                 	(arith) 	addsd	%xmm1,%xmm0
  4040f7:	f2 0f 59 05 b9 a3 00 00     	(arith) 	mulsd	0xa3b9(%rip),%xmm0
  4040ff:	f2 0f 11 84 c3 c0 3f 00 00  	(move)  	movsd	%xmm0,0x3fc0(%rbx,%rax,8)
/home/jgarcia/TFG/source_code/SP/exact_rhs.f:236
  404108:	45 39 f4                    	(arith) 	cmp	%r14d,%r12d
  40410b:	74 09                       	(control)	je	404116 <exact_rhs_+0x17d6>	; ↲ label 366
374:	
  40410d:	41 83 c4 01                 	(arith) 	add	$0x1,%r12d
  404111:	e9 c8 fe ff ff              	(control)	jmp	403fde <exact_rhs_+0x169e>	; ↰ label 368 (loop 50)
; ------- Loop 50 exit
366:	
/home/jgarcia/TFG/source_code/SP/exact_rhs.f:257
  404116:	8b 05 ec b9 20 00           	(move)  	mov	0x20b9ec(%rip),%eax
  40411c:	83 e8 02                    	(arith) 	sub	$0x2,%eax
  40411f:	89 44 24 18                 	(move)  	mov	%eax,0x18(%rsp)
  404123:	85 c0                       	(arith) 	test	%eax,%eax
  404125:	0f 8e 97 04 00 00           	(control)	jle	4045c2 <exact_rhs_+0x1c82>	; ↲ label 375
376:	
/home/jgarcia/TFG/source_code/SP/exact_rhs.f:263
  40412b:	48 63 44 24 78              	(move)  	movsxd	0x78(%rsp),%rax
  404130:	4c 8d 3c 80                 	(arith) 	lea	(%rax,%rax,4),%r15
  404134:	4c 03 bc 24 80 00 00 00     	(arith) 	add	0x80(%rsp),%r15
  40413c:	f2 0f 10 0d f4 b4 20 00     	(move)  	movsd	0x20b4f4(%rip),%xmm1
  404144:	f2 44 0f 10 3d 6b b8 20 00  	(move)  	movsd	0x20b86b(%rip),%xmm15
/home/jgarcia/TFG/source_code/SP/exact_rhs.f:268
  40414d:	4d 8d 77 01                 	(arith) 	lea	0x1(%r15),%r14
  404151:	f2 44 0f 10 15 3e b8 20 00  	(move)  	movsd	0x20b83e(%rip),%xmm10
  40415a:	f2 0f 10 05 5e b8 20 00     	(move)  	movsd	0x20b85e(%rip),%xmm0
  404162:	f2 0f 11 44 24 70           	(move)  	movsd	%xmm0,0x70(%rsp)
/home/jgarcia/TFG/source_code/SP/exact_rhs.f:273
  404168:	4d 8d 4f 02                 	(arith) 	lea	0x2(%r15),%r9
  40416c:	4c 89 4c 24 38              	(move)  	mov	%r9,0x38(%rsp)
  404171:	f2 0f 10 05 4f b8 20 00     	(move)  	movsd	0x20b84f(%rip),%xmm0
  404179:	f2 0f 11 44 24 68           	(move)  	movsd	%xmm0,0x68(%rsp)
/home/jgarcia/TFG/source_code/SP/exact_rhs.f:279
  40417f:	4d 8d 4f 03                 	(arith) 	lea	0x3(%r15),%r9
  404183:	4c 89 4c 24 30              	(move)  	mov	%r9,0x30(%rsp)
  404188:	f2 0f 10 15 98 b8 20 00     	(move)  	movsd	0x20b898(%rip),%xmm2
  404190:	f2 0f 10 05 f8 b7 20 00     	(move)  	movsd	0x20b7f8(%rip),%xmm0
  404198:	f2 0f 11 44 24 60           	(move)  	movsd	%xmm0,0x60(%rsp)
  40419e:	f2 0f 10 05 2a b8 20 00     	(move)  	movsd	0x20b82a(%rip),%xmm0
  4041a6:	f2 0f 11 44 24 58           	(move)  	movsd	%xmm0,0x58(%rsp)
/home/jgarcia/TFG/source_code/SP/exact_rhs.f:288
  4041ac:	48 8d 44 80 05              	(arith) 	lea	0x5(%rax,%rax,4),%rax
  4041b1:	48 03 84 24 98 00 00 00     	(arith) 	add	0x98(%rsp),%rax
  4041b9:	48 89 44 24 20              	(move)  	mov	%rax,0x20(%rsp)
  4041be:	f2 44 0f 10 0d 59 b8 20 00  	(move)  	movsd	0x20b859(%rip),%xmm9
  4041c7:	f2 44 0f 10 35 e8 a2 00 00  	(move)  	movsd	0xa2e8(%rip),%xmm14
  4041d0:	f2 44 0f 59 35 c7 b7 20 00  	(arith) 	mulsd	0x20b7c7(%rip),%xmm14
  4041d9:	f2 0f 10 05 c7 b7 20 00     	(move)  	movsd	0x20b7c7(%rip),%xmm0
  4041e1:	f2 0f 11 44 24 50           	(move)  	movsd	%xmm0,0x50(%rsp)
  4041e7:	f2 0f 10 05 c1 b7 20 00     	(move)  	movsd	0x20b7c1(%rip),%xmm0
  4041ef:	f2 0f 11 44 24 48           	(move)  	movsd	%xmm0,0x48(%rsp)
  4041f5:	f2 0f 10 05 db b7 20 00     	(move)  	movsd	0x20b7db(%rip),%xmm0
  4041fd:	f2 0f 11 44 24 40           	(move)  	movsd	%xmm0,0x40(%rsp)
  404203:	41 ba 00 00 00 00           	(move)  	mov	$0,%r10d
  404209:	ba 01 00 00 00              	(move)  	mov	$0x1,%edx
/home/jgarcia/TFG/source_code/SP/exact_rhs.f:263
  40420e:	48 be 20 18 94 01 00 00 00 00	(move)  	mov	$0x1941820,%rsi
  404218:	b8 20 fb 60 00              	(move)  	mov	$0x60fb20,%eax
  40421d:	f2 0f 10 05 9b a2 00 00     	(move)  	movsd	0xa29b(%rip),%xmm0
  404225:	48 89 ac 24 88 00 00 00     	(move)  	mov	%rbp,0x88(%rsp)
; ------- Loop 47 entry
377 (loop 47):	
/home/jgarcia/TFG/source_code/SP/exact_rhs.f:259
  40422d:	44 8d 6a 01                 	(arith) 	lea	0x1(%rdx),%r13d
/home/jgarcia/TFG/source_code/SP/exact_rhs.f:263
  404231:	48 63 d2                    	(move)  	movsxd	%edx,%rdx
  404234:	48 69 fa 35 c3 0c 00        	(arith) 	imul	$0xcc335,%rdx,%rdi
  40423b:	49 63 dd                    	(move)  	movsxd	%r13d,%rbx
  40423e:	49 63 ca                    	(move)  	movsxd	%r10d,%rcx
  404241:	4a 8d ac 3f 98 2d 28 45     	(arith) 	lea	0x45282d98(%rdi,%r15,1),%rbp
  404249:	4c 8d 89 58 0e 00 00        	(arith) 	lea	0xe58(%rcx),%r9
  404250:	f2 0f 10 ac d8 c0 72 00 00  	(move)  	movsd	0x72c0(%rax,%rbx,8),%xmm5
  404259:	66 0f 28 f5                 	(move)  	movapd	%xmm5,%xmm6
  40425d:	f2 42 0f 5c 34 c8           	(arith) 	subsd	(%rax,%r9,8),%xmm6
  404263:	f2 0f 59 f1                 	(arith) 	mulsd	%xmm1,%xmm6
  404267:	f2 0f 10 24 ee              	(move)  	movsd	(%rsi,%rbp,8),%xmm4
  40426c:	f2 0f 5c e6                 	(arith) 	subsd	%xmm6,%xmm4
  404270:	66 0f 28 d8                 	(move)  	movapd	%xmm0,%xmm3
  404274:	f2 0f 59 9c d0 80 4c 00 00  	(arith) 	mulsd	0x4c80(%rax,%rdx,8),%xmm3
  40427d:	f2 0f 58 9c d8 80 4c 00 00  	(arith) 	addsd	0x4c80(%rax,%rbx,8),%xmm3
  404286:	f2 0f 58 9c c8 80 4c 00 00  	(arith) 	addsd	0x4c80(%rax,%rcx,8),%xmm3
  40428f:	f2 41 0f 59 df              	(arith) 	mulsd	%xmm15,%xmm3
  404294:	f2 0f 58 dc                 	(arith) 	addsd	%xmm4,%xmm3
  404298:	f2 0f 11 1c ee              	(move)  	movsd	%xmm3,(%rsi,%rbp,8)
/home/jgarcia/TFG/source_code/SP/exact_rhs.f:268
  40429d:	f2 0f 10 a4 d8 40 59 00 00  	(move)  	movsd	0x5940(%rax,%rbx,8),%xmm4
  4042a6:	f2 0f 10 9c c8 40 59 00 00  	(move)  	movsd	0x5940(%rax,%rcx,8),%xmm3
  4042af:	4d 8d 9c 3e 98 2d 28 45     	(arith) 	lea	0x45282d98(%r14,%rdi,1),%r11
  4042b7:	4c 8d 83 50 16 00 00        	(arith) 	lea	0x1650(%rbx),%r8
  4042be:	66 0f 28 fc                 	(move)  	movapd	%xmm4,%xmm7
  4042c2:	f2 42 0f 59 3c c0           	(arith) 	mulsd	(%rax,%r8,8),%xmm7
  4042c8:	48 8d a9 50 16 00 00        	(arith) 	lea	0x1650(%rcx),%rbp
  4042cf:	66 44 0f 28 c3              	(move)  	movapd	%xmm3,%xmm8
  4042d4:	f2 44 0f 59 04 e8           	(arith) 	mulsd	(%rax,%rbp,8),%xmm8
  4042da:	f2 41 0f 5c f8              	(arith) 	subsd	%xmm8,%xmm7
  4042df:	f2 0f 59 f9                 	(arith) 	mulsd	%xmm1,%xmm7
  4042e3:	f2 42 0f 10 34 de           	(move)  	movsd	(%rsi,%r11,8),%xmm6
  4042e9:	f2 0f 5c f7                 	(arith) 	subsd	%xmm7,%xmm6
  4042ed:	66 0f 28 f8                 	(move)  	movapd	%xmm0,%xmm7
  4042f1:	f2 0f 59 bc d0 00 99 00 00  	(arith) 	mulsd	0x9900(%rax,%rdx,8),%xmm7
  4042fa:	f2 0f 58 bc d8 00 99 00 00  	(arith) 	addsd	0x9900(%rax,%rbx,8),%xmm7
  404303:	f2 0f 58 bc c8 00 99 00 00  	(arith) 	addsd	0x9900(%rax,%rcx,8),%xmm7
  40430c:	f2 41 0f 59 fa              	(arith) 	mulsd	%xmm10,%xmm7
  404311:	f2 0f 58 f7                 	(arith) 	addsd	%xmm7,%xmm6
  404315:	66 0f 28 f8                 	(move)  	movapd	%xmm0,%xmm7
  404319:	f2 0f 59 bc d0 40 59 00 00  	(arith) 	mulsd	0x5940(%rax,%rdx,8),%xmm7
  404322:	f2 0f 58 e7                 	(arith) 	addsd	%xmm7,%xmm4
  404326:	f2 0f 58 e3                 	(arith) 	addsd	%xmm3,%xmm4
  40432a:	f2 0f 59 64 24 70           	(arith) 	mulsd	0x70(%rsp),%xmm4
  404330:	f2 0f 58 e6                 	(arith) 	addsd	%xmm6,%xmm4
  404334:	f2 42 0f 11 24 de           	(move)  	movsd	%xmm4,(%rsi,%r11,8)
/home/jgarcia/TFG/source_code/SP/exact_rhs.f:273
  40433a:	f2 0f 10 a4 d8 00 66 00 00  	(move)  	movsd	0x6600(%rax,%rbx,8),%xmm4
  404343:	f2 0f 10 9c c8 00 66 00 00  	(move)  	movsd	0x6600(%rax,%rcx,8),%xmm3
  40434c:	4c 8b 64 24 38              	(move)  	mov	0x38(%rsp),%r12
  404351:	4d 8d 9c 3c 98 2d 28 45     	(arith) 	lea	0x45282d98(%r12,%rdi,1),%r11
  404359:	66 0f 28 fc                 	(move)  	movapd	%xmm4,%xmm7
  40435d:	f2 42 0f 59 3c c0           	(arith) 	mulsd	(%rax,%r8,8),%xmm7
  404363:	66 44 0f 28 c3              	(move)  	movapd	%xmm3,%xmm8
  404368:	f2 44 0f 59 04 e8           	(arith) 	mulsd	(%rax,%rbp,8),%xmm8
  40436e:	f2 41 0f 5c f8              	(arith) 	subsd	%xmm8,%xmm7
  404373:	f2 0f 59 f9                 	(arith) 	mulsd	%xmm1,%xmm7
  404377:	f2 42 0f 10 34 de           	(move)  	movsd	(%rsi,%r11,8),%xmm6
  40437d:	f2 0f 5c f7                 	(arith) 	subsd	%xmm7,%xmm6
  404381:	66 0f 28 f8                 	(move)  	movapd	%xmm0,%xmm7
  404385:	f2 0f 59 bc d0 c0 a5 00 00  	(arith) 	mulsd	0xa5c0(%rax,%rdx,8),%xmm7
  40438e:	f2 0f 58 bc d8 c0 a5 00 00  	(arith) 	addsd	0xa5c0(%rax,%rbx,8),%xmm7
  404397:	f2 0f 58 bc c8 c0 a5 00 00  	(arith) 	addsd	0xa5c0(%rax,%rcx,8),%xmm7
  4043a0:	f2 41 0f 59 fa              	(arith) 	mulsd	%xmm10,%xmm7
  4043a5:	f2 0f 58 f7                 	(arith) 	addsd	%xmm7,%xmm6
  4043a9:	66 0f 28 f8                 	(move)  	movapd	%xmm0,%xmm7
  4043ad:	f2 0f 59 bc d0 00 66 00 00  	(arith) 	mulsd	0x6600(%rax,%rdx,8),%xmm7
  4043b6:	f2 0f 58 e7                 	(arith) 	addsd	%xmm7,%xmm4
  4043ba:	f2 0f 58 e3                 	(arith) 	addsd	%xmm3,%xmm4
  4043be:	f2 0f 59 64 24 68           	(arith) 	mulsd	0x68(%rsp),%xmm4
  4043c4:	f2 0f 58 e6                 	(arith) 	addsd	%xmm6,%xmm4
  4043c8:	f2 42 0f 11 24 de           	(move)  	movsd	%xmm4,(%rsi,%r11,8)
/home/jgarcia/TFG/source_code/SP/exact_rhs.f:279
  4043ce:	f2 46 0f 10 04 c0           	(move)  	movsd	(%rax,%r8,8),%xmm8
  4043d4:	f2 42 0f 10 34 c8           	(move)  	movsd	(%rax,%r9,8),%xmm6
  4043da:	f2 0f 10 3c e8              	(move)  	movsd	(%rax,%rbp,8),%xmm7
  4043df:	4c 8b 4c 24 30              	(move)  	mov	0x30(%rsp),%r9
  4043e4:	4d 8d a4 39 98 2d 28 45     	(arith) 	lea	0x45282d98(%r9,%rdi,1),%r12
  4043ec:	66 0f 28 dd                 	(move)  	movapd	%xmm5,%xmm3
  4043f0:	f2 41 0f 59 d8              	(arith) 	mulsd	%xmm8,%xmm3
  4043f5:	4c 8d 9b f8 07 00 00        	(arith) 	lea	0x7f8(%rbx),%r11
  4043fc:	f2 0f 10 a4 d8 80 7f 00 00  	(move)  	movsd	0x7f80(%rax,%rbx,8),%xmm4
  404405:	66 44 0f 28 dc              	(move)  	movapd	%xmm4,%xmm11
  40440a:	f2 46 0f 5c 1c d8           	(arith) 	subsd	(%rax,%r11,8),%xmm11
  404410:	f2 44 0f 59 da              	(arith) 	mulsd	%xmm2,%xmm11
  404415:	f2 44 0f 58 db              	(arith) 	addsd	%xmm3,%xmm11
  40441a:	66 44 0f 28 ee              	(move)  	movapd	%xmm6,%xmm13
  40441f:	f2 44 0f 59 ef              	(arith) 	mulsd	%xmm7,%xmm13
  404424:	4c 8d 89 f8 07 00 00        	(arith) 	lea	0x7f8(%rcx),%r9
  40442b:	f2 0f 10 9c c8 80 7f 00 00  	(move)  	movsd	0x7f80(%rax,%rcx,8),%xmm3
  404434:	66 44 0f 28 e3              	(move)  	movapd	%xmm3,%xmm12
  404439:	f2 46 0f 5c 24 c8           	(arith) 	subsd	(%rax,%r9,8),%xmm12
  40443f:	f2 44 0f 59 e2              	(arith) 	mulsd	%xmm2,%xmm12
  404444:	f2 45 0f 58 e5              	(arith) 	addsd	%xmm13,%xmm12
  404449:	f2 45 0f 5c dc              	(arith) 	subsd	%xmm12,%xmm11
  40444e:	66 44 0f 28 e1              	(move)  	movapd	%xmm1,%xmm12
  404453:	f2 45 0f 59 e3              	(arith) 	mulsd	%xmm11,%xmm12
  404458:	f2 46 0f 10 1c e6           	(move)  	movsd	(%rsi,%r12,8),%xmm11
  40445e:	f2 45 0f 5c dc              	(arith) 	subsd	%xmm12,%xmm11
  404463:	66 44 0f 28 e0              	(move)  	movapd	%xmm0,%xmm12
  404468:	f2 44 0f 59 a4 d0 80 b2 00 00	(arith) 	mulsd	0xb280(%rax,%rdx,8),%xmm12
  404472:	f2 45 0f 58 c4              	(arith) 	addsd	%xmm12,%xmm8
  404477:	f2 44 0f 58 c7              	(arith) 	addsd	%xmm7,%xmm8
  40447c:	f2 44 0f 59 44 24 60        	(arith) 	mulsd	0x60(%rsp),%xmm8
  404483:	f2 45 0f 58 d8              	(arith) 	addsd	%xmm8,%xmm11
  404488:	66 0f 28 f8                 	(move)  	movapd	%xmm0,%xmm7
  40448c:	f2 0f 59 bc d0 c0 72 00 00  	(arith) 	mulsd	0x72c0(%rax,%rdx,8),%xmm7
  404495:	f2 0f 58 ef                 	(arith) 	addsd	%xmm7,%xmm5
  404499:	f2 0f 58 ee                 	(arith) 	addsd	%xmm6,%xmm5
  40449d:	f2 0f 59 6c 24 58           	(arith) 	mulsd	0x58(%rsp),%xmm5
  4044a3:	f2 44 0f 58 dd              	(arith) 	addsd	%xmm5,%xmm11
  4044a8:	f2 46 0f 11 1c e6           	(move)  	movsd	%xmm11,(%rsi,%r12,8)
/home/jgarcia/TFG/source_code/SP/exact_rhs.f:288
  4044ae:	4c 8b 64 24 20              	(move)  	mov	0x20(%rsp),%r12
  4044b3:	49 8d bc 3c 98 2d 28 45     	(arith) 	lea	0x45282d98(%r12,%rdi,1),%rdi
  4044bb:	66 0f 28 ec                 	(move)  	movapd	%xmm4,%xmm5
  4044bf:	f2 41 0f 59 e9              	(arith) 	mulsd	%xmm9,%xmm5
  4044c4:	66 0f 28 f2                 	(move)  	movapd	%xmm2,%xmm6
  4044c8:	f2 42 0f 59 34 d8           	(arith) 	mulsd	(%rax,%r11,8),%xmm6
  4044ce:	f2 0f 5c ee                 	(arith) 	subsd	%xmm6,%xmm5
  4044d2:	f2 42 0f 59 2c c0           	(arith) 	mulsd	(%rax,%r8,8),%xmm5
  4044d8:	66 41 0f 28 f9              	(move)  	movapd	%xmm9,%xmm7
  4044dd:	f2 0f 59 fb                 	(arith) 	mulsd	%xmm3,%xmm7
  4044e1:	66 0f 28 f2                 	(move)  	movapd	%xmm2,%xmm6
  4044e5:	f2 42 0f 59 34 c8           	(arith) 	mulsd	(%rax,%r9,8),%xmm6
  4044eb:	f2 0f 5c fe                 	(arith) 	subsd	%xmm6,%xmm7
  4044ef:	f2 0f 59 3c e8              	(arith) 	mulsd	(%rax,%rbp,8),%xmm7
  4044f4:	f2 0f 5c ef                 	(arith) 	subsd	%xmm7,%xmm5
  4044f8:	66 0f 28 f1                 	(move)  	movapd	%xmm1,%xmm6
  4044fc:	f2 0f 59 f5                 	(arith) 	mulsd	%xmm5,%xmm6
  404500:	f2 0f 10 2c fe              	(move)  	movsd	(%rsi,%rdi,8),%xmm5
  404505:	f2 0f 5c ee                 	(arith) 	subsd	%xmm6,%xmm5
  404509:	66 0f 28 f0                 	(move)  	movapd	%xmm0,%xmm6
  40450d:	f2 0f 59 b4 d0 40 8c 00 00  	(arith) 	mulsd	0x8c40(%rax,%rdx,8),%xmm6
  404516:	f2 0f 58 b4 d8 40 8c 00 00  	(arith) 	addsd	0x8c40(%rax,%rbx,8),%xmm6
  40451f:	f2 0f 58 b4 c8 40 8c 00 00  	(arith) 	addsd	0x8c40(%rax,%rcx,8),%xmm6
  404528:	f2 41 0f 59 f6              	(arith) 	mulsd	%xmm14,%xmm6
  40452d:	f2 0f 58 ee                 	(arith) 	addsd	%xmm6,%xmm5
  404531:	66 0f 28 f0                 	(move)  	movapd	%xmm0,%xmm6
  404535:	f2 0f 59 b4 d0 00 33 00 00  	(arith) 	mulsd	0x3300(%rax,%rdx,8),%xmm6
  40453e:	f2 0f 58 b4 d8 00 33 00 00  	(arith) 	addsd	0x3300(%rax,%rbx,8),%xmm6
  404547:	f2 0f 58 b4 c8 00 33 00 00  	(arith) 	addsd	0x3300(%rax,%rcx,8),%xmm6
  404550:	f2 0f 59 74 24 50           	(arith) 	mulsd	0x50(%rsp),%xmm6
  404556:	f2 0f 58 ee                 	(arith) 	addsd	%xmm6,%xmm5
  40455a:	66 0f 28 f0                 	(move)  	movapd	%xmm0,%xmm6
  40455e:	f2 0f 59 b4 d0 40 bf 00 00  	(arith) 	mulsd	0xbf40(%rax,%rdx,8),%xmm6
  404567:	f2 0f 58 b4 d8 40 bf 00 00  	(arith) 	addsd	0xbf40(%rax,%rbx,8),%xmm6
  404570:	f2 0f 58 b4 c8 40 bf 00 00  	(arith) 	addsd	0xbf40(%rax,%rcx,8),%xmm6
  404579:	f2 0f 59 74 24 48           	(arith) 	mulsd	0x48(%rsp),%xmm6
  40457f:	f2 0f 58 ee                 	(arith) 	addsd	%xmm6,%xmm5
  404583:	66 0f 28 f0                 	(move)  	movapd	%xmm0,%xmm6
  404587:	f2 0f 59 b4 d0 80 7f 00 00  	(arith) 	mulsd	0x7f80(%rax,%rdx,8),%xmm6
  404590:	f2 0f 58 e6                 	(arith) 	addsd	%xmm6,%xmm4
  404594:	f2 0f 58 e3                 	(arith) 	addsd	%xmm3,%xmm4
  404598:	f2 0f 59 64 24 40           	(arith) 	mulsd	0x40(%rsp),%xmm4
  40459e:	f2 0f 58 ec                 	(arith) 	addsd	%xmm4,%xmm5
  4045a2:	f2 0f 11 2c fe              	(move)  	movsd	%xmm5,(%rsi,%rdi,8)
  4045a7:	41 83 c2 01                 	(arith) 	add	$0x1,%r10d
/home/jgarcia/TFG/source_code/SP/exact_rhs.f:257
  4045ab:	44 3b 54 24 18              	(arith) 	cmp	0x18(%rsp),%r10d
  4045b0:	74 08                       	(control)	je	4045ba <exact_rhs_+0x1c7a>	; ↲ label 378
379:	
  4045b2:	44 89 ea                    	(move)  	mov	%r13d,%edx
  4045b5:	e9 73 fc ff ff              	(control)	jmp	40422d <exact_rhs_+0x18ed>	; ↰ label 377 (loop 47)
; ------- Loop 47 exit
378:	
  4045ba:	48 8b ac 24 88 00 00 00     	(move)  	mov	0x88(%rsp),%rbp
375:	
/home/jgarcia/TFG/source_code/SP/exact_rhs.f:297
  4045c2:	48 63 44 24 78              	(move)  	movsxd	0x78(%rsp),%rax
  4045c7:	4c 8d 34 80                 	(arith) 	lea	(%rax,%rax,4),%r14
  4045cb:	4c 03 b4 24 80 00 00 00     	(arith) 	add	0x80(%rsp),%r14
  4045d3:	f2 0f 10 0d e5 b0 20 00     	(move)  	movsd	0x20b0e5(%rip),%xmm1
  4045db:	49 8d 96 cd f0 34 45        	(arith) 	lea	0x4534f0cd(%r14),%rdx
  4045e2:	48 b8 20 18 94 01 00 00 00 00	(move)  	mov	$0x1941820,%rax
  4045ec:	48 8d 0c d0                 	(arith) 	lea	(%rax,%rdx,8),%rcx
  4045f0:	49 8d 96 02 b4 41 45        	(arith) 	lea	0x4541b402(%r14),%rdx
  4045f7:	48 8d 14 d0                 	(arith) 	lea	(%rax,%rdx,8),%rdx
  4045fb:	b8 00 00 00 00              	(move)  	mov	$0,%eax
  404600:	bf a8 47 61 00              	(move)  	mov	$0x6147a8,%edi
  404605:	f2 0f 10 2d bb 9e 00 00     	(move)  	movsd	0x9ebb(%rip),%xmm5
  40460d:	be b0 47 61 00              	(move)  	mov	$0x6147b0,%esi
  404612:	f2 0f 10 05 b6 9e 00 00     	(move)  	movsd	0x9eb6(%rip),%xmm0
  40461a:	bb b8 47 61 00              	(move)  	mov	$0x6147b8,%ebx
/home/jgarcia/TFG/source_code/SP/exact_rhs.f:301
  40461f:	f2 0f 10 25 b1 9e 00 00     	(move)  	movsd	0x9eb1(%rip),%xmm4
  404627:	41 b8 c0 47 61 00           	(move)  	mov	$0x6147c0,%r8d
; ------- Loop 42 entry
380 (loop 42):	
/home/jgarcia/TFG/source_code/SP/exact_rhs.f:297
  40462d:	66 0f 28 dd                 	(move)  	movapd	%xmm5,%xmm3
  404631:	f2 0f 59 1c 07              	(arith) 	mulsd	(%rdi,%rax,1),%xmm3
  404636:	66 0f 28 d0                 	(move)  	movapd	%xmm0,%xmm2
  40463a:	f2 0f 59 14 06              	(arith) 	mulsd	(%rsi,%rax,1),%xmm2
  40463f:	f2 0f 58 da                 	(arith) 	addsd	%xmm2,%xmm3
  404643:	f2 0f 58 1c 03              	(arith) 	addsd	(%rbx,%rax,1),%xmm3
  404648:	f2 0f 59 d9                 	(arith) 	mulsd	%xmm1,%xmm3
  40464c:	f2 0f 10 11                 	(move)  	movsd	(%rcx),%xmm2
  404650:	f2 0f 5c d3                 	(arith) 	subsd	%xmm3,%xmm2
  404654:	f2 0f 11 11                 	(move)  	movsd	%xmm2,(%rcx)
/home/jgarcia/TFG/source_code/SP/exact_rhs.f:301
  404658:	66 0f 28 d8                 	(move)  	movapd	%xmm0,%xmm3
  40465c:	f2 0f 59 1c 07              	(arith) 	mulsd	(%rdi,%rax,1),%xmm3
  404661:	66 0f 28 d4                 	(move)  	movapd	%xmm4,%xmm2
  404665:	f2 0f 59 14 06              	(arith) 	mulsd	(%rsi,%rax,1),%xmm2
  40466a:	f2 0f 58 da                 	(arith) 	addsd	%xmm2,%xmm3
  40466e:	66 0f 28 d0                 	(move)  	movapd	%xmm0,%xmm2
  404672:	f2 0f 59 14 03              	(arith) 	mulsd	(%rbx,%rax,1),%xmm2
  404677:	f2 0f 58 da                 	(arith) 	addsd	%xmm2,%xmm3
  40467b:	f2 41 0f 58 1c 00           	(arith) 	addsd	(%r8,%rax,1),%xmm3
  404681:	f2 0f 59 d9                 	(arith) 	mulsd	%xmm1,%xmm3
  404685:	f2 0f 10 12                 	(move)  	movsd	(%rdx),%xmm2
  404689:	f2 0f 5c d3                 	(arith) 	subsd	%xmm3,%xmm2
  40468d:	f2 0f 11 12                 	(move)  	movsd	%xmm2,(%rdx)
  404691:	48 83 c1 08                 	(arith) 	add	$0x8,%rcx
  404695:	48 05 c0 0c 00 00           	(arith) 	add	$0xcc0,%rax
  40469b:	48 83 c2 08                 	(arith) 	add	$0x8,%rdx
/home/jgarcia/TFG/source_code/SP/exact_rhs.f:294
  40469f:	48 3d c0 3f 00 00           	(arith) 	cmp	$0x3fc0,%rax
  4046a5:	75 86                       	(control)	jne	40462d <exact_rhs_+0x1ced>	; ↰ label 380 (loop 42)
; ------- Loop 42 exit
381:	
/home/jgarcia/TFG/source_code/SP/exact_rhs.f:305
  4046a7:	44 8b 25 5a b4 20 00        	(move)  	mov	0x20b45a(%rip),%r12d
  4046ae:	41 83 ec 04                 	(arith) 	sub	$0x4,%r12d
/home/jgarcia/TFG/source_code/SP/exact_rhs.f:308
  4046b2:	f2 0f 10 1d 06 b0 20 00     	(move)  	movsd	0x20b006(%rip),%xmm3
  4046ba:	4c 89 74 24 18              	(move)  	mov	%r14,0x18(%rsp)
  4046bf:	4d 89 f3                    	(move)  	mov	%r14,%r11
  4046c2:	41 bd 00 00 00 00           	(move)  	mov	$0,%r13d
/home/jgarcia/TFG/source_code/SP/exact_rhs.f:305
  4046c8:	41 bf 02 00 00 00           	(move)  	mov	$0x2,%r15d
/home/jgarcia/TFG/source_code/SP/exact_rhs.f:308
  4046ce:	b9 20 fb 60 00              	(move)  	mov	$0x60fb20,%ecx
  4046d3:	48 bf 20 18 94 01 00 00 00 00	(move)  	mov	$0x1941820,%rdi
; ------- Loop 43 entry
382 (loop 43):	
/home/jgarcia/TFG/source_code/SP/exact_rhs.f:305
  4046dd:	41 83 fc 02                 	(arith) 	cmp	$0x2,%r12d
  4046e1:	0f 8e b7 00 00 00           	(control)	jle	40479e <exact_rhs_+0x1e5e>	; ↲ label 383
384:	
  4046e7:	4c 89 ea                    	(move)  	mov	%r13,%rdx
  4046ea:	44 89 fb                    	(move)  	mov	%r15d,%ebx
  4046ed:	b8 03 00 00 00              	(move)  	mov	$0x3,%eax
; ------- Loop 46 entry
385 (loop 46):	
/home/jgarcia/TFG/source_code/SP/exact_rhs.f:308
  4046f2:	48 63 f0                    	(move)  	movsxd	%eax,%rsi
  4046f5:	4c 69 c6 35 c3 0c 00        	(arith) 	imul	$0xcc335,%rsi,%r8
  4046fc:	44 8d 48 fe                 	(arith) 	lea	-0x2(%rax),%r9d
  404700:	4d 63 c9                    	(move)  	movsxd	%r9d,%r9
  404703:	4e 8d 8c 0a 90 09 00 00     	(arith) 	lea	0x990(%rdx,%r9,1),%r9
  40470b:	4c 63 d3                    	(move)  	movsxd	%ebx,%r10
  40470e:	4e 8d 94 12 90 09 00 00     	(arith) 	lea	0x990(%rdx,%r10,1),%r10
  404716:	f2 0f 10 0d b2 9d 00 00     	(move)  	movsd	0x9db2(%rip),%xmm1
  40471e:	f2 42 0f 59 0c d1           	(arith) 	mulsd	(%rcx,%r10,8),%xmm1
  404724:	f2 42 0f 58 0c c9           	(arith) 	addsd	(%rcx,%r9,8),%xmm1
  40472a:	48 8d b4 16 90 09 00 00     	(arith) 	lea	0x990(%rsi,%rdx,1),%rsi
  404732:	f2 0f 10 05 9e 9d 00 00     	(move)  	movsd	0x9d9e(%rip),%xmm0
  40473a:	f2 0f 59 04 f1              	(arith) 	mulsd	(%rcx,%rsi,8),%xmm0
  40473f:	f2 0f 58 c8                 	(arith) 	addsd	%xmm0,%xmm1
  404743:	83 c0 01                    	(arith) 	add	$0x1,%eax
  404746:	4b 8d b4 03 98 2d 28 45     	(arith) 	lea	0x45282d98(%r11,%r8,1),%rsi
  40474e:	4c 63 c0                    	(move)  	movsxd	%eax,%r8
  404751:	4e 8d 84 02 90 09 00 00     	(arith) 	lea	0x990(%rdx,%r8,1),%r8
  404759:	f2 0f 10 15 6f 9d 00 00     	(move)  	movsd	0x9d6f(%rip),%xmm2
  404761:	f2 42 0f 59 14 c1           	(arith) 	mulsd	(%rcx,%r8,8),%xmm2
  404767:	f2 0f 58 ca                 	(arith) 	addsd	%xmm2,%xmm1
  40476b:	44 8d 40 01                 	(arith) 	lea	0x1(%rax),%r8d
  40476f:	4d 63 c0                    	(move)  	movsxd	%r8d,%r8
  404772:	4e 8d 84 02 90 09 00 00     	(arith) 	lea	0x990(%rdx,%r8,1),%r8
  40477a:	f2 42 0f 58 0c c1           	(arith) 	addsd	(%rcx,%r8,8),%xmm1
  404780:	f2 0f 59 cb                 	(arith) 	mulsd	%xmm3,%xmm1
  404784:	f2 0f 10 04 f7              	(move)  	movsd	(%rdi,%rsi,8),%xmm0
  404789:	f2 0f 5c c1                 	(arith) 	subsd	%xmm1,%xmm0
  40478d:	f2 0f 11 04 f7              	(move)  	movsd	%xmm0,(%rdi,%rsi,8)
  404792:	83 c3 01                    	(arith) 	add	$0x1,%ebx
/home/jgarcia/TFG/source_code/SP/exact_rhs.f:305
  404795:	44 39 e3                    	(arith) 	cmp	%r12d,%ebx
  404798:	0f 85 54 ff ff ff           	(control)	jne	4046f2 <exact_rhs_+0x1db2>	; ↰ label 385 (loop 46)
; ------- Loop 46 exit
383:	
  40479e:	49 83 c3 01                 	(arith) 	add	$0x1,%r11
  4047a2:	49 81 c5 98 01 00 00        	(arith) 	add	$0x198,%r13
/home/jgarcia/TFG/source_code/SP/exact_rhs.f:304
  4047a9:	49 81 fd f8 07 00 00        	(arith) 	cmp	$0x7f8,%r13
  4047b0:	0f 85 27 ff ff ff           	(control)	jne	4046dd <exact_rhs_+0x1d9d>	; ↰ label 382 (loop 43)
; ------- Loop 43 exit
386:	
/home/jgarcia/TFG/source_code/SP/exact_rhs.f:313
  4047b6:	8b 0d 4c b3 20 00           	(move)  	mov	0x20b34c(%rip),%ecx
/home/jgarcia/TFG/source_code/SP/exact_rhs.f:316
  4047bc:	8d 59 fd                    	(arith) 	lea	-0x3(%rcx),%ebx
  4047bf:	48 63 db                    	(move)  	movsxd	%ebx,%rbx
  4047c2:	48 69 db 35 c3 0c 00        	(arith) 	imul	$0xcc335,%rbx,%rbx
  4047c9:	f2 0f 10 0d ef ae 20 00     	(move)  	movsd	0x20aeef(%rip),%xmm1
  4047d1:	4a 8d 84 33 98 2d 28 45     	(arith) 	lea	0x45282d98(%rbx,%r14,1),%rax
  4047d9:	48 bf 20 18 94 01 00 00 00 00	(move)  	mov	$0x1941820,%rdi
  4047e3:	48 8d 14 c7                 	(arith) 	lea	(%rdi,%rax,8),%rdx
  4047e7:	48 63 f1                    	(move)  	movsxd	%ecx,%rsi
  4047ea:	48 8d 04 f5 78 47 61 00     	(arith) 	lea	0x614778(,%rsi,8),%rax
  4047f2:	83 e9 02                    	(arith) 	sub	$0x2,%ecx
  4047f5:	48 63 c9                    	(move)  	movsxd	%ecx,%rcx
  4047f8:	48 69 c9 35 c3 0c 00        	(arith) 	imul	$0xcc335,%rcx,%rcx
  4047ff:	49 8d 8c 0e 98 2d 28 45     	(arith) 	lea	0x45282d98(%r14,%rcx,1),%rcx
  404807:	48 8d 3c cf                 	(arith) 	lea	(%rdi,%rcx,8),%rdi
  40480b:	48 8d 0c f5 80 47 61 00     	(arith) 	lea	0x614780(,%rsi,8),%rcx
/home/jgarcia/TFG/source_code/SP/exact_rhs.f:5
  404813:	48 03 5c 24 18              	(arith) 	add	0x18(%rsp),%rbx
  404818:	48 be 08 85 d5 2a 02 00 00 00	(move)  	mov	$0x22ad58508,%rsi
  404822:	48 8d 1c de                 	(arith) 	lea	(%rsi,%rbx,8),%rbx
/home/jgarcia/TFG/source_code/SP/exact_rhs.f:316
  404826:	f2 0f 10 05 a2 9c 00 00     	(move)  	movsd	0x9ca2(%rip),%xmm0
  40482e:	f2 0f 10 35 a2 9c 00 00     	(move)  	movsd	0x9ca2(%rip),%xmm6
/home/jgarcia/TFG/source_code/SP/exact_rhs.f:319
  404836:	f2 0f 10 2d 8a 9c 00 00     	(move)  	movsd	0x9c8a(%rip),%xmm5
; ------- Loop 44 entry
387 (loop 44):	
/home/jgarcia/TFG/source_code/SP/exact_rhs.f:316
  40483e:	66 0f 28 d8                 	(move)  	movapd	%xmm0,%xmm3
  404842:	f2 0f 59 58 08              	(arith) 	mulsd	0x8(%rax),%xmm3
  404847:	f2 0f 58 18                 	(arith) 	addsd	(%rax),%xmm3
  40484b:	66 0f 28 d6                 	(move)  	movapd	%xmm6,%xmm2
  40484f:	f2 0f 59 50 10              	(arith) 	mulsd	0x10(%rax),%xmm2
  404854:	f2 0f 58 da                 	(arith) 	addsd	%xmm2,%xmm3
  404858:	66 0f 28 e0                 	(move)  	movapd	%xmm0,%xmm4
  40485c:	f2 0f 59 60 18              	(arith) 	mulsd	0x18(%rax),%xmm4
  404861:	f2 0f 58 dc                 	(arith) 	addsd	%xmm4,%xmm3
  404865:	f2 0f 59 d9                 	(arith) 	mulsd	%xmm1,%xmm3
  404869:	f2 0f 10 12                 	(move)  	movsd	(%rdx),%xmm2
  40486d:	f2 0f 5c d3                 	(arith) 	subsd	%xmm3,%xmm2
  404871:	f2 0f 11 12                 	(move)  	movsd	%xmm2,(%rdx)
/home/jgarcia/TFG/source_code/SP/exact_rhs.f:319
  404875:	66 0f 28 d8                 	(move)  	movapd	%xmm0,%xmm3
  404879:	f2 0f 59 59 08              	(arith) 	mulsd	0x8(%rcx),%xmm3
  40487e:	f2 0f 58 19                 	(arith) 	addsd	(%rcx),%xmm3
  404882:	66 0f 28 e5                 	(move)  	movapd	%xmm5,%xmm4
  404886:	f2 0f 59 61 10              	(arith) 	mulsd	0x10(%rcx),%xmm4
  40488b:	f2 0f 58 dc                 	(arith) 	addsd	%xmm4,%xmm3
  40488f:	f2 0f 59 d9                 	(arith) 	mulsd	%xmm1,%xmm3
  404893:	f2 0f 10 17                 	(move)  	movsd	(%rdi),%xmm2
  404897:	f2 0f 5c d3                 	(arith) 	subsd	%xmm3,%xmm2
  40489b:	f2 0f 11 17                 	(move)  	movsd	%xmm2,(%rdi)
  40489f:	48 83 c2 08                 	(arith) 	add	$0x8,%rdx
  4048a3:	48 05 c0 0c 00 00           	(arith) 	add	$0xcc0,%rax
  4048a9:	48 83 c7 08                 	(arith) 	add	$0x8,%rdi
  4048ad:	48 81 c1 c0 0c 00 00        	(arith) 	add	$0xcc0,%rcx
/home/jgarcia/TFG/source_code/SP/exact_rhs.f:312
  4048b4:	48 39 da                    	(arith) 	cmp	%rbx,%rdx
  4048b7:	75 85                       	(control)	jne	40483e <exact_rhs_+0x1efe>	; ↰ label 387 (loop 44)
; ------- Loop 44 exit
388:	
/home/jgarcia/TFG/source_code/SP/exact_rhs.f:233
  4048b9:	44 8b ac 24 90 00 00 00     	(move)  	mov	0x90(%rsp),%r13d
  4048c1:	44 39 6c 24 78              	(arith) 	cmp	%r13d,0x78(%rsp)
  4048c6:	74 0a                       	(control)	je	4048d2 <exact_rhs_+0x1f92>	; ↲ label 363
389:	
  4048c8:	83 44 24 78 01              	(arith) 	addl	$0x1,0x78(%rsp)
  4048cd:	e9 ba f6 ff ff              	(control)	jmp	403f8c <exact_rhs_+0x164c>	; ↰ label 365 (loop 45)
; ------- Loop 45 exit
363:	
/home/jgarcia/TFG/source_code/SP/exact_rhs.f:231
  4048d2:	8b 84 24 a8 00 00 00        	(move)  	mov	0xa8(%rsp),%eax
  4048d9:	39 84 24 a0 00 00 00        	(arith) 	cmp	%eax,0xa0(%rsp)
  4048e0:	74 0d                       	(control)	je	4048ef <exact_rhs_+0x1faf>	; ↲ label 360
390:	
  4048e2:	83 84 24 a0 00 00 00 01     	(arith) 	addl	$0x1,0xa0(%rsp)
  4048ea:	e9 39 f6 ff ff              	(control)	jmp	403f28 <exact_rhs_+0x15e8>	; ↰ label 362 (loop 41)
; ------- Loop 41 exit
360:	
/home/jgarcia/TFG/source_code/SP/exact_rhs.f:328
  4048ef:	44 8b 2d 12 b2 20 00        	(move)  	mov	0x20b212(%rip),%r13d
  4048f6:	41 83 ed 02                 	(arith) 	sub	$0x2,%r13d
  4048fa:	45 85 ed                    	(arith) 	test	%r13d,%r13d
  4048fd:	0f 8e b8 00 00 00           	(control)	jle	4049bb <exact_rhs_+0x207b>	; ↲ label 391
392:	
/home/jgarcia/TFG/source_code/SP/exact_rhs.f:329
  404903:	44 8b 0d fa b1 20 00        	(move)  	mov	0x20b1fa(%rip),%r9d
  40490a:	41 83 e9 02                 	(arith) 	sub	$0x2,%r9d
/home/jgarcia/TFG/source_code/SP/exact_rhs.f:330
  40490e:	8b 1d ec b1 20 00           	(move)  	mov	0x20b1ec(%rip),%ebx
  404914:	83 eb 02                    	(arith) 	sub	$0x2,%ebx
  404917:	41 bc 01 00 00 00           	(move)  	mov	$0x1,%r12d
/home/jgarcia/TFG/source_code/SP/exact_rhs.f:332
  40491d:	41 be 01 00 00 00           	(move)  	mov	$0x1,%r14d
  404923:	48 bd 20 18 94 01 00 00 00 00	(move)  	mov	$0x1941820,%rbp
  40492d:	f2 0f 10 0d ab 9b 00 00     	(move)  	movsd	0x9bab(%rip),%xmm1
  404935:	45 89 f3                    	(move)  	mov	%r14d,%r11d
  404938:	44 89 f7                    	(move)  	mov	%r14d,%edi
; ------- Loop 37 entry
393 (loop 37):	
/home/jgarcia/TFG/source_code/SP/exact_rhs.f:329
  40493b:	45 85 c9                    	(arith) 	test	%r9d,%r9d
  40493e:	7e 70                       	(control)	jle	4049b0 <exact_rhs_+0x2070>	; ↲ label 394
395:	
/home/jgarcia/TFG/source_code/SP/exact_rhs.f:332
  404940:	4d 63 d4                    	(move)  	movsxd	%r12d,%r10
  404943:	4d 69 d2 35 c3 0c 00        	(arith) 	imul	$0xcc335,%r10,%r10
  40494a:	49 83 ea 01                 	(arith) 	sub	$0x1,%r10
  40494e:	45 89 f0                    	(move)  	mov	%r14d,%r8d
; ------- Loop 38 entry
396 (loop 38):	
/home/jgarcia/TFG/source_code/SP/exact_rhs.f:330
  404951:	85 db                       	(arith) 	test	%ebx,%ebx
  404953:	7e 50                       	(control)	jle	4049a5 <exact_rhs_+0x2065>	; ↲ label 397
398:	
/home/jgarcia/TFG/source_code/SP/exact_rhs.f:332
  404955:	49 63 c0                    	(move)  	movsxd	%r8d,%rax
  404958:	48 89 c2                    	(move)  	mov	%rax,%rdx
  40495b:	48 c1 e2 09                 	(logic) 	sal	$0x9,%rdx
  40495f:	48 29 c2                    	(arith) 	sub	%rax,%rdx
  404962:	48 8d 04 90                 	(arith) 	lea	(%rax,%rdx,4),%rax
  404966:	44 89 d9                    	(move)  	mov	%r11d,%ecx
  404969:	49 8d 74 02 01              	(arith) 	lea	0x1(%r10,%rax,1),%rsi
; ------- Loop 40 entry
399 (loop 40):	
  40496e:	48 63 c1                    	(move)  	movsxd	%ecx,%rax
  404971:	48 8d 04 80                 	(arith) 	lea	(%rax,%rax,4),%rax
  404975:	48 8d 84 30 98 2d 28 45     	(arith) 	lea	0x45282d98(%rax,%rsi,1),%rax
  40497d:	48 8d 44 c5 00              	(arith) 	lea	(%rbp,%rax,8),%rax
  404982:	89 fa                       	(move)  	mov	%edi,%edx
; ------- Loop 39 entry
400 (loop 39):	
  404984:	f2 0f 10 00                 	(move)  	movsd	(%rax),%xmm0
  404988:	66 0f 57 c1                 	(logic) 	xorpd	%xmm1,%xmm0
  40498c:	f2 0f 11 00                 	(move)  	movsd	%xmm0,(%rax)
/home/jgarcia/TFG/source_code/SP/exact_rhs.f:331
  404990:	83 c2 01                    	(arith) 	add	$0x1,%edx
  404993:	48 83 c0 08                 	(arith) 	add	$0x8,%rax
  404997:	83 fa 06                    	(arith) 	cmp	$0x6,%edx
  40499a:	75 e8                       	(control)	jne	404984 <exact_rhs_+0x2044>	; ↰ label 400 (loop 39)
; ------- Loop 39 exit
401:	
/home/jgarcia/TFG/source_code/SP/exact_rhs.f:330
  40499c:	39 d9                       	(arith) 	cmp	%ebx,%ecx
  40499e:	74 05                       	(control)	je	4049a5 <exact_rhs_+0x2065>	; ↲ label 397
402:	
  4049a0:	83 c1 01                    	(arith) 	add	$0x1,%ecx
  4049a3:	eb c9                       	(control)	jmp	40496e <exact_rhs_+0x202e>	; ↰ label 399 (loop 40)
; ------- Loop 40 exit
397:	
/home/jgarcia/TFG/source_code/SP/exact_rhs.f:329
  4049a5:	45 39 c8                    	(arith) 	cmp	%r9d,%r8d
  4049a8:	74 06                       	(control)	je	4049b0 <exact_rhs_+0x2070>	; ↲ label 394
403:	
  4049aa:	41 83 c0 01                 	(arith) 	add	$0x1,%r8d
  4049ae:	eb a1                       	(control)	jmp	404951 <exact_rhs_+0x2011>	; ↰ label 396 (loop 38)
; ------- Loop 38 exit
394:	
/home/jgarcia/TFG/source_code/SP/exact_rhs.f:328
  4049b0:	45 39 ec                    	(arith) 	cmp	%r13d,%r12d
  4049b3:	74 06                       	(control)	je	4049bb <exact_rhs_+0x207b>	; ↲ label 391
404:	
  4049b5:	41 83 c4 01                 	(arith) 	add	$0x1,%r12d
  4049b9:	eb 80                       	(control)	jmp	40493b <exact_rhs_+0x1ffb>	; ↰ label 393 (loop 37)
; ------- Loop 37 exit
391:	
/home/jgarcia/TFG/source_code/SP/exact_rhs.f:339
  4049bb:	48 81 c4 18 01 00 00        	(arith) 	add	$0x118,%rsp
  4049c2:	5b                          	(move)  	pop	%rbx
  4049c3:	5d                          	(move)  	pop	%rbp
  4049c4:	41 5c                       	(move)  	pop	%r12
  4049c6:	41 5d                       	(move)  	pop	%r13
  4049c8:	41 5e                       	(move)  	pop	%r14
  4049ca:	41 5f                       	(move)  	pop	%r15
  4049cc:	c3                          	(control)	ret
405:	
/home/jgarcia/TFG/source_code/SP/set_constants.f:5
  4049cd:	90                          	(other) 	nop
  4049ce:	90                          	(other) 	nop
  4049cf:	90                          	(other) 	nop


00000000004049d0 <set_constants>:
88 (function set_constants_):	
/home/jgarcia/TFG/source_code/SP/set_constants.f:12
  4049d0:	48 ba 00 00 00 00 00 00 00 40	(move)  	mov	$0x4000000000000000,%rdx
  4049da:	48 89 15 ef ac 20 00        	(move)  	mov	%rdx,0x20acef(%rip)
/home/jgarcia/TFG/source_code/SP/set_constants.f:13
  4049e1:	b8 00 00 00 00              	(move)  	mov	$0,%eax
  4049e6:	48 89 05 0b ad 20 00        	(move)  	mov	%rax,0x20ad0b(%rip)
/home/jgarcia/TFG/source_code/SP/set_constants.f:14
  4049ed:	48 89 05 2c ad 20 00        	(move)  	mov	%rax,0x20ad2c(%rip)
/home/jgarcia/TFG/source_code/SP/set_constants.f:15
  4049f4:	f2 44 0f 10 25 f3 9a 00 00  	(move)  	movsd	0x9af3(%rip),%xmm12
  4049fd:	f2 44 0f 11 25 42 ad 20 00  	(move)  	movsd	%xmm12,0x20ad42(%rip)
/home/jgarcia/TFG/source_code/SP/set_constants.f:16
  404a06:	f2 44 0f 10 1d b9 9a 00 00  	(move)  	movsd	0x9ab9(%rip),%xmm11
  404a0f:	f2 44 0f 11 1d 58 ad 20 00  	(move)  	movsd	%xmm11,0x20ad58(%rip)
/home/jgarcia/TFG/source_code/SP/set_constants.f:17
  404a18:	49 b8 00 00 00 00 00 00 08 40	(move)  	mov	$0x4008000000000000,%r8
  404a22:	4c 89 05 6f ad 20 00        	(move)  	mov	%r8,0x20ad6f(%rip)
/home/jgarcia/TFG/source_code/SP/set_constants.f:18
  404a29:	49 b9 00 00 00 00 00 00 e0 3f	(move)  	mov	$0x3fe0000000000000,%r9
  404a33:	4c 89 0d 86 ad 20 00        	(move)  	mov	%r9,0x20ad86(%rip)
/home/jgarcia/TFG/source_code/SP/set_constants.f:19
  404a3a:	49 ba 7b 14 ae 47 e1 7a 94 3f	(move)  	mov	$0x3f947ae147ae147b,%r10
  404a44:	4c 89 15 9d ad 20 00        	(move)  	mov	%r10,0x20ad9d(%rip)
/home/jgarcia/TFG/source_code/SP/set_constants.f:20
  404a4b:	49 bb 7b 14 ae 47 e1 7a 84 3f	(move)  	mov	$0x3f847ae147ae147b,%r11
  404a55:	4c 89 1d b4 ad 20 00        	(move)  	mov	%r11,0x20adb4(%rip)
/home/jgarcia/TFG/source_code/SP/set_constants.f:21
  404a5c:	48 bf b8 1e 85 eb 51 b8 9e 3f	(move)  	mov	$0x3f9eb851eb851eb8,%rdi
  404a66:	48 89 3d cb ad 20 00        	(move)  	mov	%rdi,0x20adcb(%rip)
/home/jgarcia/TFG/source_code/SP/set_constants.f:22
  404a6d:	4c 89 0d ec ad 20 00        	(move)  	mov	%r9,0x20adec(%rip)
/home/jgarcia/TFG/source_code/SP/set_constants.f:23
  404a74:	48 be 9a 99 99 99 99 99 d9 3f	(move)  	mov	$0x3fd999999999999a,%rsi
  404a7e:	48 89 35 03 ae 20 00        	(move)  	mov	%rsi,0x20ae03(%rip)
/home/jgarcia/TFG/source_code/SP/set_constants.f:24
  404a85:	48 b9 33 33 33 33 33 33 d3 3f	(move)  	mov	$0x3fd3333333333333,%rcx
  404a8f:	48 89 0d 1a ae 20 00        	(move)  	mov	%rcx,0x20ae1a(%rip)
/home/jgarcia/TFG/source_code/SP/set_constants.f:26
  404a96:	f2 0f 10 05 12 9a 00 00     	(move)  	movsd	0x9a12(%rip),%xmm0
  404a9e:	f2 0f 11 05 32 ac 20 00     	(move)  	movsd	%xmm0,0x20ac32(%rip)
/home/jgarcia/TFG/source_code/SP/set_constants.f:27
  404aa6:	48 89 05 53 ac 20 00        	(move)  	mov	%rax,0x20ac53(%rip)
/home/jgarcia/TFG/source_code/SP/set_constants.f:28
  404aad:	48 89 05 74 ac 20 00        	(move)  	mov	%rax,0x20ac74(%rip)
/home/jgarcia/TFG/source_code/SP/set_constants.f:29
  404ab4:	48 89 05 95 ac 20 00        	(move)  	mov	%rax,0x20ac95(%rip)
/home/jgarcia/TFG/source_code/SP/set_constants.f:30
  404abb:	f2 0f 11 05 b5 ac 20 00     	(move)  	movsd	%xmm0,0x20acb5(%rip)
/home/jgarcia/TFG/source_code/SP/set_constants.f:31
  404ac3:	48 89 15 d6 ac 20 00        	(move)  	mov	%rdx,0x20acd6(%rip)
/home/jgarcia/TFG/source_code/SP/set_constants.f:32
  404aca:	4c 89 05 f7 ac 20 00        	(move)  	mov	%r8,0x20acf7(%rip)
/home/jgarcia/TFG/source_code/SP/set_constants.f:33
  404ad1:	4c 89 1d 18 ad 20 00        	(move)  	mov	%r11,0x20ad18(%rip)
/home/jgarcia/TFG/source_code/SP/set_constants.f:34
  404ad8:	48 89 3d 39 ad 20 00        	(move)  	mov	%rdi,0x20ad39(%rip)
/home/jgarcia/TFG/source_code/SP/set_constants.f:35
  404adf:	4c 89 15 5a ad 20 00        	(move)  	mov	%r10,0x20ad5a(%rip)
/home/jgarcia/TFG/source_code/SP/set_constants.f:36
  404ae6:	48 89 35 7b ad 20 00        	(move)  	mov	%rsi,0x20ad7b(%rip)
/home/jgarcia/TFG/source_code/SP/set_constants.f:37
  404aed:	48 89 0d 9c ad 20 00        	(move)  	mov	%rcx,0x20ad9c(%rip)
/home/jgarcia/TFG/source_code/SP/set_constants.f:38
  404af4:	4c 89 0d bd ad 20 00        	(move)  	mov	%r9,0x20adbd(%rip)
/home/jgarcia/TFG/source_code/SP/set_constants.f:40
  404afb:	48 89 15 de ab 20 00        	(move)  	mov	%rdx,0x20abde(%rip)
/home/jgarcia/TFG/source_code/SP/set_constants.f:41
  404b02:	48 89 15 ff ab 20 00        	(move)  	mov	%rdx,0x20abff(%rip)
/home/jgarcia/TFG/source_code/SP/set_constants.f:42
  404b09:	48 89 05 20 ac 20 00        	(move)  	mov	%rax,0x20ac20(%rip)
/home/jgarcia/TFG/source_code/SP/set_constants.f:43
  404b10:	48 89 05 41 ac 20 00        	(move)  	mov	%rax,0x20ac41(%rip)
/home/jgarcia/TFG/source_code/SP/set_constants.f:44
  404b17:	48 89 05 62 ac 20 00        	(move)  	mov	%rax,0x20ac62(%rip)
/home/jgarcia/TFG/source_code/SP/set_constants.f:45
  404b1e:	48 89 15 83 ac 20 00        	(move)  	mov	%rdx,0x20ac83(%rip)
/home/jgarcia/TFG/source_code/SP/set_constants.f:46
  404b25:	4c 89 05 a4 ac 20 00        	(move)  	mov	%r8,0x20aca4(%rip)
/home/jgarcia/TFG/source_code/SP/set_constants.f:47
  404b2c:	49 ba 7b 14 ae 47 e1 7a a4 3f	(move)  	mov	$0x3fa47ae147ae147b,%r10
  404b36:	4c 89 15 bb ac 20 00        	(move)  	mov	%r10,0x20acbb(%rip)
/home/jgarcia/TFG/source_code/SP/set_constants.f:48
  404b3d:	48 89 3d dc ac 20 00        	(move)  	mov	%rdi,0x20acdc(%rip)
/home/jgarcia/TFG/source_code/SP/set_constants.f:49
  404b44:	49 bb 9a 99 99 99 99 99 a9 3f	(move)  	mov	$0x3fa999999999999a,%r11
  404b4e:	4c 89 1d f3 ac 20 00        	(move)  	mov	%r11,0x20acf3(%rip)
/home/jgarcia/TFG/source_code/SP/set_constants.f:50
  404b55:	48 89 0d 14 ad 20 00        	(move)  	mov	%rcx,0x20ad14(%rip)
/home/jgarcia/TFG/source_code/SP/set_constants.f:51
  404b5c:	4c 89 0d 35 ad 20 00        	(move)  	mov	%r9,0x20ad35(%rip)
/home/jgarcia/TFG/source_code/SP/set_constants.f:52
  404b63:	48 89 35 56 ad 20 00        	(move)  	mov	%rsi,0x20ad56(%rip)
/home/jgarcia/TFG/source_code/SP/set_constants.f:54
  404b6a:	48 89 15 77 ab 20 00        	(move)  	mov	%rdx,0x20ab77(%rip)
/home/jgarcia/TFG/source_code/SP/set_constants.f:55
  404b71:	48 89 15 98 ab 20 00        	(move)  	mov	%rdx,0x20ab98(%rip)
/home/jgarcia/TFG/source_code/SP/set_constants.f:56
  404b78:	48 89 05 b9 ab 20 00        	(move)  	mov	%rax,0x20abb9(%rip)
/home/jgarcia/TFG/source_code/SP/set_constants.f:57
  404b7f:	48 89 05 da ab 20 00        	(move)  	mov	%rax,0x20abda(%rip)
/home/jgarcia/TFG/source_code/SP/set_constants.f:58
  404b86:	48 89 05 fb ab 20 00        	(move)  	mov	%rax,0x20abfb(%rip)
/home/jgarcia/TFG/source_code/SP/set_constants.f:59
  404b8d:	48 89 15 1c ac 20 00        	(move)  	mov	%rdx,0x20ac1c(%rip)
/home/jgarcia/TFG/source_code/SP/set_constants.f:60
  404b94:	4c 89 05 3d ac 20 00        	(move)  	mov	%r8,0x20ac3d(%rip)
/home/jgarcia/TFG/source_code/SP/set_constants.f:61
  404b9b:	48 89 3d 5e ac 20 00        	(move)  	mov	%rdi,0x20ac5e(%rip)
/home/jgarcia/TFG/source_code/SP/set_constants.f:62
  404ba2:	4c 89 1d 7f ac 20 00        	(move)  	mov	%r11,0x20ac7f(%rip)
/home/jgarcia/TFG/source_code/SP/set_constants.f:63
  404ba9:	4c 89 15 a0 ac 20 00        	(move)  	mov	%r10,0x20aca0(%rip)
/home/jgarcia/TFG/source_code/SP/set_constants.f:64
  404bb0:	48 b8 9a 99 99 99 99 99 c9 3f	(move)  	mov	$0x3fc999999999999a,%rax
  404bba:	48 89 05 b7 ac 20 00        	(move)  	mov	%rax,0x20acb7(%rip)
/home/jgarcia/TFG/source_code/SP/set_constants.f:65
  404bc1:	f2 0f 10 15 2f 99 00 00     	(move)  	movsd	0x992f(%rip),%xmm2
  404bc9:	f2 0f 11 15 cf ac 20 00     	(move)  	movsd	%xmm2,0x20accf(%rip)
/home/jgarcia/TFG/source_code/SP/set_constants.f:66
  404bd1:	48 89 0d f0 ac 20 00        	(move)  	mov	%rcx,0x20acf0(%rip)
/home/jgarcia/TFG/source_code/SP/set_constants.f:68
  404bd8:	f2 44 0f 11 1d 0f ab 20 00  	(move)  	movsd	%xmm11,0x20ab0f(%rip)
/home/jgarcia/TFG/source_code/SP/set_constants.f:69
  404be1:	f2 44 0f 11 25 2e ab 20 00  	(move)  	movsd	%xmm12,0x20ab2e(%rip)
/home/jgarcia/TFG/source_code/SP/set_constants.f:70
  404bea:	4c 89 05 4f ab 20 00        	(move)  	mov	%r8,0x20ab4f(%rip)
/home/jgarcia/TFG/source_code/SP/set_constants.f:71
  404bf1:	48 89 15 70 ab 20 00        	(move)  	mov	%rdx,0x20ab70(%rip)
/home/jgarcia/TFG/source_code/SP/set_constants.f:72
  404bf8:	f2 0f 11 15 90 ab 20 00     	(move)  	movsd	%xmm2,0x20ab90(%rip)
/home/jgarcia/TFG/source_code/SP/set_constants.f:73
  404c00:	48 89 35 b1 ab 20 00        	(move)  	mov	%rsi,0x20abb1(%rip)
/home/jgarcia/TFG/source_code/SP/set_constants.f:74
  404c07:	48 89 0d d2 ab 20 00        	(move)  	mov	%rcx,0x20abd2(%rip)
/home/jgarcia/TFG/source_code/SP/set_constants.f:75
  404c0e:	4c 89 1d f3 ab 20 00        	(move)  	mov	%r11,0x20abf3(%rip)
/home/jgarcia/TFG/source_code/SP/set_constants.f:76
  404c15:	4c 89 15 14 ac 20 00        	(move)  	mov	%r10,0x20ac14(%rip)
/home/jgarcia/TFG/source_code/SP/set_constants.f:77
  404c1c:	48 89 3d 35 ac 20 00        	(move)  	mov	%rdi,0x20ac35(%rip)
/home/jgarcia/TFG/source_code/SP/set_constants.f:78
  404c23:	f2 0f 11 15 55 ac 20 00     	(move)  	movsd	%xmm2,0x20ac55(%rip)
/home/jgarcia/TFG/source_code/SP/set_constants.f:79
  404c2b:	48 89 0d 76 ac 20 00        	(move)  	mov	%rcx,0x20ac76(%rip)
/home/jgarcia/TFG/source_code/SP/set_constants.f:80
  404c32:	48 89 05 97 ac 20 00        	(move)  	mov	%rax,0x20ac97(%rip)
/home/jgarcia/TFG/source_code/SP/set_constants.f:82
  404c39:	48 b8 66 66 66 66 66 66 f6 3f	(move)  	mov	$0x3ff6666666666666,%rax
  404c43:	48 89 05 d6 ad 20 00        	(move)  	mov	%rax,0x20add6(%rip)
/home/jgarcia/TFG/source_code/SP/set_constants.f:83
  404c4a:	48 89 35 d7 ad 20 00        	(move)  	mov	%rsi,0x20add7(%rip)
/home/jgarcia/TFG/source_code/SP/set_constants.f:84
  404c51:	f2 0f 11 15 d7 ad 20 00     	(move)  	movsd	%xmm2,0x20add7(%rip)
/home/jgarcia/TFG/source_code/SP/set_constants.f:85
  404c59:	f2 0f 11 05 d7 ad 20 00     	(move)  	movsd	%xmm0,0x20add7(%rip)
/home/jgarcia/TFG/source_code/SP/set_constants.f:86
  404c61:	48 89 05 d8 ad 20 00        	(move)  	mov	%rax,0x20add8(%rip)
/home/jgarcia/TFG/source_code/SP/set_constants.f:88
  404c68:	c7 05 f6 ad 20 00 cd 3b 7f 66	(move)  	movl	$0x667f3bcd,0x20adf6(%rip)
  404c72:	c7 05 f0 ad 20 00 9e a0 e6 3f	(move)  	movl	$0x3fe6a09e,0x20adf0(%rip)
/home/jgarcia/TFG/source_code/SP/set_constants.f:90
  404c7c:	8b 05 7e ae 20 00           	(move)  	mov	0x20ae7e(%rip),%eax
  404c82:	83 e8 01                    	(arith) 	sub	$0x1,%eax
  404c85:	f2 0f 2a e8                 	(conv)  	cvtsi2sd	%eax,%xmm5
  404c89:	66 0f 28 c8                 	(move)  	movapd	%xmm0,%xmm1
  404c8d:	f2 0f 5e cd                 	(arith) 	divsd	%xmm5,%xmm1
  404c91:	66 0f 28 e9                 	(move)  	movapd	%xmm1,%xmm5
  404c95:	f2 0f 11 0d 43 ad 20 00     	(move)  	movsd	%xmm1,0x20ad43(%rip)
/home/jgarcia/TFG/source_code/SP/set_constants.f:91
  404c9d:	8b 05 61 ae 20 00           	(move)  	mov	0x20ae61(%rip),%eax
  404ca3:	83 e8 01                    	(arith) 	sub	$0x1,%eax
  404ca6:	f2 0f 2a e0                 	(conv)  	cvtsi2sd	%eax,%xmm4
  404caa:	66 0f 28 c8                 	(move)  	movapd	%xmm0,%xmm1
  404cae:	f2 0f 5e cc                 	(arith) 	divsd	%xmm4,%xmm1
  404cb2:	66 0f 28 e1                 	(move)  	movapd	%xmm1,%xmm4
  404cb6:	f2 0f 11 0d 2a ad 20 00     	(move)  	movsd	%xmm1,0x20ad2a(%rip)
/home/jgarcia/TFG/source_code/SP/set_constants.f:92
  404cbe:	8b 05 44 ae 20 00           	(move)  	mov	0x20ae44(%rip),%eax
  404cc4:	83 e8 01                    	(arith) 	sub	$0x1,%eax
  404cc7:	f2 0f 2a d8                 	(conv)  	cvtsi2sd	%eax,%xmm3
  404ccb:	66 0f 28 c8                 	(move)  	movapd	%xmm0,%xmm1
  404ccf:	f2 0f 5e cb                 	(arith) 	divsd	%xmm3,%xmm1
  404cd3:	66 0f 28 d9                 	(move)  	movapd	%xmm1,%xmm3
  404cd7:	f2 0f 11 0d 11 ad 20 00     	(move)  	movsd	%xmm1,0x20ad11(%rip)
/home/jgarcia/TFG/source_code/SP/set_constants.f:94
  404cdf:	c7 05 0f ad 20 00 eb 51 b8 1e	(move)  	movl	$0x1eb851eb,0x20ad0f(%rip)
  404ce9:	c7 05 09 ad 20 00 85 eb e1 3f	(move)  	movl	$0x3fe1eb85,0x20ad09(%rip)
/home/jgarcia/TFG/source_code/SP/set_constants.f:95
  404cf3:	f2 0f 10 3d 05 98 00 00     	(move)  	movsd	0x9805(%rip),%xmm7
  404cfb:	f2 0f 11 3d fd ac 20 00     	(move)  	movsd	%xmm7,0x20acfd(%rip)
/home/jgarcia/TFG/source_code/SP/set_constants.f:96
  404d03:	f2 0f 11 15 fd ac 20 00     	(move)  	movsd	%xmm2,0x20acfd(%rip)
/home/jgarcia/TFG/source_code/SP/set_constants.f:97
  404d0b:	c7 05 fb ac 20 00 49 0c 02 2b	(move)  	movl	$0x2b020c49,0x20acfb(%rip)
  404d15:	c7 05 f5 ac 20 00 87 16 c9 3f	(move)  	movl	$0x3fc91687,0x20acf5(%rip)
/home/jgarcia/TFG/source_code/SP/set_constants.f:99
  404d1f:	f2 44 0f 10 05 e0 97 00 00  	(move)  	movsd	0x97e0(%rip),%xmm8
  404d28:	f2 44 0f 11 05 e7 ac 20 00  	(move)  	movsd	%xmm8,0x20ace7(%rip)
/home/jgarcia/TFG/source_code/SP/set_constants.f:101
  404d31:	66 44 0f 28 d5              	(move)  	movapd	%xmm5,%xmm10
  404d36:	f2 44 0f 59 d5              	(arith) 	mulsd	%xmm5,%xmm10
  404d3b:	66 0f 28 c8                 	(move)  	movapd	%xmm0,%xmm1
  404d3f:	f2 41 0f 5e ca              	(arith) 	divsd	%xmm10,%xmm1
  404d44:	66 44 0f 28 d1              	(move)  	movapd	%xmm1,%xmm10
  404d49:	f2 0f 11 0d af a8 20 00     	(move)  	movsd	%xmm1,0x20a8af(%rip)
/home/jgarcia/TFG/source_code/SP/set_constants.f:102
  404d51:	66 44 0f 28 fd              	(move)  	movapd	%xmm5,%xmm15
  404d56:	f2 44 0f 58 fd              	(arith) 	addsd	%xmm5,%xmm15
  404d5b:	66 0f 28 c8                 	(move)  	movapd	%xmm0,%xmm1
  404d5f:	f2 41 0f 5e cf              	(arith) 	divsd	%xmm15,%xmm1
  404d64:	66 44 0f 28 f9              	(move)  	movapd	%xmm1,%xmm15
  404d69:	f2 0f 11 0d 97 a8 20 00     	(move)  	movsd	%xmm1,0x20a897(%rip)
/home/jgarcia/TFG/source_code/SP/set_constants.f:103
  404d71:	66 0f 28 c8                 	(move)  	movapd	%xmm0,%xmm1
  404d75:	f2 0f 5e cd                 	(arith) 	divsd	%xmm5,%xmm1
  404d79:	66 0f 28 e9                 	(move)  	movapd	%xmm1,%xmm5
  404d7d:	f2 0f 11 0d 8b a8 20 00     	(move)  	movsd	%xmm1,0x20a88b(%rip)
/home/jgarcia/TFG/source_code/SP/set_constants.f:105
  404d85:	66 44 0f 28 cc              	(move)  	movapd	%xmm4,%xmm9
  404d8a:	f2 44 0f 59 cc              	(arith) 	mulsd	%xmm4,%xmm9
  404d8f:	66 0f 28 c8                 	(move)  	movapd	%xmm0,%xmm1
  404d93:	f2 41 0f 5e c9              	(arith) 	divsd	%xmm9,%xmm1
  404d98:	66 44 0f 28 c9              	(move)  	movapd	%xmm1,%xmm9
  404d9d:	f2 0f 11 0d 73 a8 20 00     	(move)  	movsd	%xmm1,0x20a873(%rip)
/home/jgarcia/TFG/source_code/SP/set_constants.f:106
  404da5:	66 44 0f 28 f4              	(move)  	movapd	%xmm4,%xmm14
  404daa:	f2 44 0f 58 f4              	(arith) 	addsd	%xmm4,%xmm14
  404daf:	66 0f 28 c8                 	(move)  	movapd	%xmm0,%xmm1
  404db3:	f2 41 0f 5e ce              	(arith) 	divsd	%xmm14,%xmm1
  404db8:	66 44 0f 28 f1              	(move)  	movapd	%xmm1,%xmm14
  404dbd:	f2 0f 11 0d 5b a8 20 00     	(move)  	movsd	%xmm1,0x20a85b(%rip)
/home/jgarcia/TFG/source_code/SP/set_constants.f:107
  404dc5:	66 0f 28 c8                 	(move)  	movapd	%xmm0,%xmm1
  404dc9:	f2 0f 5e cc                 	(arith) 	divsd	%xmm4,%xmm1
  404dcd:	66 0f 28 e1                 	(move)  	movapd	%xmm1,%xmm4
  404dd1:	f2 0f 11 0d 4f a8 20 00     	(move)  	movsd	%xmm1,0x20a84f(%rip)
/home/jgarcia/TFG/source_code/SP/set_constants.f:109
  404dd9:	66 0f 28 f3                 	(move)  	movapd	%xmm3,%xmm6
  404ddd:	f2 0f 59 f3                 	(arith) 	mulsd	%xmm3,%xmm6
  404de1:	66 0f 28 c8                 	(move)  	movapd	%xmm0,%xmm1
  404de5:	f2 0f 5e ce                 	(arith) 	divsd	%xmm6,%xmm1
  404de9:	66 0f 28 f1                 	(move)  	movapd	%xmm1,%xmm6
  404ded:	f2 0f 11 0d 3b a8 20 00     	(move)  	movsd	%xmm1,0x20a83b(%rip)
/home/jgarcia/TFG/source_code/SP/set_constants.f:110
  404df5:	66 44 0f 28 eb              	(move)  	movapd	%xmm3,%xmm13
  404dfa:	f2 44 0f 58 eb              	(arith) 	addsd	%xmm3,%xmm13
  404dff:	66 0f 28 c8                 	(move)  	movapd	%xmm0,%xmm1
  404e03:	f2 41 0f 5e cd              	(arith) 	divsd	%xmm13,%xmm1
  404e08:	66 44 0f 28 e9              	(move)  	movapd	%xmm1,%xmm13
  404e0d:	f2 0f 11 0d 23 a8 20 00     	(move)  	movsd	%xmm1,0x20a823(%rip)
/home/jgarcia/TFG/source_code/SP/set_constants.f:111
  404e15:	66 0f 28 c8                 	(move)  	movapd	%xmm0,%xmm1
  404e19:	f2 0f 5e cb                 	(arith) 	divsd	%xmm3,%xmm1
  404e1d:	66 0f 28 d9                 	(move)  	movapd	%xmm1,%xmm3
  404e21:	f2 0f 11 0d 17 a8 20 00     	(move)  	movsd	%xmm1,0x20a817(%rip)
/home/jgarcia/TFG/source_code/SP/set_constants.f:113
  404e29:	f2 0f 10 0d df 96 00 00     	(move)  	movsd	0x96df(%rip),%xmm1
  404e31:	f2 0f 11 0d 0f a8 20 00     	(move)  	movsd	%xmm1,0x20a80f(%rip)
/home/jgarcia/TFG/source_code/SP/set_constants.f:114
  404e39:	f2 0f 11 0d 0f a8 20 00     	(move)  	movsd	%xmm1,0x20a80f(%rip)
/home/jgarcia/TFG/source_code/SP/set_constants.f:115
  404e41:	f2 0f 11 0d 0f a8 20 00     	(move)  	movsd	%xmm1,0x20a80f(%rip)
/home/jgarcia/TFG/source_code/SP/set_constants.f:116
  404e49:	f2 0f 11 0d 0f a8 20 00     	(move)  	movsd	%xmm1,0x20a80f(%rip)
/home/jgarcia/TFG/source_code/SP/set_constants.f:117
  404e51:	f2 0f 11 0d 0f a8 20 00     	(move)  	movsd	%xmm1,0x20a80f(%rip)
/home/jgarcia/TFG/source_code/SP/set_constants.f:119
  404e59:	f2 0f 11 0d 0f a8 20 00     	(move)  	movsd	%xmm1,0x20a80f(%rip)
/home/jgarcia/TFG/source_code/SP/set_constants.f:120
  404e61:	f2 0f 11 0d 0f a8 20 00     	(move)  	movsd	%xmm1,0x20a80f(%rip)
/home/jgarcia/TFG/source_code/SP/set_constants.f:121
  404e69:	f2 0f 11 0d 0f a8 20 00     	(move)  	movsd	%xmm1,0x20a80f(%rip)
/home/jgarcia/TFG/source_code/SP/set_constants.f:122
  404e71:	f2 0f 11 0d 0f a8 20 00     	(move)  	movsd	%xmm1,0x20a80f(%rip)
/home/jgarcia/TFG/source_code/SP/set_constants.f:123
  404e79:	f2 0f 11 0d 0f a8 20 00     	(move)  	movsd	%xmm1,0x20a80f(%rip)
/home/jgarcia/TFG/source_code/SP/set_constants.f:125
  404e81:	f2 0f 11 05 0f a8 20 00     	(move)  	movsd	%xmm0,0x20a80f(%rip)
/home/jgarcia/TFG/source_code/SP/set_constants.f:126
  404e89:	f2 0f 11 05 0f a8 20 00     	(move)  	movsd	%xmm0,0x20a80f(%rip)
/home/jgarcia/TFG/source_code/SP/set_constants.f:127
  404e91:	f2 0f 11 05 0f a8 20 00     	(move)  	movsd	%xmm0,0x20a80f(%rip)
/home/jgarcia/TFG/source_code/SP/set_constants.f:128
  404e99:	f2 0f 11 05 0f a8 20 00     	(move)  	movsd	%xmm0,0x20a80f(%rip)
/home/jgarcia/TFG/source_code/SP/set_constants.f:129
  404ea1:	f2 0f 11 05 0f a8 20 00     	(move)  	movsd	%xmm0,0x20a80f(%rip)
/home/jgarcia/TFG/source_code/SP/set_constants.f:131
  404ea9:	f2 0f 11 0d 27 aa 20 00     	(move)  	movsd	%xmm1,0x20aa27(%rip)
/home/jgarcia/TFG/source_code/SP/set_constants.f:132
  404eb1:	f2 0f 11 0d 27 aa 20 00     	(move)  	movsd	%xmm1,0x20aa27(%rip)
/home/jgarcia/TFG/source_code/SP/set_constants.f:133
  404eb9:	f2 0f 11 05 27 aa 20 00     	(move)  	movsd	%xmm0,0x20aa27(%rip)
/home/jgarcia/TFG/source_code/SP/set_constants.f:135
  404ec1:	c7 05 f5 a7 20 00 00 00 00 00	(move)  	movl	$0,0x20a7f5(%rip)
  404ecb:	c7 05 ef a7 20 00 00 00 d0 3f	(move)  	movl	$0x3fd00000,0x20a7ef(%rip)
/home/jgarcia/TFG/source_code/SP/set_constants.f:137
  404ed5:	f2 0f 11 05 6b ab 20 00     	(move)  	movsd	%xmm0,0x20ab6b(%rip)
/home/jgarcia/TFG/source_code/SP/set_constants.f:138
  404edd:	c7 05 69 ab 20 00 00 00 00 00	(move)  	movl	$0,0x20ab69(%rip)
  404ee7:	c7 05 63 ab 20 00 00 00 f4 3f	(move)  	movl	$0x3ff40000,0x20ab63(%rip)
/home/jgarcia/TFG/source_code/SP/set_constants.f:140
  404ef1:	b8 c8 f6 60 00              	(move)  	mov	$0x60f6c8,%eax
  404ef6:	66 41 0f 28 c2              	(move)  	movapd	%xmm10,%xmm0
  404efb:	f2 0f 59 00                 	(arith) 	mulsd	(%rax),%xmm0
  404eff:	f2 0f 11 05 59 ab 20 00     	(move)  	movsd	%xmm0,0x20ab59(%rip)
/home/jgarcia/TFG/source_code/SP/set_constants.f:141
  404f07:	f2 44 0f 59 38              	(arith) 	mulsd	(%rax),%xmm15
  404f0c:	f2 44 0f 11 3d 5b ab 20 00  	(move)  	movsd	%xmm15,0x20ab5b(%rip)
/home/jgarcia/TFG/source_code/SP/set_constants.f:142
  404f15:	66 45 0f 28 f9              	(move)  	movapd	%xmm9,%xmm15
  404f1a:	f2 44 0f 59 38              	(arith) 	mulsd	(%rax),%xmm15
  404f1f:	f2 44 0f 11 3d 50 ab 20 00  	(move)  	movsd	%xmm15,0x20ab50(%rip)
/home/jgarcia/TFG/source_code/SP/set_constants.f:143
  404f28:	f2 44 0f 59 30              	(arith) 	mulsd	(%rax),%xmm14
  404f2d:	f2 44 0f 11 35 4a ab 20 00  	(move)  	movsd	%xmm14,0x20ab4a(%rip)
/home/jgarcia/TFG/source_code/SP/set_constants.f:144
  404f36:	66 44 0f 28 f6              	(move)  	movapd	%xmm6,%xmm14
  404f3b:	f2 44 0f 59 30              	(arith) 	mulsd	(%rax),%xmm14
  404f40:	f2 44 0f 11 35 3f ab 20 00  	(move)  	movsd	%xmm14,0x20ab3f(%rip)
/home/jgarcia/TFG/source_code/SP/set_constants.f:145
  404f49:	f2 44 0f 59 28              	(arith) 	mulsd	(%rax),%xmm13
  404f4e:	f2 44 0f 11 2d 39 ab 20 00  	(move)  	movsd	%xmm13,0x20ab39(%rip)
/home/jgarcia/TFG/source_code/SP/set_constants.f:147
  404f57:	f2 0f 58 c0                 	(arith) 	addsd	%xmm0,%xmm0
  404f5b:	f2 0f 11 05 35 ab 20 00     	(move)  	movsd	%xmm0,0x20ab35(%rip)
/home/jgarcia/TFG/source_code/SP/set_constants.f:148
  404f63:	f2 45 0f 58 ff              	(arith) 	addsd	%xmm15,%xmm15
  404f68:	f2 44 0f 11 3d 2f ab 20 00  	(move)  	movsd	%xmm15,0x20ab2f(%rip)
/home/jgarcia/TFG/source_code/SP/set_constants.f:149
  404f71:	f2 45 0f 58 f6              	(arith) 	addsd	%xmm14,%xmm14
  404f76:	f2 44 0f 11 35 29 ab 20 00  	(move)  	movsd	%xmm14,0x20ab29(%rip)
/home/jgarcia/TFG/source_code/SP/set_constants.f:151
  404f7f:	f2 0f 10 05 91 95 00 00     	(move)  	movsd	0x9591(%rip),%xmm0
  404f87:	f2 0f 59 00                 	(arith) 	mulsd	(%rax),%xmm0
  404f8b:	f2 0f 11 05 c5 aa 20 00     	(move)  	movsd	%xmm0,0x20aac5(%rip)
/home/jgarcia/TFG/source_code/SP/set_constants.f:153
  404f93:	f2 0f 11 05 15 ab 20 00     	(move)  	movsd	%xmm0,0x20ab15(%rip)
/home/jgarcia/TFG/source_code/SP/set_constants.f:154
  404f9b:	f2 44 0f 59 e0              	(arith) 	mulsd	%xmm0,%xmm12
  404fa0:	f2 44 0f 11 25 0f ab 20 00  	(move)  	movsd	%xmm12,0x20ab0f(%rip)
/home/jgarcia/TFG/source_code/SP/set_constants.f:155
  404fa9:	f2 44 0f 59 d8              	(arith) 	mulsd	%xmm0,%xmm11
  404fae:	f2 44 0f 11 1d 09 ab 20 00  	(move)  	movsd	%xmm11,0x20ab09(%rip)
/home/jgarcia/TFG/source_code/SP/set_constants.f:156
  404fb7:	f2 0f 59 05 19 95 00 00     	(arith) 	mulsd	0x9519(%rip),%xmm0
  404fbf:	f2 0f 11 05 01 ab 20 00     	(move)  	movsd	%xmm0,0x20ab01(%rip)
/home/jgarcia/TFG/source_code/SP/set_constants.f:158
  404fc7:	66 44 0f 28 dd              	(move)  	movapd	%xmm5,%xmm11
  404fcc:	f2 44 0f 59 da              	(arith) 	mulsd	%xmm2,%xmm11
  404fd1:	f2 44 0f 11 1d f6 aa 20 00  	(move)  	movsd	%xmm11,0x20aaf6(%rip)
/home/jgarcia/TFG/source_code/SP/set_constants.f:159
  404fda:	66 0f 28 c4                 	(move)  	movapd	%xmm4,%xmm0
  404fde:	f2 0f 59 c2                 	(arith) 	mulsd	%xmm2,%xmm0
  404fe2:	f2 0f 11 05 ee aa 20 00     	(move)  	movsd	%xmm0,0x20aaee(%rip)
/home/jgarcia/TFG/source_code/SP/set_constants.f:160
  404fea:	f2 0f 59 d3                 	(arith) 	mulsd	%xmm3,%xmm2
  404fee:	f2 0f 11 15 ea aa 20 00     	(move)  	movsd	%xmm2,0x20aaea(%rip)
/home/jgarcia/TFG/source_code/SP/set_constants.f:162
  404ff6:	f2 44 0f 59 d1              	(arith) 	mulsd	%xmm1,%xmm10
  404ffb:	f2 44 0f 11 15 14 a9 20 00  	(move)  	movsd	%xmm10,0x20a914(%rip)
/home/jgarcia/TFG/source_code/SP/set_constants.f:163
  405004:	f2 44 0f 11 15 13 a9 20 00  	(move)  	movsd	%xmm10,0x20a913(%rip)
/home/jgarcia/TFG/source_code/SP/set_constants.f:164
  40500d:	f2 44 0f 11 15 12 a9 20 00  	(move)  	movsd	%xmm10,0x20a912(%rip)
/home/jgarcia/TFG/source_code/SP/set_constants.f:165
  405016:	f2 44 0f 11 15 11 a9 20 00  	(move)  	movsd	%xmm10,0x20a911(%rip)
/home/jgarcia/TFG/source_code/SP/set_constants.f:166
  40501f:	f2 44 0f 11 15 10 a9 20 00  	(move)  	movsd	%xmm10,0x20a910(%rip)
/home/jgarcia/TFG/source_code/SP/set_constants.f:168
  405028:	f2 41 0f 59 c9              	(arith) 	mulsd	%xmm9,%xmm1
  40502d:	f2 0f 11 0d 33 a9 20 00     	(move)  	movsd	%xmm1,0x20a933(%rip)
/home/jgarcia/TFG/source_code/SP/set_constants.f:169
  405035:	f2 0f 11 0d 33 a9 20 00     	(move)  	movsd	%xmm1,0x20a933(%rip)
/home/jgarcia/TFG/source_code/SP/set_constants.f:170
  40503d:	f2 0f 11 0d 33 a9 20 00     	(move)  	movsd	%xmm1,0x20a933(%rip)
/home/jgarcia/TFG/source_code/SP/set_constants.f:171
  405045:	f2 0f 11 0d 33 a9 20 00     	(move)  	movsd	%xmm1,0x20a933(%rip)
/home/jgarcia/TFG/source_code/SP/set_constants.f:172
  40504d:	f2 0f 11 0d 33 a9 20 00     	(move)  	movsd	%xmm1,0x20a933(%rip)
/home/jgarcia/TFG/source_code/SP/set_constants.f:174
  405055:	f2 0f 11 35 5b a9 20 00     	(move)  	movsd	%xmm6,0x20a95b(%rip)
/home/jgarcia/TFG/source_code/SP/set_constants.f:175
  40505d:	f2 0f 11 35 5b a9 20 00     	(move)  	movsd	%xmm6,0x20a95b(%rip)
/home/jgarcia/TFG/source_code/SP/set_constants.f:176
  405065:	f2 0f 11 35 5b a9 20 00     	(move)  	movsd	%xmm6,0x20a95b(%rip)
/home/jgarcia/TFG/source_code/SP/set_constants.f:177
  40506d:	f2 0f 11 35 5b a9 20 00     	(move)  	movsd	%xmm6,0x20a95b(%rip)
/home/jgarcia/TFG/source_code/SP/set_constants.f:178
  405075:	f2 0f 11 35 5b a9 20 00     	(move)  	movsd	%xmm6,0x20a95b(%rip)
/home/jgarcia/TFG/source_code/SP/set_constants.f:180
  40507d:	c7 05 61 aa 20 00 00 00 00 00	(move)  	movl	$0,0x20aa61(%rip)
  405087:	c7 05 5b aa 20 00 00 00 04 40	(move)  	movl	$0x40040000,0x20aa5b(%rip)
/home/jgarcia/TFG/source_code/SP/set_constants.f:181
  405091:	f2 0f 10 35 87 94 00 00     	(move)  	movsd	0x9487(%rip),%xmm6
  405099:	f2 0f 11 35 4f aa 20 00     	(move)  	movsd	%xmm6,0x20aa4f(%rip)
/home/jgarcia/TFG/source_code/SP/set_constants.f:182
  4050a1:	f2 0f 10 0d 7f 94 00 00     	(move)  	movsd	0x947f(%rip),%xmm1
  4050a9:	f2 0f 11 0d 47 aa 20 00     	(move)  	movsd	%xmm1,0x20aa47(%rip)
/home/jgarcia/TFG/source_code/SP/set_constants.f:184
  4050b1:	66 45 0f 28 cb              	(move)  	movapd	%xmm11,%xmm9
  4050b6:	f2 44 0f 59 ce              	(arith) 	mulsd	%xmm6,%xmm9
  4050bb:	f2 44 0f 59 cd              	(arith) 	mulsd	%xmm5,%xmm9
  4050c0:	f2 44 0f 11 0d 27 a8 20 00  	(move)  	movsd	%xmm9,0x20a827(%rip)
/home/jgarcia/TFG/source_code/SP/set_constants.f:185
  4050c9:	66 44 0f 28 cd              	(move)  	movapd	%xmm5,%xmm9
  4050ce:	f2 45 0f 59 cb              	(arith) 	mulsd	%xmm11,%xmm9
  4050d3:	f2 44 0f 11 0d 1c a8 20 00  	(move)  	movsd	%xmm9,0x20a81c(%rip)
/home/jgarcia/TFG/source_code/SP/set_constants.f:186
  4050dc:	66 45 0f 28 cb              	(move)  	movapd	%xmm11,%xmm9
  4050e1:	f2 45 0f 59 c8              	(arith) 	mulsd	%xmm8,%xmm9
  4050e6:	f2 44 0f 59 cd              	(arith) 	mulsd	%xmm5,%xmm9
  4050eb:	f2 44 0f 11 0d 0c a8 20 00  	(move)  	movsd	%xmm9,0x20a80c(%rip)
/home/jgarcia/TFG/source_code/SP/set_constants.f:187
  4050f4:	66 45 0f 28 cb              	(move)  	movapd	%xmm11,%xmm9
  4050f9:	f2 44 0f 59 c9              	(arith) 	mulsd	%xmm1,%xmm9
  4050fe:	f2 44 0f 59 cd              	(arith) 	mulsd	%xmm5,%xmm9
  405103:	f2 44 0f 11 0d fc a7 20 00  	(move)  	movsd	%xmm9,0x20a7fc(%rip)
/home/jgarcia/TFG/source_code/SP/set_constants.f:188
  40510c:	f2 44 0f 59 df              	(arith) 	mulsd	%xmm7,%xmm11
  405111:	f2 41 0f 59 eb              	(arith) 	mulsd	%xmm11,%xmm5
  405116:	f2 0f 11 2d f2 a7 20 00     	(move)  	movsd	%xmm5,0x20a7f2(%rip)
/home/jgarcia/TFG/source_code/SP/set_constants.f:190
  40511e:	66 0f 28 e8                 	(move)  	movapd	%xmm0,%xmm5
  405122:	f2 0f 59 ee                 	(arith) 	mulsd	%xmm6,%xmm5
  405126:	f2 0f 59 ec                 	(arith) 	mulsd	%xmm4,%xmm5
  40512a:	f2 0f 11 2d 0e a8 20 00     	(move)  	movsd	%xmm5,0x20a80e(%rip)
/home/jgarcia/TFG/source_code/SP/set_constants.f:191
  405132:	66 0f 28 ec                 	(move)  	movapd	%xmm4,%xmm5
  405136:	f2 0f 59 e8                 	(arith) 	mulsd	%xmm0,%xmm5
  40513a:	f2 0f 11 2d 06 a8 20 00     	(move)  	movsd	%xmm5,0x20a806(%rip)
/home/jgarcia/TFG/source_code/SP/set_constants.f:192
  405142:	66 0f 28 e8                 	(move)  	movapd	%xmm0,%xmm5
  405146:	f2 41 0f 59 e8              	(arith) 	mulsd	%xmm8,%xmm5
  40514b:	f2 0f 59 ec                 	(arith) 	mulsd	%xmm4,%xmm5
  40514f:	f2 0f 11 2d f9 a7 20 00     	(move)  	movsd	%xmm5,0x20a7f9(%rip)
/home/jgarcia/TFG/source_code/SP/set_constants.f:193
  405157:	66 0f 28 e8                 	(move)  	movapd	%xmm0,%xmm5
  40515b:	f2 0f 59 e9                 	(arith) 	mulsd	%xmm1,%xmm5
  40515f:	f2 0f 59 ec                 	(arith) 	mulsd	%xmm4,%xmm5
  405163:	f2 0f 11 2d ed a7 20 00     	(move)  	movsd	%xmm5,0x20a7ed(%rip)
/home/jgarcia/TFG/source_code/SP/set_constants.f:194
  40516b:	f2 0f 59 c7                 	(arith) 	mulsd	%xmm7,%xmm0
  40516f:	f2 0f 59 e0                 	(arith) 	mulsd	%xmm0,%xmm4
  405173:	f2 0f 11 25 e5 a7 20 00     	(move)  	movsd	%xmm4,0x20a7e5(%rip)
/home/jgarcia/TFG/source_code/SP/set_constants.f:196
  40517b:	f2 0f 59 f2                 	(arith) 	mulsd	%xmm2,%xmm6
  40517f:	f2 0f 59 f3                 	(arith) 	mulsd	%xmm3,%xmm6
  405183:	f2 0f 11 35 05 a8 20 00     	(move)  	movsd	%xmm6,0x20a805(%rip)
/home/jgarcia/TFG/source_code/SP/set_constants.f:197
  40518b:	66 0f 28 c3                 	(move)  	movapd	%xmm3,%xmm0
  40518f:	f2 0f 59 c2                 	(arith) 	mulsd	%xmm2,%xmm0
  405193:	f2 0f 11 05 fd a7 20 00     	(move)  	movsd	%xmm0,0x20a7fd(%rip)
/home/jgarcia/TFG/source_code/SP/set_constants.f:198
  40519b:	f2 44 0f 59 c2              	(arith) 	mulsd	%xmm2,%xmm8
  4051a0:	f2 44 0f 59 c3              	(arith) 	mulsd	%xmm3,%xmm8
  4051a5:	f2 44 0f 11 05 f2 a7 20 00  	(move)  	movsd	%xmm8,0x20a7f2(%rip)
/home/jgarcia/TFG/source_code/SP/set_constants.f:199
  4051ae:	f2 0f 59 ca                 	(arith) 	mulsd	%xmm2,%xmm1
  4051b2:	f2 0f 59 cb                 	(arith) 	mulsd	%xmm3,%xmm1
  4051b6:	f2 0f 11 0d ea a7 20 00     	(move)  	movsd	%xmm1,0x20a7ea(%rip)
/home/jgarcia/TFG/source_code/SP/set_constants.f:200
  4051be:	f2 0f 59 d7                 	(arith) 	mulsd	%xmm7,%xmm2
  4051c2:	f2 0f 59 da                 	(arith) 	mulsd	%xmm2,%xmm3
  4051c6:	f2 0f 11 1d e2 a7 20 00     	(move)  	movsd	%xmm3,0x20a7e2(%rip)
/home/jgarcia/TFG/source_code/SP/set_constants.f:203
  4051ce:	c3                          	(control)	ret
406:	
/home/jgarcia/TFG/source_code/SP/adi.f:5
  4051cf:	90                          	(other) 	nop


00000000004051d0 <adi>:
98 (function adi_):	
/home/jgarcia/TFG/source_code/SP/adi.f:5
  4051d0:	48 83 ec 08                 	(arith) 	sub	$0x8,%rsp
/home/jgarcia/TFG/source_code/SP/adi.f:10
  4051d4:	b8 00 00 00 00              	(move)  	mov	$0,%eax
  4051d9:	e8 42 00 00 00              	(control)	call	405220 <compute_rhs_>	; ⇄ compute_rhs
408:	
/home/jgarcia/TFG/source_code/SP/adi.f:12
  4051de:	b8 00 00 00 00              	(move)  	mov	$0,%eax
  4051e3:	e8 c4 6a 00 00              	(control)	call	40bcac <txinvr_>	; ⇄ txinvr
410:	
/home/jgarcia/TFG/source_code/SP/adi.f:14
  4051e8:	b8 00 00 00 00              	(move)  	mov	$0,%eax
  4051ed:	e8 12 27 00 00              	(control)	call	407904 <x_solve_>	; ⇄ x_solve
412:	
/home/jgarcia/TFG/source_code/SP/adi.f:16
  4051f2:	b8 00 00 00 00              	(move)  	mov	$0,%eax
  4051f7:	e8 28 3c 00 00              	(control)	call	408e24 <y_solve_>	; ⇄ y_solve
414:	
/home/jgarcia/TFG/source_code/SP/adi.f:18
  4051fc:	b8 00 00 00 00              	(move)  	mov	$0,%eax
  405201:	e8 0a 52 00 00              	(control)	call	40a410 <z_solve_>	; ⇄ z_solve
416:	
/home/jgarcia/TFG/source_code/SP/adi.f:20
  405206:	b8 00 00 00 00              	(move)  	mov	$0,%eax
  40520b:	e8 90 69 00 00              	(control)	call	40bba0 <add_>	; ⇄ add
418:	
/home/jgarcia/TFG/source_code/SP/adi.f:23
  405210:	48 83 c4 08                 	(arith) 	add	$0x8,%rsp
  405214:	c3                          	(control)	ret
419:	
/home/jgarcia/TFG/source_code/SP/rhs.f:4
  405215:	90                          	(other) 	nop
  405216:	90                          	(other) 	nop
  405217:	90                          	(other) 	nop
  405218:	90                          	(other) 	nop
  405219:	90                          	(other) 	nop
  40521a:	90                          	(other) 	nop
  40521b:	90                          	(other) 	nop
  40521c:	90                          	(other) 	nop
  40521d:	90                          	(other) 	nop
  40521e:	90                          	(other) 	nop
  40521f:	90                          	(other) 	nop


0000000000405220 <compute_rhs>:
407 (function compute_rhs_):	
/home/jgarcia/TFG/source_code/SP/rhs.f:4
  405220:	41 57                       	(move)  	push	%r15
  405222:	41 56                       	(move)  	push	%r14
  405224:	41 55                       	(move)  	push	%r13
  405226:	41 54                       	(move)  	push	%r12
  405228:	55                          	(move)  	push	%rbp
  405229:	53                          	(move)  	push	%rbx
  40522a:	48 81 ec 48 01 00 00        	(arith) 	sub	$0x148,%rsp
/home/jgarcia/TFG/source_code/SP/rhs.f:16
  405231:	83 3d e0 a8 20 00 00        	(arith) 	cmpl	$0,0x20a8e0(%rip)
  405238:	74 0f                       	(control)	je	405249 <compute_rhs_+0x29>	; ↲ label 420
421:	
  40523a:	bf 30 e5 40 00              	(move)  	mov	$0x40e530,%edi
  40523f:	b8 00 00 00 00              	(move)  	mov	$0,%eax
  405244:	e8 ee 8d 00 00              	(control)	call	40e037 <timer_start_>	; ⇄ timer_start
420:	
/home/jgarcia/TFG/source_code/SP/rhs.f:22
  405249:	8b 05 b9 a8 20 00           	(move)  	mov	0x20a8b9(%rip),%eax
  40524f:	83 e8 01                    	(arith) 	sub	$0x1,%eax
  405252:	89 44 24 38                 	(move)  	mov	%eax,0x38(%rsp)
  405256:	0f 88 ad 02 00 00           	(control)	js	405509 <compute_rhs_+0x2e9>	; ↲ label 422
423:	
/home/jgarcia/TFG/source_code/SP/rhs.f:23
  40525c:	8b 05 a2 a8 20 00           	(move)  	mov	0x20a8a2(%rip),%eax
  405262:	83 e8 01                    	(arith) 	sub	$0x1,%eax
  405265:	89 44 24 18                 	(move)  	mov	%eax,0x18(%rsp)
/home/jgarcia/TFG/source_code/SP/rhs.f:24
  405269:	44 8b 0d 90 a8 20 00        	(move)  	mov	0x20a890(%rip),%r9d
  405270:	41 83 e9 01                 	(arith) 	sub	$0x1,%r9d
/home/jgarcia/TFG/source_code/SP/rhs.f:38
  405274:	f2 0f 10 35 7c a7 20 00     	(move)  	movsd	0x20a77c(%rip),%xmm6
  40527c:	c7 44 24 30 00 00 00 00     	(move)  	movl	$0,0x30(%rsp)
/home/jgarcia/TFG/source_code/SP/rhs.f:25
  405284:	48 b8 20 18 94 01 00 00 00 00	(move)  	mov	$0x1941820,%rax
  40528e:	f2 0f 10 2d 1a 92 00 00     	(move)  	movsd	0x921a(%rip),%xmm5
/home/jgarcia/TFG/source_code/SP/rhs.f:33
  405296:	f2 0f 10 25 1a 92 00 00     	(move)  	movsd	0x921a(%rip),%xmm4
; ------- Loop 128 entry
424 (loop 128):	
/home/jgarcia/TFG/source_code/SP/rhs.f:23
  40529e:	83 7c 24 18 00              	(arith) 	cmpl	$0,0x18(%rsp)
  4052a3:	0f 88 80 01 00 00           	(control)	js	405429 <compute_rhs_+0x209>	; ↲ label 425
426:	
/home/jgarcia/TFG/source_code/SP/rhs.f:25
  4052a9:	48 63 54 24 30              	(move)  	movsxd	0x30(%rsp),%rdx
  4052ae:	4c 69 e2 35 c3 0c 00        	(arith) 	imul	$0xcc335,%rdx,%r12
/home/jgarcia/TFG/source_code/SP/rhs.f:26
  4052b5:	48 69 d2 71 8d 02 00        	(arith) 	imul	$0x28d71,%rdx,%rdx
  4052bc:	48 89 54 24 28              	(move)  	mov	%rdx,0x28(%rsp)
/home/jgarcia/TFG/source_code/SP/rhs.f:27
  4052c1:	4d 8d 74 24 01              	(arith) 	lea	0x1(%r12),%r14
/home/jgarcia/TFG/source_code/SP/rhs.f:28
  4052c6:	4d 8d 6c 24 02              	(arith) 	lea	0x2(%r12),%r13
/home/jgarcia/TFG/source_code/SP/rhs.f:29
  4052cb:	49 8d 54 24 03              	(arith) 	lea	0x3(%r12),%rdx
  4052d0:	48 89 54 24 08              	(move)  	mov	%rdx,0x8(%rsp)
/home/jgarcia/TFG/source_code/SP/rhs.f:38
  4052d5:	49 8d 4c 24 ff              	(arith) 	lea	-0x1(%r12),%rcx
  4052da:	48 89 4c 24 20              	(move)  	mov	%rcx,0x20(%rsp)
  4052df:	c7 44 24 10 00 00 00 00     	(move)  	movl	$0,0x10(%rsp)
; ------- Loop 129 entry
427 (loop 129):	
/home/jgarcia/TFG/source_code/SP/rhs.f:24
  4052e7:	45 85 c9                    	(arith) 	test	%r9d,%r9d
  4052ea:	0f 88 25 01 00 00           	(control)	js	405415 <compute_rhs_+0x1f5>	; ↲ label 428
429:	
/home/jgarcia/TFG/source_code/SP/rhs.f:25
  4052f0:	4c 63 5c 24 10              	(move)  	movsxd	0x10(%rsp),%r11
  4052f5:	4c 89 da                    	(move)  	mov	%r11,%rdx
  4052f8:	48 c1 e2 09                 	(logic) 	sal	$0x9,%rdx
  4052fc:	4c 29 da                    	(arith) 	sub	%r11,%rdx
  4052ff:	4d 8d 04 93                 	(arith) 	lea	(%r11,%rdx,4),%r8
/home/jgarcia/TFG/source_code/SP/rhs.f:26
  405303:	4d 69 db 99 01 00 00        	(arith) 	imul	$0x199,%r11,%r11
  40530a:	4c 03 5c 24 28              	(arith) 	add	0x28(%rsp),%r11
/home/jgarcia/TFG/source_code/SP/rhs.f:38
  40530f:	4c 8b 54 24 20              	(move)  	mov	0x20(%rsp),%r10
  405314:	4f 8d 14 10                 	(arith) 	lea	(%r8,%r10,1),%r10
  405318:	be 00 00 00 00              	(move)  	mov	$0,%esi
; ------- Loop 130 entry
430 (loop 130):	
/home/jgarcia/TFG/source_code/SP/rhs.f:25
  40531d:	48 63 ce                    	(move)  	movsxd	%esi,%rcx
  405320:	48 8d 1c 89                 	(arith) 	lea	(%rcx,%rcx,4),%rbx
  405324:	4c 01 c3                    	(arith) 	add	%r8,%rbx
  405327:	4a 8d 14 23                 	(arith) 	lea	(%rbx,%r12,1),%rdx
  40532b:	66 0f 28 c5                 	(move)  	movapd	%xmm5,%xmm0
  40532f:	f2 0f 5e 04 d0              	(arith) 	divsd	(%rax,%rdx,8),%xmm0
/home/jgarcia/TFG/source_code/SP/rhs.f:26
  405334:	4a 8d 14 19                 	(arith) 	lea	(%rcx,%r11,1),%rdx
  405338:	48 8d ba d8 cc 9c 24        	(arith) 	lea	0x249cccd8(%rdx),%rdi
  40533f:	f2 0f 11 04 f8              	(move)  	movsd	%xmm0,(%rax,%rdi,8)
/home/jgarcia/TFG/source_code/SP/rhs.f:27
  405344:	4a 8d 2c 33                 	(arith) 	lea	(%rbx,%r14,1),%rbp
  405348:	48 8d ba 78 1c 57 14        	(arith) 	lea	0x14571c78(%rdx),%rdi
  40534f:	f2 0f 10 0c e8              	(move)  	movsd	(%rax,%rbp,8),%xmm1
  405354:	f2 0f 59 c8                 	(arith) 	mulsd	%xmm0,%xmm1
  405358:	f2 0f 11 0c f8              	(move)  	movsd	%xmm1,(%rax,%rdi,8)
/home/jgarcia/TFG/source_code/SP/rhs.f:28
  40535d:	4a 8d 3c 2b                 	(arith) 	lea	(%rbx,%r13,1),%rdi
  405361:	4c 8d ba 90 88 68 18        	(arith) 	lea	0x18688890(%rdx),%r15
  405368:	f2 0f 10 0c f8              	(move)  	movsd	(%rax,%rdi,8),%xmm1
  40536d:	f2 0f 59 c8                 	(arith) 	mulsd	%xmm0,%xmm1
  405371:	f2 42 0f 11 0c f8           	(move)  	movsd	%xmm1,(%rax,%r15,8)
/home/jgarcia/TFG/source_code/SP/rhs.f:29
  405377:	48 03 5c 24 08              	(arith) 	add	0x8(%rsp),%rbx
  40537c:	4c 8d ba a8 f4 79 1c        	(arith) 	lea	0x1c79f4a8(%rdx),%r15
  405383:	f2 0f 10 0c d8              	(move)  	movsd	(%rax,%rbx,8),%xmm1
  405388:	f2 0f 59 c8                 	(arith) 	mulsd	%xmm0,%xmm1
  40538c:	f2 42 0f 11 0c f8           	(move)  	movsd	%xmm1,(%rax,%r15,8)
/home/jgarcia/TFG/source_code/SP/rhs.f:33
  405392:	f2 0f 10 0c e8              	(move)  	movsd	(%rax,%rbp,8),%xmm1
  405397:	f2 0f 10 1c f8              	(move)  	movsd	(%rax,%rdi,8),%xmm3
  40539c:	f2 0f 10 14 d8              	(move)  	movsd	(%rax,%rbx,8),%xmm2
  4053a1:	f2 0f 59 c9                 	(arith) 	mulsd	%xmm1,%xmm1
  4053a5:	f2 0f 59 db                 	(arith) 	mulsd	%xmm3,%xmm3
  4053a9:	f2 0f 58 cb                 	(arith) 	addsd	%xmm3,%xmm1
  4053ad:	f2 0f 59 d2                 	(arith) 	mulsd	%xmm2,%xmm2
  4053b1:	f2 0f 58 ca                 	(arith) 	addsd	%xmm2,%xmm1
  4053b5:	f2 0f 59 cc                 	(arith) 	mulsd	%xmm4,%xmm1
  4053b9:	f2 0f 59 c8                 	(arith) 	mulsd	%xmm0,%xmm1
  4053bd:	48 8d 9a 08 a5 bf 2c        	(arith) 	lea	0x2cbfa508(%rdx),%rbx
  4053c4:	f2 0f 11 0c d8              	(move)  	movsd	%xmm1,(%rax,%rbx,8)
/home/jgarcia/TFG/source_code/SP/rhs.f:34
  4053c9:	48 8d 9a c0 60 8b 20        	(arith) 	lea	0x208b60c0(%rdx),%rbx
  4053d0:	66 0f 28 d0                 	(move)  	movapd	%xmm0,%xmm2
  4053d4:	f2 0f 59 d1                 	(arith) 	mulsd	%xmm1,%xmm2
  4053d8:	f2 0f 11 14 d8              	(move)  	movsd	%xmm2,(%rax,%rbx,8)
/home/jgarcia/TFG/source_code/SP/rhs.f:39
  4053dd:	f2 0f 59 c6                 	(arith) 	mulsd	%xmm6,%xmm0
  4053e1:	48 8d 4c 89 05              	(arith) 	lea	0x5(%rcx,%rcx,4),%rcx
  4053e6:	4c 01 d1                    	(arith) 	add	%r10,%rcx
  4053e9:	f2 0f 10 14 c8              	(move)  	movsd	(%rax,%rcx,8),%xmm2
  4053ee:	f2 0f 5c d1                 	(arith) 	subsd	%xmm1,%xmm2
  4053f2:	f2 0f 59 c2                 	(arith) 	mulsd	%xmm2,%xmm0
  4053f6:	f2 0f 51 c0                 	(math)  	sqrtsd	%xmm0,%xmm0
  4053fa:	48 81 c2 f0 38 ae 28        	(arith) 	add	$0x28ae38f0,%rdx
  405401:	f2 0f 11 04 d0              	(move)  	movsd	%xmm0,(%rax,%rdx,8)
/home/jgarcia/TFG/source_code/SP/rhs.f:24
  405406:	83 c6 01                    	(arith) 	add	$0x1,%esi
/home/jgarcia/TFG/source_code/SP/rhs.f:4
  405409:	8d 56 ff                    	(arith) 	lea	-0x1(%rsi),%edx
/home/jgarcia/TFG/source_code/SP/rhs.f:24
  40540c:	44 39 ca                    	(arith) 	cmp	%r9d,%edx
  40540f:	0f 85 08 ff ff ff           	(control)	jne	40531d <compute_rhs_+0xfd>	; ↰ label 430 (loop 130)
; ------- Loop 130 exit
428:	
/home/jgarcia/TFG/source_code/SP/rhs.f:23
  405415:	8b 5c 24 18                 	(move)  	mov	0x18(%rsp),%ebx
  405419:	39 5c 24 10                 	(arith) 	cmp	%ebx,0x10(%rsp)
  40541d:	74 0a                       	(control)	je	405429 <compute_rhs_+0x209>	; ↲ label 425
431:	
  40541f:	83 44 24 10 01              	(arith) 	addl	$0x1,0x10(%rsp)
  405424:	e9 be fe ff ff              	(control)	jmp	4052e7 <compute_rhs_+0xc7>	; ↰ label 427 (loop 129)
; ------- Loop 129 exit
425:	
/home/jgarcia/TFG/source_code/SP/rhs.f:22
  405429:	8b 74 24 38                 	(move)  	mov	0x38(%rsp),%esi
  40542d:	39 74 24 30                 	(arith) 	cmp	%esi,0x30(%rsp)
  405431:	74 0a                       	(control)	je	40543d <compute_rhs_+0x21d>	; ↲ label 432
433:	
  405433:	83 44 24 30 01              	(arith) 	addl	$0x1,0x30(%rsp)
  405438:	e9 61 fe ff ff              	(control)	jmp	40529e <compute_rhs_+0x7e>	; ↰ label 424 (loop 128)
; ------- Loop 128 exit
432:	
/home/jgarcia/TFG/source_code/SP/rhs.f:50
  40543d:	44 8b 3d c4 a6 20 00        	(move)  	mov	0x20a6c4(%rip),%r15d
  405444:	41 83 ef 01                 	(arith) 	sub	$0x1,%r15d
  405448:	0f 88 bb 00 00 00           	(control)	js	405509 <compute_rhs_+0x2e9>	; ↲ label 422
434:	
/home/jgarcia/TFG/source_code/SP/rhs.f:51
  40544e:	44 8b 1d af a6 20 00        	(move)  	mov	0x20a6af(%rip),%r11d
  405455:	41 83 eb 01                 	(arith) 	sub	$0x1,%r11d
/home/jgarcia/TFG/source_code/SP/rhs.f:52
  405459:	8b 3d a1 a6 20 00           	(move)  	mov	0x20a6a1(%rip),%edi
  40545f:	83 ef 01                    	(arith) 	sub	$0x1,%edi
  405462:	41 be 00 00 00 00           	(move)  	mov	$0,%r14d
/home/jgarcia/TFG/source_code/SP/rhs.f:54
  405468:	49 b9 20 18 94 01 00 00 00 00	(move)  	mov	$0x1941820,%r9
  405472:	48 bb 40 1c 47 5d ff ff ff ff	(move)  	mov	$-0xa2b8e3c0,%rbx
  40547c:	41 b8 01 00 00 00           	(move)  	mov	$0x1,%r8d
; ------- Loop 124 entry
435 (loop 124):	
/home/jgarcia/TFG/source_code/SP/rhs.f:51
  405482:	45 85 db                    	(arith) 	test	%r11d,%r11d
  405485:	78 74                       	(control)	js	4054fb <compute_rhs_+0x2db>	; ↲ label 436
437:	
/home/jgarcia/TFG/source_code/SP/rhs.f:54
  405487:	4d 63 ee                    	(move)  	movsxd	%r14d,%r13
  40548a:	4d 69 ed 35 c3 0c 00        	(arith) 	imul	$0xcc335,%r13,%r13
  405491:	49 83 ed 01                 	(arith) 	sub	$0x1,%r13
  405495:	41 ba 00 00 00 00           	(move)  	mov	$0,%r10d
  40549b:	41 bc 00 00 00 00           	(move)  	mov	$0,%r12d
; ------- Loop 125 entry
438 (loop 125):	
/home/jgarcia/TFG/source_code/SP/rhs.f:52
  4054a1:	85 ff                       	(arith) 	test	%edi,%edi
  4054a3:	78 4b                       	(control)	js	4054f0 <compute_rhs_+0x2d0>	; ↲ label 439
440:	
/home/jgarcia/TFG/source_code/SP/rhs.f:54
  4054a5:	49 63 c2                    	(move)  	movsxd	%r10d,%rax
  4054a8:	48 89 c2                    	(move)  	mov	%rax,%rdx
  4054ab:	48 c1 e2 09                 	(logic) 	sal	$0x9,%rdx
  4054af:	48 29 c2                    	(arith) 	sub	%rax,%rdx
  4054b2:	48 8d 04 90                 	(arith) 	lea	(%rax,%rdx,4),%rax
  4054b6:	44 89 e6                    	(move)  	mov	%r12d,%esi
  4054b9:	49 8d 6c 05 01              	(arith) 	lea	0x1(%r13,%rax,1),%rbp
; ------- Loop 127 entry
441 (loop 127):	
  4054be:	48 63 c6                    	(move)  	movsxd	%esi,%rax
  4054c1:	48 8d 04 80                 	(arith) 	lea	(%rax,%rax,4),%rax
  4054c5:	48 8d 84 28 98 2d 28 45     	(arith) 	lea	0x45282d98(%rax,%rbp,1),%rax
  4054cd:	49 8d 04 c1                 	(arith) 	lea	(%r9,%rax,8),%rax
  4054d1:	44 89 c2                    	(move)  	mov	%r8d,%edx
; ------- Loop 126 entry
442 (loop 126):	
  4054d4:	48 8b 08                    	(move)  	mov	(%rax),%rcx
  4054d7:	48 89 0c 18                 	(move)  	mov	%rcx,(%rax,%rbx,1)
/home/jgarcia/TFG/source_code/SP/rhs.f:53
  4054db:	83 c2 01                    	(arith) 	add	$0x1,%edx
  4054de:	48 83 c0 08                 	(arith) 	add	$0x8,%rax
  4054e2:	83 fa 06                    	(arith) 	cmp	$0x6,%edx
  4054e5:	75 ed                       	(control)	jne	4054d4 <compute_rhs_+0x2b4>	; ↰ label 442 (loop 126)
; ------- Loop 126 exit
443:	
/home/jgarcia/TFG/source_code/SP/rhs.f:52
  4054e7:	39 fe                       	(arith) 	cmp	%edi,%esi
  4054e9:	74 05                       	(control)	je	4054f0 <compute_rhs_+0x2d0>	; ↲ label 439
444:	
  4054eb:	83 c6 01                    	(arith) 	add	$0x1,%esi
  4054ee:	eb ce                       	(control)	jmp	4054be <compute_rhs_+0x29e>	; ↰ label 441 (loop 127)
; ------- Loop 127 exit
439:	
/home/jgarcia/TFG/source_code/SP/rhs.f:51
  4054f0:	45 39 da                    	(arith) 	cmp	%r11d,%r10d
  4054f3:	74 06                       	(control)	je	4054fb <compute_rhs_+0x2db>	; ↲ label 436
445:	
  4054f5:	41 83 c2 01                 	(arith) 	add	$0x1,%r10d
  4054f9:	eb a6                       	(control)	jmp	4054a1 <compute_rhs_+0x281>	; ↰ label 438 (loop 125)
; ------- Loop 125 exit
436:	
/home/jgarcia/TFG/source_code/SP/rhs.f:50
  4054fb:	45 39 fe                    	(arith) 	cmp	%r15d,%r14d
  4054fe:	74 09                       	(control)	je	405509 <compute_rhs_+0x2e9>	; ↲ label 422
446:	
  405500:	41 83 c6 01                 	(arith) 	add	$0x1,%r14d
  405504:	e9 79 ff ff ff              	(control)	jmp	405482 <compute_rhs_+0x262>	; ↰ label 435 (loop 124)
; ------- Loop 124 exit
422:	
/home/jgarcia/TFG/source_code/SP/rhs.f:63
  405509:	83 3d 08 a6 20 00 00        	(arith) 	cmpl	$0,0x20a608(%rip)
  405510:	74 0f                       	(control)	je	405521 <compute_rhs_+0x301>	; ↲ label 447
448:	
  405512:	bf 34 e5 40 00              	(move)  	mov	$0x40e534,%edi
  405517:	b8 00 00 00 00              	(move)  	mov	$0,%eax
  40551c:	e8 16 8b 00 00              	(control)	call	40e037 <timer_start_>	; ⇄ timer_start
447:	
/home/jgarcia/TFG/source_code/SP/rhs.f:64
  405521:	44 8b 0d ec a5 20 00        	(move)  	mov	0x20a5ec(%rip),%r9d
  405528:	44 89 8c 24 d4 00 00 00     	(move)  	mov	%r9d,0xd4(%rsp)
  405530:	45 85 c9                    	(arith) 	test	%r9d,%r9d
  405533:	0f 8e 6d 0a 00 00           	(control)	jle	405fa6 <compute_rhs_+0xd86>	; ↲ label 449
450:	
/home/jgarcia/TFG/source_code/SP/rhs.f:65
  405539:	44 8b 25 d0 a5 20 00        	(move)  	mov	0x20a5d0(%rip),%r12d
  405540:	44 89 a4 24 98 00 00 00     	(move)  	mov	%r12d,0x98(%rsp)
/home/jgarcia/TFG/source_code/SP/rhs.f:66
  405548:	44 8b 3d bd a5 20 00        	(move)  	mov	0x20a5bd(%rip),%r15d
  40554f:	44 89 7c 24 40              	(move)  	mov	%r15d,0x40(%rsp)
/home/jgarcia/TFG/source_code/SP/rhs.f:74
  405554:	f2 0f 10 05 bc a3 20 00     	(move)  	movsd	0x20a3bc(%rip),%xmm0
  40555c:	f2 0f 11 84 24 88 00 00 00  	(move)  	movsd	%xmm0,0x88(%rsp)
  405565:	f2 0f 10 2d 9b a0 20 00     	(move)  	movsd	0x20a09b(%rip),%xmm5
/home/jgarcia/TFG/source_code/SP/rhs.f:84
  40556d:	f2 0f 10 0d ab a3 20 00     	(move)  	movsd	0x20a3ab(%rip),%xmm1
  405575:	f2 0f 11 8c 24 80 00 00 00  	(move)  	movsd	%xmm1,0x80(%rsp)
  40557e:	f2 44 0f 10 25 71 a3 20 00  	(move)  	movsd	0x20a371(%rip),%xmm12
  405587:	f2 0f 10 05 61 a5 20 00     	(move)  	movsd	0x20a561(%rip),%xmm0
  40558f:	f2 0f 11 84 24 b8 00 00 00  	(move)  	movsd	%xmm0,0xb8(%rsp)
  405598:	f2 44 0f 10 05 87 a4 20 00  	(move)  	movsd	0x20a487(%rip),%xmm8
/home/jgarcia/TFG/source_code/SP/rhs.f:92
  4055a1:	f2 0f 10 0d 7f a3 20 00     	(move)  	movsd	0x20a37f(%rip),%xmm1
  4055a9:	f2 0f 11 4c 24 78           	(move)  	movsd	%xmm1,0x78(%rsp)
/home/jgarcia/TFG/source_code/SP/rhs.f:100
  4055af:	f2 0f 10 05 79 a3 20 00     	(move)  	movsd	0x20a379(%rip),%xmm0
  4055b7:	f2 0f 11 44 24 70           	(move)  	movsd	%xmm0,0x70(%rsp)
/home/jgarcia/TFG/source_code/SP/rhs.f:115
  4055bd:	f2 0f 10 0d 73 a3 20 00     	(move)  	movsd	0x20a373(%rip),%xmm1
  4055c5:	f2 0f 11 4c 24 68           	(move)  	movsd	%xmm1,0x68(%rsp)
  4055cb:	f2 0f 10 05 2d a3 20 00     	(move)  	movsd	0x20a32d(%rip),%xmm0
  4055d3:	f2 0f 11 44 24 60           	(move)  	movsd	%xmm0,0x60(%rsp)
  4055d9:	f2 0f 10 0d 27 a3 20 00     	(move)  	movsd	0x20a327(%rip),%xmm1
  4055e1:	f2 0f 11 4c 24 58           	(move)  	movsd	%xmm1,0x58(%rsp)
  4055e7:	f2 0f 10 05 21 a3 20 00     	(move)  	movsd	0x20a321(%rip),%xmm0
  4055ef:	f2 0f 11 44 24 50           	(move)  	movsd	%xmm0,0x50(%rsp)
  4055f5:	f2 44 0f 10 2d 22 a4 20 00  	(move)  	movsd	0x20a422(%rip),%xmm13
/home/jgarcia/TFG/source_code/SP/rhs.f:128
  4055fe:	f2 0f 10 1d ba a0 20 00     	(move)  	movsd	0x20a0ba(%rip),%xmm3
/home/jgarcia/TFG/source_code/SP/rhs.f:140
  405606:	41 83 ef 02                 	(arith) 	sub	$0x2,%r15d
  40560a:	44 89 bc 24 00 01 00 00     	(move)  	mov	%r15d,0x100(%rsp)
/home/jgarcia/TFG/source_code/SP/rhs.f:155
  405612:	8b 44 24 40                 	(move)  	mov	0x40(%rsp),%eax
  405616:	83 e8 01                    	(arith) 	sub	$0x1,%eax
  405619:	48 98                       	(conv)  	cltq
  40561b:	48 8d 14 80                 	(arith) 	lea	(%rax,%rax,4),%rdx
  40561f:	4c 8d 4a ff                 	(arith) 	lea	-0x1(%rdx),%r9
  405623:	4c 89 8c 24 f8 00 00 00     	(move)  	mov	%r9,0xf8(%rsp)
  40562b:	48 83 ea 0b                 	(arith) 	sub	$0xb,%rdx
  40562f:	48 89 94 24 f0 00 00 00     	(move)  	mov	%rdx,0xf0(%rsp)
  405637:	4c 8d 64 80 fa              	(arith) 	lea	-0x6(%rax,%rax,4),%r12
  40563c:	4c 89 a4 24 e8 00 00 00     	(move)  	mov	%r12,0xe8(%rsp)
  405644:	48 8d 44 80 04              	(arith) 	lea	0x4(%rax,%rax,4),%rax
  405649:	48 89 84 24 e0 00 00 00     	(move)  	mov	%rax,0xe0(%rsp)
/home/jgarcia/TFG/source_code/SP/rhs.f:162
  405651:	48 63 44 24 40              	(move)  	movsxd	0x40(%rsp),%rax
  405656:	48 8d 14 80                 	(arith) 	lea	(%rax,%rax,4),%rdx
  40565a:	4c 8d 7a ff                 	(arith) 	lea	-0x1(%rdx),%r15
  40565e:	4c 89 bc 24 a8 00 00 00     	(move)  	mov	%r15,0xa8(%rsp)
  405666:	48 83 ea 0b                 	(arith) 	sub	$0xb,%rdx
  40566a:	48 89 94 24 a0 00 00 00     	(move)  	mov	%rdx,0xa0(%rsp)
  405672:	48 8d 44 80 fa              	(arith) 	lea	-0x6(%rax,%rax,4),%rax
  405677:	48 89 84 24 d8 00 00 00     	(move)  	mov	%rax,0xd8(%rsp)
  40567f:	c7 84 24 c0 00 00 00 01 00 00 00	(move)  	movl	$0x1,0xc0(%rsp)
/home/jgarcia/TFG/source_code/SP/rhs.f:74
  40568a:	f2 0f 10 05 2e 8e 00 00     	(move)  	movsd	0x8e2e(%rip),%xmm0
/home/jgarcia/TFG/source_code/SP/rhs.f:4
  405692:	48 b8 20 18 94 01 00 00 00 00	(move)  	mov	$0x1941820,%rax
/home/jgarcia/TFG/source_code/SP/rhs.f:145
  40569c:	f2 0f 10 25 2c 8e 00 00     	(move)  	movsd	0x8e2c(%rip),%xmm4
; ------- Loop 112 entry
451 (loop 112):	
/home/jgarcia/TFG/source_code/SP/rhs.f:65
  4056a4:	83 bc 24 98 00 00 00 00     	(arith) 	cmpl	$0,0x98(%rsp)
  4056ac:	0f 8e d5 08 00 00           	(control)	jle	405f87 <compute_rhs_+0xd67>	; ↲ label 452
453:	
/home/jgarcia/TFG/source_code/SP/rhs.f:67
  4056b2:	4c 63 84 24 c0 00 00 00     	(move)  	movsxd	0xc0(%rsp),%r8
  4056ba:	49 69 d0 71 8d 02 00        	(arith) 	imul	$0x28d71,%r8,%rdx
  4056c1:	48 89 94 24 b0 00 00 00     	(move)  	mov	%rdx,0xb0(%rsp)
/home/jgarcia/TFG/source_code/SP/rhs.f:74
  4056c9:	4d 69 c0 35 c3 0c 00        	(arith) 	imul	$0xcc335,%r8,%r8
  4056d0:	4d 8d 50 01                 	(arith) 	lea	0x1(%r8),%r10
/home/jgarcia/TFG/source_code/SP/rhs.f:84
  4056d4:	49 8d 48 09                 	(arith) 	lea	0x9(%r8),%rcx
  4056d8:	48 89 4c 24 48              	(move)  	mov	%rcx,0x48(%rsp)
  4056dd:	49 8d 58 ff                 	(arith) 	lea	-0x1(%r8),%rbx
  4056e1:	48 89 5c 24 30              	(move)  	mov	%rbx,0x30(%rsp)
/home/jgarcia/TFG/source_code/SP/rhs.f:92
  4056e6:	49 8d 70 02                 	(arith) 	lea	0x2(%r8),%rsi
  4056ea:	48 89 74 24 20              	(move)  	mov	%rsi,0x20(%rsp)
/home/jgarcia/TFG/source_code/SP/rhs.f:100
  4056ef:	4d 8d 48 03                 	(arith) 	lea	0x3(%r8),%r9
  4056f3:	4c 89 4c 24 18              	(move)  	mov	%r9,0x18(%rsp)
  4056f8:	c7 84 24 90 00 00 00 01 00 00 00	(move)  	movl	$0x1,0x90(%rsp)
/home/jgarcia/TFG/source_code/SP/rhs.f:84
  405703:	f2 0f 11 9c 24 c8 00 00 00  	(move)  	movsd	%xmm3,0xc8(%rsp)
; ------- Loop 122 entry
454 (loop 122):	
/home/jgarcia/TFG/source_code/SP/rhs.f:66
  40570c:	83 7c 24 40 00              	(arith) 	cmpl	$0,0x40(%rsp)
  405711:	0f 8e 40 04 00 00           	(control)	jle	405b57 <compute_rhs_+0x937>	; ↲ label 455
456:	
/home/jgarcia/TFG/source_code/SP/rhs.f:67
  405717:	48 63 94 24 90 00 00 00     	(move)  	movsxd	0x90(%rsp),%rdx
  40571f:	48 69 ca 99 01 00 00        	(arith) 	imul	$0x199,%rdx,%rcx
  405726:	48 03 8c 24 b0 00 00 00     	(arith) 	add	0xb0(%rsp),%rcx
  40572e:	48 89 4c 24 10              	(move)  	mov	%rcx,0x10(%rsp)
/home/jgarcia/TFG/source_code/SP/rhs.f:74
  405733:	48 89 d1                    	(move)  	mov	%rdx,%rcx
  405736:	48 c1 e1 09                 	(logic) 	sal	$0x9,%rcx
  40573a:	48 29 d1                    	(arith) 	sub	%rdx,%rcx
  40573d:	48 8d 0c 8a                 	(arith) 	lea	(%rdx,%rcx,4),%rcx
  405741:	48 89 4c 24 08              	(move)  	mov	%rcx,0x8(%rsp)
/home/jgarcia/TFG/source_code/SP/rhs.f:84
  405746:	f2 44 0f 10 bc 24 b8 00 00 00	(move)  	movsd	0xb8(%rsp),%xmm15
  405750:	f2 45 0f 59 fc              	(arith) 	mulsd	%xmm12,%xmm15
  405755:	ba 00 00 00 00              	(move)  	mov	$0,%edx
; ------- Loop 123 entry
457 (loop 123):	
/home/jgarcia/TFG/source_code/SP/rhs.f:4
  40575a:	44 8d 4a 01                 	(arith) 	lea	0x1(%rdx),%r9d
/home/jgarcia/TFG/source_code/SP/rhs.f:67
  40575e:	49 63 e9                    	(move)  	movsxd	%r9d,%rbp
  405761:	48 8b 74 24 10              	(move)  	mov	0x10(%rsp),%rsi
  405766:	48 8d 74 35 00              	(arith) 	lea	(%rbp,%rsi,1),%rsi
  40576b:	48 8d 8e 78 1c 57 14        	(arith) 	lea	0x14571c78(%rsi),%rcx
  405772:	f2 44 0f 10 14 c8           	(move)  	movsd	(%rax,%rcx,8),%xmm10
/home/jgarcia/TFG/source_code/SP/rhs.f:68
  405778:	8d 4a 02                    	(arith) 	lea	0x2(%rdx),%ecx
  40577b:	48 63 c9                    	(move)  	movsxd	%ecx,%rcx
  40577e:	48 03 4c 24 10              	(arith) 	add	0x10(%rsp),%rcx
  405783:	48 8d 99 78 1c 57 14        	(arith) 	lea	0x14571c78(%rcx),%rbx
  40578a:	f2 0f 10 14 d8              	(move)  	movsd	(%rax,%rbx,8),%xmm2
/home/jgarcia/TFG/source_code/SP/rhs.f:69
  40578f:	48 63 d2                    	(move)  	movsxd	%edx,%rdx
  405792:	48 03 54 24 10              	(arith) 	add	0x10(%rsp),%rdx
  405797:	48 8d 9a 78 1c 57 14        	(arith) 	lea	0x14571c78(%rdx),%rbx
  40579e:	f2 0f 10 0c d8              	(move)  	movsd	(%rax,%rbx,8),%xmm1
/home/jgarcia/TFG/source_code/SP/rhs.f:74
  4057a3:	48 8d 5c ad 00              	(arith) 	lea	(%rbp,%rbp,4),%rbx
  4057a8:	48 03 5c 24 08              	(arith) 	add	0x8(%rsp),%rbx
  4057ad:	4e 8d 34 03                 	(arith) 	lea	(%rbx,%r8,1),%r14
  4057b1:	48 8d 7c ad 05              	(arith) 	lea	0x5(%rbp,%rbp,4),%rdi
  4057b6:	48 03 7c 24 08              	(arith) 	add	0x8(%rsp),%rdi
  4057bb:	48 8d 6c ad fb              	(arith) 	lea	-0x5(%rbp,%rbp,4),%rbp
  4057c0:	48 03 6c 24 08              	(arith) 	add	0x8(%rsp),%rbp
  4057c5:	4e 8d 2c 17                 	(arith) 	lea	(%rdi,%r10,1),%r13
  4057c9:	4e 8d 64 15 00              	(arith) 	lea	(%rbp,%r10,1),%r12
  4057ce:	4d 8d 9e 20 11 d1 30        	(arith) 	lea	0x30d11120(%r14),%r11
  4057d5:	4e 8d 3c 07                 	(arith) 	lea	(%rdi,%r8,1),%r15
  4057d9:	66 0f 28 f0                 	(move)  	movapd	%xmm0,%xmm6
  4057dd:	f2 42 0f 59 34 f0           	(arith) 	mulsd	(%rax,%r14,8),%xmm6
  4057e3:	f2 42 0f 58 34 f8           	(arith) 	addsd	(%rax,%r15,8),%xmm6
  4057e9:	4e 8d 74 05 00              	(arith) 	lea	(%rbp,%r8,1),%r14
  4057ee:	f2 42 0f 58 34 f0           	(arith) 	addsd	(%rax,%r14,8),%xmm6
  4057f4:	f2 0f 59 b4 24 88 00 00 00  	(arith) 	mulsd	0x88(%rsp),%xmm6
  4057fd:	f2 42 0f 58 34 d8           	(arith) 	addsd	(%rax,%r11,8),%xmm6
  405803:	f2 42 0f 10 1c e8           	(move)  	movsd	(%rax,%r13,8),%xmm3
  405809:	f2 42 0f 5c 1c e0           	(arith) 	subsd	(%rax,%r12,8),%xmm3
  40580f:	f2 0f 59 dd                 	(arith) 	mulsd	%xmm5,%xmm3
  405813:	f2 0f 5c f3                 	(arith) 	subsd	%xmm3,%xmm6
  405817:	f2 42 0f 11 34 d8           	(move)  	movsd	%xmm6,(%rax,%r11,8)
/home/jgarcia/TFG/source_code/SP/rhs.f:84
  40581d:	4e 8d 1c 13                 	(arith) 	lea	(%rbx,%r10,1),%r11
  405821:	f2 42 0f 10 34 e8           	(move)  	movsd	(%rax,%r13,8),%xmm6
  405827:	f2 42 0f 10 1c e0           	(move)  	movsd	(%rax,%r12,8),%xmm3
  40582d:	66 45 0f 28 ca              	(move)  	movapd	%xmm10,%xmm9
  405832:	f2 44 0f 59 c8              	(arith) 	mulsd	%xmm0,%xmm9
  405837:	4c 8b 6c 24 48              	(move)  	mov	0x48(%rsp),%r13
  40583c:	4e 8d 2c 2b                 	(arith) 	lea	(%rbx,%r13,1),%r13
  405840:	4c 8b 64 24 30              	(move)  	mov	0x30(%rsp),%r12
  405845:	4e 8d 24 23                 	(arith) 	lea	(%rbx,%r12,1),%r12
  405849:	4d 8d b3 20 11 d1 30        	(arith) 	lea	0x30d11120(%r11),%r14
  405850:	66 44 0f 28 d8              	(move)  	movapd	%xmm0,%xmm11
  405855:	f2 46 0f 59 1c d8           	(arith) 	mulsd	(%rax,%r11,8),%xmm11
  40585b:	f2 44 0f 58 de              	(arith) 	addsd	%xmm6,%xmm11
  405860:	f2 44 0f 58 db              	(arith) 	addsd	%xmm3,%xmm11
  405865:	f2 44 0f 59 9c 24 80 00 00 00	(arith) 	mulsd	0x80(%rsp),%xmm11
  40586f:	f2 46 0f 58 1c f0           	(arith) 	addsd	(%rax,%r14,8),%xmm11
  405875:	66 41 0f 28 f9              	(move)  	movapd	%xmm9,%xmm7
  40587a:	f2 0f 58 fa                 	(arith) 	addsd	%xmm2,%xmm7
  40587e:	f2 0f 58 f9                 	(arith) 	addsd	%xmm1,%xmm7
  405882:	f2 41 0f 59 ff              	(arith) 	mulsd	%xmm15,%xmm7
  405887:	f2 41 0f 58 fb              	(arith) 	addsd	%xmm11,%xmm7
  40588c:	f2 0f 59 f2                 	(arith) 	mulsd	%xmm2,%xmm6
  405890:	f2 0f 59 d9                 	(arith) 	mulsd	%xmm1,%xmm3
  405894:	f2 0f 5c f3                 	(arith) 	subsd	%xmm3,%xmm6
  405898:	4c 8d 99 08 a5 bf 2c        	(arith) 	lea	0x2cbfa508(%rcx),%r11
  40589f:	f2 46 0f 10 1c e8           	(move)  	movsd	(%rax,%r13,8),%xmm11
  4058a5:	f2 46 0f 5c 1c d8           	(arith) 	subsd	(%rax,%r11,8),%xmm11
  4058ab:	f2 46 0f 5c 1c e0           	(arith) 	subsd	(%rax,%r12,8),%xmm11
  4058b1:	4c 8d ba 08 a5 bf 2c        	(arith) 	lea	0x2cbfa508(%rdx),%r15
  4058b8:	4c 89 7c 24 28              	(move)  	mov	%r15,0x28(%rsp)
  4058bd:	f2 46 0f 58 1c f8           	(arith) 	addsd	(%rax,%r15,8),%xmm11
  4058c3:	f2 45 0f 59 d8              	(arith) 	mulsd	%xmm8,%xmm11
  4058c8:	f2 41 0f 58 f3              	(arith) 	addsd	%xmm11,%xmm6
  4058cd:	f2 0f 59 f5                 	(arith) 	mulsd	%xmm5,%xmm6
  4058d1:	f2 0f 5c fe                 	(arith) 	subsd	%xmm6,%xmm7
  4058d5:	f2 42 0f 11 3c f0           	(move)  	movsd	%xmm7,(%rax,%r14,8)
/home/jgarcia/TFG/source_code/SP/rhs.f:92
  4058db:	4c 8b 7c 24 20              	(move)  	mov	0x20(%rsp),%r15
  4058e0:	4e 8d 3c 3b                 	(arith) 	lea	(%rbx,%r15,1),%r15
  4058e4:	4c 8b 74 24 20              	(move)  	mov	0x20(%rsp),%r14
  4058e9:	4e 8d 34 37                 	(arith) 	lea	(%rdi,%r14,1),%r14
  4058ed:	f2 42 0f 10 34 f0           	(move)  	movsd	(%rax,%r14,8),%xmm6
  4058f3:	4c 8b 74 24 20              	(move)  	mov	0x20(%rsp),%r14
  4058f8:	4e 8d 74 35 00              	(arith) 	lea	(%rbp,%r14,1),%r14
  4058fd:	f2 42 0f 10 1c f0           	(move)  	movsd	(%rax,%r14,8),%xmm3
  405903:	4d 8d b7 20 11 d1 30        	(arith) 	lea	0x30d11120(%r15),%r14
  40590a:	66 44 0f 28 d8              	(move)  	movapd	%xmm0,%xmm11
  40590f:	f2 46 0f 59 1c f8           	(arith) 	mulsd	(%rax,%r15,8),%xmm11
  405915:	f2 44 0f 58 de              	(arith) 	addsd	%xmm6,%xmm11
  40591a:	f2 44 0f 58 db              	(arith) 	addsd	%xmm3,%xmm11
  40591f:	f2 44 0f 59 5c 24 78        	(arith) 	mulsd	0x78(%rsp),%xmm11
  405926:	f2 46 0f 58 1c f0           	(arith) 	addsd	(%rax,%r14,8),%xmm11
  40592c:	4c 8d b9 90 88 68 18        	(arith) 	lea	0x18688890(%rcx),%r15
  405933:	4c 89 7c 24 38              	(move)  	mov	%r15,0x38(%rsp)
  405938:	4c 8d be 90 88 68 18        	(arith) 	lea	0x18688890(%rsi),%r15
  40593f:	66 0f 28 f8                 	(move)  	movapd	%xmm0,%xmm7
  405943:	f2 42 0f 59 3c f8           	(arith) 	mulsd	(%rax,%r15,8),%xmm7
  405949:	4c 8b 7c 24 38              	(move)  	mov	0x38(%rsp),%r15
  40594e:	f2 42 0f 58 3c f8           	(arith) 	addsd	(%rax,%r15,8),%xmm7
  405954:	4c 8d ba 90 88 68 18        	(arith) 	lea	0x18688890(%rdx),%r15
  40595b:	f2 42 0f 58 3c f8           	(arith) 	addsd	(%rax,%r15,8),%xmm7
  405961:	f2 41 0f 59 fc              	(arith) 	mulsd	%xmm12,%xmm7
  405966:	f2 41 0f 58 fb              	(arith) 	addsd	%xmm11,%xmm7
  40596b:	f2 0f 59 f2                 	(arith) 	mulsd	%xmm2,%xmm6
  40596f:	f2 0f 59 d9                 	(arith) 	mulsd	%xmm1,%xmm3
  405973:	f2 0f 5c f3                 	(arith) 	subsd	%xmm3,%xmm6
  405977:	f2 0f 59 f5                 	(arith) 	mulsd	%xmm5,%xmm6
  40597b:	f2 0f 5c fe                 	(arith) 	subsd	%xmm6,%xmm7
  40597f:	f2 42 0f 11 3c f0           	(move)  	movsd	%xmm7,(%rax,%r14,8)
/home/jgarcia/TFG/source_code/SP/rhs.f:100
  405985:	48 03 5c 24 18              	(arith) 	add	0x18(%rsp),%rbx
  40598a:	4c 8b 74 24 18              	(move)  	mov	0x18(%rsp),%r14
  40598f:	4e 8d 34 37                 	(arith) 	lea	(%rdi,%r14,1),%r14
  405993:	f2 42 0f 10 34 f0           	(move)  	movsd	(%rax,%r14,8),%xmm6
  405999:	48 03 6c 24 18              	(arith) 	add	0x18(%rsp),%rbp
  40599e:	f2 0f 10 1c e8              	(move)  	movsd	(%rax,%rbp,8),%xmm3
  4059a3:	48 8d ab 20 11 d1 30        	(arith) 	lea	0x30d11120(%rbx),%rbp
  4059aa:	66 44 0f 28 d8              	(move)  	movapd	%xmm0,%xmm11
  4059af:	f2 44 0f 59 1c d8           	(arith) 	mulsd	(%rax,%rbx,8),%xmm11
  4059b5:	f2 44 0f 58 de              	(arith) 	addsd	%xmm6,%xmm11
  4059ba:	f2 44 0f 58 db              	(arith) 	addsd	%xmm3,%xmm11
  4059bf:	f2 44 0f 59 5c 24 70        	(arith) 	mulsd	0x70(%rsp),%xmm11
  4059c6:	f2 44 0f 58 1c e8           	(arith) 	addsd	(%rax,%rbp,8),%xmm11
  4059cc:	48 8d 99 a8 f4 79 1c        	(arith) 	lea	0x1c79f4a8(%rcx),%rbx
  4059d3:	4c 8d b6 a8 f4 79 1c        	(arith) 	lea	0x1c79f4a8(%rsi),%r14
  4059da:	66 0f 28 f8                 	(move)  	movapd	%xmm0,%xmm7
  4059de:	f2 42 0f 59 3c f0           	(arith) 	mulsd	(%rax,%r14,8),%xmm7
  4059e4:	f2 0f 58 3c d8              	(arith) 	addsd	(%rax,%rbx,8),%xmm7
  4059e9:	48 8d 9a a8 f4 79 1c        	(arith) 	lea	0x1c79f4a8(%rdx),%rbx
  4059f0:	f2 0f 58 3c d8              	(arith) 	addsd	(%rax,%rbx,8),%xmm7
  4059f5:	f2 41 0f 59 fc              	(arith) 	mulsd	%xmm12,%xmm7
  4059fa:	f2 41 0f 58 fb              	(arith) 	addsd	%xmm11,%xmm7
  4059ff:	f2 0f 59 f2                 	(arith) 	mulsd	%xmm2,%xmm6
  405a03:	f2 0f 59 d9                 	(arith) 	mulsd	%xmm1,%xmm3
  405a07:	f2 0f 5c f3                 	(arith) 	subsd	%xmm3,%xmm6
  405a0b:	f2 0f 59 f5                 	(arith) 	mulsd	%xmm5,%xmm6
  405a0f:	f2 0f 5c fe                 	(arith) 	subsd	%xmm6,%xmm7
  405a13:	f2 0f 11 3c e8              	(move)  	movsd	%xmm7,(%rax,%rbp,8)
/home/jgarcia/TFG/source_code/SP/rhs.f:115
  405a18:	48 03 7c 24 30              	(arith) 	add	0x30(%rsp),%rdi
  405a1d:	f2 42 0f 10 34 e8           	(move)  	movsd	(%rax,%r13,8),%xmm6
  405a23:	66 0f 28 f8                 	(move)  	movapd	%xmm0,%xmm7
  405a27:	f2 0f 59 3c f8              	(arith) 	mulsd	(%rax,%rdi,8),%xmm7
  405a2c:	f2 42 0f 10 1c e0           	(move)  	movsd	(%rax,%r12,8),%xmm3
  405a32:	48 81 c7 20 11 d1 30        	(arith) 	add	$0x30d11120,%rdi
  405a39:	66 44 0f 28 f6              	(move)  	movapd	%xmm6,%xmm14
  405a3e:	f2 44 0f 58 f7              	(arith) 	addsd	%xmm7,%xmm14
  405a43:	f2 44 0f 58 f3              	(arith) 	addsd	%xmm3,%xmm14
  405a48:	f2 44 0f 59 74 24 68        	(arith) 	mulsd	0x68(%rsp),%xmm14
  405a4f:	f2 44 0f 58 34 f8           	(arith) 	addsd	(%rax,%rdi,8),%xmm14
  405a55:	48 8d 99 c0 60 8b 20        	(arith) 	lea	0x208b60c0(%rcx),%rbx
  405a5c:	48 8d ae c0 60 8b 20        	(arith) 	lea	0x208b60c0(%rsi),%rbp
  405a63:	66 44 0f 28 d8              	(move)  	movapd	%xmm0,%xmm11
  405a68:	f2 44 0f 59 1c e8           	(arith) 	mulsd	(%rax,%rbp,8),%xmm11
  405a6e:	f2 44 0f 58 1c d8           	(arith) 	addsd	(%rax,%rbx,8),%xmm11
  405a74:	48 8d 9a c0 60 8b 20        	(arith) 	lea	0x208b60c0(%rdx),%rbx
  405a7b:	f2 44 0f 58 1c d8           	(arith) 	addsd	(%rax,%rbx,8),%xmm11
  405a81:	f2 44 0f 59 5c 24 60        	(arith) 	mulsd	0x60(%rsp),%xmm11
  405a88:	f2 45 0f 58 de              	(arith) 	addsd	%xmm14,%xmm11
  405a8d:	66 44 0f 28 f2              	(move)  	movapd	%xmm2,%xmm14
  405a92:	f2 44 0f 59 f2              	(arith) 	mulsd	%xmm2,%xmm14
  405a97:	f2 45 0f 59 ca              	(arith) 	mulsd	%xmm10,%xmm9
  405a9c:	f2 45 0f 58 f1              	(arith) 	addsd	%xmm9,%xmm14
  405aa1:	66 44 0f 28 d1              	(move)  	movapd	%xmm1,%xmm10
  405aa6:	f2 44 0f 59 d1              	(arith) 	mulsd	%xmm1,%xmm10
  405aab:	f2 45 0f 58 f2              	(arith) 	addsd	%xmm10,%xmm14
  405ab0:	f2 44 0f 59 74 24 58        	(arith) 	mulsd	0x58(%rsp),%xmm14
  405ab7:	f2 45 0f 58 de              	(arith) 	addsd	%xmm14,%xmm11
  405abc:	48 81 c1 d8 cc 9c 24        	(arith) 	add	$0x249cccd8,%rcx
  405ac3:	66 44 0f 28 ce              	(move)  	movapd	%xmm6,%xmm9
  405ac8:	f2 44 0f 59 0c c8           	(arith) 	mulsd	(%rax,%rcx,8),%xmm9
  405ace:	48 81 c6 d8 cc 9c 24        	(arith) 	add	$0x249cccd8,%rsi
  405ad5:	f2 0f 59 3c f0              	(arith) 	mulsd	(%rax,%rsi,8),%xmm7
  405ada:	f2 41 0f 58 f9              	(arith) 	addsd	%xmm9,%xmm7
  405adf:	48 81 c2 d8 cc 9c 24        	(arith) 	add	$0x249cccd8,%rdx
  405ae6:	66 44 0f 28 cb              	(move)  	movapd	%xmm3,%xmm9
  405aeb:	f2 44 0f 59 0c d0           	(arith) 	mulsd	(%rax,%rdx,8),%xmm9
  405af1:	f2 41 0f 58 f9              	(arith) 	addsd	%xmm9,%xmm7
  405af6:	f2 0f 59 7c 24 50           	(arith) 	mulsd	0x50(%rsp),%xmm7
  405afc:	f2 44 0f 58 df              	(arith) 	addsd	%xmm7,%xmm11
  405b01:	f2 41 0f 59 f5              	(arith) 	mulsd	%xmm13,%xmm6
  405b06:	66 41 0f 28 f8              	(move)  	movapd	%xmm8,%xmm7
  405b0b:	f2 42 0f 59 3c d8           	(arith) 	mulsd	(%rax,%r11,8),%xmm7
  405b11:	f2 0f 5c f7                 	(arith) 	subsd	%xmm7,%xmm6
  405b15:	f2 0f 59 d6                 	(arith) 	mulsd	%xmm6,%xmm2
  405b19:	f2 41 0f 59 dd              	(arith) 	mulsd	%xmm13,%xmm3
  405b1e:	66 41 0f 28 f0              	(move)  	movapd	%xmm8,%xmm6
  405b23:	48 8b 54 24 28              	(move)  	mov	0x28(%rsp),%rdx
  405b28:	f2 0f 59 34 d0              	(arith) 	mulsd	(%rax,%rdx,8),%xmm6
  405b2d:	f2 0f 5c de                 	(arith) 	subsd	%xmm6,%xmm3
  405b31:	f2 0f 59 d9                 	(arith) 	mulsd	%xmm1,%xmm3
  405b35:	f2 0f 5c d3                 	(arith) 	subsd	%xmm3,%xmm2
  405b39:	f2 0f 59 d5                 	(arith) 	mulsd	%xmm5,%xmm2
  405b3d:	f2 44 0f 5c da              	(arith) 	subsd	%xmm2,%xmm11
  405b42:	f2 44 0f 11 1c f8           	(move)  	movsd	%xmm11,(%rax,%rdi,8)
/home/jgarcia/TFG/source_code/SP/rhs.f:66
  405b48:	44 39 4c 24 40              	(arith) 	cmp	%r9d,0x40(%rsp)
  405b4d:	74 08                       	(control)	je	405b57 <compute_rhs_+0x937>	; ↲ label 455
458:	
  405b4f:	44 89 ca                    	(move)  	mov	%r9d,%edx
  405b52:	e9 03 fc ff ff              	(control)	jmp	40575a <compute_rhs_+0x53a>	; ↰ label 457 (loop 123)
; ------- Loop 123 exit
455:	
/home/jgarcia/TFG/source_code/SP/rhs.f:65
  405b57:	8b 8c 24 98 00 00 00        	(move)  	mov	0x98(%rsp),%ecx
  405b5e:	39 8c 24 90 00 00 00        	(arith) 	cmp	%ecx,0x90(%rsp)
  405b65:	74 0d                       	(control)	je	405b74 <compute_rhs_+0x954>	; ↲ label 459
460:	
  405b67:	83 84 24 90 00 00 00 01     	(arith) 	addl	$0x1,0x90(%rsp)
  405b6f:	e9 98 fb ff ff              	(control)	jmp	40570c <compute_rhs_+0x4ec>	; ↰ label 454 (loop 122)
; ------- Loop 122 exit
459:	
  405b74:	f2 0f 10 9c 24 c8 00 00 00  	(move)  	movsd	0xc8(%rsp),%xmm3
  405b7d:	41 b9 01 00 00 00           	(move)  	mov	$0x1,%r9d
/home/jgarcia/TFG/source_code/SP/rhs.f:128
  405b83:	f2 44 0f 10 15 3c 89 00 00  	(move)  	movsd	0x893c(%rip),%xmm10
  405b8c:	f2 44 0f 10 0d 3b 89 00 00  	(move)  	movsd	0x893b(%rip),%xmm9
/home/jgarcia/TFG/source_code/SP/rhs.f:135
  405b95:	66 41 0f 28 c9              	(move)  	movapd	%xmm9,%xmm1
  405b9a:	f2 0f 10 3d 36 89 00 00     	(move)  	movsd	0x8936(%rip),%xmm7
  405ba2:	44 8b ac 24 98 00 00 00     	(move)  	mov	0x98(%rsp),%r13d
  405baa:	4c 8b 5c 24 30              	(move)  	mov	0x30(%rsp),%r11
; ------- Loop 121 entry
461 (loop 121):	
/home/jgarcia/TFG/source_code/SP/rhs.f:128
  405baf:	49 63 d1                    	(move)  	movsxd	%r9d,%rdx
  405bb2:	48 89 d1                    	(move)  	mov	%rdx,%rcx
  405bb5:	48 c1 e1 09                 	(logic) 	sal	$0x9,%rcx
  405bb9:	48 29 d1                    	(arith) 	sub	%rdx,%rcx
  405bbc:	48 8d 2c 8a                 	(arith) 	lea	(%rdx,%rcx,4),%rbp
  405bc0:	4a 8d 74 1d 05              	(arith) 	lea	0x5(%rbp,%r11,1),%rsi
  405bc5:	4d 8d 14 28                 	(arith) 	lea	(%r8,%rbp,1),%r10
  405bc9:	48 8d 96 21 11 d1 30        	(arith) 	lea	0x30d11121(%rsi),%rdx
  405bd0:	48 8d 14 d0                 	(arith) 	lea	(%rax,%rdx,8),%rdx
  405bd4:	4a 8d 4c 1d 0b              	(arith) 	lea	0xb(%rbp,%r11,1),%rcx
  405bd9:	48 8d 1c c8                 	(arith) 	lea	(%rax,%rcx,8),%rbx
  405bdd:	4a 8d 4c d0 78              	(arith) 	lea	0x78(%rax,%r10,8),%rcx
/home/jgarcia/TFG/source_code/SP/rhs.f:4
  405be2:	49 bc 50 a1 1c 88 01 00 00 00	(move)  	mov	$0x1881ca150,%r12
  405bec:	49 8d 3c f4                 	(arith) 	lea	(%r12,%rsi,8),%rdi
/home/jgarcia/TFG/source_code/SP/rhs.f:128
  405bf0:	48 be 00 77 77 79 fe ff ff ff	(move)  	mov	$-0x186888900,%rsi
; ------- Loop 113 entry
462 (loop 113):	
  405bfa:	66 41 0f 28 f2              	(move)  	movapd	%xmm10,%xmm6
  405bff:	f2 0f 59 34 32              	(arith) 	mulsd	(%rdx,%rsi,1),%xmm6
  405c04:	66 41 0f 28 d1              	(move)  	movapd	%xmm9,%xmm2
  405c09:	f2 0f 59 13                 	(arith) 	mulsd	(%rbx),%xmm2
  405c0d:	f2 0f 58 d6                 	(arith) 	addsd	%xmm6,%xmm2
  405c11:	f2 0f 58 11                 	(arith) 	addsd	(%rcx),%xmm2
  405c15:	f2 0f 59 d3                 	(arith) 	mulsd	%xmm3,%xmm2
  405c19:	f2 0f 10 32                 	(move)  	movsd	(%rdx),%xmm6
  405c1d:	f2 0f 5c f2                 	(arith) 	subsd	%xmm2,%xmm6
  405c21:	f2 0f 11 32                 	(move)  	movsd	%xmm6,(%rdx)
  405c25:	48 83 c2 08                 	(arith) 	add	$0x8,%rdx
  405c29:	48 83 c3 08                 	(arith) 	add	$0x8,%rbx
  405c2d:	48 83 c1 08                 	(arith) 	add	$0x8,%rcx
/home/jgarcia/TFG/source_code/SP/rhs.f:125
  405c31:	48 39 fa                    	(arith) 	cmp	%rdi,%rdx
  405c34:	75 c4                       	(control)	jne	405bfa <compute_rhs_+0x9da>	; ↰ label 462 (loop 113)
; ------- Loop 113 exit
463:	
  405c36:	4a 8d 94 05 2a 11 d1 30     	(arith) 	lea	0x30d1112a(%rbp,%r8,1),%rdx
  405c3e:	48 8d 14 d0                 	(arith) 	lea	(%rax,%rdx,8),%rdx
  405c42:	4a 8d 8c d0 a0 00 00 00     	(arith) 	lea	0xa0(%rax,%r10,8),%rcx
/home/jgarcia/TFG/source_code/SP/rhs.f:4
  405c4a:	4c 01 c5                    	(arith) 	add	%r8,%rbp
  405c4d:	48 bb 98 a1 1c 88 01 00 00 00	(move)  	mov	$0x1881ca198,%rbx
  405c57:	48 8d 2c eb                 	(arith) 	lea	(%rbx,%rbp,8),%rbp
/home/jgarcia/TFG/source_code/SP/rhs.f:135
  405c5b:	48 bf d8 76 77 79 fe ff ff ff	(move)  	mov	$-0x186888928,%rdi
  405c65:	48 be 00 77 77 79 fe ff ff ff	(move)  	mov	$-0x186888900,%rsi
  405c6f:	48 bb 28 77 77 79 fe ff ff ff	(move)  	mov	$-0x1868888d8,%rbx
; ------- Loop 114 entry
464 (loop 114):	
  405c79:	66 0f 28 f1                 	(move)  	movapd	%xmm1,%xmm6
  405c7d:	f2 0f 59 34 3a              	(arith) 	mulsd	(%rdx,%rdi,1),%xmm6
  405c82:	66 0f 28 d7                 	(move)  	movapd	%xmm7,%xmm2
  405c86:	f2 0f 59 14 32              	(arith) 	mulsd	(%rdx,%rsi,1),%xmm2
  405c8b:	f2 0f 58 d6                 	(arith) 	addsd	%xmm6,%xmm2
  405c8f:	66 0f 28 f1                 	(move)  	movapd	%xmm1,%xmm6
  405c93:	f2 0f 59 34 1a              	(arith) 	mulsd	(%rdx,%rbx,1),%xmm6
  405c98:	f2 0f 58 d6                 	(arith) 	addsd	%xmm6,%xmm2
  405c9c:	f2 0f 58 11                 	(arith) 	addsd	(%rcx),%xmm2
  405ca0:	f2 0f 59 d3                 	(arith) 	mulsd	%xmm3,%xmm2
  405ca4:	f2 0f 10 32                 	(move)  	movsd	(%rdx),%xmm6
  405ca8:	f2 0f 5c f2                 	(arith) 	subsd	%xmm2,%xmm6
  405cac:	f2 0f 11 32                 	(move)  	movsd	%xmm6,(%rdx)
  405cb0:	48 83 c2 08                 	(arith) 	add	$0x8,%rdx
  405cb4:	48 83 c1 08                 	(arith) 	add	$0x8,%rcx
/home/jgarcia/TFG/source_code/SP/rhs.f:132
  405cb8:	48 39 ea                    	(arith) 	cmp	%rbp,%rdx
  405cbb:	75 bc                       	(control)	jne	405c79 <compute_rhs_+0xa59>	; ↰ label 464 (loop 114)
; ------- Loop 114 exit
465:	
/home/jgarcia/TFG/source_code/SP/rhs.f:123
  405cbd:	45 39 e9                    	(arith) 	cmp	%r13d,%r9d
  405cc0:	74 09                       	(control)	je	405ccb <compute_rhs_+0xaab>	; ↲ label 466
467:	
  405cc2:	41 83 c1 01                 	(arith) 	add	$0x1,%r9d
  405cc6:	e9 e4 fe ff ff              	(control)	jmp	405baf <compute_rhs_+0x98f>	; ↰ label 461 (loop 121)
; ------- Loop 121 exit
466:	
  405ccb:	c7 44 24 08 01 00 00 00     	(move)  	movl	$0x1,0x8(%rsp)
/home/jgarcia/TFG/source_code/SP/rhs.f:145
  405cd3:	48 bd 00 77 77 79 fe ff ff ff	(move)  	mov	$-0x186888900,%rbp
  405cdd:	f2 0f 10 35 f3 87 00 00     	(move)  	movsd	0x87f3(%rip),%xmm6
  405ce5:	4c 89 44 24 10              	(move)  	mov	%r8,0x10(%rsp)
  405cea:	44 8b 9c 24 00 01 00 00     	(move)  	mov	0x100(%rsp),%r11d
; ------- Loop 118 entry
468 (loop 118):	
/home/jgarcia/TFG/source_code/SP/rhs.f:140
  405cf2:	41 83 fb 02                 	(arith) 	cmp	$0x2,%r11d
  405cf6:	0f 8e d6 00 00 00           	(control)	jle	405dd2 <compute_rhs_+0xbb2>	; ↲ label 469
470:	
/home/jgarcia/TFG/source_code/SP/rhs.f:145
  405cfc:	48 63 54 24 08              	(move)  	movsxd	0x8(%rsp),%rdx
  405d01:	48 89 d1                    	(move)  	mov	%rdx,%rcx
  405d04:	48 c1 e1 09                 	(logic) 	sal	$0x9,%rcx
  405d08:	48 29 d1                    	(arith) 	sub	%rdx,%rcx
  405d0b:	4c 8d 34 8a                 	(arith) 	lea	(%rdx,%rcx,4),%r14
  405d0f:	4c 8b 6c 24 30              	(move)  	mov	0x30(%rsp),%r13
  405d14:	4d 01 f5                    	(arith) 	add	%r14,%r13
  405d17:	4c 03 74 24 10              	(arith) 	add	0x10(%rsp),%r14
  405d1c:	41 b8 03 00 00 00           	(move)  	mov	$0x3,%r8d
  405d22:	4d 8d 7e f6                 	(arith) 	lea	-0xa(%r14),%r15
  405d26:	4d 8d 55 01                 	(arith) 	lea	0x1(%r13),%r10
  405d2a:	49 83 c6 0a                 	(arith) 	add	$0xa,%r14
; ------- Loop 120 entry
471 (loop 120):	
  405d2e:	49 63 d8                    	(move)  	movsxd	%r8d,%rbx
  405d31:	48 8d 0c 9b                 	(arith) 	lea	(%rbx,%rbx,4),%rcx
  405d35:	4e 8d 0c 29                 	(arith) 	lea	(%rcx,%r13,1),%r9
  405d39:	49 8d 91 21 11 d1 30        	(arith) 	lea	0x30d11121(%r9),%rdx
  405d40:	48 8d 14 d0                 	(arith) 	lea	(%rax,%rdx,8),%rdx
  405d44:	49 8d 34 0f                 	(arith) 	lea	(%r15,%rcx,1),%rsi
  405d48:	48 8d 3c f0                 	(arith) 	lea	(%rax,%rsi,8),%rdi
  405d4c:	48 8d 74 9b fb              	(arith) 	lea	-0x5(%rbx,%rbx,4),%rsi
  405d51:	49 8d 34 32                 	(arith) 	lea	(%r10,%rsi,1),%rsi
  405d55:	48 8d 34 f0                 	(arith) 	lea	(%rax,%rsi,8),%rsi
  405d59:	48 8d 5c 9b 05              	(arith) 	lea	0x5(%rbx,%rbx,4),%rbx
  405d5e:	49 8d 1c 1a                 	(arith) 	lea	(%r10,%rbx,1),%rbx
  405d62:	48 8d 1c d8                 	(arith) 	lea	(%rax,%rbx,8),%rbx
  405d66:	49 8d 0c 0e                 	(arith) 	lea	(%r14,%rcx,1),%rcx
  405d6a:	48 8d 0c c8                 	(arith) 	lea	(%rax,%rcx,8),%rcx
/home/jgarcia/TFG/source_code/SP/rhs.f:4
  405d6e:	4f 8d 0c cc                 	(arith) 	lea	(%r12,%r9,8),%r9
; ------- Loop 119 entry
472 (loop 119):	
/home/jgarcia/TFG/source_code/SP/rhs.f:145
  405d72:	66 0f 28 cc                 	(move)  	movapd	%xmm4,%xmm1
  405d76:	f2 0f 59 0e                 	(arith) 	mulsd	(%rsi),%xmm1
  405d7a:	f2 0f 58 0f                 	(arith) 	addsd	(%rdi),%xmm1
  405d7e:	66 0f 28 fe                 	(move)  	movapd	%xmm6,%xmm7
  405d82:	f2 0f 59 3c 2a              	(arith) 	mulsd	(%rdx,%rbp,1),%xmm7
  405d87:	f2 0f 58 cf                 	(arith) 	addsd	%xmm7,%xmm1
  405d8b:	66 0f 28 d4                 	(move)  	movapd	%xmm4,%xmm2
  405d8f:	f2 0f 59 13                 	(arith) 	mulsd	(%rbx),%xmm2
  405d93:	f2 0f 58 ca                 	(arith) 	addsd	%xmm2,%xmm1
  405d97:	f2 0f 58 09                 	(arith) 	addsd	(%rcx),%xmm1
  405d9b:	f2 0f 59 cb                 	(arith) 	mulsd	%xmm3,%xmm1
  405d9f:	f2 0f 10 12                 	(move)  	movsd	(%rdx),%xmm2
  405da3:	f2 0f 5c d1                 	(arith) 	subsd	%xmm1,%xmm2
  405da7:	f2 0f 11 12                 	(move)  	movsd	%xmm2,(%rdx)
  405dab:	48 83 c2 08                 	(arith) 	add	$0x8,%rdx
  405daf:	48 83 c7 08                 	(arith) 	add	$0x8,%rdi
  405db3:	48 83 c6 08                 	(arith) 	add	$0x8,%rsi
  405db7:	48 83 c3 08                 	(arith) 	add	$0x8,%rbx
  405dbb:	48 83 c1 08                 	(arith) 	add	$0x8,%rcx
/home/jgarcia/TFG/source_code/SP/rhs.f:141
  405dbf:	4c 39 ca                    	(arith) 	cmp	%r9,%rdx
  405dc2:	75 ae                       	(control)	jne	405d72 <compute_rhs_+0xb52>	; ↰ label 472 (loop 119)
; ------- Loop 119 exit
473:	
/home/jgarcia/TFG/source_code/SP/rhs.f:140
  405dc4:	45 39 d8                    	(arith) 	cmp	%r11d,%r8d
  405dc7:	74 09                       	(control)	je	405dd2 <compute_rhs_+0xbb2>	; ↲ label 469
474:	
  405dc9:	41 83 c0 01                 	(arith) 	add	$0x1,%r8d
  405dcd:	e9 5c ff ff ff              	(control)	jmp	405d2e <compute_rhs_+0xb0e>	; ↰ label 471 (loop 120)
; ------- Loop 120 exit
469:	
/home/jgarcia/TFG/source_code/SP/rhs.f:139
  405dd2:	8b b4 24 98 00 00 00        	(move)  	mov	0x98(%rsp),%esi
  405dd9:	39 74 24 08                 	(arith) 	cmp	%esi,0x8(%rsp)
  405ddd:	74 0a                       	(control)	je	405de9 <compute_rhs_+0xbc9>	; ↲ label 475
476:	
  405ddf:	83 44 24 08 01              	(arith) 	addl	$0x1,0x8(%rsp)
  405de4:	e9 09 ff ff ff              	(control)	jmp	405cf2 <compute_rhs_+0xad2>	; ↰ label 468 (loop 118)
; ------- Loop 118 exit
475:	
  405de9:	4c 8b 44 24 10              	(move)  	mov	0x10(%rsp),%r8
/home/jgarcia/TFG/source_code/SP/rhs.f:155
  405dee:	4c 8b bc 24 f8 00 00 00     	(move)  	mov	0xf8(%rsp),%r15
  405df6:	4f 8d 3c 38                 	(arith) 	lea	(%r8,%r15,1),%r15
  405dfa:	4c 8b b4 24 e8 00 00 00     	(move)  	mov	0xe8(%rsp),%r14
  405e02:	4f 8d 34 30                 	(arith) 	lea	(%r8,%r14,1),%r14
  405e06:	4c 8b ac 24 e0 00 00 00     	(move)  	mov	0xe0(%rsp),%r13
  405e0e:	4f 8d 2c 28                 	(arith) 	lea	(%r8,%r13,1),%r13
  405e12:	41 ba 01 00 00 00           	(move)  	mov	$0x1,%r10d
  405e18:	4c 8b 8c 24 f0 00 00 00     	(move)  	mov	0xf0(%rsp),%r9
  405e20:	49 83 c1 01                 	(arith) 	add	$0x1,%r9
  405e24:	4c 89 4c 24 08              	(move)  	mov	%r9,0x8(%rsp)
  405e29:	f2 0f 10 0d 9f 86 00 00     	(move)  	movsd	0x869f(%rip),%xmm1
  405e31:	f2 44 0f 10 15 9e 86 00 00  	(move)  	movsd	0x869e(%rip),%xmm10
/home/jgarcia/TFG/source_code/SP/rhs.f:162
  405e3a:	48 8b 94 24 d8 00 00 00     	(move)  	mov	0xd8(%rsp),%rdx
  405e42:	4a 8d 54 02 01              	(arith) 	lea	0x1(%rdx,%r8,1),%rdx
  405e47:	48 89 54 24 10              	(move)  	mov	%rdx,0x10(%rsp)
  405e4c:	66 44 0f 28 c9              	(move)  	movapd	%xmm1,%xmm9
  405e51:	f2 0f 10 3d 6f 86 00 00     	(move)  	movsd	0x866f(%rip),%xmm7
; ------- Loop 117 entry
477 (loop 117):	
/home/jgarcia/TFG/source_code/SP/rhs.f:155
  405e59:	49 63 d2                    	(move)  	movsxd	%r10d,%rdx
  405e5c:	48 89 d1                    	(move)  	mov	%rdx,%rcx
  405e5f:	48 c1 e1 09                 	(logic) 	sal	$0x9,%rcx
  405e63:	48 29 d1                    	(arith) 	sub	%rdx,%rcx
  405e66:	48 8d 3c 8a                 	(arith) 	lea	(%rdx,%rcx,4),%rdi
  405e6a:	4a 8d 2c 3f                 	(arith) 	lea	(%rdi,%r15,1),%rbp
  405e6e:	4d 8d 1c 38                 	(arith) 	lea	(%r8,%rdi,1),%r11
  405e72:	48 8d 95 21 11 d1 30        	(arith) 	lea	0x30d11121(%rbp),%rdx
  405e79:	48 8d 14 d0                 	(arith) 	lea	(%rax,%rdx,8),%rdx
  405e7d:	48 8b 4c 24 08              	(move)  	mov	0x8(%rsp),%rcx
  405e82:	4c 01 d9                    	(arith) 	add	%r11,%rcx
  405e85:	48 8d 34 c8                 	(arith) 	lea	(%rax,%rcx,8),%rsi
  405e89:	4a 8d 4c 37 01              	(arith) 	lea	0x1(%rdi,%r14,1),%rcx
  405e8e:	48 8d 1c c8                 	(arith) 	lea	(%rax,%rcx,8),%rbx
  405e92:	4a 8d 4c 2f 01              	(arith) 	lea	0x1(%rdi,%r13,1),%rcx
  405e97:	48 8d 0c c8                 	(arith) 	lea	(%rax,%rcx,8),%rcx
/home/jgarcia/TFG/source_code/SP/rhs.f:4
  405e9b:	4d 8d 0c ec                 	(arith) 	lea	(%r12,%rbp,8),%r9
/home/jgarcia/TFG/source_code/SP/rhs.f:155
  405e9f:	48 bd 00 77 77 79 fe ff ff ff	(move)  	mov	$-0x186888900,%rbp
; ------- Loop 115 entry
478 (loop 115):	
  405ea9:	66 0f 28 d1                 	(move)  	movapd	%xmm1,%xmm2
  405ead:	f2 0f 59 13                 	(arith) 	mulsd	(%rbx),%xmm2
  405eb1:	f2 0f 58 16                 	(arith) 	addsd	(%rsi),%xmm2
  405eb5:	66 45 0f 28 da              	(move)  	movapd	%xmm10,%xmm11
  405eba:	f2 44 0f 59 1c 2a           	(arith) 	mulsd	(%rdx,%rbp,1),%xmm11
  405ec0:	f2 41 0f 58 d3              	(arith) 	addsd	%xmm11,%xmm2
  405ec5:	66 0f 28 f1                 	(move)  	movapd	%xmm1,%xmm6
  405ec9:	f2 0f 59 31                 	(arith) 	mulsd	(%rcx),%xmm6
  405ecd:	f2 0f 58 d6                 	(arith) 	addsd	%xmm6,%xmm2
  405ed1:	f2 0f 59 d3                 	(arith) 	mulsd	%xmm3,%xmm2
  405ed5:	f2 0f 10 32                 	(move)  	movsd	(%rdx),%xmm6
  405ed9:	f2 0f 5c f2                 	(arith) 	subsd	%xmm2,%xmm6
  405edd:	f2 0f 11 32                 	(move)  	movsd	%xmm6,(%rdx)
  405ee1:	48 83 c2 08                 	(arith) 	add	$0x8,%rdx
  405ee5:	48 83 c6 08                 	(arith) 	add	$0x8,%rsi
  405ee9:	48 83 c3 08                 	(arith) 	add	$0x8,%rbx
  405eed:	48 83 c1 08                 	(arith) 	add	$0x8,%rcx
/home/jgarcia/TFG/source_code/SP/rhs.f:152
  405ef1:	4c 39 ca                    	(arith) 	cmp	%r9,%rdx
  405ef4:	75 b3                       	(control)	jne	405ea9 <compute_rhs_+0xc89>	; ↰ label 478 (loop 115)
; ------- Loop 115 exit
479:	
/home/jgarcia/TFG/source_code/SP/rhs.f:162
  405ef6:	48 8b 9c 24 a8 00 00 00     	(move)  	mov	0xa8(%rsp),%rbx
  405efe:	49 8d 1c 18                 	(arith) 	lea	(%r8,%rbx,1),%rbx
  405f02:	48 8d 1c 1f                 	(arith) 	lea	(%rdi,%rbx,1),%rbx
  405f06:	48 8d 93 21 11 d1 30        	(arith) 	lea	0x30d11121(%rbx),%rdx
  405f0d:	48 8d 14 d0                 	(arith) 	lea	(%rax,%rdx,8),%rdx
  405f11:	48 8b b4 24 a0 00 00 00     	(move)  	mov	0xa0(%rsp),%rsi
  405f19:	4a 8d 4c 1e 01              	(arith) 	lea	0x1(%rsi,%r11,1),%rcx
  405f1e:	48 8d 34 c8                 	(arith) 	lea	(%rax,%rcx,8),%rsi
  405f22:	48 03 7c 24 10              	(arith) 	add	0x10(%rsp),%rdi
  405f27:	48 8d 0c f8                 	(arith) 	lea	(%rax,%rdi,8),%rcx
/home/jgarcia/TFG/source_code/SP/rhs.f:4
  405f2b:	49 8d 3c dc                 	(arith) 	lea	(%r12,%rbx,8),%rdi
/home/jgarcia/TFG/source_code/SP/rhs.f:162
  405f2f:	48 bb 00 77 77 79 fe ff ff ff	(move)  	mov	$-0x186888900,%rbx
; ------- Loop 116 entry
480 (loop 116):	
  405f39:	66 41 0f 28 d1              	(move)  	movapd	%xmm9,%xmm2
  405f3e:	f2 0f 59 11                 	(arith) 	mulsd	(%rcx),%xmm2
  405f42:	f2 0f 58 16                 	(arith) 	addsd	(%rsi),%xmm2
  405f46:	66 0f 28 f7                 	(move)  	movapd	%xmm7,%xmm6
  405f4a:	f2 0f 59 34 1a              	(arith) 	mulsd	(%rdx,%rbx,1),%xmm6
  405f4f:	f2 0f 58 d6                 	(arith) 	addsd	%xmm6,%xmm2
  405f53:	f2 0f 59 d3                 	(arith) 	mulsd	%xmm3,%xmm2
  405f57:	f2 0f 10 32                 	(move)  	movsd	(%rdx),%xmm6
  405f5b:	f2 0f 5c f2                 	(arith) 	subsd	%xmm2,%xmm6
  405f5f:	f2 0f 11 32                 	(move)  	movsd	%xmm6,(%rdx)
  405f63:	48 83 c2 08                 	(arith) 	add	$0x8,%rdx
  405f67:	48 83 c6 08                 	(arith) 	add	$0x8,%rsi
  405f6b:	48 83 c1 08                 	(arith) 	add	$0x8,%rcx
/home/jgarcia/TFG/source_code/SP/rhs.f:159
  405f6f:	48 39 fa                    	(arith) 	cmp	%rdi,%rdx
  405f72:	75 c5                       	(control)	jne	405f39 <compute_rhs_+0xd19>	; ↰ label 480 (loop 116)
; ------- Loop 116 exit
481:	
/home/jgarcia/TFG/source_code/SP/rhs.f:150
  405f74:	44 3b 94 24 98 00 00 00     	(arith) 	cmp	0x98(%rsp),%r10d
  405f7c:	74 09                       	(control)	je	405f87 <compute_rhs_+0xd67>	; ↲ label 452
482:	
  405f7e:	41 83 c2 01                 	(arith) 	add	$0x1,%r10d
  405f82:	e9 d2 fe ff ff              	(control)	jmp	405e59 <compute_rhs_+0xc39>	; ↰ label 477 (loop 117)
; ------- Loop 117 exit
452:	
/home/jgarcia/TFG/source_code/SP/rhs.f:64
  405f87:	44 8b 8c 24 d4 00 00 00     	(move)  	mov	0xd4(%rsp),%r9d
  405f8f:	44 39 8c 24 c0 00 00 00     	(arith) 	cmp	%r9d,0xc0(%rsp)
  405f97:	74 0d                       	(control)	je	405fa6 <compute_rhs_+0xd86>	; ↲ label 449
483:	
  405f99:	83 84 24 c0 00 00 00 01     	(arith) 	addl	$0x1,0xc0(%rsp)
  405fa1:	e9 fe f6 ff ff              	(control)	jmp	4056a4 <compute_rhs_+0x484>	; ↰ label 451 (loop 112)
; ------- Loop 112 exit
449:	
/home/jgarcia/TFG/source_code/SP/rhs.f:166
  405fa6:	83 3d 6b 9b 20 00 00        	(arith) 	cmpl	$0,0x209b6b(%rip)
  405fad:	74 27                       	(control)	je	405fd6 <compute_rhs_+0xdb6>	; ↲ label 484
485:	
  405faf:	bf 34 e5 40 00              	(move)  	mov	$0x40e534,%edi
  405fb4:	b8 00 00 00 00              	(move)  	mov	$0,%eax
  405fb9:	e8 4d 80 00 00              	(control)	call	40e00b <timer_stop_>	; ⇄ timer_stop
486:	
/home/jgarcia/TFG/source_code/SP/rhs.f:171
  405fbe:	83 3d 53 9b 20 00 00        	(arith) 	cmpl	$0,0x209b53(%rip)
  405fc5:	74 0f                       	(control)	je	405fd6 <compute_rhs_+0xdb6>	; ↲ label 484
487:	
  405fc7:	bf 38 e5 40 00              	(move)  	mov	$0x40e538,%edi
  405fcc:	b8 00 00 00 00              	(move)  	mov	$0,%eax
  405fd1:	e8 61 80 00 00              	(control)	call	40e037 <timer_start_>	; ⇄ timer_start
484:	
/home/jgarcia/TFG/source_code/SP/rhs.f:172
  405fd6:	44 8b 25 37 9b 20 00        	(move)  	mov	0x209b37(%rip),%r12d
  405fdd:	44 89 a4 24 f8 00 00 00     	(move)  	mov	%r12d,0xf8(%rsp)
  405fe5:	45 85 e4                    	(arith) 	test	%r12d,%r12d
  405fe8:	0f 8e 70 0c 00 00           	(control)	jle	406c5e <compute_rhs_+0x1a3e>	; ↲ label 488
489:	
/home/jgarcia/TFG/source_code/SP/rhs.f:173
  405fee:	44 8b 3d 1b 9b 20 00        	(move)  	mov	0x209b1b(%rip),%r15d
  405ff5:	44 89 bc 24 d4 00 00 00     	(move)  	mov	%r15d,0xd4(%rsp)
/home/jgarcia/TFG/source_code/SP/rhs.f:174
  405ffd:	8b 05 09 9b 20 00           	(move)  	mov	0x209b09(%rip),%eax
  406003:	89 44 24 20                 	(move)  	mov	%eax,0x20(%rsp)
/home/jgarcia/TFG/source_code/SP/rhs.f:181
  406007:	f2 0f 10 05 59 99 20 00     	(move)  	movsd	0x209959(%rip),%xmm0
  40600f:	f2 0f 11 84 24 b0 00 00 00  	(move)  	movsd	%xmm0,0xb0(%rsp)
  406018:	f2 0f 10 2d 00 96 20 00     	(move)  	movsd	0x209600(%rip),%xmm5
/home/jgarcia/TFG/source_code/SP/rhs.f:188
  406020:	f2 0f 10 0d 48 99 20 00     	(move)  	movsd	0x209948(%rip),%xmm1
  406028:	f2 0f 11 8c 24 a8 00 00 00  	(move)  	movsd	%xmm1,0xa8(%rsp)
  406031:	f2 44 0f 10 2d 0e 99 20 00  	(move)  	movsd	0x20990e(%rip),%xmm13
/home/jgarcia/TFG/source_code/SP/rhs.f:197
  40603a:	f2 0f 10 05 36 99 20 00     	(move)  	movsd	0x209936(%rip),%xmm0
  406042:	f2 0f 11 84 24 a0 00 00 00  	(move)  	movsd	%xmm0,0xa0(%rsp)
  40604b:	f2 0f 10 0d 9d 9a 20 00     	(move)  	movsd	0x209a9d(%rip),%xmm1
  406053:	f2 0f 11 8c 24 e8 00 00 00  	(move)  	movsd	%xmm1,0xe8(%rsp)
  40605c:	f2 44 0f 10 0d c3 99 20 00  	(move)  	movsd	0x2099c3(%rip),%xmm9
/home/jgarcia/TFG/source_code/SP/rhs.f:204
  406065:	f2 0f 10 05 13 99 20 00     	(move)  	movsd	0x209913(%rip),%xmm0
  40606d:	f2 0f 11 84 24 98 00 00 00  	(move)  	movsd	%xmm0,0x98(%rsp)
/home/jgarcia/TFG/source_code/SP/rhs.f:218
  406076:	f2 0f 10 0d 0a 99 20 00     	(move)  	movsd	0x20990a(%rip),%xmm1
  40607e:	f2 0f 11 8c 24 90 00 00 00  	(move)  	movsd	%xmm1,0x90(%rsp)
  406087:	f2 0f 10 05 c1 98 20 00     	(move)  	movsd	0x2098c1(%rip),%xmm0
  40608f:	f2 0f 11 84 24 88 00 00 00  	(move)  	movsd	%xmm0,0x88(%rsp)
  406098:	f2 0f 10 0d b8 98 20 00     	(move)  	movsd	0x2098b8(%rip),%xmm1
  4060a0:	f2 0f 11 8c 24 80 00 00 00  	(move)  	movsd	%xmm1,0x80(%rsp)
  4060a9:	f2 0f 10 05 af 98 20 00     	(move)  	movsd	0x2098af(%rip),%xmm0
  4060b1:	f2 0f 11 44 24 78           	(move)  	movsd	%xmm0,0x78(%rsp)
  4060b7:	f2 0f 10 0d 61 99 20 00     	(move)  	movsd	0x209961(%rip),%xmm1
  4060bf:	f2 0f 11 8c 24 30 01 00 00  	(move)  	movsd	%xmm1,0x130(%rsp)
/home/jgarcia/TFG/source_code/SP/rhs.f:231
  4060c8:	f2 0f 10 1d f0 95 20 00     	(move)  	movsd	0x2095f0(%rip),%xmm3
/home/jgarcia/TFG/source_code/SP/rhs.f:244
  4060d0:	41 83 ef 02                 	(arith) 	sub	$0x2,%r15d
  4060d4:	44 89 bc 24 e0 00 00 00     	(move)  	mov	%r15d,0xe0(%rsp)
/home/jgarcia/TFG/source_code/SP/rhs.f:260
  4060dc:	8b 84 24 d4 00 00 00        	(move)  	mov	0xd4(%rsp),%eax
  4060e3:	83 e8 01                    	(arith) 	sub	$0x1,%eax
  4060e6:	48 98                       	(conv)  	cltq
  4060e8:	48 89 c2                    	(move)  	mov	%rax,%rdx
  4060eb:	48 c1 e2 09                 	(logic) 	sal	$0x9,%rdx
  4060ef:	48 29 c2                    	(arith) 	sub	%rax,%rdx
  4060f2:	48 8d 14 90                 	(arith) 	lea	(%rax,%rdx,4),%rdx
  4060f6:	4c 8d 4a ff                 	(arith) 	lea	-0x1(%rdx),%r9
  4060fa:	4c 89 8c 24 28 01 00 00     	(move)  	mov	%r9,0x128(%rsp)
  406102:	48 81 ea fb 0f 00 00        	(arith) 	sub	$0xffb,%rdx
  406109:	48 89 94 24 38 01 00 00     	(move)  	mov	%rdx,0x138(%rsp)
  406111:	48 8d 50 ff                 	(arith) 	lea	-0x1(%rax),%rdx
  406115:	48 89 d1                    	(move)  	mov	%rdx,%rcx
  406118:	48 c1 e1 09                 	(logic) 	sal	$0x9,%rcx
  40611c:	48 29 d1                    	(arith) 	sub	%rdx,%rcx
  40611f:	48 8d 4c 8a ff              	(arith) 	lea	-0x1(%rdx,%rcx,4),%rcx
  406124:	48 89 8c 24 20 01 00 00     	(move)  	mov	%rcx,0x120(%rsp)
  40612c:	48 83 c0 01                 	(arith) 	add	$0x1,%rax
  406130:	48 89 c2                    	(move)  	mov	%rax,%rdx
  406133:	48 c1 e2 09                 	(logic) 	sal	$0x9,%rdx
  406137:	48 29 c2                    	(arith) 	sub	%rax,%rdx
  40613a:	48 8d 54 90 ff              	(arith) 	lea	-0x1(%rax,%rdx,4),%rdx
  40613f:	48 89 94 24 18 01 00 00     	(move)  	mov	%rdx,0x118(%rsp)
/home/jgarcia/TFG/source_code/SP/rhs.f:269
  406147:	48 63 84 24 d4 00 00 00     	(move)  	movsxd	0xd4(%rsp),%rax
  40614f:	48 89 c2                    	(move)  	mov	%rax,%rdx
  406152:	48 c1 e2 09                 	(logic) 	sal	$0x9,%rdx
  406156:	48 29 c2                    	(arith) 	sub	%rax,%rdx
  406159:	48 8d 14 90                 	(arith) 	lea	(%rax,%rdx,4),%rdx
  40615d:	4c 8d 62 ff                 	(arith) 	lea	-0x1(%rdx),%r12
  406161:	4c 89 a4 24 10 01 00 00     	(move)  	mov	%r12,0x110(%rsp)
  406169:	48 81 ea fb 0f 00 00        	(arith) 	sub	$0xffb,%rdx
  406170:	48 89 94 24 08 01 00 00     	(move)  	mov	%rdx,0x108(%rsp)
  406178:	48 83 e8 01                 	(arith) 	sub	$0x1,%rax
  40617c:	48 89 c2                    	(move)  	mov	%rax,%rdx
  40617f:	48 c1 e2 09                 	(logic) 	sal	$0x9,%rdx
  406183:	48 29 c2                    	(arith) 	sub	%rax,%rdx
  406186:	48 8d 54 90 ff              	(arith) 	lea	-0x1(%rax,%rdx,4),%rdx
  40618b:	48 89 94 24 00 01 00 00     	(move)  	mov	%rdx,0x100(%rsp)
  406193:	c7 84 24 d8 00 00 00 01 00 00 00	(move)  	movl	$0x1,0xd8(%rsp)
/home/jgarcia/TFG/source_code/SP/rhs.f:181
  40619e:	f2 0f 10 05 1a 83 00 00     	(move)  	movsd	0x831a(%rip),%xmm0
/home/jgarcia/TFG/source_code/SP/rhs.f:250
  4061a6:	f2 0f 10 25 22 83 00 00     	(move)  	movsd	0x8322(%rip),%xmm4
  4061ae:	f2 44 0f 10 05 21 83 00 00  	(move)  	movsd	0x8321(%rip),%xmm8
; ------- Loop 98 entry
490 (loop 98):	
/home/jgarcia/TFG/source_code/SP/rhs.f:173
  4061b7:	83 bc 24 d4 00 00 00 00     	(arith) 	cmpl	$0,0xd4(%rsp)
  4061bf:	0f 8e 6b 05 00 00           	(control)	jle	406730 <compute_rhs_+0x1510>	; ↲ label 491
492:	
/home/jgarcia/TFG/source_code/SP/rhs.f:175
  4061c5:	4c 63 94 24 d8 00 00 00     	(move)  	movsxd	0xd8(%rsp),%r10
  4061cd:	4d 69 fa 71 8d 02 00        	(arith) 	imul	$0x28d71,%r10,%r15
  4061d4:	4c 89 bc 24 c0 00 00 00     	(move)  	mov	%r15,0xc0(%rsp)
/home/jgarcia/TFG/source_code/SP/rhs.f:181
  4061dc:	4d 69 d2 35 c3 0c 00        	(arith) 	imul	$0xcc335,%r10,%r10
  4061e3:	49 8d 42 02                 	(arith) 	lea	0x2(%r10),%rax
  4061e7:	48 89 44 24 18              	(move)  	mov	%rax,0x18(%rsp)
/home/jgarcia/TFG/source_code/SP/rhs.f:188
  4061ec:	49 8d 52 01                 	(arith) 	lea	0x1(%r10),%rdx
  4061f0:	48 89 54 24 10              	(move)  	mov	%rdx,0x10(%rsp)
/home/jgarcia/TFG/source_code/SP/rhs.f:197
  4061f5:	49 8d 4a ff                 	(arith) 	lea	-0x1(%r10),%rcx
  4061f9:	48 89 8c 24 c8 00 00 00     	(move)  	mov	%rcx,0xc8(%rsp)
/home/jgarcia/TFG/source_code/SP/rhs.f:204
  406201:	49 8d 5a 03                 	(arith) 	lea	0x3(%r10),%rbx
  406205:	48 89 5c 24 08              	(move)  	mov	%rbx,0x8(%rsp)
  40620a:	c7 84 24 b8 00 00 00 01 00 00 00	(move)  	movl	$0x1,0xb8(%rsp)
/home/jgarcia/TFG/source_code/SP/rhs.f:175
  406215:	48 b8 20 18 94 01 00 00 00 00	(move)  	mov	$0x1941820,%rax
  40621f:	f2 0f 11 9c 24 f0 00 00 00  	(move)  	movsd	%xmm3,0xf0(%rsp)
  406228:	f2 44 0f 10 a4 24 30 01 00 00	(move)  	movsd	0x130(%rsp),%xmm12
; ------- Loop 110 entry
493 (loop 110):	
/home/jgarcia/TFG/source_code/SP/rhs.f:174
  406232:	83 7c 24 20 00              	(arith) 	cmpl	$0,0x20(%rsp)
  406237:	0f 8e cb 04 00 00           	(control)	jle	406708 <compute_rhs_+0x14e8>	; ↲ label 494
495:	
/home/jgarcia/TFG/source_code/SP/rhs.f:175
  40623d:	48 63 94 24 b8 00 00 00     	(move)  	movsxd	0xb8(%rsp),%rdx
  406245:	48 69 ca 99 01 00 00        	(arith) 	imul	$0x199,%rdx,%rcx
  40624c:	48 03 8c 24 c0 00 00 00     	(arith) 	add	0xc0(%rsp),%rcx
  406254:	48 89 4c 24 48              	(move)  	mov	%rcx,0x48(%rsp)
/home/jgarcia/TFG/source_code/SP/rhs.f:176
  406259:	48 8d 5a 01                 	(arith) 	lea	0x1(%rdx),%rbx
  40625d:	48 69 cb 99 01 00 00        	(arith) 	imul	$0x199,%rbx,%rcx
  406264:	48 03 8c 24 c0 00 00 00     	(arith) 	add	0xc0(%rsp),%rcx
  40626c:	48 89 4c 24 70              	(move)  	mov	%rcx,0x70(%rsp)
/home/jgarcia/TFG/source_code/SP/rhs.f:177
  406271:	48 8d 4a ff                 	(arith) 	lea	-0x1(%rdx),%rcx
  406275:	48 69 f1 99 01 00 00        	(arith) 	imul	$0x199,%rcx,%rsi
  40627c:	48 03 b4 24 c0 00 00 00     	(arith) 	add	0xc0(%rsp),%rsi
  406284:	48 89 74 24 68              	(move)  	mov	%rsi,0x68(%rsp)
/home/jgarcia/TFG/source_code/SP/rhs.f:181
  406289:	48 89 d6                    	(move)  	mov	%rdx,%rsi
  40628c:	48 c1 e6 09                 	(logic) 	sal	$0x9,%rsi
  406290:	48 29 d6                    	(arith) 	sub	%rdx,%rsi
  406293:	48 8d 34 b2                 	(arith) 	lea	(%rdx,%rsi,4),%rsi
  406297:	48 89 74 24 28              	(move)  	mov	%rsi,0x28(%rsp)
  40629c:	48 89 da                    	(move)  	mov	%rbx,%rdx
  40629f:	48 c1 e2 09                 	(logic) 	sal	$0x9,%rdx
  4062a3:	48 29 da                    	(arith) 	sub	%rbx,%rdx
  4062a6:	48 8d 14 93                 	(arith) 	lea	(%rbx,%rdx,4),%rdx
  4062aa:	48 89 54 24 38              	(move)  	mov	%rdx,0x38(%rsp)
  4062af:	48 89 ca                    	(move)  	mov	%rcx,%rdx
  4062b2:	48 c1 e2 09                 	(logic) 	sal	$0x9,%rdx
  4062b6:	48 29 ca                    	(arith) 	sub	%rcx,%rdx
  4062b9:	48 8d 14 91                 	(arith) 	lea	(%rcx,%rdx,4),%rdx
  4062bd:	48 89 54 24 30              	(move)  	mov	%rdx,0x30(%rsp)
/home/jgarcia/TFG/source_code/SP/rhs.f:197
  4062c2:	f2 0f 10 8c 24 e8 00 00 00  	(move)  	movsd	0xe8(%rsp),%xmm1
  4062cb:	f2 41 0f 59 cd              	(arith) 	mulsd	%xmm13,%xmm1
  4062d0:	f2 0f 11 4c 24 60           	(move)  	movsd	%xmm1,0x60(%rsp)
  4062d6:	4c 8b 4c 24 38              	(move)  	mov	0x38(%rsp),%r9
  4062db:	4c 03 8c 24 c8 00 00 00     	(arith) 	add	0xc8(%rsp),%r9
  4062e3:	4c 89 4c 24 58              	(move)  	mov	%r9,0x58(%rsp)
  4062e8:	48 03 94 24 c8 00 00 00     	(arith) 	add	0xc8(%rsp),%rdx
  4062f0:	48 89 54 24 50              	(move)  	mov	%rdx,0x50(%rsp)
/home/jgarcia/TFG/source_code/SP/rhs.f:218
  4062f5:	48 03 b4 24 c8 00 00 00     	(arith) 	add	0xc8(%rsp),%rsi
  4062fd:	48 89 74 24 40              	(move)  	mov	%rsi,0x40(%rsp)
  406302:	41 b9 00 00 00 00           	(move)  	mov	$0,%r9d
; ------- Loop 111 entry
496 (loop 111):	
/home/jgarcia/TFG/source_code/SP/rhs.f:4
  406308:	41 83 c1 01                 	(arith) 	add	$0x1,%r9d
/home/jgarcia/TFG/source_code/SP/rhs.f:175
  40630c:	49 63 d1                    	(move)  	movsxd	%r9d,%rdx
  40630f:	48 8b 74 24 48              	(move)  	mov	0x48(%rsp),%rsi
  406314:	48 8d 34 32                 	(arith) 	lea	(%rdx,%rsi,1),%rsi
  406318:	48 8d 8e 90 88 68 18        	(arith) 	lea	0x18688890(%rsi),%rcx
  40631f:	f2 44 0f 10 1c c8           	(move)  	movsd	(%rax,%rcx,8),%xmm11
/home/jgarcia/TFG/source_code/SP/rhs.f:176
  406325:	48 8b 5c 24 70              	(move)  	mov	0x70(%rsp),%rbx
  40632a:	48 8d 1c 1a                 	(arith) 	lea	(%rdx,%rbx,1),%rbx
  40632e:	48 8d 8b 90 88 68 18        	(arith) 	lea	0x18688890(%rbx),%rcx
  406335:	f2 0f 10 14 c8              	(move)  	movsd	(%rax,%rcx,8),%xmm2
/home/jgarcia/TFG/source_code/SP/rhs.f:177
  40633a:	48 8b 4c 24 68              	(move)  	mov	0x68(%rsp),%rcx
  40633f:	48 8d 0c 0a                 	(arith) 	lea	(%rdx,%rcx,1),%rcx
  406343:	48 8d b9 90 88 68 18        	(arith) 	lea	0x18688890(%rcx),%rdi
  40634a:	f2 0f 10 0c f8              	(move)  	movsd	(%rax,%rdi,8),%xmm1
/home/jgarcia/TFG/source_code/SP/rhs.f:181
  40634f:	48 8d 3c 92                 	(arith) 	lea	(%rdx,%rdx,4),%rdi
  406353:	4c 8b 44 24 28              	(move)  	mov	0x28(%rsp),%r8
  406358:	4e 8d 04 07                 	(arith) 	lea	(%rdi,%r8,1),%r8
  40635c:	4f 8d 34 10                 	(arith) 	lea	(%r8,%r10,1),%r14
  406360:	48 8b 6c 24 38              	(move)  	mov	0x38(%rsp),%rbp
  406365:	48 8d 2c 2f                 	(arith) 	lea	(%rdi,%rbp,1),%rbp
  406369:	48 03 7c 24 30              	(arith) 	add	0x30(%rsp),%rdi
  40636e:	4c 8b 6c 24 18              	(move)  	mov	0x18(%rsp),%r13
  406373:	4e 8d 6c 2d 00              	(arith) 	lea	(%rbp,%r13,1),%r13
  406378:	4c 8b 64 24 18              	(move)  	mov	0x18(%rsp),%r12
  40637d:	4e 8d 24 27                 	(arith) 	lea	(%rdi,%r12,1),%r12
  406381:	4d 8d 9e 20 11 d1 30        	(arith) 	lea	0x30d11120(%r14),%r11
  406388:	4e 8d 7c 15 00              	(arith) 	lea	(%rbp,%r10,1),%r15
  40638d:	66 0f 28 f0                 	(move)  	movapd	%xmm0,%xmm6
  406391:	f2 42 0f 59 34 f0           	(arith) 	mulsd	(%rax,%r14,8),%xmm6
  406397:	f2 42 0f 58 34 f8           	(arith) 	addsd	(%rax,%r15,8),%xmm6
  40639d:	4e 8d 34 17                 	(arith) 	lea	(%rdi,%r10,1),%r14
  4063a1:	f2 42 0f 58 34 f0           	(arith) 	addsd	(%rax,%r14,8),%xmm6
  4063a7:	f2 0f 59 b4 24 b0 00 00 00  	(arith) 	mulsd	0xb0(%rsp),%xmm6
  4063b0:	f2 42 0f 58 34 d8           	(arith) 	addsd	(%rax,%r11,8),%xmm6
  4063b6:	f2 42 0f 10 1c e8           	(move)  	movsd	(%rax,%r13,8),%xmm3
  4063bc:	f2 42 0f 5c 1c e0           	(arith) 	subsd	(%rax,%r12,8),%xmm3
  4063c2:	f2 0f 59 dd                 	(arith) 	mulsd	%xmm5,%xmm3
  4063c6:	f2 0f 5c f3                 	(arith) 	subsd	%xmm3,%xmm6
  4063ca:	f2 42 0f 11 34 d8           	(move)  	movsd	%xmm6,(%rax,%r11,8)
/home/jgarcia/TFG/source_code/SP/rhs.f:188
  4063d0:	4c 8b 74 24 10              	(move)  	mov	0x10(%rsp),%r14
  4063d5:	4f 8d 34 30                 	(arith) 	lea	(%r8,%r14,1),%r14
  4063d9:	4c 8b 5c 24 10              	(move)  	mov	0x10(%rsp),%r11
  4063de:	4e 8d 5c 1d 00              	(arith) 	lea	(%rbp,%r11,1),%r11
  4063e3:	f2 42 0f 10 34 d8           	(move)  	movsd	(%rax,%r11,8),%xmm6
  4063e9:	4c 8b 5c 24 10              	(move)  	mov	0x10(%rsp),%r11
  4063ee:	4e 8d 1c 1f                 	(arith) 	lea	(%rdi,%r11,1),%r11
  4063f2:	f2 42 0f 10 1c d8           	(move)  	movsd	(%rax,%r11,8),%xmm3
  4063f8:	4d 8d 9e 20 11 d1 30        	(arith) 	lea	0x30d11120(%r14),%r11
  4063ff:	66 44 0f 28 d0              	(move)  	movapd	%xmm0,%xmm10
  406404:	f2 46 0f 59 14 f0           	(arith) 	mulsd	(%rax,%r14,8),%xmm10
  40640a:	f2 44 0f 58 d6              	(arith) 	addsd	%xmm6,%xmm10
  40640f:	f2 44 0f 58 d3              	(arith) 	addsd	%xmm3,%xmm10
  406414:	f2 44 0f 59 94 24 a8 00 00 00	(arith) 	mulsd	0xa8(%rsp),%xmm10
  40641e:	f2 46 0f 58 14 d8           	(arith) 	addsd	(%rax,%r11,8),%xmm10
  406424:	4c 8d b3 78 1c 57 14        	(arith) 	lea	0x14571c78(%rbx),%r14
  40642b:	4c 8d be 78 1c 57 14        	(arith) 	lea	0x14571c78(%rsi),%r15
  406432:	66 0f 28 f8                 	(move)  	movapd	%xmm0,%xmm7
  406436:	f2 42 0f 59 3c f8           	(arith) 	mulsd	(%rax,%r15,8),%xmm7
  40643c:	f2 42 0f 58 3c f0           	(arith) 	addsd	(%rax,%r14,8),%xmm7
  406442:	4c 8d b1 78 1c 57 14        	(arith) 	lea	0x14571c78(%rcx),%r14
  406449:	f2 42 0f 58 3c f0           	(arith) 	addsd	(%rax,%r14,8),%xmm7
  40644f:	f2 41 0f 59 fd              	(arith) 	mulsd	%xmm13,%xmm7
  406454:	f2 41 0f 58 fa              	(arith) 	addsd	%xmm10,%xmm7
  406459:	f2 0f 59 f2                 	(arith) 	mulsd	%xmm2,%xmm6
  40645d:	f2 0f 59 d9                 	(arith) 	mulsd	%xmm1,%xmm3
  406461:	f2 0f 5c f3                 	(arith) 	subsd	%xmm3,%xmm6
  406465:	f2 0f 59 f5                 	(arith) 	mulsd	%xmm5,%xmm6
  406469:	f2 0f 5c fe                 	(arith) 	subsd	%xmm6,%xmm7
  40646d:	f2 42 0f 11 3c d8           	(move)  	movsd	%xmm7,(%rax,%r11,8)
/home/jgarcia/TFG/source_code/SP/rhs.f:197
  406473:	4c 8b 5c 24 18              	(move)  	mov	0x18(%rsp),%r11
  406478:	4f 8d 1c 18                 	(arith) 	lea	(%r8,%r11,1),%r11
  40647c:	f2 42 0f 10 34 e8           	(move)  	movsd	(%rax,%r13,8),%xmm6
  406482:	f2 42 0f 10 1c e0           	(move)  	movsd	(%rax,%r12,8),%xmm3
  406488:	66 45 0f 28 d3              	(move)  	movapd	%xmm11,%xmm10
  40648d:	f2 44 0f 59 d0              	(arith) 	mulsd	%xmm0,%xmm10
  406492:	48 8d 54 92 05              	(arith) 	lea	0x5(%rdx,%rdx,4),%rdx
  406497:	4c 8b 74 24 58              	(move)  	mov	0x58(%rsp),%r14
  40649c:	4e 8d 34 32                 	(arith) 	lea	(%rdx,%r14,1),%r14
  4064a0:	4c 8b 6c 24 50              	(move)  	mov	0x50(%rsp),%r13
  4064a5:	4e 8d 2c 2a                 	(arith) 	lea	(%rdx,%r13,1),%r13
  4064a9:	4d 8d bb 20 11 d1 30        	(arith) 	lea	0x30d11120(%r11),%r15
  4064b0:	66 44 0f 28 f0              	(move)  	movapd	%xmm0,%xmm14
  4064b5:	f2 46 0f 59 34 d8           	(arith) 	mulsd	(%rax,%r11,8),%xmm14
  4064bb:	f2 44 0f 58 f6              	(arith) 	addsd	%xmm6,%xmm14
  4064c0:	f2 44 0f 58 f3              	(arith) 	addsd	%xmm3,%xmm14
  4064c5:	f2 44 0f 59 b4 24 a0 00 00 00	(arith) 	mulsd	0xa0(%rsp),%xmm14
  4064cf:	f2 46 0f 58 34 f8           	(arith) 	addsd	(%rax,%r15,8),%xmm14
  4064d5:	66 41 0f 28 fa              	(move)  	movapd	%xmm10,%xmm7
  4064da:	f2 0f 58 fa                 	(arith) 	addsd	%xmm2,%xmm7
  4064de:	f2 0f 58 f9                 	(arith) 	addsd	%xmm1,%xmm7
  4064e2:	f2 0f 59 7c 24 60           	(arith) 	mulsd	0x60(%rsp),%xmm7
  4064e8:	f2 41 0f 58 fe              	(arith) 	addsd	%xmm14,%xmm7
  4064ed:	f2 0f 59 f2                 	(arith) 	mulsd	%xmm2,%xmm6
  4064f1:	f2 0f 59 d9                 	(arith) 	mulsd	%xmm1,%xmm3
  4064f5:	f2 0f 5c f3                 	(arith) 	subsd	%xmm3,%xmm6
  4064f9:	4c 8d a3 08 a5 bf 2c        	(arith) 	lea	0x2cbfa508(%rbx),%r12
  406500:	f2 46 0f 10 34 f0           	(move)  	movsd	(%rax,%r14,8),%xmm14
  406506:	f2 46 0f 5c 34 e0           	(arith) 	subsd	(%rax,%r12,8),%xmm14
  40650c:	f2 46 0f 5c 34 e8           	(arith) 	subsd	(%rax,%r13,8),%xmm14
  406512:	4c 8d 99 08 a5 bf 2c        	(arith) 	lea	0x2cbfa508(%rcx),%r11
  406519:	f2 46 0f 58 34 d8           	(arith) 	addsd	(%rax,%r11,8),%xmm14
  40651f:	f2 45 0f 59 f1              	(arith) 	mulsd	%xmm9,%xmm14
  406524:	f2 41 0f 58 f6              	(arith) 	addsd	%xmm14,%xmm6
  406529:	f2 0f 59 f5                 	(arith) 	mulsd	%xmm5,%xmm6
  40652d:	f2 0f 5c fe                 	(arith) 	subsd	%xmm6,%xmm7
  406531:	f2 42 0f 11 3c f8           	(move)  	movsd	%xmm7,(%rax,%r15,8)
/home/jgarcia/TFG/source_code/SP/rhs.f:204
  406537:	4c 03 44 24 08              	(arith) 	add	0x8(%rsp),%r8
  40653c:	48 03 6c 24 08              	(arith) 	add	0x8(%rsp),%rbp
  406541:	f2 0f 10 34 e8              	(move)  	movsd	(%rax,%rbp,8),%xmm6
  406546:	48 03 7c 24 08              	(arith) 	add	0x8(%rsp),%rdi
  40654b:	f2 0f 10 1c f8              	(move)  	movsd	(%rax,%rdi,8),%xmm3
  406550:	49 8d b8 20 11 d1 30        	(arith) 	lea	0x30d11120(%r8),%rdi
  406557:	66 44 0f 28 f0              	(move)  	movapd	%xmm0,%xmm14
  40655c:	f2 46 0f 59 34 c0           	(arith) 	mulsd	(%rax,%r8,8),%xmm14
  406562:	f2 44 0f 58 f6              	(arith) 	addsd	%xmm6,%xmm14
  406567:	f2 44 0f 58 f3              	(arith) 	addsd	%xmm3,%xmm14
  40656c:	f2 44 0f 59 b4 24 98 00 00 00	(arith) 	mulsd	0x98(%rsp),%xmm14
  406576:	f2 44 0f 58 34 f8           	(arith) 	addsd	(%rax,%rdi,8),%xmm14
  40657c:	48 8d ab a8 f4 79 1c        	(arith) 	lea	0x1c79f4a8(%rbx),%rbp
  406583:	4c 8d 86 a8 f4 79 1c        	(arith) 	lea	0x1c79f4a8(%rsi),%r8
  40658a:	66 0f 28 f8                 	(move)  	movapd	%xmm0,%xmm7
  40658e:	f2 42 0f 59 3c c0           	(arith) 	mulsd	(%rax,%r8,8),%xmm7
  406594:	f2 0f 58 3c e8              	(arith) 	addsd	(%rax,%rbp,8),%xmm7
  406599:	48 8d a9 a8 f4 79 1c        	(arith) 	lea	0x1c79f4a8(%rcx),%rbp
  4065a0:	f2 0f 58 3c e8              	(arith) 	addsd	(%rax,%rbp,8),%xmm7
  4065a5:	f2 41 0f 59 fd              	(arith) 	mulsd	%xmm13,%xmm7
  4065aa:	f2 41 0f 58 fe              	(arith) 	addsd	%xmm14,%xmm7
  4065af:	f2 0f 59 f2                 	(arith) 	mulsd	%xmm2,%xmm6
  4065b3:	f2 0f 59 d9                 	(arith) 	mulsd	%xmm1,%xmm3
  4065b7:	f2 0f 5c f3                 	(arith) 	subsd	%xmm3,%xmm6
  4065bb:	f2 0f 59 f5                 	(arith) 	mulsd	%xmm5,%xmm6
  4065bf:	f2 0f 5c fe                 	(arith) 	subsd	%xmm6,%xmm7
  4065c3:	f2 0f 11 3c f8              	(move)  	movsd	%xmm7,(%rax,%rdi,8)
/home/jgarcia/TFG/source_code/SP/rhs.f:218
  4065c8:	48 03 54 24 40              	(arith) 	add	0x40(%rsp),%rdx
  4065cd:	f2 42 0f 10 34 f0           	(move)  	movsd	(%rax,%r14,8),%xmm6
  4065d3:	66 0f 28 f8                 	(move)  	movapd	%xmm0,%xmm7
  4065d7:	f2 0f 59 3c d0              	(arith) 	mulsd	(%rax,%rdx,8),%xmm7
  4065dc:	f2 42 0f 10 1c e8           	(move)  	movsd	(%rax,%r13,8),%xmm3
  4065e2:	48 81 c2 20 11 d1 30        	(arith) 	add	$0x30d11120,%rdx
  4065e9:	66 44 0f 28 fe              	(move)  	movapd	%xmm6,%xmm15
  4065ee:	f2 44 0f 58 ff              	(arith) 	addsd	%xmm7,%xmm15
  4065f3:	f2 44 0f 58 fb              	(arith) 	addsd	%xmm3,%xmm15
  4065f8:	f2 44 0f 59 bc 24 90 00 00 00	(arith) 	mulsd	0x90(%rsp),%xmm15
  406602:	f2 44 0f 58 3c d0           	(arith) 	addsd	(%rax,%rdx,8),%xmm15
  406608:	48 8d bb c0 60 8b 20        	(arith) 	lea	0x208b60c0(%rbx),%rdi
  40660f:	48 8d ae c0 60 8b 20        	(arith) 	lea	0x208b60c0(%rsi),%rbp
  406616:	66 44 0f 28 f0              	(move)  	movapd	%xmm0,%xmm14
  40661b:	f2 44 0f 59 34 e8           	(arith) 	mulsd	(%rax,%rbp,8),%xmm14
  406621:	f2 44 0f 58 34 f8           	(arith) 	addsd	(%rax,%rdi,8),%xmm14
  406627:	48 8d b9 c0 60 8b 20        	(arith) 	lea	0x208b60c0(%rcx),%rdi
  40662e:	f2 44 0f 58 34 f8           	(arith) 	addsd	(%rax,%rdi,8),%xmm14
  406634:	f2 44 0f 59 b4 24 88 00 00 00	(arith) 	mulsd	0x88(%rsp),%xmm14
  40663e:	f2 45 0f 58 f7              	(arith) 	addsd	%xmm15,%xmm14
  406643:	66 44 0f 28 fa              	(move)  	movapd	%xmm2,%xmm15
  406648:	f2 44 0f 59 fa              	(arith) 	mulsd	%xmm2,%xmm15
  40664d:	f2 45 0f 59 d3              	(arith) 	mulsd	%xmm11,%xmm10
  406652:	f2 45 0f 58 fa              	(arith) 	addsd	%xmm10,%xmm15
  406657:	66 44 0f 28 d9              	(move)  	movapd	%xmm1,%xmm11
  40665c:	f2 44 0f 59 d9              	(arith) 	mulsd	%xmm1,%xmm11
  406661:	f2 45 0f 58 fb              	(arith) 	addsd	%xmm11,%xmm15
  406666:	f2 44 0f 59 bc 24 80 00 00 00	(arith) 	mulsd	0x80(%rsp),%xmm15
  406670:	f2 45 0f 58 f7              	(arith) 	addsd	%xmm15,%xmm14
  406675:	48 81 c3 d8 cc 9c 24        	(arith) 	add	$0x249cccd8,%rbx
  40667c:	66 44 0f 28 d6              	(move)  	movapd	%xmm6,%xmm10
  406681:	f2 44 0f 59 14 d8           	(arith) 	mulsd	(%rax,%rbx,8),%xmm10
  406687:	48 81 c6 d8 cc 9c 24        	(arith) 	add	$0x249cccd8,%rsi
  40668e:	f2 0f 59 3c f0              	(arith) 	mulsd	(%rax,%rsi,8),%xmm7
  406693:	f2 41 0f 58 fa              	(arith) 	addsd	%xmm10,%xmm7
  406698:	48 81 c1 d8 cc 9c 24        	(arith) 	add	$0x249cccd8,%rcx
  40669f:	66 44 0f 28 d3              	(move)  	movapd	%xmm3,%xmm10
  4066a4:	f2 44 0f 59 14 c8           	(arith) 	mulsd	(%rax,%rcx,8),%xmm10
  4066aa:	f2 41 0f 58 fa              	(arith) 	addsd	%xmm10,%xmm7
  4066af:	f2 0f 59 7c 24 78           	(arith) 	mulsd	0x78(%rsp),%xmm7
  4066b5:	f2 44 0f 58 f7              	(arith) 	addsd	%xmm7,%xmm14
  4066ba:	f2 41 0f 59 f4              	(arith) 	mulsd	%xmm12,%xmm6
  4066bf:	66 41 0f 28 f9              	(move)  	movapd	%xmm9,%xmm7
  4066c4:	f2 42 0f 59 3c e0           	(arith) 	mulsd	(%rax,%r12,8),%xmm7
  4066ca:	f2 0f 5c f7                 	(arith) 	subsd	%xmm7,%xmm6
  4066ce:	f2 0f 59 d6                 	(arith) 	mulsd	%xmm6,%xmm2
  4066d2:	f2 41 0f 59 dc              	(arith) 	mulsd	%xmm12,%xmm3
  4066d7:	66 41 0f 28 f1              	(move)  	movapd	%xmm9,%xmm6
  4066dc:	f2 42 0f 59 34 d8           	(arith) 	mulsd	(%rax,%r11,8),%xmm6
  4066e2:	f2 0f 5c de                 	(arith) 	subsd	%xmm6,%xmm3
  4066e6:	f2 0f 59 d9                 	(arith) 	mulsd	%xmm1,%xmm3
  4066ea:	f2 0f 5c d3                 	(arith) 	subsd	%xmm3,%xmm2
  4066ee:	f2 0f 59 d5                 	(arith) 	mulsd	%xmm5,%xmm2
  4066f2:	f2 44 0f 5c f2              	(arith) 	subsd	%xmm2,%xmm14
  4066f7:	f2 44 0f 11 34 d0           	(move)  	movsd	%xmm14,(%rax,%rdx,8)
/home/jgarcia/TFG/source_code/SP/rhs.f:174
  4066fd:	44 39 4c 24 20              	(arith) 	cmp	%r9d,0x20(%rsp)
  406702:	0f 85 00 fc ff ff           	(control)	jne	406308 <compute_rhs_+0x10e8>	; ↰ label 496 (loop 111)
; ------- Loop 111 exit
494:	
/home/jgarcia/TFG/source_code/SP/rhs.f:173
  406708:	44 8b a4 24 d4 00 00 00     	(move)  	mov	0xd4(%rsp),%r12d
  406710:	44 39 a4 24 b8 00 00 00     	(arith) 	cmp	%r12d,0xb8(%rsp)
  406718:	74 0d                       	(control)	je	406727 <compute_rhs_+0x1507>	; ↲ label 497
498:	
  40671a:	83 84 24 b8 00 00 00 01     	(arith) 	addl	$0x1,0xb8(%rsp)
  406722:	e9 0b fb ff ff              	(control)	jmp	406232 <compute_rhs_+0x1012>	; ↰ label 493 (loop 110)
; ------- Loop 110 exit
497:	
  406727:	f2 0f 10 9c 24 f0 00 00 00  	(move)  	movsd	0xf0(%rsp),%xmm3
491:	
/home/jgarcia/TFG/source_code/SP/rhs.f:227
  406730:	83 7c 24 20 00              	(arith) 	cmpl	$0,0x20(%rsp)
  406735:	0f 8e 9c 01 00 00           	(control)	jle	4068d7 <compute_rhs_+0x16b7>	; ↲ label 499
500:	
/home/jgarcia/TFG/source_code/SP/rhs.f:231
  40673b:	4c 63 bc 24 d8 00 00 00     	(move)  	movsxd	0xd8(%rsp),%r15
  406743:	4d 69 ff 35 c3 0c 00        	(arith) 	imul	$0xcc335,%r15,%r15
  40674a:	4d 8d a7 fc 07 00 00        	(arith) 	lea	0x7fc(%r15),%r12
  406751:	4d 8d af f9 0f 00 00        	(arith) 	lea	0xff9(%r15),%r13
  406758:	bf 01 00 00 00              	(move)  	mov	$0x1,%edi
  40675d:	48 bd 20 18 94 01 00 00 00 00	(move)  	mov	$0x1941820,%rbp
  406767:	4d 8d 75 01                 	(arith) 	lea	0x1(%r13),%r14
  40676b:	4d 8d 8f f7 17 00 00        	(arith) 	lea	0x17f7(%r15),%r9
/home/jgarcia/TFG/source_code/SP/rhs.f:4
  406772:	49 b8 50 a1 1c 88 01 00 00 00	(move)  	mov	$0x1881ca150,%r8
/home/jgarcia/TFG/source_code/SP/rhs.f:231
  40677c:	48 be 00 77 77 79 fe ff ff ff	(move)  	mov	$-0x186888900,%rsi
  406786:	f2 0f 10 3d 3a 7d 00 00     	(move)  	movsd	0x7d3a(%rip),%xmm7
  40678e:	f2 0f 10 35 3a 7d 00 00     	(move)  	movsd	0x7d3a(%rip),%xmm6
; ------- Loop 109 entry
501 (loop 109):	
  406796:	48 63 c7                    	(move)  	movsxd	%edi,%rax
  406799:	48 8d 14 80                 	(arith) 	lea	(%rax,%rax,4),%rdx
  40679d:	4a 8d 1c 22                 	(arith) 	lea	(%rdx,%r12,1),%rbx
  4067a1:	48 8d 83 21 11 d1 30        	(arith) 	lea	0x30d11121(%rbx),%rax
  4067a8:	48 8d 44 c5 00              	(arith) 	lea	(%rbp,%rax,8),%rax
  4067ad:	49 8d 0c 16                 	(arith) 	lea	(%r14,%rdx,1),%rcx
  4067b1:	48 8d 4c cd 00              	(arith) 	lea	(%rbp,%rcx,8),%rcx
  4067b6:	4d 89 cb                    	(move)  	mov	%r9,%r11
  4067b9:	49 8d 14 11                 	(arith) 	lea	(%r9,%rdx,1),%rdx
  4067bd:	48 8d 54 d5 00              	(arith) 	lea	(%rbp,%rdx,8),%rdx
/home/jgarcia/TFG/source_code/SP/rhs.f:4
  4067c2:	4d 89 c2                    	(move)  	mov	%r8,%r10
  4067c5:	49 8d 1c d8                 	(arith) 	lea	(%r8,%rbx,8),%rbx
; ------- Loop 106 entry
502 (loop 106):	
/home/jgarcia/TFG/source_code/SP/rhs.f:231
  4067c9:	66 0f 28 d7                 	(move)  	movapd	%xmm7,%xmm2
  4067cd:	f2 0f 59 14 30              	(arith) 	mulsd	(%rax,%rsi,1),%xmm2
  4067d2:	66 0f 28 ce                 	(move)  	movapd	%xmm6,%xmm1
  4067d6:	f2 0f 59 09                 	(arith) 	mulsd	(%rcx),%xmm1
  4067da:	f2 0f 58 ca                 	(arith) 	addsd	%xmm2,%xmm1
  4067de:	f2 0f 58 0a                 	(arith) 	addsd	(%rdx),%xmm1
  4067e2:	f2 0f 59 cb                 	(arith) 	mulsd	%xmm3,%xmm1
  4067e6:	f2 0f 10 10                 	(move)  	movsd	(%rax),%xmm2
  4067ea:	f2 0f 5c d1                 	(arith) 	subsd	%xmm1,%xmm2
  4067ee:	f2 0f 11 10                 	(move)  	movsd	%xmm2,(%rax)
  4067f2:	48 83 c0 08                 	(arith) 	add	$0x8,%rax
  4067f6:	48 83 c1 08                 	(arith) 	add	$0x8,%rcx
  4067fa:	48 83 c2 08                 	(arith) 	add	$0x8,%rdx
/home/jgarcia/TFG/source_code/SP/rhs.f:228
  4067fe:	48 39 d8                    	(arith) 	cmp	%rbx,%rax
  406801:	75 c6                       	(control)	jne	4067c9 <compute_rhs_+0x15a9>	; ↰ label 502 (loop 106)
; ------- Loop 106 exit
503:	
/home/jgarcia/TFG/source_code/SP/rhs.f:227
  406803:	3b 7c 24 20                 	(arith) 	cmp	0x20(%rsp),%edi
  406807:	74 05                       	(control)	je	40680e <compute_rhs_+0x15ee>	; ↲ label 504
505:	
  406809:	83 c7 01                    	(arith) 	add	$0x1,%edi
  40680c:	eb 88                       	(control)	jmp	406796 <compute_rhs_+0x1576>	; ↰ label 501 (loop 109)
; ------- Loop 109 exit
504:	
/home/jgarcia/TFG/source_code/SP/rhs.f:240
  40680e:	41 b8 01 00 00 00           	(move)  	mov	$0x1,%r8d
  406814:	48 bd 20 18 94 01 00 00 00 00	(move)  	mov	$0x1941820,%rbp
  40681e:	49 83 c4 01                 	(arith) 	add	$0x1,%r12
  406822:	49 81 c7 f4 1f 00 00        	(arith) 	add	$0x1ff4,%r15
  406829:	f2 0f 10 0d 9f 7c 00 00     	(move)  	movsd	0x7c9f(%rip),%xmm1
  406831:	48 bf 00 77 77 79 fe ff ff ff	(move)  	mov	$-0x186888900,%rdi
  40683b:	f2 0f 10 3d 95 7c 00 00     	(move)  	movsd	0x7c95(%rip),%xmm7
  406843:	44 8b 4c 24 20              	(move)  	mov	0x20(%rsp),%r9d
; ------- Loop 108 entry
506 (loop 108):	
  406848:	49 63 c0                    	(move)  	movsxd	%r8d,%rax
  40684b:	48 8d 14 80                 	(arith) 	lea	(%rax,%rax,4),%rdx
  40684f:	49 8d 74 15 00              	(arith) 	lea	(%r13,%rdx,1),%rsi
  406854:	48 8d 86 21 11 d1 30        	(arith) 	lea	0x30d11121(%rsi),%rax
  40685b:	48 8d 44 c5 00              	(arith) 	lea	(%rbp,%rax,8),%rax
  406860:	49 8d 0c 14                 	(arith) 	lea	(%r12,%rdx,1),%rcx
  406864:	48 8d 5c cd 00              	(arith) 	lea	(%rbp,%rcx,8),%rbx
  406869:	49 8d 0c 13                 	(arith) 	lea	(%r11,%rdx,1),%rcx
  40686d:	48 8d 4c cd 00              	(arith) 	lea	(%rbp,%rcx,8),%rcx
  406872:	49 8d 14 17                 	(arith) 	lea	(%r15,%rdx,1),%rdx
  406876:	48 8d 54 d5 00              	(arith) 	lea	(%rbp,%rdx,8),%rdx
/home/jgarcia/TFG/source_code/SP/rhs.f:4
  40687b:	49 8d 34 f2                 	(arith) 	lea	(%r10,%rsi,8),%rsi
; ------- Loop 107 entry
507 (loop 107):	
/home/jgarcia/TFG/source_code/SP/rhs.f:240
  40687f:	66 0f 28 f1                 	(move)  	movapd	%xmm1,%xmm6
  406883:	f2 0f 59 33                 	(arith) 	mulsd	(%rbx),%xmm6
  406887:	66 0f 28 d7                 	(move)  	movapd	%xmm7,%xmm2
  40688b:	f2 0f 59 14 38              	(arith) 	mulsd	(%rax,%rdi,1),%xmm2
  406890:	f2 0f 58 d6                 	(arith) 	addsd	%xmm6,%xmm2
  406894:	66 0f 28 f1                 	(move)  	movapd	%xmm1,%xmm6
  406898:	f2 0f 59 31                 	(arith) 	mulsd	(%rcx),%xmm6
  40689c:	f2 0f 58 d6                 	(arith) 	addsd	%xmm6,%xmm2
  4068a0:	f2 0f 58 12                 	(arith) 	addsd	(%rdx),%xmm2
  4068a4:	f2 0f 59 d3                 	(arith) 	mulsd	%xmm3,%xmm2
  4068a8:	f2 0f 10 30                 	(move)  	movsd	(%rax),%xmm6
  4068ac:	f2 0f 5c f2                 	(arith) 	subsd	%xmm2,%xmm6
  4068b0:	f2 0f 11 30                 	(move)  	movsd	%xmm6,(%rax)
  4068b4:	48 83 c0 08                 	(arith) 	add	$0x8,%rax
  4068b8:	48 83 c3 08                 	(arith) 	add	$0x8,%rbx
  4068bc:	48 83 c1 08                 	(arith) 	add	$0x8,%rcx
  4068c0:	48 83 c2 08                 	(arith) 	add	$0x8,%rdx
/home/jgarcia/TFG/source_code/SP/rhs.f:237
  4068c4:	48 39 f0                    	(arith) 	cmp	%rsi,%rax
  4068c7:	75 b6                       	(control)	jne	40687f <compute_rhs_+0x165f>	; ↰ label 507 (loop 107)
; ------- Loop 107 exit
508:	
/home/jgarcia/TFG/source_code/SP/rhs.f:236
  4068c9:	45 39 c8                    	(arith) 	cmp	%r9d,%r8d
  4068cc:	74 09                       	(control)	je	4068d7 <compute_rhs_+0x16b7>	; ↲ label 499
509:	
  4068ce:	41 83 c0 01                 	(arith) 	add	$0x1,%r8d
  4068d2:	e9 71 ff ff ff              	(control)	jmp	406848 <compute_rhs_+0x1628>	; ↰ label 506 (loop 108)
; ------- Loop 108 exit
499:	
/home/jgarcia/TFG/source_code/SP/rhs.f:244
  4068d7:	83 bc 24 e0 00 00 00 02     	(arith) 	cmpl	$0x2,0xe0(%rsp)
  4068df:	0f 8e 80 01 00 00           	(control)	jle	406a65 <compute_rhs_+0x1845>	; ↲ label 510
511:	
/home/jgarcia/TFG/source_code/SP/rhs.f:250
  4068e5:	48 63 84 24 d8 00 00 00     	(move)  	movsxd	0xd8(%rsp),%rax
  4068ed:	48 69 c0 35 c3 0c 00        	(arith) 	imul	$0xcc335,%rax,%rax
  4068f4:	4c 8d 78 ff                 	(arith) 	lea	-0x1(%rax),%r15
  4068f8:	4c 89 7c 24 10              	(move)  	mov	%r15,0x10(%rsp)
  4068fd:	48 8d 90 05 f0 ff ff        	(arith) 	lea	-0xffb(%rax),%rdx
  406904:	48 89 54 24 28              	(move)  	mov	%rdx,0x28(%rsp)
  406909:	48 05 f9 0f 00 00           	(arith) 	add	$0xff9,%rax
  40690f:	48 89 44 24 18              	(move)  	mov	%rax,0x18(%rsp)
  406914:	c7 44 24 08 03 00 00 00     	(move)  	movl	$0x3,0x8(%rsp)
  40691c:	48 bd 00 77 77 79 fe ff ff ff	(move)  	mov	$-0x186888900,%rbp
  406926:	48 bf 20 18 94 01 00 00 00 00	(move)  	mov	$0x1941820,%rdi
; ------- Loop 103 entry
512 (loop 103):	
/home/jgarcia/TFG/source_code/SP/rhs.f:245
  406930:	83 7c 24 20 00              	(arith) 	cmpl	$0,0x20(%rsp)
  406935:	0f 8e 11 01 00 00           	(control)	jle	406a4c <compute_rhs_+0x182c>	; ↲ label 513
514:	
/home/jgarcia/TFG/source_code/SP/rhs.f:250
  40693b:	48 63 54 24 08              	(move)  	movsxd	0x8(%rsp),%rdx
  406940:	48 89 d0                    	(move)  	mov	%rdx,%rax
  406943:	48 c1 e0 09                 	(logic) 	sal	$0x9,%rax
  406947:	48 29 d0                    	(arith) 	sub	%rdx,%rax
  40694a:	48 8d 04 82                 	(arith) 	lea	(%rdx,%rax,4),%rax
  40694e:	4c 8b 7c 24 10              	(move)  	mov	0x10(%rsp),%r15
  406953:	4e 8d 3c 38                 	(arith) 	lea	(%rax,%r15,1),%r15
  406957:	48 8d 4a ff                 	(arith) 	lea	-0x1(%rdx),%rcx
  40695b:	48 89 cb                    	(move)  	mov	%rcx,%rbx
  40695e:	48 c1 e3 09                 	(logic) 	sal	$0x9,%rbx
  406962:	48 29 cb                    	(arith) 	sub	%rcx,%rbx
  406965:	48 8d 0c 99                 	(arith) 	lea	(%rcx,%rbx,4),%rcx
  406969:	48 83 c2 01                 	(arith) 	add	$0x1,%rdx
  40696d:	48 89 d3                    	(move)  	mov	%rdx,%rbx
  406970:	48 c1 e3 09                 	(logic) 	sal	$0x9,%rbx
  406974:	48 29 d3                    	(arith) 	sub	%rdx,%rbx
  406977:	48 8d 14 9a                 	(arith) 	lea	(%rdx,%rbx,4),%rdx
  40697b:	41 b8 01 00 00 00           	(move)  	mov	$0x1,%r8d
  406981:	48 8b 5c 24 28              	(move)  	mov	0x28(%rsp),%rbx
  406986:	4c 8d 74 03 01              	(arith) 	lea	0x1(%rbx,%rax,1),%r14
  40698b:	48 8b 74 24 10              	(move)  	mov	0x10(%rsp),%rsi
  406990:	4c 8d 6c 0e 01              	(arith) 	lea	0x1(%rsi,%rcx,1),%r13
  406995:	4c 8d 64 16 01              	(arith) 	lea	0x1(%rsi,%rdx,1),%r12
  40699a:	4c 8b 4c 24 18              	(move)  	mov	0x18(%rsp),%r9
  40699f:	4d 8d 5c 01 01              	(arith) 	lea	0x1(%r9,%rax,1),%r11
; ------- Loop 105 entry
515 (loop 105):	
  4069a4:	49 63 c0                    	(move)  	movsxd	%r8d,%rax
  4069a7:	48 8d 14 80                 	(arith) 	lea	(%rax,%rax,4),%rdx
  4069ab:	4e 8d 0c 3a                 	(arith) 	lea	(%rdx,%r15,1),%r9
  4069af:	49 8d 81 21 11 d1 30        	(arith) 	lea	0x30d11121(%r9),%rax
  4069b6:	48 8d 04 c7                 	(arith) 	lea	(%rdi,%rax,8),%rax
  4069ba:	49 8d 0c 16                 	(arith) 	lea	(%r14,%rdx,1),%rcx
  4069be:	48 8d 34 cf                 	(arith) 	lea	(%rdi,%rcx,8),%rsi
  4069c2:	49 8d 4c 15 00              	(arith) 	lea	(%r13,%rdx,1),%rcx
  4069c7:	48 8d 1c cf                 	(arith) 	lea	(%rdi,%rcx,8),%rbx
  4069cb:	49 8d 0c 14                 	(arith) 	lea	(%r12,%rdx,1),%rcx
  4069cf:	48 8d 0c cf                 	(arith) 	lea	(%rdi,%rcx,8),%rcx
  4069d3:	49 8d 14 13                 	(arith) 	lea	(%r11,%rdx,1),%rdx
  4069d7:	48 8d 14 d7                 	(arith) 	lea	(%rdi,%rdx,8),%rdx
/home/jgarcia/TFG/source_code/SP/rhs.f:4
  4069db:	49 ba 50 a1 1c 88 01 00 00 00	(move)  	mov	$0x1881ca150,%r10
  4069e5:	4f 8d 0c ca                 	(arith) 	lea	(%r10,%r9,8),%r9
; ------- Loop 104 entry
516 (loop 104):	
/home/jgarcia/TFG/source_code/SP/rhs.f:250
  4069e9:	66 0f 28 cc                 	(move)  	movapd	%xmm4,%xmm1
  4069ed:	f2 0f 59 0b                 	(arith) 	mulsd	(%rbx),%xmm1
  4069f1:	f2 0f 58 0e                 	(arith) 	addsd	(%rsi),%xmm1
  4069f5:	66 41 0f 28 f0              	(move)  	movapd	%xmm8,%xmm6
  4069fa:	f2 0f 59 34 28              	(arith) 	mulsd	(%rax,%rbp,1),%xmm6
  4069ff:	f2 0f 58 ce                 	(arith) 	addsd	%xmm6,%xmm1
  406a03:	66 0f 28 d4                 	(move)  	movapd	%xmm4,%xmm2
  406a07:	f2 0f 59 11                 	(arith) 	mulsd	(%rcx),%xmm2
  406a0b:	f2 0f 58 ca                 	(arith) 	addsd	%xmm2,%xmm1
  406a0f:	f2 0f 58 0a                 	(arith) 	addsd	(%rdx),%xmm1
  406a13:	f2 0f 59 cb                 	(arith) 	mulsd	%xmm3,%xmm1
  406a17:	f2 0f 10 10                 	(move)  	movsd	(%rax),%xmm2
  406a1b:	f2 0f 5c d1                 	(arith) 	subsd	%xmm1,%xmm2
  406a1f:	f2 0f 11 10                 	(move)  	movsd	%xmm2,(%rax)
  406a23:	48 83 c0 08                 	(arith) 	add	$0x8,%rax
  406a27:	48 83 c6 08                 	(arith) 	add	$0x8,%rsi
  406a2b:	48 83 c3 08                 	(arith) 	add	$0x8,%rbx
  406a2f:	48 83 c1 08                 	(arith) 	add	$0x8,%rcx
  406a33:	48 83 c2 08                 	(arith) 	add	$0x8,%rdx
/home/jgarcia/TFG/source_code/SP/rhs.f:246
  406a37:	4c 39 c8                    	(arith) 	cmp	%r9,%rax
  406a3a:	75 ad                       	(control)	jne	4069e9 <compute_rhs_+0x17c9>	; ↰ label 516 (loop 104)
; ------- Loop 104 exit
517:	
/home/jgarcia/TFG/source_code/SP/rhs.f:245
  406a3c:	44 3b 44 24 20              	(arith) 	cmp	0x20(%rsp),%r8d
  406a41:	74 09                       	(control)	je	406a4c <compute_rhs_+0x182c>	; ↲ label 513
518:	
  406a43:	41 83 c0 01                 	(arith) 	add	$0x1,%r8d
  406a47:	e9 58 ff ff ff              	(control)	jmp	4069a4 <compute_rhs_+0x1784>	; ↰ label 515 (loop 105)
; ------- Loop 105 exit
513:	
/home/jgarcia/TFG/source_code/SP/rhs.f:244
  406a4c:	44 8b a4 24 e0 00 00 00     	(move)  	mov	0xe0(%rsp),%r12d
  406a54:	44 39 64 24 08              	(arith) 	cmp	%r12d,0x8(%rsp)
  406a59:	74 0a                       	(control)	je	406a65 <compute_rhs_+0x1845>	; ↲ label 510
519:	
  406a5b:	83 44 24 08 01              	(arith) 	addl	$0x1,0x8(%rsp)
  406a60:	e9 cb fe ff ff              	(control)	jmp	406930 <compute_rhs_+0x1710>	; ↰ label 512 (loop 103)
; ------- Loop 103 exit
510:	
/home/jgarcia/TFG/source_code/SP/rhs.f:256
  406a65:	83 7c 24 20 00              	(arith) 	cmpl	$0,0x20(%rsp)
  406a6a:	0f 8e d1 01 00 00           	(control)	jle	406c41 <compute_rhs_+0x1a21>	; ↲ label 520
521:	
/home/jgarcia/TFG/source_code/SP/rhs.f:260
  406a70:	4c 63 b4 24 d8 00 00 00     	(move)  	movsxd	0xd8(%rsp),%r14
  406a78:	4d 69 f6 35 c3 0c 00        	(arith) 	imul	$0xcc335,%r14,%r14
  406a7f:	4c 8b ac 24 28 01 00 00     	(move)  	mov	0x128(%rsp),%r13
  406a87:	4f 8d 2c 2e                 	(arith) 	lea	(%r14,%r13,1),%r13
  406a8b:	41 b8 01 00 00 00           	(move)  	mov	$0x1,%r8d
  406a91:	48 bd 20 18 94 01 00 00 00 00	(move)  	mov	$0x1941820,%rbp
  406a9b:	4c 8b bc 24 38 01 00 00     	(move)  	mov	0x138(%rsp),%r15
  406aa3:	4f 8d 64 3e 01              	(arith) 	lea	0x1(%r14,%r15,1),%r12
  406aa8:	48 8b 84 24 20 01 00 00     	(move)  	mov	0x120(%rsp),%rax
  406ab0:	4e 8d 5c 30 01              	(arith) 	lea	0x1(%rax,%r14,1),%r11
  406ab5:	48 8b 94 24 18 01 00 00     	(move)  	mov	0x118(%rsp),%rdx
  406abd:	4e 8d 54 32 01              	(arith) 	lea	0x1(%rdx,%r14,1),%r10
  406ac2:	f2 0f 10 0d 06 7a 00 00     	(move)  	movsd	0x7a06(%rip),%xmm1
  406aca:	48 bf 00 77 77 79 fe ff ff ff	(move)  	mov	$-0x186888900,%rdi
  406ad4:	f2 0f 10 3d fc 79 00 00     	(move)  	movsd	0x79fc(%rip),%xmm7
  406adc:	44 8b 7c 24 20              	(move)  	mov	0x20(%rsp),%r15d
; ------- Loop 102 entry
522 (loop 102):	
  406ae1:	49 63 c0                    	(move)  	movsxd	%r8d,%rax
  406ae4:	48 8d 14 80                 	(arith) 	lea	(%rax,%rax,4),%rdx
  406ae8:	4a 8d 34 2a                 	(arith) 	lea	(%rdx,%r13,1),%rsi
  406aec:	48 8d 86 21 11 d1 30        	(arith) 	lea	0x30d11121(%rsi),%rax
  406af3:	48 8d 44 c5 00              	(arith) 	lea	(%rbp,%rax,8),%rax
  406af8:	49 8d 0c 14                 	(arith) 	lea	(%r12,%rdx,1),%rcx
  406afc:	48 8d 5c cd 00              	(arith) 	lea	(%rbp,%rcx,8),%rbx
  406b01:	49 8d 0c 13                 	(arith) 	lea	(%r11,%rdx,1),%rcx
  406b05:	48 8d 4c cd 00              	(arith) 	lea	(%rbp,%rcx,8),%rcx
  406b0a:	49 8d 14 12                 	(arith) 	lea	(%r10,%rdx,1),%rdx
  406b0e:	48 8d 54 d5 00              	(arith) 	lea	(%rbp,%rdx,8),%rdx
/home/jgarcia/TFG/source_code/SP/rhs.f:4
  406b13:	49 b9 50 a1 1c 88 01 00 00 00	(move)  	mov	$0x1881ca150,%r9
  406b1d:	49 8d 34 f1                 	(arith) 	lea	(%r9,%rsi,8),%rsi
; ------- Loop 99 entry
523 (loop 99):	
/home/jgarcia/TFG/source_code/SP/rhs.f:260
  406b21:	66 0f 28 d1                 	(move)  	movapd	%xmm1,%xmm2
  406b25:	f2 0f 59 11                 	(arith) 	mulsd	(%rcx),%xmm2
  406b29:	f2 0f 58 13                 	(arith) 	addsd	(%rbx),%xmm2
  406b2d:	66 44 0f 28 d7              	(move)  	movapd	%xmm7,%xmm10
  406b32:	f2 44 0f 59 14 38           	(arith) 	mulsd	(%rax,%rdi,1),%xmm10
  406b38:	f2 41 0f 58 d2              	(arith) 	addsd	%xmm10,%xmm2
  406b3d:	66 0f 28 f1                 	(move)  	movapd	%xmm1,%xmm6
  406b41:	f2 0f 59 32                 	(arith) 	mulsd	(%rdx),%xmm6
  406b45:	f2 0f 58 d6                 	(arith) 	addsd	%xmm6,%xmm2
  406b49:	f2 0f 59 d3                 	(arith) 	mulsd	%xmm3,%xmm2
  406b4d:	f2 0f 10 30                 	(move)  	movsd	(%rax),%xmm6
  406b51:	f2 0f 5c f2                 	(arith) 	subsd	%xmm2,%xmm6
  406b55:	f2 0f 11 30                 	(move)  	movsd	%xmm6,(%rax)
  406b59:	48 83 c0 08                 	(arith) 	add	$0x8,%rax
  406b5d:	48 83 c3 08                 	(arith) 	add	$0x8,%rbx
  406b61:	48 83 c1 08                 	(arith) 	add	$0x8,%rcx
  406b65:	48 83 c2 08                 	(arith) 	add	$0x8,%rdx
/home/jgarcia/TFG/source_code/SP/rhs.f:257
  406b69:	48 39 f0                    	(arith) 	cmp	%rsi,%rax
  406b6c:	75 b3                       	(control)	jne	406b21 <compute_rhs_+0x1901>	; ↰ label 523 (loop 99)
; ------- Loop 99 exit
524:	
/home/jgarcia/TFG/source_code/SP/rhs.f:256
  406b6e:	45 39 f8                    	(arith) 	cmp	%r15d,%r8d
  406b71:	74 09                       	(control)	je	406b7c <compute_rhs_+0x195c>	; ↲ label 525
526:	
  406b73:	41 83 c0 01                 	(arith) 	add	$0x1,%r8d
  406b77:	e9 65 ff ff ff              	(control)	jmp	406ae1 <compute_rhs_+0x18c1>	; ↰ label 522 (loop 102)
; ------- Loop 102 exit
525:	
/home/jgarcia/TFG/source_code/SP/rhs.f:269
  406b7c:	4c 8b 94 24 10 01 00 00     	(move)  	mov	0x110(%rsp),%r10
  406b84:	4f 8d 14 16                 	(arith) 	lea	(%r14,%r10,1),%r10
  406b88:	bf 01 00 00 00              	(move)  	mov	$0x1,%edi
  406b8d:	48 bd 20 18 94 01 00 00 00 00	(move)  	mov	$0x1941820,%rbp
  406b97:	48 8b 8c 24 08 01 00 00     	(move)  	mov	0x108(%rsp),%rcx
  406b9f:	4e 8d 44 31 01              	(arith) 	lea	0x1(%rcx,%r14,1),%r8
  406ba4:	48 8b 9c 24 00 01 00 00     	(move)  	mov	0x100(%rsp),%rbx
  406bac:	4e 8d 5c 33 01              	(arith) 	lea	0x1(%rbx,%r14,1),%r11
  406bb1:	f2 0f 10 3d 17 79 00 00     	(move)  	movsd	0x7917(%rip),%xmm7
  406bb9:	48 be 00 77 77 79 fe ff ff ff	(move)  	mov	$-0x186888900,%rsi
  406bc3:	f2 0f 10 35 fd 78 00 00     	(move)  	movsd	0x78fd(%rip),%xmm6
  406bcb:	44 8b 64 24 20              	(move)  	mov	0x20(%rsp),%r12d
; ------- Loop 101 entry
527 (loop 101):	
  406bd0:	48 63 c7                    	(move)  	movsxd	%edi,%rax
  406bd3:	48 8d 14 80                 	(arith) 	lea	(%rax,%rax,4),%rdx
  406bd7:	4a 8d 1c 12                 	(arith) 	lea	(%rdx,%r10,1),%rbx
  406bdb:	48 8d 83 21 11 d1 30        	(arith) 	lea	0x30d11121(%rbx),%rax
  406be2:	48 8d 44 c5 00              	(arith) 	lea	(%rbp,%rax,8),%rax
  406be7:	49 8d 0c 10                 	(arith) 	lea	(%r8,%rdx,1),%rcx
  406beb:	48 8d 4c cd 00              	(arith) 	lea	(%rbp,%rcx,8),%rcx
  406bf0:	49 8d 14 13                 	(arith) 	lea	(%r11,%rdx,1),%rdx
  406bf4:	48 8d 54 d5 00              	(arith) 	lea	(%rbp,%rdx,8),%rdx
/home/jgarcia/TFG/source_code/SP/rhs.f:4
  406bf9:	49 8d 1c d9                 	(arith) 	lea	(%r9,%rbx,8),%rbx
; ------- Loop 100 entry
528 (loop 100):	
/home/jgarcia/TFG/source_code/SP/rhs.f:269
  406bfd:	66 0f 28 cf                 	(move)  	movapd	%xmm7,%xmm1
  406c01:	f2 0f 59 0a                 	(arith) 	mulsd	(%rdx),%xmm1
  406c05:	f2 0f 58 09                 	(arith) 	addsd	(%rcx),%xmm1
  406c09:	66 0f 28 d6                 	(move)  	movapd	%xmm6,%xmm2
  406c0d:	f2 0f 59 14 30              	(arith) 	mulsd	(%rax,%rsi,1),%xmm2
  406c12:	f2 0f 58 ca                 	(arith) 	addsd	%xmm2,%xmm1
  406c16:	f2 0f 59 cb                 	(arith) 	mulsd	%xmm3,%xmm1
  406c1a:	f2 0f 10 10                 	(move)  	movsd	(%rax),%xmm2
  406c1e:	f2 0f 5c d1                 	(arith) 	subsd	%xmm1,%xmm2
  406c22:	f2 0f 11 10                 	(move)  	movsd	%xmm2,(%rax)
  406c26:	48 83 c0 08                 	(arith) 	add	$0x8,%rax
  406c2a:	48 83 c1 08                 	(arith) 	add	$0x8,%rcx
  406c2e:	48 83 c2 08                 	(arith) 	add	$0x8,%rdx
/home/jgarcia/TFG/source_code/SP/rhs.f:266
  406c32:	48 39 d8                    	(arith) 	cmp	%rbx,%rax
  406c35:	75 c6                       	(control)	jne	406bfd <compute_rhs_+0x19dd>	; ↰ label 528 (loop 100)
; ------- Loop 100 exit
529:	
/home/jgarcia/TFG/source_code/SP/rhs.f:265
  406c37:	44 39 e7                    	(arith) 	cmp	%r12d,%edi
  406c3a:	74 05                       	(control)	je	406c41 <compute_rhs_+0x1a21>	; ↲ label 520
530:	
  406c3c:	83 c7 01                    	(arith) 	add	$0x1,%edi
  406c3f:	eb 8f                       	(control)	jmp	406bd0 <compute_rhs_+0x19b0>	; ↰ label 527 (loop 101)
; ------- Loop 101 exit
520:	
/home/jgarcia/TFG/source_code/SP/rhs.f:172
  406c41:	8b b4 24 f8 00 00 00        	(move)  	mov	0xf8(%rsp),%esi
  406c48:	39 b4 24 d8 00 00 00        	(arith) 	cmp	%esi,0xd8(%rsp)
  406c4f:	74 0d                       	(control)	je	406c5e <compute_rhs_+0x1a3e>	; ↲ label 488
531:	
  406c51:	83 84 24 d8 00 00 00 01     	(arith) 	addl	$0x1,0xd8(%rsp)
  406c59:	e9 59 f5 ff ff              	(control)	jmp	4061b7 <compute_rhs_+0xf97>	; ↰ label 490 (loop 98)
; ------- Loop 98 exit
488:	
/home/jgarcia/TFG/source_code/SP/rhs.f:273
  406c5e:	83 3d b3 8e 20 00 00        	(arith) 	cmpl	$0,0x208eb3(%rip)
  406c65:	74 27                       	(control)	je	406c8e <compute_rhs_+0x1a6e>	; ↲ label 532
533:	
  406c67:	bf 38 e5 40 00              	(move)  	mov	$0x40e538,%edi
  406c6c:	b8 00 00 00 00              	(move)  	mov	$0,%eax
  406c71:	e8 95 73 00 00              	(control)	call	40e00b <timer_stop_>	; ⇄ timer_stop
534:	
/home/jgarcia/TFG/source_code/SP/rhs.f:278
  406c76:	83 3d 9b 8e 20 00 00        	(arith) 	cmpl	$0,0x208e9b(%rip)
  406c7d:	74 0f                       	(control)	je	406c8e <compute_rhs_+0x1a6e>	; ↲ label 532
535:	
  406c7f:	bf 3c e5 40 00              	(move)  	mov	$0x40e53c,%edi
  406c84:	b8 00 00 00 00              	(move)  	mov	$0,%eax
  406c89:	e8 a9 73 00 00              	(control)	call	40e037 <timer_start_>	; ⇄ timer_start
532:	
/home/jgarcia/TFG/source_code/SP/rhs.f:279
  406c8e:	44 8b 0d 7f 8e 20 00        	(move)  	mov	0x208e7f(%rip),%r9d
  406c95:	44 89 8c 24 b0 00 00 00     	(move)  	mov	%r9d,0xb0(%rsp)
  406c9d:	45 85 c9                    	(arith) 	test	%r9d,%r9d
  406ca0:	0f 8e cc 05 00 00           	(control)	jle	407272 <compute_rhs_+0x2052>	; ↲ label 536
537:	
/home/jgarcia/TFG/source_code/SP/rhs.f:280
  406ca6:	44 8b 25 63 8e 20 00        	(move)  	mov	0x208e63(%rip),%r12d
  406cad:	44 89 a4 24 80 00 00 00     	(move)  	mov	%r12d,0x80(%rsp)
/home/jgarcia/TFG/source_code/SP/rhs.f:281
  406cb5:	44 8b 3d 50 8e 20 00        	(move)  	mov	0x208e50(%rip),%r15d
  406cbc:	44 89 7c 24 20              	(move)  	mov	%r15d,0x20(%rsp)
/home/jgarcia/TFG/source_code/SP/rhs.f:289
  406cc1:	f2 44 0f 10 3d ee 8c 20 00  	(move)  	movsd	0x208cee(%rip),%xmm15
  406cca:	f2 0f 10 1d 66 89 20 00     	(move)  	movsd	0x208966(%rip),%xmm3
/home/jgarcia/TFG/source_code/SP/rhs.f:296
  406cd2:	f2 0f 10 05 e6 8c 20 00     	(move)  	movsd	0x208ce6(%rip),%xmm0
  406cda:	f2 0f 11 44 24 70           	(move)  	movsd	%xmm0,0x70(%rsp)
  406ce0:	f2 44 0f 10 15 af 8c 20 00  	(move)  	movsd	0x208caf(%rip),%xmm10
/home/jgarcia/TFG/source_code/SP/rhs.f:303
  406ce9:	f2 0f 10 0d d7 8c 20 00     	(move)  	movsd	0x208cd7(%rip),%xmm1
  406cf1:	f2 0f 11 4c 24 68           	(move)  	movsd	%xmm1,0x68(%rsp)
/home/jgarcia/TFG/source_code/SP/rhs.f:312
  406cf7:	f2 0f 10 05 d1 8c 20 00     	(move)  	movsd	0x208cd1(%rip),%xmm0
  406cff:	f2 0f 11 44 24 60           	(move)  	movsd	%xmm0,0x60(%rsp)
  406d05:	f2 0f 10 0d e3 8d 20 00     	(move)  	movsd	0x208de3(%rip),%xmm1
  406d0d:	f2 0f 11 8c 24 a0 00 00 00  	(move)  	movsd	%xmm1,0xa0(%rsp)
  406d16:	f2 0f 10 35 0a 8d 20 00     	(move)  	movsd	0x208d0a(%rip),%xmm6
/home/jgarcia/TFG/source_code/SP/rhs.f:326
  406d1e:	f2 0f 10 05 b2 8c 20 00     	(move)  	movsd	0x208cb2(%rip),%xmm0
  406d26:	f2 0f 11 44 24 58           	(move)  	movsd	%xmm0,0x58(%rsp)
  406d2c:	f2 0f 10 0d 6c 8c 20 00     	(move)  	movsd	0x208c6c(%rip),%xmm1
  406d34:	f2 0f 11 4c 24 50           	(move)  	movsd	%xmm1,0x50(%rsp)
  406d3a:	f2 0f 10 05 66 8c 20 00     	(move)  	movsd	0x208c66(%rip),%xmm0
  406d42:	f2 0f 11 44 24 48           	(move)  	movsd	%xmm0,0x48(%rsp)
  406d48:	f2 0f 10 0d 60 8c 20 00     	(move)  	movsd	0x208c60(%rip),%xmm1
  406d50:	f2 0f 11 4c 24 40           	(move)  	movsd	%xmm1,0x40(%rsp)
  406d56:	f2 44 0f 10 1d c1 8c 20 00  	(move)  	movsd	0x208cc1(%rip),%xmm11
  406d5f:	c7 84 24 a8 00 00 00 01 00 00 00	(move)  	movl	$0x1,0xa8(%rsp)
/home/jgarcia/TFG/source_code/SP/rhs.f:282
  406d6a:	48 b8 20 18 94 01 00 00 00 00	(move)  	mov	$0x1941820,%rax
/home/jgarcia/TFG/source_code/SP/rhs.f:289
  406d74:	f2 0f 10 05 44 77 00 00     	(move)  	movsd	0x7744(%rip),%xmm0
; ------- Loop 95 entry
538 (loop 95):	
/home/jgarcia/TFG/source_code/SP/rhs.f:280
  406d7c:	83 bc 24 80 00 00 00 00     	(arith) 	cmpl	$0,0x80(%rsp)
  406d84:	0f 8e c9 04 00 00           	(control)	jle	407253 <compute_rhs_+0x2033>	; ↲ label 539
540:	
/home/jgarcia/TFG/source_code/SP/rhs.f:282
  406d8a:	48 63 94 24 a8 00 00 00     	(move)  	movsxd	0xa8(%rsp),%rdx
  406d92:	4c 69 ca 71 8d 02 00        	(arith) 	imul	$0x28d71,%rdx,%r9
  406d99:	4c 89 8c 24 88 00 00 00     	(move)  	mov	%r9,0x88(%rsp)
/home/jgarcia/TFG/source_code/SP/rhs.f:283
  406da1:	48 8d 5a 01                 	(arith) 	lea	0x1(%rdx),%rbx
  406da5:	4c 69 e3 71 8d 02 00        	(arith) 	imul	$0x28d71,%rbx,%r12
  406dac:	4c 89 a4 24 98 00 00 00     	(move)  	mov	%r12,0x98(%rsp)
/home/jgarcia/TFG/source_code/SP/rhs.f:284
  406db4:	48 8d 4a ff                 	(arith) 	lea	-0x1(%rdx),%rcx
  406db8:	4c 69 f9 71 8d 02 00        	(arith) 	imul	$0x28d71,%rcx,%r15
  406dbf:	4c 89 bc 24 90 00 00 00     	(move)  	mov	%r15,0x90(%rsp)
/home/jgarcia/TFG/source_code/SP/rhs.f:289
  406dc7:	48 69 d2 35 c3 0c 00        	(arith) 	imul	$0xcc335,%rdx,%rdx
  406dce:	4c 8d 42 ff                 	(arith) 	lea	-0x1(%rdx),%r8
  406dd2:	48 69 db 35 c3 0c 00        	(arith) 	imul	$0xcc335,%rbx,%rbx
  406dd9:	48 8d 6b ff                 	(arith) 	lea	-0x1(%rbx),%rbp
  406ddd:	48 69 c9 35 c3 0c 00        	(arith) 	imul	$0xcc335,%rcx,%rcx
  406de4:	48 8d 79 ff                 	(arith) 	lea	-0x1(%rcx),%rdi
  406de8:	c7 44 24 78 01 00 00 00     	(move)  	movl	$0x1,0x78(%rsp)
; ------- Loop 96 entry
541 (loop 96):	
/home/jgarcia/TFG/source_code/SP/rhs.f:281
  406df0:	83 7c 24 20 00              	(arith) 	cmpl	$0,0x20(%rsp)
  406df5:	0f 8e 3f 04 00 00           	(control)	jle	40723a <compute_rhs_+0x201a>	; ↲ label 542
543:	
/home/jgarcia/TFG/source_code/SP/rhs.f:282
  406dfb:	48 63 54 24 78              	(move)  	movsxd	0x78(%rsp),%rdx
  406e00:	48 69 ca 99 01 00 00        	(arith) 	imul	$0x199,%rdx,%rcx
  406e07:	48 8b 9c 24 88 00 00 00     	(move)  	mov	0x88(%rsp),%rbx
  406e0f:	48 01 cb                    	(arith) 	add	%rcx,%rbx
  406e12:	48 89 5c 24 28              	(move)  	mov	%rbx,0x28(%rsp)
/home/jgarcia/TFG/source_code/SP/rhs.f:283
  406e17:	48 8b b4 24 98 00 00 00     	(move)  	mov	0x98(%rsp),%rsi
  406e1f:	48 01 ce                    	(arith) 	add	%rcx,%rsi
  406e22:	48 89 74 24 38              	(move)  	mov	%rsi,0x38(%rsp)
/home/jgarcia/TFG/source_code/SP/rhs.f:284
  406e27:	48 03 8c 24 90 00 00 00     	(arith) 	add	0x90(%rsp),%rcx
  406e2f:	48 89 4c 24 30              	(move)  	mov	%rcx,0x30(%rsp)
/home/jgarcia/TFG/source_code/SP/rhs.f:289
  406e34:	48 89 d1                    	(move)  	mov	%rdx,%rcx
  406e37:	48 c1 e1 09                 	(logic) 	sal	$0x9,%rcx
  406e3b:	48 29 d1                    	(arith) 	sub	%rdx,%rcx
  406e3e:	48 8d 0c 8a                 	(arith) 	lea	(%rdx,%rcx,4),%rcx
  406e42:	48 89 4c 24 18              	(move)  	mov	%rcx,0x18(%rsp)
/home/jgarcia/TFG/source_code/SP/rhs.f:312
  406e47:	f2 44 0f 10 b4 24 a0 00 00 00	(move)  	movsd	0xa0(%rsp),%xmm14
  406e51:	f2 45 0f 59 f2              	(arith) 	mulsd	%xmm10,%xmm14
  406e56:	41 ba 00 00 00 00           	(move)  	mov	$0,%r10d
; ------- Loop 97 entry
544 (loop 97):	
/home/jgarcia/TFG/source_code/SP/rhs.f:4
  406e5c:	41 83 c2 01                 	(arith) 	add	$0x1,%r10d
/home/jgarcia/TFG/source_code/SP/rhs.f:282
  406e60:	49 63 d2                    	(move)  	movsxd	%r10d,%rdx
  406e63:	48 8b 74 24 28              	(move)  	mov	0x28(%rsp),%rsi
  406e68:	48 8d 34 32                 	(arith) 	lea	(%rdx,%rsi,1),%rsi
  406e6c:	48 8d 8e a8 f4 79 1c        	(arith) 	lea	0x1c79f4a8(%rsi),%rcx
  406e73:	f2 44 0f 10 0c c8           	(move)  	movsd	(%rax,%rcx,8),%xmm9
/home/jgarcia/TFG/source_code/SP/rhs.f:283
  406e79:	48 8b 5c 24 38              	(move)  	mov	0x38(%rsp),%rbx
  406e7e:	48 8d 1c 1a                 	(arith) 	lea	(%rdx,%rbx,1),%rbx
  406e82:	48 8d 8b a8 f4 79 1c        	(arith) 	lea	0x1c79f4a8(%rbx),%rcx
  406e89:	f2 0f 10 14 c8              	(move)  	movsd	(%rax,%rcx,8),%xmm2
/home/jgarcia/TFG/source_code/SP/rhs.f:284
  406e8e:	48 8b 4c 24 30              	(move)  	mov	0x30(%rsp),%rcx
  406e93:	48 8d 0c 0a                 	(arith) 	lea	(%rdx,%rcx,1),%rcx
  406e97:	4c 8d 89 a8 f4 79 1c        	(arith) 	lea	0x1c79f4a8(%rcx),%r9
  406e9e:	f2 42 0f 10 0c c8           	(move)  	movsd	(%rax,%r9,8),%xmm1
/home/jgarcia/TFG/source_code/SP/rhs.f:289
  406ea4:	4c 8d 0c 92                 	(arith) 	lea	(%rdx,%rdx,4),%r9
  406ea8:	4c 03 4c 24 18              	(arith) 	add	0x18(%rsp),%r9
  406ead:	4d 8d 61 01                 	(arith) 	lea	0x1(%r9),%r12
  406eb1:	4f 8d 34 04                 	(arith) 	lea	(%r12,%r8,1),%r14
  406eb5:	4d 8d 59 04                 	(arith) 	lea	0x4(%r9),%r11
  406eb9:	4e 8d 6c 1d 00              	(arith) 	lea	(%rbp,%r11,1),%r13
  406ebe:	4e 8d 3c 1f                 	(arith) 	lea	(%rdi,%r11,1),%r15
  406ec2:	4c 89 7c 24 08              	(move)  	mov	%r15,0x8(%rsp)
  406ec7:	4d 8d be 20 11 d1 30        	(arith) 	lea	0x30d11120(%r14),%r15
  406ece:	4c 89 7c 24 10              	(move)  	mov	%r15,0x10(%rsp)
  406ed3:	4d 8d 3c 2c                 	(arith) 	lea	(%r12,%rbp,1),%r15
  406ed7:	66 0f 28 e8                 	(move)  	movapd	%xmm0,%xmm5
  406edb:	f2 42 0f 59 2c f0           	(arith) 	mulsd	(%rax,%r14,8),%xmm5
  406ee1:	f2 42 0f 58 2c f8           	(arith) 	addsd	(%rax,%r15,8),%xmm5
  406ee7:	49 01 fc                    	(arith) 	add	%rdi,%r12
  406eea:	f2 42 0f 58 2c e0           	(arith) 	addsd	(%rax,%r12,8),%xmm5
  406ef0:	f2 41 0f 59 ef              	(arith) 	mulsd	%xmm15,%xmm5
  406ef5:	4c 8b 64 24 10              	(move)  	mov	0x10(%rsp),%r12
  406efa:	f2 42 0f 58 2c e0           	(arith) 	addsd	(%rax,%r12,8),%xmm5
  406f00:	f2 42 0f 10 24 e8           	(move)  	movsd	(%rax,%r13,8),%xmm4
  406f06:	4c 8b 7c 24 08              	(move)  	mov	0x8(%rsp),%r15
  406f0b:	f2 42 0f 5c 24 f8           	(arith) 	subsd	(%rax,%r15,8),%xmm4
  406f11:	f2 0f 59 e3                 	(arith) 	mulsd	%xmm3,%xmm4
  406f15:	f2 0f 5c ec                 	(arith) 	subsd	%xmm4,%xmm5
  406f19:	f2 42 0f 11 2c e0           	(move)  	movsd	%xmm5,(%rax,%r12,8)
/home/jgarcia/TFG/source_code/SP/rhs.f:296
  406f1f:	4d 8d 61 02                 	(arith) 	lea	0x2(%r9),%r12
  406f23:	4f 8d 34 20                 	(arith) 	lea	(%r8,%r12,1),%r14
  406f27:	4e 8d 7c 25 00              	(arith) 	lea	(%rbp,%r12,1),%r15
  406f2c:	f2 42 0f 10 2c f8           	(move)  	movsd	(%rax,%r15,8),%xmm5
  406f32:	4e 8d 24 27                 	(arith) 	lea	(%rdi,%r12,1),%r12
  406f36:	f2 42 0f 10 24 e0           	(move)  	movsd	(%rax,%r12,8),%xmm4
  406f3c:	4d 8d a6 20 11 d1 30        	(arith) 	lea	0x30d11120(%r14),%r12
  406f43:	66 44 0f 28 c0              	(move)  	movapd	%xmm0,%xmm8
  406f48:	f2 46 0f 59 04 f0           	(arith) 	mulsd	(%rax,%r14,8),%xmm8
  406f4e:	f2 44 0f 58 c5              	(arith) 	addsd	%xmm5,%xmm8
  406f53:	f2 44 0f 58 c4              	(arith) 	addsd	%xmm4,%xmm8
  406f58:	f2 44 0f 59 44 24 70        	(arith) 	mulsd	0x70(%rsp),%xmm8
  406f5f:	f2 46 0f 58 04 e0           	(arith) 	addsd	(%rax,%r12,8),%xmm8
  406f65:	4c 8d bb 78 1c 57 14        	(arith) 	lea	0x14571c78(%rbx),%r15
  406f6c:	4c 8d b6 78 1c 57 14        	(arith) 	lea	0x14571c78(%rsi),%r14
  406f73:	66 0f 28 f8                 	(move)  	movapd	%xmm0,%xmm7
  406f77:	f2 42 0f 59 3c f0           	(arith) 	mulsd	(%rax,%r14,8),%xmm7
  406f7d:	f2 42 0f 58 3c f8           	(arith) 	addsd	(%rax,%r15,8),%xmm7
  406f83:	4c 8d b1 78 1c 57 14        	(arith) 	lea	0x14571c78(%rcx),%r14
  406f8a:	f2 42 0f 58 3c f0           	(arith) 	addsd	(%rax,%r14,8),%xmm7
  406f90:	f2 41 0f 59 fa              	(arith) 	mulsd	%xmm10,%xmm7
  406f95:	f2 41 0f 58 f8              	(arith) 	addsd	%xmm8,%xmm7
  406f9a:	f2 0f 59 ea                 	(arith) 	mulsd	%xmm2,%xmm5
  406f9e:	f2 0f 59 e1                 	(arith) 	mulsd	%xmm1,%xmm4
  406fa2:	f2 0f 5c ec                 	(arith) 	subsd	%xmm4,%xmm5
  406fa6:	f2 0f 59 eb                 	(arith) 	mulsd	%xmm3,%xmm5
  406faa:	f2 0f 5c fd                 	(arith) 	subsd	%xmm5,%xmm7
  406fae:	f2 42 0f 11 3c e0           	(move)  	movsd	%xmm7,(%rax,%r12,8)
/home/jgarcia/TFG/source_code/SP/rhs.f:303
  406fb4:	49 83 c1 03                 	(arith) 	add	$0x3,%r9
  406fb8:	4f 8d 24 08                 	(arith) 	lea	(%r8,%r9,1),%r12
  406fbc:	4e 8d 74 0d 00              	(arith) 	lea	(%rbp,%r9,1),%r14
  406fc1:	f2 42 0f 10 2c f0           	(move)  	movsd	(%rax,%r14,8),%xmm5
  406fc7:	4e 8d 0c 0f                 	(arith) 	lea	(%rdi,%r9,1),%r9
  406fcb:	f2 42 0f 10 24 c8           	(move)  	movsd	(%rax,%r9,8),%xmm4
  406fd1:	4d 8d 8c 24 20 11 d1 30     	(arith) 	lea	0x30d11120(%r12),%r9
  406fd9:	66 44 0f 28 c0              	(move)  	movapd	%xmm0,%xmm8
  406fde:	f2 46 0f 59 04 e0           	(arith) 	mulsd	(%rax,%r12,8),%xmm8
  406fe4:	f2 44 0f 58 c5              	(arith) 	addsd	%xmm5,%xmm8
  406fe9:	f2 44 0f 58 c4              	(arith) 	addsd	%xmm4,%xmm8
  406fee:	f2 44 0f 59 44 24 68        	(arith) 	mulsd	0x68(%rsp),%xmm8
  406ff5:	f2 46 0f 58 04 c8           	(arith) 	addsd	(%rax,%r9,8),%xmm8
  406ffb:	4c 8d a3 90 88 68 18        	(arith) 	lea	0x18688890(%rbx),%r12
  407002:	4c 8d b6 90 88 68 18        	(arith) 	lea	0x18688890(%rsi),%r14
  407009:	66 0f 28 f8                 	(move)  	movapd	%xmm0,%xmm7
  40700d:	f2 42 0f 59 3c f0           	(arith) 	mulsd	(%rax,%r14,8),%xmm7
  407013:	f2 42 0f 58 3c e0           	(arith) 	addsd	(%rax,%r12,8),%xmm7
  407019:	4c 8d a1 90 88 68 18        	(arith) 	lea	0x18688890(%rcx),%r12
  407020:	f2 42 0f 58 3c e0           	(arith) 	addsd	(%rax,%r12,8),%xmm7
  407026:	f2 41 0f 59 fa              	(arith) 	mulsd	%xmm10,%xmm7
  40702b:	f2 41 0f 58 f8              	(arith) 	addsd	%xmm8,%xmm7
  407030:	f2 0f 59 ea                 	(arith) 	mulsd	%xmm2,%xmm5
  407034:	f2 0f 59 e1                 	(arith) 	mulsd	%xmm1,%xmm4
  407038:	f2 0f 5c ec                 	(arith) 	subsd	%xmm4,%xmm5
  40703c:	f2 0f 59 eb                 	(arith) 	mulsd	%xmm3,%xmm5
  407040:	f2 0f 5c fd                 	(arith) 	subsd	%xmm5,%xmm7
  407044:	f2 42 0f 11 3c c8           	(move)  	movsd	%xmm7,(%rax,%r9,8)
/home/jgarcia/TFG/source_code/SP/rhs.f:312
  40704a:	4f 8d 1c 18                 	(arith) 	lea	(%r8,%r11,1),%r11
  40704e:	f2 42 0f 10 2c e8           	(move)  	movsd	(%rax,%r13,8),%xmm5
  407054:	4c 8b 4c 24 08              	(move)  	mov	0x8(%rsp),%r9
  407059:	f2 42 0f 10 24 c8           	(move)  	movsd	(%rax,%r9,8),%xmm4
  40705f:	66 45 0f 28 c1              	(move)  	movapd	%xmm9,%xmm8
  407064:	f2 44 0f 59 c0              	(arith) 	mulsd	%xmm0,%xmm8
  407069:	48 8d 54 92 05              	(arith) 	lea	0x5(%rdx,%rdx,4),%rdx
  40706e:	48 03 54 24 18              	(arith) 	add	0x18(%rsp),%rdx
  407073:	4c 8d 6c 15 00              	(arith) 	lea	(%rbp,%rdx,1),%r13
  407078:	4c 8d 24 17                 	(arith) 	lea	(%rdi,%rdx,1),%r12
  40707c:	4d 8d b3 20 11 d1 30        	(arith) 	lea	0x30d11120(%r11),%r14
  407083:	66 44 0f 28 e0              	(move)  	movapd	%xmm0,%xmm12
  407088:	f2 46 0f 59 24 d8           	(arith) 	mulsd	(%rax,%r11,8),%xmm12
  40708e:	f2 44 0f 58 e5              	(arith) 	addsd	%xmm5,%xmm12
  407093:	f2 44 0f 58 e4              	(arith) 	addsd	%xmm4,%xmm12
  407098:	f2 44 0f 59 64 24 60        	(arith) 	mulsd	0x60(%rsp),%xmm12
  40709f:	f2 46 0f 58 24 f0           	(arith) 	addsd	(%rax,%r14,8),%xmm12
  4070a5:	66 41 0f 28 f8              	(move)  	movapd	%xmm8,%xmm7
  4070aa:	f2 0f 58 fa                 	(arith) 	addsd	%xmm2,%xmm7
  4070ae:	f2 0f 58 f9                 	(arith) 	addsd	%xmm1,%xmm7
  4070b2:	f2 41 0f 59 fe              	(arith) 	mulsd	%xmm14,%xmm7
  4070b7:	f2 41 0f 58 fc              	(arith) 	addsd	%xmm12,%xmm7
  4070bc:	f2 0f 59 ea                 	(arith) 	mulsd	%xmm2,%xmm5
  4070c0:	f2 0f 59 e1                 	(arith) 	mulsd	%xmm1,%xmm4
  4070c4:	f2 0f 5c ec                 	(arith) 	subsd	%xmm4,%xmm5
  4070c8:	4c 8d 9b 08 a5 bf 2c        	(arith) 	lea	0x2cbfa508(%rbx),%r11
  4070cf:	f2 46 0f 10 24 e8           	(move)  	movsd	(%rax,%r13,8),%xmm12
  4070d5:	f2 46 0f 5c 24 d8           	(arith) 	subsd	(%rax,%r11,8),%xmm12
  4070db:	f2 46 0f 5c 24 e0           	(arith) 	subsd	(%rax,%r12,8),%xmm12
  4070e1:	4c 8d 89 08 a5 bf 2c        	(arith) 	lea	0x2cbfa508(%rcx),%r9
  4070e8:	f2 46 0f 58 24 c8           	(arith) 	addsd	(%rax,%r9,8),%xmm12
  4070ee:	f2 44 0f 59 e6              	(arith) 	mulsd	%xmm6,%xmm12
  4070f3:	f2 41 0f 58 ec              	(arith) 	addsd	%xmm12,%xmm5
  4070f8:	f2 0f 59 eb                 	(arith) 	mulsd	%xmm3,%xmm5
  4070fc:	f2 0f 5c fd                 	(arith) 	subsd	%xmm5,%xmm7
  407100:	f2 42 0f 11 3c f0           	(move)  	movsd	%xmm7,(%rax,%r14,8)
/home/jgarcia/TFG/source_code/SP/rhs.f:326
  407106:	49 8d 14 10                 	(arith) 	lea	(%r8,%rdx,1),%rdx
  40710a:	f2 42 0f 10 2c e8           	(move)  	movsd	(%rax,%r13,8),%xmm5
  407110:	66 0f 28 f8                 	(move)  	movapd	%xmm0,%xmm7
  407114:	f2 0f 59 3c d0              	(arith) 	mulsd	(%rax,%rdx,8),%xmm7
  407119:	f2 42 0f 10 24 e0           	(move)  	movsd	(%rax,%r12,8),%xmm4
  40711f:	48 81 c2 20 11 d1 30        	(arith) 	add	$0x30d11120,%rdx
  407126:	66 44 0f 28 ed              	(move)  	movapd	%xmm5,%xmm13
  40712b:	f2 44 0f 58 ef              	(arith) 	addsd	%xmm7,%xmm13
  407130:	f2 44 0f 58 ec              	(arith) 	addsd	%xmm4,%xmm13
  407135:	f2 44 0f 59 6c 24 58        	(arith) 	mulsd	0x58(%rsp),%xmm13
  40713c:	f2 44 0f 58 2c d0           	(arith) 	addsd	(%rax,%rdx,8),%xmm13
  407142:	4c 8d a3 c0 60 8b 20        	(arith) 	lea	0x208b60c0(%rbx),%r12
  407149:	4c 8d ae c0 60 8b 20        	(arith) 	lea	0x208b60c0(%rsi),%r13
  407150:	66 44 0f 28 e0              	(move)  	movapd	%xmm0,%xmm12
  407155:	f2 46 0f 59 24 e8           	(arith) 	mulsd	(%rax,%r13,8),%xmm12
  40715b:	f2 46 0f 58 24 e0           	(arith) 	addsd	(%rax,%r12,8),%xmm12
  407161:	4c 8d a1 c0 60 8b 20        	(arith) 	lea	0x208b60c0(%rcx),%r12
  407168:	f2 46 0f 58 24 e0           	(arith) 	addsd	(%rax,%r12,8),%xmm12
  40716e:	f2 44 0f 59 64 24 50        	(arith) 	mulsd	0x50(%rsp),%xmm12
  407175:	f2 45 0f 58 e5              	(arith) 	addsd	%xmm13,%xmm12
  40717a:	66 44 0f 28 ea              	(move)  	movapd	%xmm2,%xmm13
  40717f:	f2 44 0f 59 ea              	(arith) 	mulsd	%xmm2,%xmm13
  407184:	f2 45 0f 59 c1              	(arith) 	mulsd	%xmm9,%xmm8
  407189:	f2 45 0f 58 e8              	(arith) 	addsd	%xmm8,%xmm13
  40718e:	66 44 0f 28 c9              	(move)  	movapd	%xmm1,%xmm9
  407193:	f2 44 0f 59 c9              	(arith) 	mulsd	%xmm1,%xmm9
  407198:	f2 45 0f 58 e9              	(arith) 	addsd	%xmm9,%xmm13
  40719d:	f2 44 0f 59 6c 24 48        	(arith) 	mulsd	0x48(%rsp),%xmm13
  4071a4:	f2 45 0f 58 e5              	(arith) 	addsd	%xmm13,%xmm12
  4071a9:	48 81 c3 d8 cc 9c 24        	(arith) 	add	$0x249cccd8,%rbx
  4071b0:	66 44 0f 28 c5              	(move)  	movapd	%xmm5,%xmm8
  4071b5:	f2 44 0f 59 04 d8           	(arith) 	mulsd	(%rax,%rbx,8),%xmm8
  4071bb:	48 81 c6 d8 cc 9c 24        	(arith) 	add	$0x249cccd8,%rsi
  4071c2:	f2 0f 59 3c f0              	(arith) 	mulsd	(%rax,%rsi,8),%xmm7
  4071c7:	f2 41 0f 58 f8              	(arith) 	addsd	%xmm8,%xmm7
  4071cc:	48 81 c1 d8 cc 9c 24        	(arith) 	add	$0x249cccd8,%rcx
  4071d3:	66 44 0f 28 c4              	(move)  	movapd	%xmm4,%xmm8
  4071d8:	f2 44 0f 59 04 c8           	(arith) 	mulsd	(%rax,%rcx,8),%xmm8
  4071de:	f2 41 0f 58 f8              	(arith) 	addsd	%xmm8,%xmm7
  4071e3:	f2 0f 59 7c 24 40           	(arith) 	mulsd	0x40(%rsp),%xmm7
  4071e9:	f2 44 0f 58 e7              	(arith) 	addsd	%xmm7,%xmm12
  4071ee:	f2 41 0f 59 eb              	(arith) 	mulsd	%xmm11,%xmm5
  4071f3:	66 0f 28 fe                 	(move)  	movapd	%xmm6,%xmm7
  4071f7:	f2 42 0f 59 3c d8           	(arith) 	mulsd	(%rax,%r11,8),%xmm7
  4071fd:	f2 0f 5c ef                 	(arith) 	subsd	%xmm7,%xmm5
  407201:	f2 0f 59 d5                 	(arith) 	mulsd	%xmm5,%xmm2
  407205:	f2 41 0f 59 e3              	(arith) 	mulsd	%xmm11,%xmm4
  40720a:	66 0f 28 ee                 	(move)  	movapd	%xmm6,%xmm5
  40720e:	f2 42 0f 59 2c c8           	(arith) 	mulsd	(%rax,%r9,8),%xmm5
  407214:	f2 0f 5c e5                 	(arith) 	subsd	%xmm5,%xmm4
  407218:	f2 0f 59 e1                 	(arith) 	mulsd	%xmm1,%xmm4
  40721c:	f2 0f 5c d4                 	(arith) 	subsd	%xmm4,%xmm2
  407220:	f2 0f 59 d3                 	(arith) 	mulsd	%xmm3,%xmm2
  407224:	f2 44 0f 5c e2              	(arith) 	subsd	%xmm2,%xmm12
  407229:	f2 44 0f 11 24 d0           	(move)  	movsd	%xmm12,(%rax,%rdx,8)
/home/jgarcia/TFG/source_code/SP/rhs.f:281
  40722f:	44 39 54 24 20              	(arith) 	cmp	%r10d,0x20(%rsp)
  407234:	0f 85 22 fc ff ff           	(control)	jne	406e5c <compute_rhs_+0x1c3c>	; ↰ label 544 (loop 97)
; ------- Loop 97 exit
542:	
/home/jgarcia/TFG/source_code/SP/rhs.f:280
  40723a:	44 8b a4 24 80 00 00 00     	(move)  	mov	0x80(%rsp),%r12d
  407242:	44 39 64 24 78              	(arith) 	cmp	%r12d,0x78(%rsp)
  407247:	74 0a                       	(control)	je	407253 <compute_rhs_+0x2033>	; ↲ label 539
545:	
  407249:	83 44 24 78 01              	(arith) 	addl	$0x1,0x78(%rsp)
  40724e:	e9 9d fb ff ff              	(control)	jmp	406df0 <compute_rhs_+0x1bd0>	; ↰ label 541 (loop 96)
; ------- Loop 96 exit
539:	
/home/jgarcia/TFG/source_code/SP/rhs.f:279
  407253:	44 8b bc 24 b0 00 00 00     	(move)  	mov	0xb0(%rsp),%r15d
  40725b:	44 39 bc 24 a8 00 00 00     	(arith) 	cmp	%r15d,0xa8(%rsp)
  407263:	74 0d                       	(control)	je	407272 <compute_rhs_+0x2052>	; ↲ label 536
546:	
  407265:	83 84 24 a8 00 00 00 01     	(arith) 	addl	$0x1,0xa8(%rsp)
  40726d:	e9 0a fb ff ff              	(control)	jmp	406d7c <compute_rhs_+0x1b5c>	; ↰ label 538 (loop 95)
; ------- Loop 95 exit
536:	
/home/jgarcia/TFG/source_code/SP/rhs.f:336
  407272:	44 8b 15 97 88 20 00        	(move)  	mov	0x208897(%rip),%r10d
  407279:	45 85 d2                    	(arith) 	test	%r10d,%r10d
  40727c:	0f 8e ca 01 00 00           	(control)	jle	40744c <compute_rhs_+0x222c>	; ↲ label 547
548:	
/home/jgarcia/TFG/source_code/SP/rhs.f:337
  407282:	8b 2d 84 88 20 00           	(move)  	mov	0x208884(%rip),%ebp
/home/jgarcia/TFG/source_code/SP/rhs.f:341
  407288:	f2 0f 10 25 30 84 20 00     	(move)  	movsd	0x208430(%rip),%xmm4
  407290:	41 b9 01 00 00 00           	(move)  	mov	$0x1,%r9d
  407296:	48 be 00 77 77 79 fe ff ff ff	(move)  	mov	$-0x186888900,%rsi
  4072a0:	f2 0f 10 1d 20 72 00 00     	(move)  	movsd	0x7220(%rip),%xmm3
  4072a8:	48 bb a8 90 dd 79 fe ff ff ff	(move)  	mov	$-0x186226f58,%rbx
  4072b2:	f2 0f 10 15 16 72 00 00     	(move)  	movsd	0x7216(%rip),%xmm2
; ------- Loop 92 entry
549 (loop 92):	
/home/jgarcia/TFG/source_code/SP/rhs.f:337
  4072ba:	85 ed                       	(arith) 	test	%ebp,%ebp
  4072bc:	0f 8e 82 00 00 00           	(control)	jle	407344 <compute_rhs_+0x2124>	; ↲ label 550
551:	
/home/jgarcia/TFG/source_code/SP/rhs.f:341
  4072c2:	49 63 c1                    	(move)  	movsxd	%r9d,%rax
  4072c5:	48 89 c2                    	(move)  	mov	%rax,%rdx
  4072c8:	48 c1 e2 09                 	(logic) 	sal	$0x9,%rdx
  4072cc:	48 29 c2                    	(arith) 	sub	%rax,%rdx
  4072cf:	4c 8d 04 90                 	(arith) 	lea	(%rax,%rdx,4),%r8
  4072d3:	bf 01 00 00 00              	(move)  	mov	$0x1,%edi
  4072d8:	48 b9 50 aa 43 7a fe ff ff ff	(move)  	mov	$-0x185bc55b0,%rcx
; ------- Loop 94 entry
552 (loop 94):	
  4072e2:	48 63 c7                    	(move)  	movsxd	%edi,%rax
  4072e5:	48 8d 04 80                 	(arith) 	lea	(%rax,%rax,4),%rax
  4072e9:	49 8d 94 00 55 d4 dd 30     	(arith) 	lea	0x30ddd455(%r8,%rax,1),%rdx
  4072f1:	48 b8 20 18 94 01 00 00 00 00	(move)  	mov	$0x1941820,%rax
  4072fb:	48 8d 04 d0                 	(arith) 	lea	(%rax,%rdx,8),%rax
  4072ff:	ba 01 00 00 00              	(move)  	mov	$0x1,%edx
; ------- Loop 93 entry
553 (loop 93):	
  407304:	66 0f 28 cb                 	(move)  	movapd	%xmm3,%xmm1
  407308:	f2 0f 59 0c 30              	(arith) 	mulsd	(%rax,%rsi,1),%xmm1
  40730d:	66 0f 28 c2                 	(move)  	movapd	%xmm2,%xmm0
  407311:	f2 0f 59 04 18              	(arith) 	mulsd	(%rax,%rbx,1),%xmm0
  407316:	f2 0f 58 c8                 	(arith) 	addsd	%xmm0,%xmm1
  40731a:	f2 0f 58 0c 08              	(arith) 	addsd	(%rax,%rcx,1),%xmm1
  40731f:	f2 0f 59 cc                 	(arith) 	mulsd	%xmm4,%xmm1
  407323:	f2 0f 10 00                 	(move)  	movsd	(%rax),%xmm0
  407327:	f2 0f 5c c1                 	(arith) 	subsd	%xmm1,%xmm0
  40732b:	f2 0f 11 00                 	(move)  	movsd	%xmm0,(%rax)
/home/jgarcia/TFG/source_code/SP/rhs.f:338
  40732f:	83 c2 01                    	(arith) 	add	$0x1,%edx
  407332:	48 83 c0 08                 	(arith) 	add	$0x8,%rax
  407336:	83 fa 06                    	(arith) 	cmp	$0x6,%edx
  407339:	75 c9                       	(control)	jne	407304 <compute_rhs_+0x20e4>	; ↰ label 553 (loop 93)
; ------- Loop 93 exit
554:	
/home/jgarcia/TFG/source_code/SP/rhs.f:337
  40733b:	39 ef                       	(arith) 	cmp	%ebp,%edi
  40733d:	74 05                       	(control)	je	407344 <compute_rhs_+0x2124>	; ↲ label 550
555:	
  40733f:	83 c7 01                    	(arith) 	add	$0x1,%edi
  407342:	eb 9e                       	(control)	jmp	4072e2 <compute_rhs_+0x20c2>	; ↰ label 552 (loop 94)
; ------- Loop 94 exit
550:	
/home/jgarcia/TFG/source_code/SP/rhs.f:336
  407344:	45 39 d1                    	(arith) 	cmp	%r10d,%r9d
  407347:	74 09                       	(control)	je	407352 <compute_rhs_+0x2132>	; ↲ label 556
557:	
  407349:	41 83 c1 01                 	(arith) 	add	$0x1,%r9d
  40734d:	e9 68 ff ff ff              	(control)	jmp	4072ba <compute_rhs_+0x209a>	; ↰ label 549 (loop 92)
; ------- Loop 92 exit
556:	
/home/jgarcia/TFG/source_code/SP/rhs.f:347
  407352:	44 8b 1d b7 87 20 00        	(move)  	mov	0x2087b7(%rip),%r11d
  407359:	45 85 db                    	(arith) 	test	%r11d,%r11d
  40735c:	0f 8e ea 00 00 00           	(control)	jle	40744c <compute_rhs_+0x222c>	; ↲ label 547
558:	
/home/jgarcia/TFG/source_code/SP/rhs.f:348
  407362:	44 8b 05 a3 87 20 00        	(move)  	mov	0x2087a3(%rip),%r8d
/home/jgarcia/TFG/source_code/SP/rhs.f:352
  407369:	f2 0f 10 25 4f 83 20 00     	(move)  	movsd	0x20834f(%rip),%xmm4
  407371:	41 ba 01 00 00 00           	(move)  	mov	$0x1,%r10d
  407377:	48 bf 58 5d 11 79 fe ff ff ff	(move)  	mov	$-0x186eea2a8,%rdi
  407381:	f2 0f 10 05 47 71 00 00     	(move)  	movsd	0x7147(%rip),%xmm0
  407389:	48 be 00 77 77 79 fe ff ff ff	(move)  	mov	$-0x186888900,%rsi
  407393:	f2 0f 10 1d 3d 71 00 00     	(move)  	movsd	0x713d(%rip),%xmm3
; ------- Loop 89 entry
559 (loop 89):	
/home/jgarcia/TFG/source_code/SP/rhs.f:348
  40739b:	45 85 c0                    	(arith) 	test	%r8d,%r8d
  40739e:	0f 8e 9a 00 00 00           	(control)	jle	40743e <compute_rhs_+0x221e>	; ↲ label 560
561:	
/home/jgarcia/TFG/source_code/SP/rhs.f:352
  4073a4:	49 63 c2                    	(move)  	movsxd	%r10d,%rax
  4073a7:	48 89 c2                    	(move)  	mov	%rax,%rdx
  4073aa:	48 c1 e2 09                 	(logic) 	sal	$0x9,%rdx
  4073ae:	48 29 c2                    	(arith) 	sub	%rax,%rdx
  4073b1:	4c 8d 0c 90                 	(arith) 	lea	(%rax,%rdx,4),%r9
  4073b5:	bd 01 00 00 00              	(move)  	mov	$0x1,%ebp
  4073ba:	48 bb a8 90 dd 79 fe ff ff ff	(move)  	mov	$-0x186226f58,%rbx
; ------- Loop 91 entry
562 (loop 91):	
  4073c4:	48 63 c5                    	(move)  	movsxd	%ebp,%rax
  4073c7:	48 8d 04 80                 	(arith) 	lea	(%rax,%rax,4),%rax
  4073cb:	49 8d 94 01 8a 97 ea 30     	(arith) 	lea	0x30ea978a(%r9,%rax,1),%rdx
  4073d3:	48 b8 20 18 94 01 00 00 00 00	(move)  	mov	$0x1941820,%rax
  4073dd:	48 8d 04 d0                 	(arith) 	lea	(%rax,%rdx,8),%rax
  4073e1:	ba 01 00 00 00              	(move)  	mov	$0x1,%edx
  4073e6:	48 b9 50 aa 43 7a fe ff ff ff	(move)  	mov	$-0x185bc55b0,%rcx
; ------- Loop 90 entry
563 (loop 90):	
  4073f0:	66 0f 28 d0                 	(move)  	movapd	%xmm0,%xmm2
  4073f4:	f2 0f 59 14 38              	(arith) 	mulsd	(%rax,%rdi,1),%xmm2
  4073f9:	66 0f 28 cb                 	(move)  	movapd	%xmm3,%xmm1
  4073fd:	f2 0f 59 0c 30              	(arith) 	mulsd	(%rax,%rsi,1),%xmm1
  407402:	f2 0f 58 d1                 	(arith) 	addsd	%xmm1,%xmm2
  407406:	66 0f 28 c8                 	(move)  	movapd	%xmm0,%xmm1
  40740a:	f2 0f 59 0c 18              	(arith) 	mulsd	(%rax,%rbx,1),%xmm1
  40740f:	f2 0f 58 d1                 	(arith) 	addsd	%xmm1,%xmm2
  407413:	f2 0f 58 14 08              	(arith) 	addsd	(%rax,%rcx,1),%xmm2
  407418:	f2 0f 59 d4                 	(arith) 	mulsd	%xmm4,%xmm2
  40741c:	f2 0f 10 08                 	(move)  	movsd	(%rax),%xmm1
  407420:	f2 0f 5c ca                 	(arith) 	subsd	%xmm2,%xmm1
  407424:	f2 0f 11 08                 	(move)  	movsd	%xmm1,(%rax)
/home/jgarcia/TFG/source_code/SP/rhs.f:349
  407428:	83 c2 01                    	(arith) 	add	$0x1,%edx
  40742b:	48 83 c0 08                 	(arith) 	add	$0x8,%rax
  40742f:	83 fa 06                    	(arith) 	cmp	$0x6,%edx
  407432:	75 bc                       	(control)	jne	4073f0 <compute_rhs_+0x21d0>	; ↰ label 563 (loop 90)
; ------- Loop 90 exit
564:	
/home/jgarcia/TFG/source_code/SP/rhs.f:348
  407434:	44 39 c5                    	(arith) 	cmp	%r8d,%ebp
  407437:	74 05                       	(control)	je	40743e <compute_rhs_+0x221e>	; ↲ label 560
565:	
  407439:	83 c5 01                    	(arith) 	add	$0x1,%ebp
  40743c:	eb 86                       	(control)	jmp	4073c4 <compute_rhs_+0x21a4>	; ↰ label 562 (loop 91)
; ------- Loop 91 exit
560:	
/home/jgarcia/TFG/source_code/SP/rhs.f:347
  40743e:	45 39 da                    	(arith) 	cmp	%r11d,%r10d
  407441:	74 09                       	(control)	je	40744c <compute_rhs_+0x222c>	; ↲ label 547
566:	
  407443:	41 83 c2 01                 	(arith) 	add	$0x1,%r10d
  407447:	e9 4f ff ff ff              	(control)	jmp	40739b <compute_rhs_+0x217b>	; ↰ label 559 (loop 89)
; ------- Loop 89 exit
547:	
/home/jgarcia/TFG/source_code/SP/rhs.f:357
  40744c:	8b 05 c2 86 20 00           	(move)  	mov	0x2086c2(%rip),%eax
  407452:	83 e8 02                    	(arith) 	sub	$0x2,%eax
  407455:	89 44 24 18                 	(move)  	mov	%eax,0x18(%rsp)
  407459:	83 f8 02                    	(arith) 	cmp	$0x2,%eax
  40745c:	0f 8e 5e 01 00 00           	(control)	jle	4075c0 <compute_rhs_+0x23a0>	; ↲ label 567
568:	
/home/jgarcia/TFG/source_code/SP/rhs.f:358
  407462:	8b 05 a8 86 20 00           	(move)  	mov	0x2086a8(%rip),%eax
  407468:	89 44 24 08                 	(move)  	mov	%eax,0x8(%rsp)
/home/jgarcia/TFG/source_code/SP/rhs.f:359
  40746c:	44 8b 0d 99 86 20 00        	(move)  	mov	0x208699(%rip),%r9d
/home/jgarcia/TFG/source_code/SP/rhs.f:364
  407473:	f2 0f 10 2d 45 82 20 00     	(move)  	movsd	0x208245(%rip),%xmm5
  40747b:	c7 44 24 10 03 00 00 00     	(move)  	movl	$0x3,0x10(%rsp)
  407483:	48 bf b0 43 ab 78 fe ff ff ff	(move)  	mov	$-0x18754bc50,%rdi
  40748d:	f2 0f 10 05 3b 70 00 00     	(move)  	movsd	0x703b(%rip),%xmm0
  407495:	f2 0f 10 25 3b 70 00 00     	(move)  	movsd	0x703b(%rip),%xmm4
; ------- Loop 85 entry
569 (loop 85):	
/home/jgarcia/TFG/source_code/SP/rhs.f:358
  40749d:	83 7c 24 08 00              	(arith) 	cmpl	$0,0x8(%rsp)
  4074a2:	0f 8e 04 01 00 00           	(control)	jle	4075ac <compute_rhs_+0x238c>	; ↲ label 570
571:	
/home/jgarcia/TFG/source_code/SP/rhs.f:364
  4074a8:	48 63 44 24 10              	(move)  	movsxd	0x10(%rsp),%rax
  4074ad:	4c 69 e8 35 c3 0c 00        	(arith) 	imul	$0xcc335,%rax,%r13
  4074b4:	4c 8d 60 ff                 	(arith) 	lea	-0x1(%rax),%r12
  4074b8:	4d 69 e4 35 c3 0c 00        	(arith) 	imul	$0xcc335,%r12,%r12
  4074bf:	48 83 c0 01                 	(arith) 	add	$0x1,%rax
  4074c3:	4c 69 d8 35 c3 0c 00        	(arith) 	imul	$0xcc335,%rax,%r11
  4074ca:	41 be 01 00 00 00           	(move)  	mov	$0x1,%r14d
  4074d0:	48 be 00 77 77 79 fe ff ff ff	(move)  	mov	$-0x186888900,%rsi
; ------- Loop 86 entry
572 (loop 86):	
/home/jgarcia/TFG/source_code/SP/rhs.f:359
  4074da:	45 85 c9                    	(arith) 	test	%r9d,%r9d
  4074dd:	0f 8e b9 00 00 00           	(control)	jle	40759c <compute_rhs_+0x237c>	; ↲ label 573
574:	
/home/jgarcia/TFG/source_code/SP/rhs.f:364
  4074e3:	49 63 c6                    	(move)  	movsxd	%r14d,%rax
  4074e6:	48 89 c2                    	(move)  	mov	%rax,%rdx
  4074e9:	48 c1 e2 09                 	(logic) 	sal	$0x9,%rdx
  4074ed:	48 29 c2                    	(arith) 	sub	%rax,%rdx
  4074f0:	4c 8d 14 90                 	(arith) 	lea	(%rax,%rdx,4),%r10
  4074f4:	bd 01 00 00 00              	(move)  	mov	$0x1,%ebp
  4074f9:	48 bb 50 aa 43 7a fe ff ff ff	(move)  	mov	$-0x185bc55b0,%rbx
; ------- Loop 88 entry
575 (loop 88):	
  407503:	48 63 c5                    	(move)  	movsxd	%ebp,%rax
  407506:	4c 8d 3c 80                 	(arith) 	lea	(%rax,%rax,4),%r15
  40750a:	4d 01 d7                    	(arith) 	add	%r10,%r15
  40750d:	4f 8d 04 2f                 	(arith) 	lea	(%r15,%r13,1),%r8
  407511:	49 8d 80 20 11 d1 30        	(arith) 	lea	0x30d11120(%r8),%rax
  407518:	48 ba 20 18 94 01 00 00 00 00	(move)  	mov	$0x1941820,%rdx
  407522:	48 8d 04 c2                 	(arith) 	lea	(%rdx,%rax,8),%rax
  407526:	4b 8d 0c 27                 	(arith) 	lea	(%r15,%r12,1),%rcx
  40752a:	48 8d 0c ca                 	(arith) 	lea	(%rdx,%rcx,8),%rcx
  40752e:	4d 01 df                    	(arith) 	add	%r11,%r15
  407531:	4a 8d 14 fa                 	(arith) 	lea	(%rdx,%r15,8),%rdx
/home/jgarcia/TFG/source_code/SP/rhs.f:4
  407535:	49 bf 48 a1 1c 88 01 00 00 00	(move)  	mov	$0x1881ca148,%r15
  40753f:	4f 8d 04 c7                 	(arith) 	lea	(%r15,%r8,8),%r8
; ------- Loop 87 entry
576 (loop 87):	
/home/jgarcia/TFG/source_code/SP/rhs.f:364
  407543:	66 0f 28 d0                 	(move)  	movapd	%xmm0,%xmm2
  407547:	f2 0f 59 11                 	(arith) 	mulsd	(%rcx),%xmm2
  40754b:	f2 0f 58 14 38              	(arith) 	addsd	(%rax,%rdi,1),%xmm2
  407550:	66 0f 28 cc                 	(move)  	movapd	%xmm4,%xmm1
  407554:	f2 0f 59 0c 30              	(arith) 	mulsd	(%rax,%rsi,1),%xmm1
  407559:	f2 0f 58 d1                 	(arith) 	addsd	%xmm1,%xmm2
  40755d:	66 0f 28 d8                 	(move)  	movapd	%xmm0,%xmm3
  407561:	f2 0f 59 1a                 	(arith) 	mulsd	(%rdx),%xmm3
  407565:	f2 0f 58 d3                 	(arith) 	addsd	%xmm3,%xmm2
  407569:	f2 0f 58 14 18              	(arith) 	addsd	(%rax,%rbx,1),%xmm2
  40756e:	f2 0f 59 d5                 	(arith) 	mulsd	%xmm5,%xmm2
  407572:	f2 0f 10 08                 	(move)  	movsd	(%rax),%xmm1
  407576:	f2 0f 5c ca                 	(arith) 	subsd	%xmm2,%xmm1
  40757a:	f2 0f 11 08                 	(move)  	movsd	%xmm1,(%rax)
  40757e:	48 83 c0 08                 	(arith) 	add	$0x8,%rax
  407582:	48 83 c1 08                 	(arith) 	add	$0x8,%rcx
  407586:	48 83 c2 08                 	(arith) 	add	$0x8,%rdx
/home/jgarcia/TFG/source_code/SP/rhs.f:360
  40758a:	4c 39 c0                    	(arith) 	cmp	%r8,%rax
  40758d:	75 b4                       	(control)	jne	407543 <compute_rhs_+0x2323>	; ↰ label 576 (loop 87)
; ------- Loop 87 exit
577:	
/home/jgarcia/TFG/source_code/SP/rhs.f:359
  40758f:	44 39 cd                    	(arith) 	cmp	%r9d,%ebp
  407592:	74 08                       	(control)	je	40759c <compute_rhs_+0x237c>	; ↲ label 573
578:	
  407594:	83 c5 01                    	(arith) 	add	$0x1,%ebp
  407597:	e9 67 ff ff ff              	(control)	jmp	407503 <compute_rhs_+0x22e3>	; ↰ label 575 (loop 88)
; ------- Loop 88 exit
573:	
/home/jgarcia/TFG/source_code/SP/rhs.f:358
  40759c:	44 3b 74 24 08              	(arith) 	cmp	0x8(%rsp),%r14d
  4075a1:	74 09                       	(control)	je	4075ac <compute_rhs_+0x238c>	; ↲ label 570
579:	
  4075a3:	41 83 c6 01                 	(arith) 	add	$0x1,%r14d
  4075a7:	e9 2e ff ff ff              	(control)	jmp	4074da <compute_rhs_+0x22ba>	; ↰ label 572 (loop 86)
; ------- Loop 86 exit
570:	
/home/jgarcia/TFG/source_code/SP/rhs.f:357
  4075ac:	8b 54 24 18                 	(move)  	mov	0x18(%rsp),%edx
  4075b0:	39 54 24 10                 	(arith) 	cmp	%edx,0x10(%rsp)
  4075b4:	74 0a                       	(control)	je	4075c0 <compute_rhs_+0x23a0>	; ↲ label 567
580:	
  4075b6:	83 44 24 10 01              	(arith) 	addl	$0x1,0x10(%rsp)
  4075bb:	e9 dd fe ff ff              	(control)	jmp	40749d <compute_rhs_+0x227d>	; ↰ label 569 (loop 85)
; ------- Loop 85 exit
567:	
/home/jgarcia/TFG/source_code/SP/rhs.f:370
  4075c0:	8b 05 4e 85 20 00           	(move)  	mov	0x20854e(%rip),%eax
  4075c6:	83 e8 01                    	(arith) 	sub	$0x1,%eax
/home/jgarcia/TFG/source_code/SP/rhs.f:371
  4075c9:	8b 0d 41 85 20 00           	(move)  	mov	0x208541(%rip),%ecx
  4075cf:	89 4c 24 08                 	(move)  	mov	%ecx,0x8(%rsp)
  4075d3:	85 c9                       	(arith) 	test	%ecx,%ecx
  4075d5:	0f 8e 23 02 00 00           	(control)	jle	4077fe <compute_rhs_+0x25de>	; ↲ label 581
582:	
/home/jgarcia/TFG/source_code/SP/rhs.f:372
  4075db:	44 8b 0d 2a 85 20 00        	(move)  	mov	0x20852a(%rip),%r9d
/home/jgarcia/TFG/source_code/SP/rhs.f:376
  4075e2:	48 98                       	(conv)  	cltq
  4075e4:	4c 69 f0 35 c3 0c 00        	(arith) 	imul	$0xcc335,%rax,%r14
  4075eb:	4c 8d 68 ff                 	(arith) 	lea	-0x1(%rax),%r13
  4075ef:	4d 69 ed 35 c3 0c 00        	(arith) 	imul	$0xcc335,%r13,%r13
  4075f6:	48 83 c0 01                 	(arith) 	add	$0x1,%rax
  4075fa:	4c 69 e0 35 c3 0c 00        	(arith) 	imul	$0xcc335,%rax,%r12
  407601:	f2 0f 10 2d b7 80 20 00     	(move)  	movsd	0x2080b7(%rip),%xmm5
  407609:	41 bf 01 00 00 00           	(move)  	mov	$0x1,%r15d
  40760f:	49 b8 20 18 94 01 00 00 00 00	(move)  	mov	$0x1941820,%r8
  407619:	48 bf b0 43 ab 78 fe ff ff ff	(move)  	mov	$-0x18754bc50,%rdi
  407623:	f2 0f 10 05 a5 6e 00 00     	(move)  	movsd	0x6ea5(%rip),%xmm0
  40762b:	f2 0f 10 25 a5 6e 00 00     	(move)  	movsd	0x6ea5(%rip),%xmm4
; ------- Loop 82 entry
583 (loop 82):	
/home/jgarcia/TFG/source_code/SP/rhs.f:372
  407633:	45 85 c9                    	(arith) 	test	%r9d,%r9d
  407636:	0f 8e a7 00 00 00           	(control)	jle	4076e3 <compute_rhs_+0x24c3>	; ↲ label 584
585:	
/home/jgarcia/TFG/source_code/SP/rhs.f:376
  40763c:	49 63 c7                    	(move)  	movsxd	%r15d,%rax
  40763f:	48 89 c2                    	(move)  	mov	%rax,%rdx
  407642:	48 c1 e2 09                 	(logic) 	sal	$0x9,%rdx
  407646:	48 29 c2                    	(arith) 	sub	%rax,%rdx
  407649:	4c 8d 1c 90                 	(arith) 	lea	(%rax,%rdx,4),%r11
  40764d:	bd 01 00 00 00              	(move)  	mov	$0x1,%ebp
/home/jgarcia/TFG/source_code/SP/rhs.f:4
  407652:	49 ba 48 a1 1c 88 01 00 00 00	(move)  	mov	$0x1881ca148,%r10
/home/jgarcia/TFG/source_code/SP/rhs.f:376
  40765c:	48 be 00 77 77 79 fe ff ff ff	(move)  	mov	$-0x186888900,%rsi
; ------- Loop 84 entry
586 (loop 84):	
  407666:	48 63 c5                    	(move)  	movsxd	%ebp,%rax
  407669:	48 8d 14 80                 	(arith) 	lea	(%rax,%rax,4),%rdx
  40766d:	4c 01 da                    	(arith) 	add	%r11,%rdx
  407670:	4a 8d 1c 32                 	(arith) 	lea	(%rdx,%r14,1),%rbx
  407674:	48 8d 83 20 11 d1 30        	(arith) 	lea	0x30d11120(%rbx),%rax
  40767b:	49 8d 04 c0                 	(arith) 	lea	(%r8,%rax,8),%rax
  40767f:	4a 8d 0c 2a                 	(arith) 	lea	(%rdx,%r13,1),%rcx
  407683:	49 8d 0c c8                 	(arith) 	lea	(%r8,%rcx,8),%rcx
  407687:	4c 01 e2                    	(arith) 	add	%r12,%rdx
  40768a:	49 8d 14 d0                 	(arith) 	lea	(%r8,%rdx,8),%rdx
/home/jgarcia/TFG/source_code/SP/rhs.f:4
  40768e:	49 8d 1c da                 	(arith) 	lea	(%r10,%rbx,8),%rbx
; ------- Loop 83 entry
587 (loop 83):	
/home/jgarcia/TFG/source_code/SP/rhs.f:376
  407692:	66 0f 28 d0                 	(move)  	movapd	%xmm0,%xmm2
  407696:	f2 0f 59 11                 	(arith) 	mulsd	(%rcx),%xmm2
  40769a:	f2 0f 58 14 38              	(arith) 	addsd	(%rax,%rdi,1),%xmm2
  40769f:	66 0f 28 cc                 	(move)  	movapd	%xmm4,%xmm1
  4076a3:	f2 0f 59 0c 30              	(arith) 	mulsd	(%rax,%rsi,1),%xmm1
  4076a8:	f2 0f 58 d1                 	(arith) 	addsd	%xmm1,%xmm2
  4076ac:	66 0f 28 d8                 	(move)  	movapd	%xmm0,%xmm3
  4076b0:	f2 0f 59 1a                 	(arith) 	mulsd	(%rdx),%xmm3
  4076b4:	f2 0f 58 d3                 	(arith) 	addsd	%xmm3,%xmm2
  4076b8:	f2 0f 59 d5                 	(arith) 	mulsd	%xmm5,%xmm2
  4076bc:	f2 0f 10 08                 	(move)  	movsd	(%rax),%xmm1
  4076c0:	f2 0f 5c ca                 	(arith) 	subsd	%xmm2,%xmm1
  4076c4:	f2 0f 11 08                 	(move)  	movsd	%xmm1,(%rax)
  4076c8:	48 83 c0 08                 	(arith) 	add	$0x8,%rax
  4076cc:	48 83 c1 08                 	(arith) 	add	$0x8,%rcx
  4076d0:	48 83 c2 08                 	(arith) 	add	$0x8,%rdx
/home/jgarcia/TFG/source_code/SP/rhs.f:373
  4076d4:	48 39 d8                    	(arith) 	cmp	%rbx,%rax
  4076d7:	75 b9                       	(control)	jne	407692 <compute_rhs_+0x2472>	; ↰ label 587 (loop 83)
; ------- Loop 83 exit
588:	
/home/jgarcia/TFG/source_code/SP/rhs.f:372
  4076d9:	44 39 cd                    	(arith) 	cmp	%r9d,%ebp
  4076dc:	74 05                       	(control)	je	4076e3 <compute_rhs_+0x24c3>	; ↲ label 584
589:	
  4076de:	83 c5 01                    	(arith) 	add	$0x1,%ebp
  4076e1:	eb 83                       	(control)	jmp	407666 <compute_rhs_+0x2446>	; ↰ label 586 (loop 84)
; ------- Loop 84 exit
584:	
/home/jgarcia/TFG/source_code/SP/rhs.f:371
  4076e3:	44 3b 7c 24 08              	(arith) 	cmp	0x8(%rsp),%r15d
  4076e8:	74 09                       	(control)	je	4076f3 <compute_rhs_+0x24d3>	; ↲ label 590
591:	
  4076ea:	41 83 c7 01                 	(arith) 	add	$0x1,%r15d
  4076ee:	e9 40 ff ff ff              	(control)	jmp	407633 <compute_rhs_+0x2413>	; ↰ label 583 (loop 82)
; ------- Loop 82 exit
590:	
/home/jgarcia/TFG/source_code/SP/rhs.f:381
  4076f3:	8b 05 1b 84 20 00           	(move)  	mov	0x20841b(%rip),%eax
/home/jgarcia/TFG/source_code/SP/rhs.f:382
  4076f9:	44 8b 35 10 84 20 00        	(move)  	mov	0x208410(%rip),%r14d
  407700:	45 85 f6                    	(arith) 	test	%r14d,%r14d
  407703:	0f 8e f5 00 00 00           	(control)	jle	4077fe <compute_rhs_+0x25de>	; ↲ label 581
592:	
/home/jgarcia/TFG/source_code/SP/rhs.f:383
  407709:	44 8b 05 fc 83 20 00        	(move)  	mov	0x2083fc(%rip),%r8d
/home/jgarcia/TFG/source_code/SP/rhs.f:387
  407710:	48 98                       	(conv)  	cltq
  407712:	4c 69 e0 35 c3 0c 00        	(arith) 	imul	$0xcc335,%rax,%r12
  407719:	48 83 e8 01                 	(arith) 	sub	$0x1,%rax
  40771d:	4c 69 d8 35 c3 0c 00        	(arith) 	imul	$0xcc335,%rax,%r11
  407724:	f2 0f 10 2d 94 7f 20 00     	(move)  	movsd	0x207f94(%rip),%xmm5
  40772c:	41 bd 01 00 00 00           	(move)  	mov	$0x1,%r13d
  407732:	48 bd 20 18 94 01 00 00 00 00	(move)  	mov	$0x1941820,%rbp
  40773c:	48 be b0 43 ab 78 fe ff ff ff	(move)  	mov	$-0x18754bc50,%rsi
  407746:	f2 0f 10 25 82 6d 00 00     	(move)  	movsd	0x6d82(%rip),%xmm4
  40774e:	f2 0f 10 1d 72 6d 00 00     	(move)  	movsd	0x6d72(%rip),%xmm3
; ------- Loop 79 entry
593 (loop 79):	
/home/jgarcia/TFG/source_code/SP/rhs.f:383
  407756:	45 85 c0                    	(arith) 	test	%r8d,%r8d
  407759:	0f 8e 91 00 00 00           	(control)	jle	4077f0 <compute_rhs_+0x25d0>	; ↲ label 594
595:	
/home/jgarcia/TFG/source_code/SP/rhs.f:387
  40775f:	49 63 c5                    	(move)  	movsxd	%r13d,%rax
  407762:	48 89 c2                    	(move)  	mov	%rax,%rdx
  407765:	48 c1 e2 09                 	(logic) 	sal	$0x9,%rdx
  407769:	48 29 c2                    	(arith) 	sub	%rax,%rdx
  40776c:	4c 8d 14 90                 	(arith) 	lea	(%rax,%rdx,4),%r10
  407770:	bf 01 00 00 00              	(move)  	mov	$0x1,%edi
/home/jgarcia/TFG/source_code/SP/rhs.f:4
  407775:	49 b9 48 a1 1c 88 01 00 00 00	(move)  	mov	$0x1881ca148,%r9
/home/jgarcia/TFG/source_code/SP/rhs.f:387
  40777f:	48 bb 00 77 77 79 fe ff ff ff	(move)  	mov	$-0x186888900,%rbx
; ------- Loop 81 entry
596 (loop 81):	
  407789:	48 63 c7                    	(move)  	movsxd	%edi,%rax
  40778c:	48 8d 14 80                 	(arith) 	lea	(%rax,%rax,4),%rdx
  407790:	4c 01 d2                    	(arith) 	add	%r10,%rdx
  407793:	4a 8d 0c 22                 	(arith) 	lea	(%rdx,%r12,1),%rcx
  407797:	48 8d 81 20 11 d1 30        	(arith) 	lea	0x30d11120(%rcx),%rax
  40779e:	48 8d 44 c5 00              	(arith) 	lea	(%rbp,%rax,8),%rax
  4077a3:	4c 01 da                    	(arith) 	add	%r11,%rdx
  4077a6:	48 8d 54 d5 00              	(arith) 	lea	(%rbp,%rdx,8),%rdx
/home/jgarcia/TFG/source_code/SP/rhs.f:4
  4077ab:	49 8d 0c c9                 	(arith) 	lea	(%r9,%rcx,8),%rcx
; ------- Loop 80 entry
597 (loop 80):	
/home/jgarcia/TFG/source_code/SP/rhs.f:387
  4077af:	66 0f 28 cc                 	(move)  	movapd	%xmm4,%xmm1
  4077b3:	f2 0f 59 0a                 	(arith) 	mulsd	(%rdx),%xmm1
  4077b7:	f2 0f 58 0c 30              	(arith) 	addsd	(%rax,%rsi,1),%xmm1
  4077bc:	66 0f 28 d3                 	(move)  	movapd	%xmm3,%xmm2
  4077c0:	f2 0f 59 14 18              	(arith) 	mulsd	(%rax,%rbx,1),%xmm2
  4077c5:	f2 0f 58 ca                 	(arith) 	addsd	%xmm2,%xmm1
  4077c9:	f2 0f 59 cd                 	(arith) 	mulsd	%xmm5,%xmm1
  4077cd:	f2 0f 10 00                 	(move)  	movsd	(%rax),%xmm0
  4077d1:	f2 0f 5c c1                 	(arith) 	subsd	%xmm1,%xmm0
  4077d5:	f2 0f 11 00                 	(move)  	movsd	%xmm0,(%rax)
  4077d9:	48 83 c0 08                 	(arith) 	add	$0x8,%rax
  4077dd:	48 83 c2 08                 	(arith) 	add	$0x8,%rdx
/home/jgarcia/TFG/source_code/SP/rhs.f:384
  4077e1:	48 39 c8                    	(arith) 	cmp	%rcx,%rax
  4077e4:	75 c9                       	(control)	jne	4077af <compute_rhs_+0x258f>	; ↰ label 597 (loop 80)
; ------- Loop 80 exit
598:	
/home/jgarcia/TFG/source_code/SP/rhs.f:383
  4077e6:	44 39 c7                    	(arith) 	cmp	%r8d,%edi
  4077e9:	74 05                       	(control)	je	4077f0 <compute_rhs_+0x25d0>	; ↲ label 594
599:	
  4077eb:	83 c7 01                    	(arith) 	add	$0x1,%edi
  4077ee:	eb 99                       	(control)	jmp	407789 <compute_rhs_+0x2569>	; ↰ label 596 (loop 81)
; ------- Loop 81 exit
594:	
/home/jgarcia/TFG/source_code/SP/rhs.f:382
  4077f0:	45 39 f5                    	(arith) 	cmp	%r14d,%r13d
  4077f3:	74 09                       	(control)	je	4077fe <compute_rhs_+0x25de>	; ↲ label 581
600:	
  4077f5:	41 83 c5 01                 	(arith) 	add	$0x1,%r13d
  4077f9:	e9 58 ff ff ff              	(control)	jmp	407756 <compute_rhs_+0x2536>	; ↰ label 593 (loop 79)
; ------- Loop 79 exit
581:	
/home/jgarcia/TFG/source_code/SP/rhs.f:391
  4077fe:	83 3d 13 83 20 00 00        	(arith) 	cmpl	$0,0x208313(%rip)
  407805:	74 0f                       	(control)	je	407816 <compute_rhs_+0x25f6>	; ↲ label 601
602:	
  407807:	bf 3c e5 40 00              	(move)  	mov	$0x40e53c,%edi
  40780c:	b8 00 00 00 00              	(move)  	mov	$0,%eax
  407811:	e8 f5 67 00 00              	(control)	call	40e00b <timer_stop_>	; ⇄ timer_stop
601:	
/home/jgarcia/TFG/source_code/SP/rhs.f:393
  407816:	44 8b 2d f7 82 20 00        	(move)  	mov	0x2082f7(%rip),%r13d
  40781d:	45 85 ed                    	(arith) 	test	%r13d,%r13d
  407820:	0f 8e b1 00 00 00           	(control)	jle	4078d7 <compute_rhs_+0x26b7>	; ↲ label 603
604:	
/home/jgarcia/TFG/source_code/SP/rhs.f:394
  407826:	44 8b 0d e3 82 20 00        	(move)  	mov	0x2082e3(%rip),%r9d
/home/jgarcia/TFG/source_code/SP/rhs.f:395
  40782d:	8b 1d d9 82 20 00           	(move)  	mov	0x2082d9(%rip),%ebx
/home/jgarcia/TFG/source_code/SP/rhs.f:397
  407833:	f2 0f 10 0d 8d 7e 20 00     	(move)  	movsd	0x207e8d(%rip),%xmm1
  40783b:	41 bc 01 00 00 00           	(move)  	mov	$0x1,%r12d
  407841:	41 be 01 00 00 00           	(move)  	mov	$0x1,%r14d
  407847:	48 bd 20 18 94 01 00 00 00 00	(move)  	mov	$0x1941820,%rbp
  407851:	45 89 f3                    	(move)  	mov	%r14d,%r11d
  407854:	44 89 f7                    	(move)  	mov	%r14d,%edi
; ------- Loop 75 entry
605 (loop 75):	
/home/jgarcia/TFG/source_code/SP/rhs.f:394
  407857:	45 85 c9                    	(arith) 	test	%r9d,%r9d
  40785a:	7e 70                       	(control)	jle	4078cc <compute_rhs_+0x26ac>	; ↲ label 606
607:	
/home/jgarcia/TFG/source_code/SP/rhs.f:397
  40785c:	4d 63 d4                    	(move)  	movsxd	%r12d,%r10
  40785f:	4d 69 d2 35 c3 0c 00        	(arith) 	imul	$0xcc335,%r10,%r10
  407866:	49 83 ea 01                 	(arith) 	sub	$0x1,%r10
  40786a:	45 89 f0                    	(move)  	mov	%r14d,%r8d
; ------- Loop 76 entry
608 (loop 76):	
/home/jgarcia/TFG/source_code/SP/rhs.f:395
  40786d:	85 db                       	(arith) 	test	%ebx,%ebx
  40786f:	7e 50                       	(control)	jle	4078c1 <compute_rhs_+0x26a1>	; ↲ label 609
610:	
/home/jgarcia/TFG/source_code/SP/rhs.f:397
  407871:	49 63 c0                    	(move)  	movsxd	%r8d,%rax
  407874:	48 89 c2                    	(move)  	mov	%rax,%rdx
  407877:	48 c1 e2 09                 	(logic) 	sal	$0x9,%rdx
  40787b:	48 29 c2                    	(arith) 	sub	%rax,%rdx
  40787e:	48 8d 04 90                 	(arith) 	lea	(%rax,%rdx,4),%rax
  407882:	44 89 d9                    	(move)  	mov	%r11d,%ecx
  407885:	49 8d 74 02 01              	(arith) 	lea	0x1(%r10,%rax,1),%rsi
; ------- Loop 78 entry
611 (loop 78):	
  40788a:	48 63 c1                    	(move)  	movsxd	%ecx,%rax
  40788d:	48 8d 04 80                 	(arith) 	lea	(%rax,%rax,4),%rax
  407891:	48 8d 84 30 20 11 d1 30     	(arith) 	lea	0x30d11120(%rax,%rsi,1),%rax
  407899:	48 8d 44 c5 00              	(arith) 	lea	(%rbp,%rax,8),%rax
  40789e:	89 fa                       	(move)  	mov	%edi,%edx
; ------- Loop 77 entry
612 (loop 77):	
  4078a0:	f2 0f 10 00                 	(move)  	movsd	(%rax),%xmm0
  4078a4:	f2 0f 59 c1                 	(arith) 	mulsd	%xmm1,%xmm0
  4078a8:	f2 0f 11 00                 	(move)  	movsd	%xmm0,(%rax)
/home/jgarcia/TFG/source_code/SP/rhs.f:396
  4078ac:	83 c2 01                    	(arith) 	add	$0x1,%edx
  4078af:	48 83 c0 08                 	(arith) 	add	$0x8,%rax
  4078b3:	83 fa 06                    	(arith) 	cmp	$0x6,%edx
  4078b6:	75 e8                       	(control)	jne	4078a0 <compute_rhs_+0x2680>	; ↰ label 612 (loop 77)
; ------- Loop 77 exit
613:	
/home/jgarcia/TFG/source_code/SP/rhs.f:395
  4078b8:	39 d9                       	(arith) 	cmp	%ebx,%ecx
  4078ba:	74 05                       	(control)	je	4078c1 <compute_rhs_+0x26a1>	; ↲ label 609
614:	
  4078bc:	83 c1 01                    	(arith) 	add	$0x1,%ecx
  4078bf:	eb c9                       	(control)	jmp	40788a <compute_rhs_+0x266a>	; ↰ label 611 (loop 78)
; ------- Loop 78 exit
609:	
/home/jgarcia/TFG/source_code/SP/rhs.f:394
  4078c1:	45 39 c8                    	(arith) 	cmp	%r9d,%r8d
  4078c4:	74 06                       	(control)	je	4078cc <compute_rhs_+0x26ac>	; ↲ label 606
615:	
  4078c6:	41 83 c0 01                 	(arith) 	add	$0x1,%r8d
  4078ca:	eb a1                       	(control)	jmp	40786d <compute_rhs_+0x264d>	; ↰ label 608 (loop 76)
; ------- Loop 76 exit
606:	
/home/jgarcia/TFG/source_code/SP/rhs.f:393
  4078cc:	45 39 ec                    	(arith) 	cmp	%r13d,%r12d
  4078cf:	74 06                       	(control)	je	4078d7 <compute_rhs_+0x26b7>	; ↲ label 603
616:	
  4078d1:	41 83 c4 01                 	(arith) 	add	$0x1,%r12d
  4078d5:	eb 80                       	(control)	jmp	407857 <compute_rhs_+0x2637>	; ↰ label 605 (loop 75)
; ------- Loop 75 exit
603:	
/home/jgarcia/TFG/source_code/SP/rhs.f:402
  4078d7:	83 3d 3a 82 20 00 00        	(arith) 	cmpl	$0,0x20823a(%rip)
  4078de:	74 0f                       	(control)	je	4078ef <compute_rhs_+0x26cf>	; ↲ label 617
618:	
  4078e0:	bf 30 e5 40 00              	(move)  	mov	$0x40e530,%edi
  4078e5:	b8 00 00 00 00              	(move)  	mov	$0,%eax
  4078ea:	e8 1c 67 00 00              	(control)	call	40e00b <timer_stop_>	; ⇄ timer_stop
617:	
/home/jgarcia/TFG/source_code/SP/rhs.f:405
  4078ef:	48 81 c4 48 01 00 00        	(arith) 	add	$0x148,%rsp
  4078f6:	5b                          	(move)  	pop	%rbx
  4078f7:	5d                          	(move)  	pop	%rbp
  4078f8:	41 5c                       	(move)  	pop	%r12
  4078fa:	41 5d                       	(move)  	pop	%r13
  4078fc:	41 5e                       	(move)  	pop	%r14
  4078fe:	41 5f                       	(move)  	pop	%r15
  407900:	c3                          	(control)	ret
619:	
/home/jgarcia/TFG/source_code/SP/x_solve.f:5
  407901:	90                          	(other) 	nop
  407902:	90                          	(other) 	nop
  407903:	90                          	(other) 	nop


0000000000407904 <x_solve>:
411 (function x_solve_):	
/home/jgarcia/TFG/source_code/SP/x_solve.f:5
  407904:	41 57                       	(move)  	push	%r15
  407906:	41 56                       	(move)  	push	%r14
  407908:	41 55                       	(move)  	push	%r13
  40790a:	41 54                       	(move)  	push	%r12
  40790c:	55                          	(move)  	push	%rbp
  40790d:	53                          	(move)  	push	%rbx
  40790e:	48 81 ec 88 00 00 00        	(arith) 	sub	$0x88,%rsp
/home/jgarcia/TFG/source_code/SP/x_solve.f:25
  407915:	83 3d fc 81 20 00 00        	(arith) 	cmpl	$0,0x2081fc(%rip)
  40791c:	74 0f                       	(control)	je	40792d <x_solve_+0x29>	; ↲ label 620
621:	
  40791e:	bf 40 e5 40 00              	(move)  	mov	$0x40e540,%edi
  407923:	b8 00 00 00 00              	(move)  	mov	$0,%eax
  407928:	e8 0a 67 00 00              	(control)	call	40e037 <timer_start_>	; ⇄ timer_start
620:	
/home/jgarcia/TFG/source_code/SP/x_solve.f:26
  40792d:	8b 05 e1 81 20 00           	(move)  	mov	0x2081e1(%rip),%eax
  407933:	89 44 24 6c                 	(move)  	mov	%eax,0x6c(%rsp)
  407937:	85 c0                       	(arith) 	test	%eax,%eax
  407939:	0f 8e ef 12 00 00           	(control)	jle	408c2e <x_solve_+0x132a>	; ↲ label 622
623:	
  40793f:	c7 44 24 68 01 00 00 00     	(move)  	movl	$0x1,0x68(%rsp)
/home/jgarcia/TFG/source_code/SP/x_solve.f:5
  407947:	48 bb 20 18 94 01 00 00 00 00	(move)  	mov	$0x1941820,%rbx
  407951:	48 ba 40 a1 1c 88 01 00 00 00	(move)  	mov	$0x1881ca140,%rdx
  40795b:	48 89 54 24 48              	(move)  	mov	%rdx,0x48(%rsp)
; ------- Loop 131 entry
624 (loop 131):	
/home/jgarcia/TFG/source_code/SP/x_solve.f:28
  407960:	8b 05 a6 81 20 00           	(move)  	mov	0x2081a6(%rip),%eax
  407966:	83 c0 01                    	(arith) 	add	$0x1,%eax
  407969:	89 44 24 7c                 	(move)  	mov	%eax,0x7c(%rsp)
  40796d:	be 10 fb 60 00              	(move)  	mov	$0x60fb10,%esi
  407972:	48 8d 7c 24 7c              	(arith) 	lea	0x7c(%rsp),%rdi
  407977:	b8 00 00 00 00              	(move)  	mov	$0,%eax
  40797c:	e8 7f a2 ff ff              	(control)	call	401c00 <lhsinit_>	; ⇄ lhsinit
625:	
/home/jgarcia/TFG/source_code/SP/x_solve.f:37
  407981:	44 8b 3d 88 81 20 00        	(move)  	mov	0x208188(%rip),%r15d
  407988:	45 85 ff                    	(arith) 	test	%r15d,%r15d
  40798b:	0f 8e 89 12 00 00           	(control)	jle	408c1a <x_solve_+0x1316>	; ↲ label 626
627:	
/home/jgarcia/TFG/source_code/SP/x_solve.f:38
  407991:	44 8b 25 68 81 20 00        	(move)  	mov	0x208168(%rip),%r12d
  407998:	41 83 ec 01                 	(arith) 	sub	$0x1,%r12d
/home/jgarcia/TFG/source_code/SP/x_solve.f:39
  40799c:	48 63 4c 24 68              	(move)  	movsxd	0x68(%rsp),%rcx
  4079a1:	48 89 4c 24 40              	(move)  	mov	%rcx,0x40(%rsp)
  4079a6:	48 69 c1 71 8d 02 00        	(arith) 	imul	$0x28d71,%rcx,%rax
  4079ad:	48 89 44 24 20              	(move)  	mov	%rax,0x20(%rsp)
  4079b2:	f2 44 0f 10 2d 4d 80 20 00  	(move)  	movsd	0x20804d(%rip),%xmm13
/home/jgarcia/TFG/source_code/SP/x_solve.f:44
  4079bb:	f2 44 0f 10 25 2c 81 20 00  	(move)  	movsd	0x20812c(%rip),%xmm12
  4079c4:	f2 44 0f 10 1d 83 7c 20 00  	(move)  	movsd	0x207c83(%rip),%xmm11
  4079cd:	f2 44 0f 10 15 2a 80 20 00  	(move)  	movsd	0x20802a(%rip),%xmm10
  4079d6:	f2 44 0f 10 0d 89 7c 20 00  	(move)  	movsd	0x207c89(%rip),%xmm9
  4079df:	f2 44 0f 10 05 f0 7e 20 00  	(move)  	movsd	0x207ef0(%rip),%xmm8
  4079e8:	f2 0f 10 2d 58 7c 20 00     	(move)  	movsd	0x207c58(%rip),%xmm5
/home/jgarcia/TFG/source_code/SP/x_solve.f:47
  4079f0:	44 8b 1d 15 81 20 00        	(move)  	mov	0x208115(%rip),%r11d
/home/jgarcia/TFG/source_code/SP/x_solve.f:49
  4079f7:	f2 0f 10 25 71 80 20 00     	(move)  	movsd	0x208071(%rip),%xmm4
  4079ff:	f2 0f 10 1d 59 80 20 00     	(move)  	movsd	0x208059(%rip),%xmm3
/home/jgarcia/TFG/source_code/SP/x_solve.f:50
  407a07:	f2 0f 10 3d 89 80 20 00     	(move)  	movsd	0x208089(%rip),%xmm7
  407a0f:	41 be 01 00 00 00           	(move)  	mov	$0x1,%r14d
/home/jgarcia/TFG/source_code/SP/x_solve.f:48
  407a15:	48 b9 20 cb 61 00 00 00 00 00	(move)  	mov	$0x61cb20,%rcx
  407a1f:	41 b9 00 00 00 00           	(move)  	mov	$0,%r9d
/home/jgarcia/TFG/source_code/SP/x_solve.f:50
  407a25:	f2 0f 10 35 83 6a 00 00     	(move)  	movsd	0x6a83(%rip),%xmm6
; ------- Loop 153 entry
628 (loop 153):	
/home/jgarcia/TFG/source_code/SP/x_solve.f:38
  407a2d:	45 85 e4                    	(arith) 	test	%r12d,%r12d
  407a30:	0f 88 b9 00 00 00           	(control)	js	407aef <x_solve_+0x1eb>	; ↲ label 629
630:	
/home/jgarcia/TFG/source_code/SP/x_solve.f:39
  407a36:	4d 63 c6                    	(move)  	movsxd	%r14d,%r8
  407a39:	4d 69 c0 99 01 00 00        	(arith) 	imul	$0x199,%r8,%r8
  407a40:	4c 03 44 24 20              	(arith) 	add	0x20(%rsp),%r8
  407a45:	ba 00 00 00 00              	(move)  	mov	$0,%edx
/home/jgarcia/TFG/source_code/SP/x_solve.f:40
  407a4a:	bf 20 fb 60 00              	(move)  	mov	$0x60fb20,%edi
/home/jgarcia/TFG/source_code/SP/x_solve.f:44
  407a4f:	f2 0f 11 6c 24 18           	(move)  	movsd	%xmm5,0x18(%rsp)
  407a55:	4c 8b 54 24 18              	(move)  	mov	0x18(%rsp),%r10
; ------- Loop 155 entry
631 (loop 155):	
/home/jgarcia/TFG/source_code/SP/x_solve.f:39
  407a5a:	48 63 c2                    	(move)  	movsxd	%edx,%rax
  407a5d:	4a 8d 34 00                 	(arith) 	lea	(%rax,%r8,1),%rsi
  407a61:	48 8d ae d8 cc 9c 24        	(arith) 	lea	0x249cccd8(%rsi),%rbp
  407a68:	66 41 0f 28 cd              	(move)  	movapd	%xmm13,%xmm1
  407a6d:	f2 0f 59 0c eb              	(arith) 	mulsd	(%rbx,%rbp,8),%xmm1
/home/jgarcia/TFG/source_code/SP/x_solve.f:40
  407a72:	48 81 c6 78 1c 57 14        	(arith) 	add	$0x14571c78,%rsi
  407a79:	48 8b 34 f3                 	(move)  	mov	(%rbx,%rsi,8),%rsi
  407a7d:	48 89 34 c7                 	(move)  	mov	%rsi,(%rdi,%rax,8)
/home/jgarcia/TFG/source_code/SP/x_solve.f:44
  407a81:	66 41 0f 28 c4              	(move)  	movapd	%xmm12,%xmm0
  407a86:	f2 0f 59 c1                 	(arith) 	mulsd	%xmm1,%xmm0
  407a8a:	f2 41 0f 58 c3              	(arith) 	addsd	%xmm11,%xmm0
  407a8f:	66 41 0f 28 d2              	(move)  	movapd	%xmm10,%xmm2
  407a94:	f2 0f 59 d1                 	(arith) 	mulsd	%xmm1,%xmm2
  407a98:	f2 41 0f 58 d1              	(arith) 	addsd	%xmm9,%xmm2
  407a9d:	66 0f 2e d0                 	(arith) 	ucomisd	%xmm0,%xmm2
  407aa1:	77 06                       	(control)	ja	407aa9 <x_solve_+0x1a5>	; ↲ label 632
633:	
  407aa3:	66 0f 2e c0                 	(arith) 	ucomisd	%xmm0,%xmm0
  407aa7:	7b 04                       	(control)	jnp	407aad <x_solve_+0x1a9>	; ↲ label 634
632:	
  407aa9:	66 0f 28 c2                 	(move)  	movapd	%xmm2,%xmm0
634:	
  407aad:	f2 41 0f 58 c8              	(arith) 	addsd	%xmm8,%xmm1
  407ab2:	66 0f 2e c8                 	(arith) 	ucomisd	%xmm0,%xmm1
  407ab6:	77 06                       	(control)	ja	407abe <x_solve_+0x1ba>	; ↲ label 635
636:	
  407ab8:	66 0f 2e c0                 	(arith) 	ucomisd	%xmm0,%xmm0
  407abc:	7b 04                       	(control)	jnp	407ac2 <x_solve_+0x1be>	; ↲ label 637
635:	
  407abe:	66 0f 28 c1                 	(move)  	movapd	%xmm1,%xmm0
637:	
  407ac2:	66 0f 2e e8                 	(arith) 	ucomisd	%xmm0,%xmm5
  407ac6:	77 06                       	(control)	ja	407ace <x_solve_+0x1ca>	; ↲ label 638
639:	
  407ac8:	66 0f 2e c0                 	(arith) 	ucomisd	%xmm0,%xmm0
  407acc:	7b 0b                       	(control)	jnp	407ad9 <x_solve_+0x1d5>	; ↲ label 640
638:	
  407ace:	4c 89 54 24 18              	(move)  	mov	%r10,0x18(%rsp)
  407ad3:	f2 0f 10 44 24 18           	(move)  	movsd	0x18(%rsp),%xmm0
640:	
  407ad9:	f2 0f 11 84 c7 c0 0c 00 00  	(move)  	movsd	%xmm0,0xcc0(%rdi,%rax,8)
/home/jgarcia/TFG/source_code/SP/x_solve.f:38
  407ae2:	44 39 e2                    	(arith) 	cmp	%r12d,%edx
  407ae5:	74 08                       	(control)	je	407aef <x_solve_+0x1eb>	; ↲ label 629
641:	
  407ae7:	83 c2 01                    	(arith) 	add	$0x1,%edx
  407aea:	e9 6b ff ff ff              	(control)	jmp	407a5a <x_solve_+0x156>	; ↰ label 631 (loop 155)
; ------- Loop 155 exit
629:	
/home/jgarcia/TFG/source_code/SP/x_solve.f:47
  407aef:	45 85 db                    	(arith) 	test	%r11d,%r11d
  407af2:	0f 8e b6 00 00 00           	(control)	jle	407bae <x_solve_+0x2aa>	; ↲ label 642
643:	
/home/jgarcia/TFG/source_code/SP/x_solve.f:48
  407af8:	49 63 c6                    	(move)  	movsxd	%r14d,%rax
  407afb:	48 89 c2                    	(move)  	mov	%rax,%rdx
  407afe:	48 c1 e2 09                 	(logic) 	sal	$0x9,%rdx
  407b02:	48 29 c2                    	(arith) 	sub	%rax,%rdx
  407b05:	4c 8d 14 90                 	(arith) 	lea	(%rax,%rdx,4),%r10
/home/jgarcia/TFG/source_code/SP/x_solve.f:52
  407b09:	4d 8d 6a ff                 	(arith) 	lea	-0x1(%r10),%r13
  407b0d:	bd 00 00 00 00              	(move)  	mov	$0,%ebp
  407b12:	bf 01 00 00 00              	(move)  	mov	$0x1,%edi
/home/jgarcia/TFG/source_code/SP/x_solve.f:49
  407b17:	ba 20 fb 60 00              	(move)  	mov	$0x60fb20,%edx
; ------- Loop 154 entry
644 (loop 154):	
/home/jgarcia/TFG/source_code/SP/x_solve.f:48
  407b1c:	48 63 c7                    	(move)  	movsxd	%edi,%rax
  407b1f:	48 8d 34 80                 	(arith) 	lea	(%rax,%rax,4),%rsi
  407b23:	4c 01 d6                    	(arith) 	add	%r10,%rsi
  407b26:	4c 89 0c f1                 	(move)  	mov	%r9,(%rcx,%rsi,8)
/home/jgarcia/TFG/source_code/SP/x_solve.f:49
  407b2a:	4c 63 c5                    	(move)  	movsxd	%ebp,%r8
  407b2d:	66 0f 28 c4                 	(move)  	movapd	%xmm4,%xmm0
  407b31:	f2 42 0f 59 04 c2           	(arith) 	mulsd	(%rdx,%r8,8),%xmm0
  407b37:	66 0f 57 05 a1 69 00 00     	(logic) 	xorpd	0x69a1(%rip),%xmm0
  407b3f:	66 0f 28 cb                 	(move)  	movapd	%xmm3,%xmm1
  407b43:	f2 42 0f 59 8c c2 c0 0c 00 00	(arith) 	mulsd	0xcc0(%rdx,%r8,8),%xmm1
  407b4d:	f2 0f 5c c1                 	(arith) 	subsd	%xmm1,%xmm0
  407b51:	f2 0f 11 44 f1 08           	(move)  	movsd	%xmm0,0x8(%rcx,%rsi,8)
/home/jgarcia/TFG/source_code/SP/x_solve.f:50
  407b57:	66 0f 28 c7                 	(move)  	movapd	%xmm7,%xmm0
  407b5b:	f2 0f 59 84 c2 c0 0c 00 00  	(arith) 	mulsd	0xcc0(%rdx,%rax,8),%xmm0
  407b64:	f2 0f 58 c6                 	(arith) 	addsd	%xmm6,%xmm0
  407b68:	f2 0f 11 44 f1 10           	(move)  	movsd	%xmm0,0x10(%rcx,%rsi,8)
/home/jgarcia/TFG/source_code/SP/x_solve.f:51
  407b6e:	83 c7 01                    	(arith) 	add	$0x1,%edi
  407b71:	4c 63 c7                    	(move)  	movsxd	%edi,%r8
  407b74:	66 0f 28 c4                 	(move)  	movapd	%xmm4,%xmm0
  407b78:	f2 42 0f 59 04 c2           	(arith) 	mulsd	(%rdx,%r8,8),%xmm0
  407b7e:	66 0f 28 cb                 	(move)  	movapd	%xmm3,%xmm1
  407b82:	f2 42 0f 59 8c c2 c0 0c 00 00	(arith) 	mulsd	0xcc0(%rdx,%r8,8),%xmm1
  407b8c:	f2 0f 5c c1                 	(arith) 	subsd	%xmm1,%xmm0
  407b90:	f2 0f 11 44 f1 18           	(move)  	movsd	%xmm0,0x18(%rcx,%rsi,8)
/home/jgarcia/TFG/source_code/SP/x_solve.f:52
  407b96:	48 8d 44 80 05              	(arith) 	lea	0x5(%rax,%rax,4),%rax
  407b9b:	4c 01 e8                    	(arith) 	add	%r13,%rax
  407b9e:	4c 89 0c c1                 	(move)  	mov	%r9,(%rcx,%rax,8)
  407ba2:	83 c5 01                    	(arith) 	add	$0x1,%ebp
/home/jgarcia/TFG/source_code/SP/x_solve.f:47
  407ba5:	44 39 dd                    	(arith) 	cmp	%r11d,%ebp
  407ba8:	0f 85 6e ff ff ff           	(control)	jne	407b1c <x_solve_+0x218>	; ↰ label 644 (loop 154)
; ------- Loop 154 exit
642:	
/home/jgarcia/TFG/source_code/SP/x_solve.f:37
  407bae:	45 39 fe                    	(arith) 	cmp	%r15d,%r14d
  407bb1:	74 09                       	(control)	je	407bbc <x_solve_+0x2b8>	; ↲ label 645
646:	
  407bb3:	41 83 c6 01                 	(arith) 	add	$0x1,%r14d
  407bb7:	e9 71 fe ff ff              	(control)	jmp	407a2d <x_solve_+0x129>	; ↰ label 628 (loop 153)
; ------- Loop 153 exit
645:	
/home/jgarcia/TFG/source_code/SP/x_solve.f:60
  407bbc:	8b 3d 4e 7f 20 00           	(move)  	mov	0x207f4e(%rip),%edi
  407bc2:	85 ff                       	(arith) 	test	%edi,%edi
  407bc4:	0f 8e 50 10 00 00           	(control)	jle	408c1a <x_solve_+0x1316>	; ↲ label 626
647:	
/home/jgarcia/TFG/source_code/SP/x_solve.f:62
  407bca:	f2 0f 10 25 ee 7e 20 00     	(move)  	movsd	0x207eee(%rip),%xmm4
/home/jgarcia/TFG/source_code/SP/x_solve.f:63
  407bd2:	f2 0f 10 05 de 7e 20 00     	(move)  	movsd	0x207ede(%rip),%xmm0
/home/jgarcia/TFG/source_code/SP/x_solve.f:64
  407bda:	f2 0f 10 0d ce 7e 20 00     	(move)  	movsd	0x207ece(%rip),%xmm1
/home/jgarcia/TFG/source_code/SP/x_solve.f:67
  407be2:	f2 0f 10 1d de 7e 20 00     	(move)  	movsd	0x207ede(%rip),%xmm3
  407bea:	b9 00 00 00 00              	(move)  	mov	$0,%ecx
/home/jgarcia/TFG/source_code/SP/x_solve.f:62
  407bef:	48 b8 20 cb 61 00 00 00 00 00	(move)  	mov	$0x61cb20,%rax
; ------- Loop 132 entry
648 (loop 132):	
/home/jgarcia/TFG/source_code/SP/x_solve.f:5
  407bf9:	83 c1 01                    	(arith) 	add	$0x1,%ecx
/home/jgarcia/TFG/source_code/SP/x_solve.f:62
  407bfc:	48 63 d1                    	(move)  	movsxd	%ecx,%rdx
  407bff:	48 89 d6                    	(move)  	mov	%rdx,%rsi
  407c02:	48 c1 e6 09                 	(logic) 	sal	$0x9,%rsi
  407c06:	48 29 d6                    	(arith) 	sub	%rdx,%rsi
  407c09:	48 8d 14 b2                 	(arith) 	lea	(%rdx,%rsi,4),%rdx
  407c0d:	48 8d 72 07                 	(arith) 	lea	0x7(%rdx),%rsi
  407c11:	f2 0f 10 14 f0              	(move)  	movsd	(%rax,%rsi,8),%xmm2
  407c16:	f2 0f 58 d4                 	(arith) 	addsd	%xmm4,%xmm2
  407c1a:	f2 0f 11 14 f0              	(move)  	movsd	%xmm2,(%rax,%rsi,8)
/home/jgarcia/TFG/source_code/SP/x_solve.f:63
  407c1f:	48 8d 72 08                 	(arith) 	lea	0x8(%rdx),%rsi
  407c23:	f2 0f 10 14 f0              	(move)  	movsd	(%rax,%rsi,8),%xmm2
  407c28:	f2 0f 5c d0                 	(arith) 	subsd	%xmm0,%xmm2
  407c2c:	f2 0f 11 14 f0              	(move)  	movsd	%xmm2,(%rax,%rsi,8)
/home/jgarcia/TFG/source_code/SP/x_solve.f:64
  407c31:	48 8d 72 09                 	(arith) 	lea	0x9(%rdx),%rsi
  407c35:	f2 0f 10 14 f0              	(move)  	movsd	(%rax,%rsi,8),%xmm2
  407c3a:	f2 0f 58 d1                 	(arith) 	addsd	%xmm1,%xmm2
  407c3e:	f2 0f 11 14 f0              	(move)  	movsd	%xmm2,(%rax,%rsi,8)
/home/jgarcia/TFG/source_code/SP/x_solve.f:66
  407c43:	48 8d 72 0b                 	(arith) 	lea	0xb(%rdx),%rsi
  407c47:	f2 0f 10 14 f0              	(move)  	movsd	(%rax,%rsi,8),%xmm2
  407c4c:	f2 0f 5c d0                 	(arith) 	subsd	%xmm0,%xmm2
  407c50:	f2 0f 11 14 f0              	(move)  	movsd	%xmm2,(%rax,%rsi,8)
/home/jgarcia/TFG/source_code/SP/x_solve.f:67
  407c55:	48 8d 72 0c                 	(arith) 	lea	0xc(%rdx),%rsi
  407c59:	f2 0f 10 14 f0              	(move)  	movsd	(%rax,%rsi,8),%xmm2
  407c5e:	f2 0f 58 d3                 	(arith) 	addsd	%xmm3,%xmm2
  407c62:	f2 0f 11 14 f0              	(move)  	movsd	%xmm2,(%rax,%rsi,8)
/home/jgarcia/TFG/source_code/SP/x_solve.f:68
  407c67:	48 8d 72 0d                 	(arith) 	lea	0xd(%rdx),%rsi
  407c6b:	f2 0f 10 14 f0              	(move)  	movsd	(%rax,%rsi,8),%xmm2
  407c70:	f2 0f 5c d0                 	(arith) 	subsd	%xmm0,%xmm2
  407c74:	f2 0f 11 14 f0              	(move)  	movsd	%xmm2,(%rax,%rsi,8)
/home/jgarcia/TFG/source_code/SP/x_solve.f:69
  407c79:	48 83 c2 0e                 	(arith) 	add	$0xe,%rdx
  407c7d:	66 0f 28 d1                 	(move)  	movapd	%xmm1,%xmm2
  407c81:	f2 0f 58 14 d0              	(arith) 	addsd	(%rax,%rdx,8),%xmm2
  407c86:	f2 0f 11 14 d0              	(move)  	movsd	%xmm2,(%rax,%rdx,8)
/home/jgarcia/TFG/source_code/SP/x_solve.f:60
  407c8b:	39 cf                       	(arith) 	cmp	%ecx,%edi
  407c8d:	0f 85 66 ff ff ff           	(control)	jne	407bf9 <x_solve_+0x2f5>	; ↰ label 648 (loop 132)
; ------- Loop 132 exit
649:	
/home/jgarcia/TFG/source_code/SP/x_solve.f:72
  407c93:	44 8b 1d 76 7e 20 00        	(move)  	mov	0x207e76(%rip),%r11d
  407c9a:	45 85 db                    	(arith) 	test	%r11d,%r11d
  407c9d:	0f 8e 77 0f 00 00           	(control)	jle	408c1a <x_solve_+0x1316>	; ↲ label 626
650:	
/home/jgarcia/TFG/source_code/SP/x_solve.f:73
  407ca3:	8b 2d 57 7e 20 00           	(move)  	mov	0x207e57(%rip),%ebp
  407ca9:	83 ed 04                    	(arith) 	sub	$0x4,%ebp
/home/jgarcia/TFG/source_code/SP/x_solve.f:74
  407cac:	f2 0f 10 0d fc 7d 20 00     	(move)  	movsd	0x207dfc(%rip),%xmm1
/home/jgarcia/TFG/source_code/SP/x_solve.f:75
  407cb4:	f2 0f 10 05 fc 7d 20 00     	(move)  	movsd	0x207dfc(%rip),%xmm0
/home/jgarcia/TFG/source_code/SP/x_solve.f:76
  407cbc:	f2 0f 10 1d 04 7e 20 00     	(move)  	movsd	0x207e04(%rip),%xmm3
  407cc4:	41 ba 01 00 00 00           	(move)  	mov	$0x1,%r10d
/home/jgarcia/TFG/source_code/SP/x_solve.f:78
  407cca:	41 bc 03 00 00 00           	(move)  	mov	$0x3,%r12d
/home/jgarcia/TFG/source_code/SP/x_solve.f:74
  407cd0:	48 b8 20 cb 61 00 00 00 00 00	(move)  	mov	$0x61cb20,%rax
; ------- Loop 151 entry
651 (loop 151):	
/home/jgarcia/TFG/source_code/SP/x_solve.f:73
  407cda:	83 fd 02                    	(arith) 	cmp	$0x2,%ebp
  407cdd:	0f 8e 86 00 00 00           	(control)	jle	407d69 <x_solve_+0x465>	; ↲ label 652
653:	
/home/jgarcia/TFG/source_code/SP/x_solve.f:74
  407ce3:	49 63 d2                    	(move)  	movsxd	%r10d,%rdx
  407ce6:	48 89 d1                    	(move)  	mov	%rdx,%rcx
  407ce9:	48 c1 e1 09                 	(logic) 	sal	$0x9,%rcx
  407ced:	48 29 d1                    	(arith) 	sub	%rdx,%rcx
  407cf0:	4c 8d 04 8a                 	(arith) 	lea	(%rdx,%rcx,4),%r8
/home/jgarcia/TFG/source_code/SP/x_solve.f:78
  407cf4:	4d 8d 48 ff                 	(arith) 	lea	-0x1(%r8),%r9
  407cf8:	44 89 e6                    	(move)  	mov	%r12d,%esi
; ------- Loop 152 entry
654 (loop 152):	
/home/jgarcia/TFG/source_code/SP/x_solve.f:74
  407cfb:	48 63 ce                    	(move)  	movsxd	%esi,%rcx
  407cfe:	48 8d 14 89                 	(arith) 	lea	(%rcx,%rcx,4),%rdx
  407d02:	4c 01 c2                    	(arith) 	add	%r8,%rdx
  407d05:	f2 0f 10 14 d0              	(move)  	movsd	(%rax,%rdx,8),%xmm2
  407d0a:	f2 0f 58 d1                 	(arith) 	addsd	%xmm1,%xmm2
  407d0e:	f2 0f 11 14 d0              	(move)  	movsd	%xmm2,(%rax,%rdx,8)
/home/jgarcia/TFG/source_code/SP/x_solve.f:75
  407d13:	48 8d 7a 01                 	(arith) 	lea	0x1(%rdx),%rdi
  407d17:	f2 0f 10 14 f8              	(move)  	movsd	(%rax,%rdi,8),%xmm2
  407d1c:	f2 0f 5c d0                 	(arith) 	subsd	%xmm0,%xmm2
  407d20:	f2 0f 11 14 f8              	(move)  	movsd	%xmm2,(%rax,%rdi,8)
/home/jgarcia/TFG/source_code/SP/x_solve.f:76
  407d25:	48 8d 7a 02                 	(arith) 	lea	0x2(%rdx),%rdi
  407d29:	f2 0f 10 14 f8              	(move)  	movsd	(%rax,%rdi,8),%xmm2
  407d2e:	f2 0f 58 d3                 	(arith) 	addsd	%xmm3,%xmm2
  407d32:	f2 0f 11 14 f8              	(move)  	movsd	%xmm2,(%rax,%rdi,8)
/home/jgarcia/TFG/source_code/SP/x_solve.f:77
  407d37:	48 83 c2 03                 	(arith) 	add	$0x3,%rdx
  407d3b:	f2 0f 10 14 d0              	(move)  	movsd	(%rax,%rdx,8),%xmm2
  407d40:	f2 0f 5c d0                 	(arith) 	subsd	%xmm0,%xmm2
  407d44:	f2 0f 11 14 d0              	(move)  	movsd	%xmm2,(%rax,%rdx,8)
/home/jgarcia/TFG/source_code/SP/x_solve.f:78
  407d49:	48 8d 54 89 05              	(arith) 	lea	0x5(%rcx,%rcx,4),%rdx
  407d4e:	4c 01 ca                    	(arith) 	add	%r9,%rdx
  407d51:	66 0f 28 d1                 	(move)  	movapd	%xmm1,%xmm2
  407d55:	f2 0f 58 14 d0              	(arith) 	addsd	(%rax,%rdx,8),%xmm2
  407d5a:	f2 0f 11 14 d0              	(move)  	movsd	%xmm2,(%rax,%rdx,8)
/home/jgarcia/TFG/source_code/SP/x_solve.f:73
  407d5f:	83 c6 01                    	(arith) 	add	$0x1,%esi
/home/jgarcia/TFG/source_code/SP/x_solve.f:5
  407d62:	8d 56 ff                    	(arith) 	lea	-0x1(%rsi),%edx
/home/jgarcia/TFG/source_code/SP/x_solve.f:73
  407d65:	39 ea                       	(arith) 	cmp	%ebp,%edx
  407d67:	75 92                       	(control)	jne	407cfb <x_solve_+0x3f7>	; ↰ label 654 (loop 152)
; ------- Loop 152 exit
652:	
/home/jgarcia/TFG/source_code/SP/x_solve.f:72
  407d69:	45 39 da                    	(arith) 	cmp	%r11d,%r10d
  407d6c:	74 09                       	(control)	je	407d77 <x_solve_+0x473>	; ↲ label 655
656:	
  407d6e:	41 83 c2 01                 	(arith) 	add	$0x1,%r10d
  407d72:	e9 63 ff ff ff              	(control)	jmp	407cda <x_solve_+0x3d6>	; ↰ label 651 (loop 151)
; ------- Loop 151 exit
655:	
/home/jgarcia/TFG/source_code/SP/x_solve.f:83
  407d77:	8b 35 93 7d 20 00           	(move)  	mov	0x207d93(%rip),%esi
  407d7d:	85 f6                       	(arith) 	test	%esi,%esi
  407d7f:	0f 8e 95 0e 00 00           	(control)	jle	408c1a <x_solve_+0x1316>	; ↲ label 626
657:	
/home/jgarcia/TFG/source_code/SP/x_solve.f:85
  407d85:	8b 05 75 7d 20 00           	(move)  	mov	0x207d75(%rip),%eax
  407d8b:	83 e8 03                    	(arith) 	sub	$0x3,%eax
  407d8e:	48 98                       	(conv)  	cltq
  407d90:	48 8d 2c 80                 	(arith) 	lea	(%rax,%rax,4),%rbp
  407d94:	f2 0f 10 0d 14 7d 20 00     	(move)  	movsd	0x207d14(%rip),%xmm1
/home/jgarcia/TFG/source_code/SP/x_solve.f:86
  407d9c:	f2 0f 10 05 14 7d 20 00     	(move)  	movsd	0x207d14(%rip),%xmm0
/home/jgarcia/TFG/source_code/SP/x_solve.f:87
  407da4:	f2 0f 10 25 1c 7d 20 00     	(move)  	movsd	0x207d1c(%rip),%xmm4
/home/jgarcia/TFG/source_code/SP/x_solve.f:90
  407dac:	48 8d 7c 80 05              	(arith) 	lea	0x5(%rax,%rax,4),%rdi
/home/jgarcia/TFG/source_code/SP/x_solve.f:92
  407db1:	f2 0f 10 1d 07 7d 20 00     	(move)  	movsd	0x207d07(%rip),%xmm3
  407db9:	b9 00 00 00 00              	(move)  	mov	$0,%ecx
/home/jgarcia/TFG/source_code/SP/x_solve.f:85
  407dbe:	48 b8 20 cb 61 00 00 00 00 00	(move)  	mov	$0x61cb20,%rax
; ------- Loop 133 entry
658 (loop 133):	
/home/jgarcia/TFG/source_code/SP/x_solve.f:5
  407dc8:	83 c1 01                    	(arith) 	add	$0x1,%ecx
/home/jgarcia/TFG/source_code/SP/x_solve.f:85
  407dcb:	48 63 d1                    	(move)  	movsxd	%ecx,%rdx
  407dce:	49 89 d0                    	(move)  	mov	%rdx,%r8
  407dd1:	49 c1 e0 09                 	(logic) 	sal	$0x9,%r8
  407dd5:	49 29 d0                    	(arith) 	sub	%rdx,%r8
  407dd8:	4e 8d 04 82                 	(arith) 	lea	(%rdx,%r8,4),%r8
  407ddc:	49 8d 14 28                 	(arith) 	lea	(%r8,%rbp,1),%rdx
  407de0:	f2 0f 10 14 d0              	(move)  	movsd	(%rax,%rdx,8),%xmm2
  407de5:	f2 0f 58 d1                 	(arith) 	addsd	%xmm1,%xmm2
  407de9:	f2 0f 11 14 d0              	(move)  	movsd	%xmm2,(%rax,%rdx,8)
/home/jgarcia/TFG/source_code/SP/x_solve.f:86
  407dee:	4c 8d 4a 01                 	(arith) 	lea	0x1(%rdx),%r9
  407df2:	f2 42 0f 10 14 c8           	(move)  	movsd	(%rax,%r9,8),%xmm2
  407df8:	f2 0f 5c d0                 	(arith) 	subsd	%xmm0,%xmm2
  407dfc:	f2 42 0f 11 14 c8           	(move)  	movsd	%xmm2,(%rax,%r9,8)
/home/jgarcia/TFG/source_code/SP/x_solve.f:87
  407e02:	4c 8d 4a 02                 	(arith) 	lea	0x2(%rdx),%r9
  407e06:	f2 42 0f 10 14 c8           	(move)  	movsd	(%rax,%r9,8),%xmm2
  407e0c:	f2 0f 58 d4                 	(arith) 	addsd	%xmm4,%xmm2
  407e10:	f2 42 0f 11 14 c8           	(move)  	movsd	%xmm2,(%rax,%r9,8)
/home/jgarcia/TFG/source_code/SP/x_solve.f:88
  407e16:	48 83 c2 03                 	(arith) 	add	$0x3,%rdx
  407e1a:	f2 0f 10 14 d0              	(move)  	movsd	(%rax,%rdx,8),%xmm2
  407e1f:	f2 0f 5c d0                 	(arith) 	subsd	%xmm0,%xmm2
  407e23:	f2 0f 11 14 d0              	(move)  	movsd	%xmm2,(%rax,%rdx,8)
/home/jgarcia/TFG/source_code/SP/x_solve.f:90
  407e28:	49 8d 14 38                 	(arith) 	lea	(%r8,%rdi,1),%rdx
  407e2c:	66 0f 28 d1                 	(move)  	movapd	%xmm1,%xmm2
  407e30:	f2 0f 58 14 d0              	(arith) 	addsd	(%rax,%rdx,8),%xmm2
  407e35:	f2 0f 11 14 d0              	(move)  	movsd	%xmm2,(%rax,%rdx,8)
/home/jgarcia/TFG/source_code/SP/x_solve.f:91
  407e3a:	4c 8d 42 01                 	(arith) 	lea	0x1(%rdx),%r8
  407e3e:	f2 42 0f 10 14 c0           	(move)  	movsd	(%rax,%r8,8),%xmm2
  407e44:	f2 0f 5c d0                 	(arith) 	subsd	%xmm0,%xmm2
  407e48:	f2 42 0f 11 14 c0           	(move)  	movsd	%xmm2,(%rax,%r8,8)
/home/jgarcia/TFG/source_code/SP/x_solve.f:92
  407e4e:	48 83 c2 02                 	(arith) 	add	$0x2,%rdx
  407e52:	f2 0f 10 14 d0              	(move)  	movsd	(%rax,%rdx,8),%xmm2
  407e57:	f2 0f 58 d3                 	(arith) 	addsd	%xmm3,%xmm2
  407e5b:	f2 0f 11 14 d0              	(move)  	movsd	%xmm2,(%rax,%rdx,8)
/home/jgarcia/TFG/source_code/SP/x_solve.f:83
  407e60:	39 ce                       	(arith) 	cmp	%ecx,%esi
  407e62:	0f 85 60 ff ff ff           	(control)	jne	407dc8 <x_solve_+0x4c4>	; ↰ label 658 (loop 133)
; ------- Loop 133 exit
659:	
/home/jgarcia/TFG/source_code/SP/x_solve.f:99
  407e68:	8b 05 a2 7c 20 00           	(move)  	mov	0x207ca2(%rip),%eax
  407e6e:	89 44 24 28                 	(move)  	mov	%eax,0x28(%rsp)
  407e72:	85 c0                       	(arith) 	test	%eax,%eax
  407e74:	0f 8e a0 0d 00 00           	(control)	jle	408c1a <x_solve_+0x1316>	; ↲ label 626
660:	
/home/jgarcia/TFG/source_code/SP/x_solve.f:100
  407e7a:	44 8b 25 8b 7c 20 00        	(move)  	mov	0x207c8b(%rip),%r12d
/home/jgarcia/TFG/source_code/SP/x_solve.f:103
  407e81:	f2 0f 10 15 e7 7b 20 00     	(move)  	movsd	0x207be7(%rip),%xmm2
  407e89:	41 be 01 00 00 00           	(move)  	mov	$0x1,%r14d
/home/jgarcia/TFG/source_code/SP/x_solve.f:101
  407e8f:	48 b8 20 cb 61 00 00 00 00 00	(move)  	mov	$0x61cb20,%rax
; ------- Loop 149 entry
661 (loop 149):	
/home/jgarcia/TFG/source_code/SP/x_solve.f:100
  407e99:	45 85 e4                    	(arith) 	test	%r12d,%r12d
  407e9c:	0f 8e 0f 01 00 00           	(control)	jle	407fb1 <x_solve_+0x6ad>	; ↲ label 662
663:	
/home/jgarcia/TFG/source_code/SP/x_solve.f:101
  407ea2:	4d 63 d6                    	(move)  	movsxd	%r14d,%r10
  407ea5:	4c 89 d2                    	(move)  	mov	%r10,%rdx
  407ea8:	48 c1 e2 09                 	(logic) 	sal	$0x9,%rdx
  407eac:	4c 29 d2                    	(arith) 	sub	%r10,%rdx
  407eaf:	4d 8d 1c 92                 	(arith) 	lea	(%r10,%rdx,4),%r11
/home/jgarcia/TFG/source_code/SP/x_solve.f:103
  407eb3:	4d 69 d2 99 01 00 00        	(arith) 	imul	$0x199,%r10,%r10
  407eba:	4c 03 54 24 20              	(arith) 	add	0x20(%rsp),%r10
/home/jgarcia/TFG/source_code/SP/x_solve.f:107
  407ebf:	4d 8d 6b ff                 	(arith) 	lea	-0x1(%r11),%r13
  407ec3:	bf 00 00 00 00              	(move)  	mov	$0,%edi
  407ec8:	be 01 00 00 00              	(move)  	mov	$0x1,%esi
; ------- Loop 150 entry
664 (loop 150):	
/home/jgarcia/TFG/source_code/SP/x_solve.f:101
  407ecd:	48 63 ce                    	(move)  	movsxd	%esi,%rcx
  407ed0:	48 8d 14 89                 	(arith) 	lea	(%rcx,%rcx,4),%rdx
  407ed4:	4c 01 da                    	(arith) 	add	%r11,%rdx
  407ed7:	48 8b 2c d0                 	(move)  	mov	(%rax,%rdx,8),%rbp
  407edb:	48 89 ac d0 a8 19 66 00     	(move)  	mov	%rbp,0x6619a8(%rax,%rdx,8)
/home/jgarcia/TFG/source_code/SP/x_solve.f:103
  407ee3:	4c 8d 4a 01                 	(arith) 	lea	0x1(%rdx),%r9
  407ee7:	48 63 ef                    	(move)  	movsxd	%edi,%rbp
  407eea:	49 8d ac 2a f0 38 ae 28     	(arith) 	lea	0x28ae38f0(%r10,%rbp,1),%rbp
  407ef2:	66 0f 28 ca                 	(move)  	movapd	%xmm2,%xmm1
  407ef6:	f2 0f 59 0c eb              	(arith) 	mulsd	(%rbx,%rbp,8),%xmm1
  407efb:	f2 42 0f 10 04 c8           	(move)  	movsd	(%rax,%r9,8),%xmm0
  407f01:	f2 0f 5c c1                 	(arith) 	subsd	%xmm1,%xmm0
  407f05:	f2 0f 11 84 d0 b0 19 66 00  	(move)  	movsd	%xmm0,0x6619b0(%rax,%rdx,8)
/home/jgarcia/TFG/source_code/SP/x_solve.f:104
  407f0e:	4c 8d 42 02                 	(arith) 	lea	0x2(%rdx),%r8
  407f12:	4a 8b 2c c0                 	(move)  	mov	(%rax,%r8,8),%rbp
  407f16:	48 89 ac d0 b8 19 66 00     	(move)  	mov	%rbp,0x6619b8(%rax,%rdx,8)
/home/jgarcia/TFG/source_code/SP/x_solve.f:106
  407f1e:	48 8d 6a 03                 	(arith) 	lea	0x3(%rdx),%rbp
  407f22:	83 c6 01                    	(arith) 	add	$0x1,%esi
  407f25:	4c 63 fe                    	(move)  	movsxd	%esi,%r15
  407f28:	4f 8d bc 3a f0 38 ae 28     	(arith) 	lea	0x28ae38f0(%r10,%r15,1),%r15
  407f30:	66 0f 28 c2                 	(move)  	movapd	%xmm2,%xmm0
  407f34:	f2 42 0f 59 04 fb           	(arith) 	mulsd	(%rbx,%r15,8),%xmm0
  407f3a:	f2 0f 10 1c e8              	(move)  	movsd	(%rax,%rbp,8),%xmm3
  407f3f:	f2 0f 58 d8                 	(arith) 	addsd	%xmm0,%xmm3
  407f43:	f2 0f 11 9c d0 c0 19 66 00  	(move)  	movsd	%xmm3,0x6619c0(%rax,%rdx,8)
/home/jgarcia/TFG/source_code/SP/x_solve.f:107
  407f4c:	48 8d 4c 89 05              	(arith) 	lea	0x5(%rcx,%rcx,4),%rcx
  407f51:	4c 01 e9                    	(arith) 	add	%r13,%rcx
  407f54:	4c 8b 3c c8                 	(move)  	mov	(%rax,%rcx,8),%r15
  407f58:	4c 89 bc c8 a8 19 66 00     	(move)  	mov	%r15,0x6619a8(%rax,%rcx,8)
/home/jgarcia/TFG/source_code/SP/x_solve.f:108
  407f60:	4c 8b 3c d0                 	(move)  	mov	(%rax,%rdx,8),%r15
  407f64:	4c 89 bc d0 50 33 cc 00     	(move)  	mov	%r15,0xcc3350(%rax,%rdx,8)
/home/jgarcia/TFG/source_code/SP/x_solve.f:110
  407f6c:	f2 42 0f 58 0c c8           	(arith) 	addsd	(%rax,%r9,8),%xmm1
  407f72:	f2 0f 11 8c d0 58 33 cc 00  	(move)  	movsd	%xmm1,0xcc3358(%rax,%rdx,8)
/home/jgarcia/TFG/source_code/SP/x_solve.f:111
  407f7b:	4e 8b 04 c0                 	(move)  	mov	(%rax,%r8,8),%r8
  407f7f:	4c 89 84 d0 60 33 cc 00     	(move)  	mov	%r8,0xcc3360(%rax,%rdx,8)
/home/jgarcia/TFG/source_code/SP/x_solve.f:113
  407f87:	f2 0f 10 0c e8              	(move)  	movsd	(%rax,%rbp,8),%xmm1
  407f8c:	f2 0f 5c c8                 	(arith) 	subsd	%xmm0,%xmm1
  407f90:	f2 0f 11 8c d0 68 33 cc 00  	(move)  	movsd	%xmm1,0xcc3368(%rax,%rdx,8)
/home/jgarcia/TFG/source_code/SP/x_solve.f:114
  407f99:	48 8b 14 c8                 	(move)  	mov	(%rax,%rcx,8),%rdx
  407f9d:	48 89 94 c8 50 33 cc 00     	(move)  	mov	%rdx,0xcc3350(%rax,%rcx,8)
  407fa5:	83 c7 01                    	(arith) 	add	$0x1,%edi
/home/jgarcia/TFG/source_code/SP/x_solve.f:100
  407fa8:	44 39 e7                    	(arith) 	cmp	%r12d,%edi
  407fab:	0f 85 1c ff ff ff           	(control)	jne	407ecd <x_solve_+0x5c9>	; ↰ label 664 (loop 150)
; ------- Loop 150 exit
662:	
/home/jgarcia/TFG/source_code/SP/x_solve.f:99
  407fb1:	44 3b 74 24 28              	(arith) 	cmp	0x28(%rsp),%r14d
  407fb6:	74 09                       	(control)	je	407fc1 <x_solve_+0x6bd>	; ↲ label 665
666:	
  407fb8:	41 83 c6 01                 	(arith) 	add	$0x1,%r14d
  407fbc:	e9 d8 fe ff ff              	(control)	jmp	407e99 <x_solve_+0x595>	; ↰ label 661 (loop 149)
; ------- Loop 149 exit
665:	
/home/jgarcia/TFG/source_code/SP/x_solve.f:126
  407fc1:	8b 15 49 7b 20 00           	(move)  	mov	0x207b49(%rip),%edx
  407fc7:	89 54 24 30                 	(move)  	mov	%edx,0x30(%rsp)
  407fcb:	85 d2                       	(arith) 	test	%edx,%edx
  407fcd:	0f 8e 47 0c 00 00           	(control)	jle	408c1a <x_solve_+0x1316>	; ↲ label 626
667:	
/home/jgarcia/TFG/source_code/SP/x_solve.f:127
  407fd3:	44 8b 1d 26 7b 20 00        	(move)  	mov	0x207b26(%rip),%r11d
  407fda:	41 83 eb 03                 	(arith) 	sub	$0x3,%r11d
/home/jgarcia/TFG/source_code/SP/x_solve.f:134
  407fde:	4c 69 64 24 40 35 c3 0c 00  	(arith) 	imul	$0xcc335,0x40(%rsp),%r12
  407fe7:	49 8d 4c 24 ff              	(arith) 	lea	-0x1(%r12),%rcx
  407fec:	48 89 4c 24 40              	(move)  	mov	%rcx,0x40(%rsp)
  407ff1:	c7 44 24 28 01 00 00 00     	(move)  	movl	$0x1,0x28(%rsp)
/home/jgarcia/TFG/source_code/SP/x_solve.f:130
  407ff9:	48 b8 20 cb 61 00 00 00 00 00	(move)  	mov	$0x61cb20,%rax
  408003:	f2 0f 10 1d a5 64 00 00     	(move)  	movsd	0x64a5(%rip),%xmm3
/home/jgarcia/TFG/source_code/SP/x_solve.f:5
  40800b:	49 ba 38 a1 1c 88 01 00 00 00	(move)  	mov	$0x1881ca138,%r10
  408015:	49 89 ce                    	(move)  	mov	%rcx,%r14
  408018:	4c 89 64 24 20              	(move)  	mov	%r12,0x20(%rsp)
; ------- Loop 145 entry
668 (loop 145):	
/home/jgarcia/TFG/source_code/SP/x_solve.f:127
  40801d:	45 85 db                    	(arith) 	test	%r11d,%r11d
  408020:	0f 88 c2 01 00 00           	(control)	js	4081e8 <x_solve_+0x8e4>	; ↲ label 669
670:	
/home/jgarcia/TFG/source_code/SP/x_solve.f:130
  408026:	48 63 54 24 28              	(move)  	movsxd	0x28(%rsp),%rdx
  40802b:	48 89 d1                    	(move)  	mov	%rdx,%rcx
  40802e:	48 c1 e1 09                 	(logic) 	sal	$0x9,%rcx
  408032:	48 29 d1                    	(arith) 	sub	%rdx,%rcx
  408035:	4c 8d 0c 8a                 	(arith) 	lea	(%rdx,%rcx,4),%r9
/home/jgarcia/TFG/source_code/SP/x_solve.f:132
  408039:	4d 8d 69 ff                 	(arith) 	lea	-0x1(%r9),%r13
  40803d:	ba 00 00 00 00              	(move)  	mov	$0,%edx
; ------- Loop 148 entry
671 (loop 148):	
/home/jgarcia/TFG/source_code/SP/x_solve.f:128
  408042:	44 8d 42 01                 	(arith) 	lea	0x1(%rdx),%r8d
/home/jgarcia/TFG/source_code/SP/x_solve.f:130
  408046:	48 63 d2                    	(move)  	movsxd	%edx,%rdx
  408049:	48 8d 0c 92                 	(arith) 	lea	(%rdx,%rdx,4),%rcx
  40804d:	4c 01 c9                    	(arith) 	add	%r9,%rcx
  408050:	66 0f 28 c3                 	(move)  	movapd	%xmm3,%xmm0
  408054:	f2 0f 5e 44 c8 10           	(arith) 	divsd	0x10(%rax,%rcx,8),%xmm0
/home/jgarcia/TFG/source_code/SP/x_solve.f:131
  40805a:	48 8d 69 03                 	(arith) 	lea	0x3(%rcx),%rbp
  40805e:	f2 0f 10 0c e8              	(move)  	movsd	(%rax,%rbp,8),%xmm1
  408063:	f2 0f 59 c8                 	(arith) 	mulsd	%xmm0,%xmm1
  408067:	f2 0f 11 0c e8              	(move)  	movsd	%xmm1,(%rax,%rbp,8)
/home/jgarcia/TFG/source_code/SP/x_solve.f:132
  40806c:	48 8d 7c 92 05              	(arith) 	lea	0x5(%rdx,%rdx,4),%rdi
  408071:	4c 01 ef                    	(arith) 	add	%r13,%rdi
  408074:	f2 0f 10 0c f8              	(move)  	movsd	(%rax,%rdi,8),%xmm1
  408079:	f2 0f 59 c8                 	(arith) 	mulsd	%xmm0,%xmm1
  40807d:	f2 0f 11 0c f8              	(move)  	movsd	%xmm1,(%rax,%rdi,8)
/home/jgarcia/TFG/source_code/SP/x_solve.f:134
  408082:	4a 8d 14 31                 	(arith) 	lea	(%rcx,%r14,1),%rdx
  408086:	48 8d b2 21 11 d1 30        	(arith) 	lea	0x30d11121(%rdx),%rsi
  40808d:	f2 0f 10 0c f3              	(move)  	movsd	(%rbx,%rsi,8),%xmm1
  408092:	f2 0f 59 c8                 	(arith) 	mulsd	%xmm0,%xmm1
  408096:	f2 0f 11 0c f3              	(move)  	movsd	%xmm1,(%rbx,%rsi,8)
  40809b:	48 8d b2 22 11 d1 30        	(arith) 	lea	0x30d11122(%rdx),%rsi
  4080a2:	f2 0f 10 0c f3              	(move)  	movsd	(%rbx,%rsi,8),%xmm1
  4080a7:	f2 0f 59 c8                 	(arith) 	mulsd	%xmm0,%xmm1
  4080ab:	f2 0f 11 0c f3              	(move)  	movsd	%xmm1,(%rbx,%rsi,8)
  4080b0:	48 81 c2 23 11 d1 30        	(arith) 	add	$0x30d11123,%rdx
  4080b7:	f2 0f 59 04 d3              	(arith) 	mulsd	(%rbx,%rdx,8),%xmm0
  4080bc:	f2 0f 11 04 d3              	(move)  	movsd	%xmm0,(%rbx,%rdx,8)
/home/jgarcia/TFG/source_code/SP/x_solve.f:137
  4080c1:	49 63 d0                    	(move)  	movsxd	%r8d,%rdx
  4080c4:	48 8d 14 92                 	(arith) 	lea	(%rdx,%rdx,4),%rdx
  4080c8:	4c 01 ca                    	(arith) 	add	%r9,%rdx
  4080cb:	4c 8d 7a 02                 	(arith) 	lea	0x2(%rdx),%r15
  4080cf:	48 8d 72 01                 	(arith) 	lea	0x1(%rdx),%rsi
  4080d3:	f2 0f 10 0c f0              	(move)  	movsd	(%rax,%rsi,8),%xmm1
  4080d8:	f2 0f 59 0c e8              	(arith) 	mulsd	(%rax,%rbp,8),%xmm1
  4080dd:	f2 42 0f 10 04 f8           	(move)  	movsd	(%rax,%r15,8),%xmm0
  4080e3:	f2 0f 5c c1                 	(arith) 	subsd	%xmm1,%xmm0
  4080e7:	f2 42 0f 11 04 f8           	(move)  	movsd	%xmm0,(%rax,%r15,8)
/home/jgarcia/TFG/source_code/SP/x_solve.f:139
  4080ed:	4c 8d 7a 03                 	(arith) 	lea	0x3(%rdx),%r15
  4080f1:	f2 0f 10 0c f0              	(move)  	movsd	(%rax,%rsi,8),%xmm1
  4080f6:	f2 0f 59 0c f8              	(arith) 	mulsd	(%rax,%rdi,8),%xmm1
  4080fb:	f2 42 0f 10 04 f8           	(move)  	movsd	(%rax,%r15,8),%xmm0
  408101:	f2 0f 5c c1                 	(arith) 	subsd	%xmm1,%xmm0
  408105:	f2 42 0f 11 04 f8           	(move)  	movsd	%xmm0,(%rax,%r15,8)
/home/jgarcia/TFG/source_code/SP/x_solve.f:142
  40810b:	f2 0f 10 14 f0              	(move)  	movsd	(%rax,%rsi,8),%xmm2
  408110:	4a 8d 34 22                 	(arith) 	lea	(%rdx,%r12,1),%rsi
  408114:	48 8d 96 20 11 d1 30        	(arith) 	lea	0x30d11120(%rsi),%rdx
  40811b:	48 8d 14 d3                 	(arith) 	lea	(%rbx,%rdx,8),%rdx
  40811f:	4a 8d 8c 21 20 11 d1 30     	(arith) 	lea	0x30d11120(%rcx,%r12,1),%rcx
  408127:	48 8d 0c cb                 	(arith) 	lea	(%rbx,%rcx,8),%rcx
/home/jgarcia/TFG/source_code/SP/x_solve.f:5
  40812b:	4d 8d 3c f2                 	(arith) 	lea	(%r10,%rsi,8),%r15
  40812f:	48 89 ce                    	(move)  	mov	%rcx,%rsi
; ------- Loop 146 entry
672 (loop 146):	
/home/jgarcia/TFG/source_code/SP/x_solve.f:142
  408132:	66 0f 28 ca                 	(move)  	movapd	%xmm2,%xmm1
  408136:	f2 0f 59 0e                 	(arith) 	mulsd	(%rsi),%xmm1
  40813a:	f2 0f 10 02                 	(move)  	movsd	(%rdx),%xmm0
  40813e:	f2 0f 5c c1                 	(arith) 	subsd	%xmm1,%xmm0
  408142:	f2 0f 11 02                 	(move)  	movsd	%xmm0,(%rdx)
  408146:	48 83 c2 08                 	(arith) 	add	$0x8,%rdx
  40814a:	48 83 c6 08                 	(arith) 	add	$0x8,%rsi
/home/jgarcia/TFG/source_code/SP/x_solve.f:140
  40814e:	4c 39 fa                    	(arith) 	cmp	%r15,%rdx
  408151:	75 df                       	(control)	jne	408132 <x_solve_+0x82e>	; ↰ label 672 (loop 146)
; ------- Loop 146 exit
673:	
/home/jgarcia/TFG/source_code/SP/x_solve.f:5
  408153:	45 89 c7                    	(move)  	mov	%r8d,%r15d
/home/jgarcia/TFG/source_code/SP/x_solve.f:145
  408156:	41 8d 50 01                 	(arith) 	lea	0x1(%r8),%edx
  40815a:	48 63 d2                    	(move)  	movsxd	%edx,%rdx
  40815d:	48 8d 14 92                 	(arith) 	lea	(%rdx,%rdx,4),%rdx
  408161:	4c 01 ca                    	(arith) 	add	%r9,%rdx
  408164:	48 8d 72 01                 	(arith) 	lea	0x1(%rdx),%rsi
  408168:	f2 0f 10 0c d0              	(move)  	movsd	(%rax,%rdx,8),%xmm1
  40816d:	f2 0f 59 0c e8              	(arith) 	mulsd	(%rax,%rbp,8),%xmm1
  408172:	f2 0f 10 04 f0              	(move)  	movsd	(%rax,%rsi,8),%xmm0
  408177:	f2 0f 5c c1                 	(arith) 	subsd	%xmm1,%xmm0
  40817b:	f2 0f 11 04 f0              	(move)  	movsd	%xmm0,(%rax,%rsi,8)
/home/jgarcia/TFG/source_code/SP/x_solve.f:147
  408180:	48 8d 72 02                 	(arith) 	lea	0x2(%rdx),%rsi
  408184:	f2 0f 10 0c d0              	(move)  	movsd	(%rax,%rdx,8),%xmm1
  408189:	f2 0f 59 0c f8              	(arith) 	mulsd	(%rax,%rdi,8),%xmm1
  40818e:	f2 0f 10 04 f0              	(move)  	movsd	(%rax,%rsi,8),%xmm0
  408193:	f2 0f 5c c1                 	(arith) 	subsd	%xmm1,%xmm0
  408197:	f2 0f 11 04 f0              	(move)  	movsd	%xmm0,(%rax,%rsi,8)
/home/jgarcia/TFG/source_code/SP/x_solve.f:150
  40819c:	f2 0f 10 14 d0              	(move)  	movsd	(%rax,%rdx,8),%xmm2
  4081a1:	4a 8d b4 22 20 11 d1 30     	(arith) 	lea	0x30d11120(%rdx,%r12,1),%rsi
  4081a9:	48 8d 34 f3                 	(arith) 	lea	(%rbx,%rsi,8),%rsi
/home/jgarcia/TFG/source_code/SP/x_solve.f:5
  4081ad:	48 03 54 24 20              	(arith) 	add	0x20(%rsp),%rdx
  4081b2:	49 8d 14 d2                 	(arith) 	lea	(%r10,%rdx,8),%rdx
; ------- Loop 147 entry
674 (loop 147):	
/home/jgarcia/TFG/source_code/SP/x_solve.f:150
  4081b6:	66 0f 28 ca                 	(move)  	movapd	%xmm2,%xmm1
  4081ba:	f2 0f 59 09                 	(arith) 	mulsd	(%rcx),%xmm1
  4081be:	f2 0f 10 06                 	(move)  	movsd	(%rsi),%xmm0
  4081c2:	f2 0f 5c c1                 	(arith) 	subsd	%xmm1,%xmm0
  4081c6:	f2 0f 11 06                 	(move)  	movsd	%xmm0,(%rsi)
  4081ca:	48 83 c6 08                 	(arith) 	add	$0x8,%rsi
  4081ce:	48 83 c1 08                 	(arith) 	add	$0x8,%rcx
/home/jgarcia/TFG/source_code/SP/x_solve.f:148
  4081d2:	48 39 d6                    	(arith) 	cmp	%rdx,%rsi
  4081d5:	75 df                       	(control)	jne	4081b6 <x_solve_+0x8b2>	; ↰ label 674 (loop 147)
; ------- Loop 147 exit
675:	
/home/jgarcia/TFG/source_code/SP/x_solve.f:5
  4081d7:	41 83 ef 01                 	(arith) 	sub	$0x1,%r15d
/home/jgarcia/TFG/source_code/SP/x_solve.f:127
  4081db:	45 39 df                    	(arith) 	cmp	%r11d,%r15d
  4081de:	74 08                       	(control)	je	4081e8 <x_solve_+0x8e4>	; ↲ label 669
676:	
  4081e0:	44 89 c2                    	(move)  	mov	%r8d,%edx
  4081e3:	e9 5a fe ff ff              	(control)	jmp	408042 <x_solve_+0x73e>	; ↰ label 671 (loop 148)
; ------- Loop 148 exit
669:	
/home/jgarcia/TFG/source_code/SP/x_solve.f:126
  4081e8:	8b 54 24 30                 	(move)  	mov	0x30(%rsp),%edx
  4081ec:	39 54 24 28                 	(arith) 	cmp	%edx,0x28(%rsp)
  4081f0:	74 0a                       	(control)	je	4081fc <x_solve_+0x8f8>	; ↲ label 677
678:	
  4081f2:	83 44 24 28 01              	(arith) 	addl	$0x1,0x28(%rsp)
  4081f7:	e9 21 fe ff ff              	(control)	jmp	40801d <x_solve_+0x719>	; ↰ label 668 (loop 145)
; ------- Loop 145 exit
677:	
/home/jgarcia/TFG/source_code/SP/x_solve.f:161
  4081fc:	44 8b 15 0d 79 20 00        	(move)  	mov	0x20790d(%rip),%r10d
  408203:	45 85 d2                    	(arith) 	test	%r10d,%r10d
  408206:	0f 8e 0e 0a 00 00           	(control)	jle	408c1a <x_solve_+0x1316>	; ↲ label 626
679:	
/home/jgarcia/TFG/source_code/SP/x_solve.f:162
  40820c:	8b 15 ee 78 20 00           	(move)  	mov	0x2078ee(%rip),%edx
/home/jgarcia/TFG/source_code/SP/x_solve.f:164
  408212:	8d 42 fe                    	(arith) 	lea	-0x2(%rdx),%eax
  408215:	48 98                       	(conv)  	cltq
  408217:	4c 8d 34 80                 	(arith) 	lea	(%rax,%rax,4),%r14
/home/jgarcia/TFG/source_code/SP/x_solve.f:166
  40821b:	4c 8d 6c 80 04              	(arith) 	lea	0x4(%rax,%rax,4),%r13
/home/jgarcia/TFG/source_code/SP/x_solve.f:171
  408220:	8d 42 ff                    	(arith) 	lea	-0x1(%rdx),%eax
  408223:	48 98                       	(conv)  	cltq
  408225:	4c 8d 3c 80                 	(arith) 	lea	(%rax,%rax,4),%r15
  408229:	41 b9 01 00 00 00           	(move)  	mov	$0x1,%r9d
/home/jgarcia/TFG/source_code/SP/x_solve.f:164
  40822f:	48 b8 20 cb 61 00 00 00 00 00	(move)  	mov	$0x61cb20,%rax
  408239:	f2 0f 10 1d 6f 62 00 00     	(move)  	movsd	0x626f(%rip),%xmm3
/home/jgarcia/TFG/source_code/SP/x_solve.f:5
  408241:	49 bb 38 a1 1c 88 01 00 00 00	(move)  	mov	$0x1881ca138,%r11
; ------- Loop 144 entry
680 (loop 144):	
/home/jgarcia/TFG/source_code/SP/x_solve.f:164
  40824b:	49 63 d1                    	(move)  	movsxd	%r9d,%rdx
  40824e:	48 89 d1                    	(move)  	mov	%rdx,%rcx
  408251:	48 c1 e1 09                 	(logic) 	sal	$0x9,%rcx
  408255:	48 29 d1                    	(arith) 	sub	%rdx,%rcx
  408258:	48 8d 0c 8a                 	(arith) 	lea	(%rdx,%rcx,4),%rcx
  40825c:	4a 8d 14 31                 	(arith) 	lea	(%rcx,%r14,1),%rdx
  408260:	66 0f 28 c3                 	(move)  	movapd	%xmm3,%xmm0
  408264:	f2 0f 5e 44 d0 10           	(arith) 	divsd	0x10(%rax,%rdx,8),%xmm0
/home/jgarcia/TFG/source_code/SP/x_solve.f:165
  40826a:	4c 8d 42 03                 	(arith) 	lea	0x3(%rdx),%r8
  40826e:	f2 42 0f 10 0c c0           	(move)  	movsd	(%rax,%r8,8),%xmm1
  408274:	f2 0f 59 c8                 	(arith) 	mulsd	%xmm0,%xmm1
  408278:	f2 42 0f 11 0c c0           	(move)  	movsd	%xmm1,(%rax,%r8,8)
/home/jgarcia/TFG/source_code/SP/x_solve.f:166
  40827e:	4a 8d 2c 29                 	(arith) 	lea	(%rcx,%r13,1),%rbp
  408282:	f2 0f 10 0c e8              	(move)  	movsd	(%rax,%rbp,8),%xmm1
  408287:	f2 0f 59 c8                 	(arith) 	mulsd	%xmm0,%xmm1
  40828b:	f2 0f 11 0c e8              	(move)  	movsd	%xmm1,(%rax,%rbp,8)
/home/jgarcia/TFG/source_code/SP/x_solve.f:168
  408290:	48 8b 74 24 40              	(move)  	mov	0x40(%rsp),%rsi
  408295:	48 01 d6                    	(arith) 	add	%rdx,%rsi
  408298:	48 8d be 21 11 d1 30        	(arith) 	lea	0x30d11121(%rsi),%rdi
  40829f:	f2 0f 10 0c fb              	(move)  	movsd	(%rbx,%rdi,8),%xmm1
  4082a4:	f2 0f 59 c8                 	(arith) 	mulsd	%xmm0,%xmm1
  4082a8:	f2 0f 11 0c fb              	(move)  	movsd	%xmm1,(%rbx,%rdi,8)
  4082ad:	48 8d be 22 11 d1 30        	(arith) 	lea	0x30d11122(%rsi),%rdi
  4082b4:	f2 0f 10 0c fb              	(move)  	movsd	(%rbx,%rdi,8),%xmm1
  4082b9:	f2 0f 59 c8                 	(arith) 	mulsd	%xmm0,%xmm1
  4082bd:	f2 0f 11 0c fb              	(move)  	movsd	%xmm1,(%rbx,%rdi,8)
  4082c2:	48 81 c6 23 11 d1 30        	(arith) 	add	$0x30d11123,%rsi
  4082c9:	f2 0f 59 04 f3              	(arith) 	mulsd	(%rbx,%rsi,8),%xmm0
  4082ce:	f2 0f 11 04 f3              	(move)  	movsd	%xmm0,(%rbx,%rsi,8)
/home/jgarcia/TFG/source_code/SP/x_solve.f:171
  4082d3:	4c 01 f9                    	(arith) 	add	%r15,%rcx
  4082d6:	48 8d 71 02                 	(arith) 	lea	0x2(%rcx),%rsi
  4082da:	48 8d 79 01                 	(arith) 	lea	0x1(%rcx),%rdi
  4082de:	f2 0f 10 0c f8              	(move)  	movsd	(%rax,%rdi,8),%xmm1
  4082e3:	f2 42 0f 59 0c c0           	(arith) 	mulsd	(%rax,%r8,8),%xmm1
  4082e9:	f2 0f 10 04 f0              	(move)  	movsd	(%rax,%rsi,8),%xmm0
  4082ee:	f2 0f 5c c1                 	(arith) 	subsd	%xmm1,%xmm0
  4082f2:	f2 0f 11 04 f0              	(move)  	movsd	%xmm0,(%rax,%rsi,8)
/home/jgarcia/TFG/source_code/SP/x_solve.f:173
  4082f7:	4c 8d 41 03                 	(arith) 	lea	0x3(%rcx),%r8
  4082fb:	f2 0f 10 0c f8              	(move)  	movsd	(%rax,%rdi,8),%xmm1
  408300:	f2 0f 59 0c e8              	(arith) 	mulsd	(%rax,%rbp,8),%xmm1
  408305:	f2 42 0f 10 04 c0           	(move)  	movsd	(%rax,%r8,8),%xmm0
  40830b:	f2 0f 5c c1                 	(arith) 	subsd	%xmm1,%xmm0
  40830f:	f2 42 0f 11 04 c0           	(move)  	movsd	%xmm0,(%rax,%r8,8)
/home/jgarcia/TFG/source_code/SP/x_solve.f:176
  408315:	f2 0f 10 14 f8              	(move)  	movsd	(%rax,%rdi,8),%xmm2
  40831a:	49 8d 0c 0c                 	(arith) 	lea	(%r12,%rcx,1),%rcx
  40831e:	48 8d b9 20 11 d1 30        	(arith) 	lea	0x30d11120(%rcx),%rdi
  408325:	48 8d 3c fb                 	(arith) 	lea	(%rbx,%rdi,8),%rdi
  408329:	4a 8d 94 22 20 11 d1 30     	(arith) 	lea	0x30d11120(%rdx,%r12,1),%rdx
  408331:	48 8d 2c d3                 	(arith) 	lea	(%rbx,%rdx,8),%rbp
/home/jgarcia/TFG/source_code/SP/x_solve.f:5
  408335:	49 8d 0c cb                 	(arith) 	lea	(%r11,%rcx,8),%rcx
  408339:	48 89 fa                    	(move)  	mov	%rdi,%rdx
; ------- Loop 134 entry
681 (loop 134):	
/home/jgarcia/TFG/source_code/SP/x_solve.f:176
  40833c:	66 0f 28 ca                 	(move)  	movapd	%xmm2,%xmm1
  408340:	f2 0f 59 4d 00              	(arith) 	mulsd	(%rbp),%xmm1
  408345:	f2 0f 10 02                 	(move)  	movsd	(%rdx),%xmm0
  408349:	f2 0f 5c c1                 	(arith) 	subsd	%xmm1,%xmm0
  40834d:	f2 0f 11 02                 	(move)  	movsd	%xmm0,(%rdx)
  408351:	48 83 c2 08                 	(arith) 	add	$0x8,%rdx
  408355:	48 83 c5 08                 	(arith) 	add	$0x8,%rbp
/home/jgarcia/TFG/source_code/SP/x_solve.f:174
  408359:	48 39 ca                    	(arith) 	cmp	%rcx,%rdx
  40835c:	75 de                       	(control)	jne	40833c <x_solve_+0xa38>	; ↰ label 681 (loop 134)
; ------- Loop 134 exit
682:	
/home/jgarcia/TFG/source_code/SP/x_solve.f:181
  40835e:	66 0f 28 cb                 	(move)  	movapd	%xmm3,%xmm1
  408362:	f2 0f 5e 0c f0              	(arith) 	divsd	(%rax,%rsi,8),%xmm1
; ------- Loop 135 entry
683 (loop 135):	
/home/jgarcia/TFG/source_code/SP/x_solve.f:183
  408367:	f2 0f 10 07                 	(move)  	movsd	(%rdi),%xmm0
  40836b:	f2 0f 59 c1                 	(arith) 	mulsd	%xmm1,%xmm0
  40836f:	f2 0f 11 07                 	(move)  	movsd	%xmm0,(%rdi)
  408373:	48 83 c7 08                 	(arith) 	add	$0x8,%rdi
/home/jgarcia/TFG/source_code/SP/x_solve.f:182
  408377:	48 39 f9                    	(arith) 	cmp	%rdi,%rcx
  40837a:	75 eb                       	(control)	jne	408367 <x_solve_+0xa63>	; ↰ label 683 (loop 135)
; ------- Loop 135 exit
684:	
/home/jgarcia/TFG/source_code/SP/x_solve.f:161
  40837c:	45 39 d1                    	(arith) 	cmp	%r10d,%r9d
  40837f:	74 09                       	(control)	je	40838a <x_solve_+0xa86>	; ↲ label 685
686:	
  408381:	41 83 c1 01                 	(arith) 	add	$0x1,%r9d
  408385:	e9 c1 fe ff ff              	(control)	jmp	40824b <x_solve_+0x947>	; ↰ label 680 (loop 144)
; ------- Loop 144 exit
685:	
/home/jgarcia/TFG/source_code/SP/x_solve.f:191
  40838a:	8b 0d 80 77 20 00           	(move)  	mov	0x207780(%rip),%ecx
  408390:	89 4c 24 54                 	(move)  	mov	%ecx,0x54(%rsp)
  408394:	85 c9                       	(arith) 	test	%ecx,%ecx
  408396:	0f 8e 7e 08 00 00           	(control)	jle	408c1a <x_solve_+0x1316>	; ↲ label 626
687:	
/home/jgarcia/TFG/source_code/SP/x_solve.f:192
  40839c:	8b 05 5e 77 20 00           	(move)  	mov	0x20775e(%rip),%eax
  4083a2:	83 e8 03                    	(arith) 	sub	$0x3,%eax
  4083a5:	89 44 24 28                 	(move)  	mov	%eax,0x28(%rsp)
/home/jgarcia/TFG/source_code/SP/x_solve.f:199
  4083a9:	49 8d 7c 24 03              	(arith) 	lea	0x3(%r12),%rdi
/home/jgarcia/TFG/source_code/SP/x_solve.f:216
  4083ae:	4d 8d 6c 24 04              	(arith) 	lea	0x4(%r12),%r13
  4083b3:	c7 44 24 38 01 00 00 00     	(move)  	movl	$0x1,0x38(%rsp)
/home/jgarcia/TFG/source_code/SP/x_solve.f:196
  4083bb:	48 b8 20 cb 61 00 00 00 00 00	(move)  	mov	$0x61cb20,%rax
  4083c5:	f2 0f 10 0d e3 60 00 00     	(move)  	movsd	0x60e3(%rip),%xmm1
  4083cd:	4c 89 64 24 58              	(move)  	mov	%r12,0x58(%rsp)
; ------- Loop 142 entry
688 (loop 142):	
/home/jgarcia/TFG/source_code/SP/x_solve.f:192
  4083d2:	83 7c 24 28 00              	(arith) 	cmpl	$0,0x28(%rsp)
  4083d7:	0f 88 a5 02 00 00           	(control)	js	408682 <x_solve_+0xd7e>	; ↲ label 689
690:	
/home/jgarcia/TFG/source_code/SP/x_solve.f:196
  4083dd:	48 63 54 24 38              	(move)  	movsxd	0x38(%rsp),%rdx
  4083e2:	48 89 d1                    	(move)  	mov	%rdx,%rcx
  4083e5:	48 c1 e1 09                 	(logic) 	sal	$0x9,%rcx
  4083e9:	48 29 d1                    	(arith) 	sub	%rdx,%rcx
  4083ec:	4c 8d 24 8a                 	(arith) 	lea	(%rdx,%rcx,4),%r12
/home/jgarcia/TFG/source_code/SP/x_solve.f:198
  4083f0:	49 8d 54 24 ff              	(arith) 	lea	-0x1(%r12),%rdx
  4083f5:	48 89 54 24 30              	(move)  	mov	%rdx,0x30(%rsp)
  4083fa:	41 b9 00 00 00 00           	(move)  	mov	$0,%r9d
; ------- Loop 143 entry
691 (loop 143):	
/home/jgarcia/TFG/source_code/SP/x_solve.f:193
  408400:	41 8d 49 01                 	(arith) 	lea	0x1(%r9),%ecx
  408404:	89 4c 24 20                 	(move)  	mov	%ecx,0x20(%rsp)
/home/jgarcia/TFG/source_code/SP/x_solve.f:196
  408408:	49 63 d1                    	(move)  	movsxd	%r9d,%rdx
  40840b:	48 8d 34 92                 	(arith) 	lea	(%rdx,%rdx,4),%rsi
  40840f:	4c 01 e6                    	(arith) 	add	%r12,%rsi
  408412:	66 0f 28 c1                 	(move)  	movapd	%xmm1,%xmm0
  408416:	f2 0f 5e 84 f0 b8 19 66 00  	(arith) 	divsd	0x6619b8(%rax,%rsi,8),%xmm0
/home/jgarcia/TFG/source_code/SP/x_solve.f:197
  40841f:	4c 8d 86 38 c3 0c 00        	(arith) 	lea	0xcc338(%rsi),%r8
  408426:	f2 42 0f 10 14 c0           	(move)  	movsd	(%rax,%r8,8),%xmm2
  40842c:	f2 0f 59 d0                 	(arith) 	mulsd	%xmm0,%xmm2
  408430:	f2 42 0f 11 14 c0           	(move)  	movsd	%xmm2,(%rax,%r8,8)
/home/jgarcia/TFG/source_code/SP/x_solve.f:198
  408436:	4c 8d 74 92 05              	(arith) 	lea	0x5(%rdx,%rdx,4),%r14
  40843b:	4c 03 74 24 30              	(arith) 	add	0x30(%rsp),%r14
  408440:	49 8d ae 35 c3 0c 00        	(arith) 	lea	0xcc335(%r14),%rbp
  408447:	f2 0f 10 14 e8              	(move)  	movsd	(%rax,%rbp,8),%xmm2
  40844c:	f2 0f 59 d0                 	(arith) 	mulsd	%xmm0,%xmm2
  408450:	f2 0f 11 14 e8              	(move)  	movsd	%xmm2,(%rax,%rbp,8)
/home/jgarcia/TFG/source_code/SP/x_solve.f:199
  408455:	4c 8d 94 37 20 11 d1 30     	(arith) 	lea	0x30d11120(%rdi,%rsi,1),%r10
  40845d:	f2 42 0f 59 04 d3           	(arith) 	mulsd	(%rbx,%r10,8),%xmm0
  408463:	f2 42 0f 11 04 d3           	(move)  	movsd	%xmm0,(%rbx,%r10,8)
/home/jgarcia/TFG/source_code/SP/x_solve.f:201
  408469:	48 63 d1                    	(move)  	movsxd	%ecx,%rdx
  40846c:	48 8d 0c 92                 	(arith) 	lea	(%rdx,%rdx,4),%rcx
  408470:	4c 01 e1                    	(arith) 	add	%r12,%rcx
  408473:	4c 8d 99 37 c3 0c 00        	(arith) 	lea	0xcc337(%rcx),%r11
  40847a:	48 8d 91 36 c3 0c 00        	(arith) 	lea	0xcc336(%rcx),%rdx
  408481:	f2 0f 10 1c d0              	(move)  	movsd	(%rax,%rdx,8),%xmm3
  408486:	f2 42 0f 59 1c c0           	(arith) 	mulsd	(%rax,%r8,8),%xmm3
  40848c:	f2 42 0f 10 14 d8           	(move)  	movsd	(%rax,%r11,8),%xmm2
  408492:	f2 0f 5c d3                 	(arith) 	subsd	%xmm3,%xmm2
  408496:	f2 42 0f 11 14 d8           	(move)  	movsd	%xmm2,(%rax,%r11,8)
/home/jgarcia/TFG/source_code/SP/x_solve.f:203
  40849c:	4c 8d 99 38 c3 0c 00        	(arith) 	lea	0xcc338(%rcx),%r11
  4084a3:	f2 0f 10 1c d0              	(move)  	movsd	(%rax,%rdx,8),%xmm3
  4084a8:	f2 0f 59 1c e8              	(arith) 	mulsd	(%rax,%rbp,8),%xmm3
  4084ad:	f2 42 0f 10 14 d8           	(move)  	movsd	(%rax,%r11,8),%xmm2
  4084b3:	f2 0f 5c d3                 	(arith) 	subsd	%xmm3,%xmm2
  4084b7:	f2 42 0f 11 14 d8           	(move)  	movsd	%xmm2,(%rax,%r11,8)
/home/jgarcia/TFG/source_code/SP/x_solve.f:205
  4084bd:	4c 8d 9c 39 20 11 d1 30     	(arith) 	lea	0x30d11120(%rcx,%rdi,1),%r11
  4084c5:	f2 0f 59 04 d0              	(arith) 	mulsd	(%rax,%rdx,8),%xmm0
  4084ca:	f2 42 0f 10 14 db           	(move)  	movsd	(%rbx,%r11,8),%xmm2
  4084d0:	f2 0f 5c d0                 	(arith) 	subsd	%xmm0,%xmm2
  4084d4:	f2 42 0f 11 14 db           	(move)  	movsd	%xmm2,(%rbx,%r11,8)
/home/jgarcia/TFG/source_code/SP/x_solve.f:207
  4084da:	41 8d 51 02                 	(arith) 	lea	0x2(%r9),%edx
  4084de:	48 63 d2                    	(move)  	movsxd	%edx,%rdx
  4084e1:	48 8d 14 92                 	(arith) 	lea	(%rdx,%rdx,4),%rdx
  4084e5:	4c 01 e2                    	(arith) 	add	%r12,%rdx
  4084e8:	4c 8d ba 36 c3 0c 00        	(arith) 	lea	0xcc336(%rdx),%r15
  4084ef:	4c 8d 9a 35 c3 0c 00        	(arith) 	lea	0xcc335(%rdx),%r11
  4084f6:	f2 42 0f 10 14 d8           	(move)  	movsd	(%rax,%r11,8),%xmm2
  4084fc:	f2 42 0f 59 14 c0           	(arith) 	mulsd	(%rax,%r8,8),%xmm2
  408502:	f2 42 0f 10 04 f8           	(move)  	movsd	(%rax,%r15,8),%xmm0
  408508:	f2 0f 5c c2                 	(arith) 	subsd	%xmm2,%xmm0
  40850c:	f2 42 0f 11 04 f8           	(move)  	movsd	%xmm0,(%rax,%r15,8)
/home/jgarcia/TFG/source_code/SP/x_solve.f:209
  408512:	4c 8d 82 37 c3 0c 00        	(arith) 	lea	0xcc337(%rdx),%r8
  408519:	f2 42 0f 10 14 d8           	(move)  	movsd	(%rax,%r11,8),%xmm2
  40851f:	f2 0f 59 14 e8              	(arith) 	mulsd	(%rax,%rbp,8),%xmm2
  408524:	f2 42 0f 10 04 c0           	(move)  	movsd	(%rax,%r8,8),%xmm0
  40852a:	f2 0f 5c c2                 	(arith) 	subsd	%xmm2,%xmm0
  40852e:	f2 42 0f 11 04 c0           	(move)  	movsd	%xmm0,(%rax,%r8,8)
/home/jgarcia/TFG/source_code/SP/x_solve.f:211
  408534:	48 8d ac 3a 20 11 d1 30     	(arith) 	lea	0x30d11120(%rdx,%rdi,1),%rbp
  40853c:	f2 42 0f 10 14 d8           	(move)  	movsd	(%rax,%r11,8),%xmm2
  408542:	f2 42 0f 59 14 d3           	(arith) 	mulsd	(%rbx,%r10,8),%xmm2
  408548:	f2 0f 10 04 eb              	(move)  	movsd	(%rbx,%rbp,8),%xmm0
  40854d:	f2 0f 5c c2                 	(arith) 	subsd	%xmm2,%xmm0
  408551:	f2 0f 11 04 eb              	(move)  	movsd	%xmm0,(%rbx,%rbp,8)
/home/jgarcia/TFG/source_code/SP/x_solve.f:213
  408556:	66 0f 28 c1                 	(move)  	movapd	%xmm1,%xmm0
  40855a:	f2 0f 5e 84 f0 60 33 cc 00  	(arith) 	divsd	0xcc3360(%rax,%rsi,8),%xmm0
/home/jgarcia/TFG/source_code/SP/x_solve.f:214
  408563:	48 8d ae 6d 86 19 00        	(arith) 	lea	0x19866d(%rsi),%rbp
  40856a:	f2 0f 10 14 e8              	(move)  	movsd	(%rax,%rbp,8),%xmm2
  40856f:	f2 0f 59 d0                 	(arith) 	mulsd	%xmm0,%xmm2
  408573:	f2 0f 11 14 e8              	(move)  	movsd	%xmm2,(%rax,%rbp,8)
/home/jgarcia/TFG/source_code/SP/x_solve.f:215
  408578:	49 81 c6 6a 86 19 00        	(arith) 	add	$0x19866a,%r14
  40857f:	f2 42 0f 10 14 f0           	(move)  	movsd	(%rax,%r14,8),%xmm2
  408585:	f2 0f 59 d0                 	(arith) 	mulsd	%xmm0,%xmm2
  408589:	f2 42 0f 11 14 f0           	(move)  	movsd	%xmm2,(%rax,%r14,8)
/home/jgarcia/TFG/source_code/SP/x_solve.f:216
  40858f:	49 8d b4 35 20 11 d1 30     	(arith) 	lea	0x30d11120(%r13,%rsi,1),%rsi
  408597:	f2 0f 59 04 f3              	(arith) 	mulsd	(%rbx,%rsi,8),%xmm0
  40859c:	f2 0f 11 04 f3              	(move)  	movsd	%xmm0,(%rbx,%rsi,8)
/home/jgarcia/TFG/source_code/SP/x_solve.f:218
  4085a1:	4c 8d 91 6c 86 19 00        	(arith) 	lea	0x19866c(%rcx),%r10
  4085a8:	4c 8d 81 6b 86 19 00        	(arith) 	lea	0x19866b(%rcx),%r8
  4085af:	f2 42 0f 10 1c c0           	(move)  	movsd	(%rax,%r8,8),%xmm3
  4085b5:	f2 0f 59 1c e8              	(arith) 	mulsd	(%rax,%rbp,8),%xmm3
  4085ba:	f2 42 0f 10 14 d0           	(move)  	movsd	(%rax,%r10,8),%xmm2
  4085c0:	f2 0f 5c d3                 	(arith) 	subsd	%xmm3,%xmm2
  4085c4:	f2 42 0f 11 14 d0           	(move)  	movsd	%xmm2,(%rax,%r10,8)
/home/jgarcia/TFG/source_code/SP/x_solve.f:220
  4085ca:	4c 8d 91 6d 86 19 00        	(arith) 	lea	0x19866d(%rcx),%r10
  4085d1:	f2 42 0f 10 1c c0           	(move)  	movsd	(%rax,%r8,8),%xmm3
  4085d7:	f2 42 0f 59 1c f0           	(arith) 	mulsd	(%rax,%r14,8),%xmm3
  4085dd:	f2 42 0f 10 14 d0           	(move)  	movsd	(%rax,%r10,8),%xmm2
  4085e3:	f2 0f 5c d3                 	(arith) 	subsd	%xmm3,%xmm2
  4085e7:	f2 42 0f 11 14 d0           	(move)  	movsd	%xmm2,(%rax,%r10,8)
/home/jgarcia/TFG/source_code/SP/x_solve.f:222
  4085ed:	49 8d 8c 0d 20 11 d1 30     	(arith) 	lea	0x30d11120(%r13,%rcx,1),%rcx
  4085f5:	f2 42 0f 59 04 c0           	(arith) 	mulsd	(%rax,%r8,8),%xmm0
  4085fb:	f2 0f 10 14 cb              	(move)  	movsd	(%rbx,%rcx,8),%xmm2
  408600:	f2 0f 5c d0                 	(arith) 	subsd	%xmm0,%xmm2
  408604:	f2 0f 11 14 cb              	(move)  	movsd	%xmm2,(%rbx,%rcx,8)
/home/jgarcia/TFG/source_code/SP/x_solve.f:224
  408609:	4c 8d 82 6b 86 19 00        	(arith) 	lea	0x19866b(%rdx),%r8
  408610:	48 8d 8a 6a 86 19 00        	(arith) 	lea	0x19866a(%rdx),%rcx
  408617:	f2 0f 10 14 c8              	(move)  	movsd	(%rax,%rcx,8),%xmm2
  40861c:	f2 0f 59 14 e8              	(arith) 	mulsd	(%rax,%rbp,8),%xmm2
  408621:	f2 42 0f 10 04 c0           	(move)  	movsd	(%rax,%r8,8),%xmm0
  408627:	f2 0f 5c c2                 	(arith) 	subsd	%xmm2,%xmm0
  40862b:	f2 42 0f 11 04 c0           	(move)  	movsd	%xmm0,(%rax,%r8,8)
/home/jgarcia/TFG/source_code/SP/x_solve.f:226
  408631:	48 8d aa 6c 86 19 00        	(arith) 	lea	0x19866c(%rdx),%rbp
  408638:	f2 0f 10 14 c8              	(move)  	movsd	(%rax,%rcx,8),%xmm2
  40863d:	f2 42 0f 59 14 f0           	(arith) 	mulsd	(%rax,%r14,8),%xmm2
  408643:	f2 0f 10 04 e8              	(move)  	movsd	(%rax,%rbp,8),%xmm0
  408648:	f2 0f 5c c2                 	(arith) 	subsd	%xmm2,%xmm0
  40864c:	f2 0f 11 04 e8              	(move)  	movsd	%xmm0,(%rax,%rbp,8)
/home/jgarcia/TFG/source_code/SP/x_solve.f:228
  408651:	49 8d 94 15 20 11 d1 30     	(arith) 	lea	0x30d11120(%r13,%rdx,1),%rdx
  408659:	f2 0f 10 14 c8              	(move)  	movsd	(%rax,%rcx,8),%xmm2
  40865e:	f2 0f 59 14 f3              	(arith) 	mulsd	(%rbx,%rsi,8),%xmm2
  408663:	f2 0f 10 04 d3              	(move)  	movsd	(%rbx,%rdx,8),%xmm0
  408668:	f2 0f 5c c2                 	(arith) 	subsd	%xmm2,%xmm0
  40866c:	f2 0f 11 04 d3              	(move)  	movsd	%xmm0,(%rbx,%rdx,8)
/home/jgarcia/TFG/source_code/SP/x_solve.f:192
  408671:	44 3b 4c 24 28              	(arith) 	cmp	0x28(%rsp),%r9d
  408676:	74 0a                       	(control)	je	408682 <x_solve_+0xd7e>	; ↲ label 689
692:	
  408678:	44 8b 4c 24 20              	(move)  	mov	0x20(%rsp),%r9d
  40867d:	e9 7e fd ff ff              	(control)	jmp	408400 <x_solve_+0xafc>	; ↰ label 691 (loop 143)
; ------- Loop 143 exit
689:	
/home/jgarcia/TFG/source_code/SP/x_solve.f:191
  408682:	8b 54 24 54                 	(move)  	mov	0x54(%rsp),%edx
  408686:	39 54 24 38                 	(arith) 	cmp	%edx,0x38(%rsp)
  40868a:	74 0a                       	(control)	je	408696 <x_solve_+0xd92>	; ↲ label 693
694:	
  40868c:	83 44 24 38 01              	(arith) 	addl	$0x1,0x38(%rsp)
  408691:	e9 3c fd ff ff              	(control)	jmp	4083d2 <x_solve_+0xace>	; ↰ label 688 (loop 142)
; ------- Loop 142 exit
693:	
  408696:	4c 8b 64 24 58              	(move)  	mov	0x58(%rsp),%r12
/home/jgarcia/TFG/source_code/SP/x_solve.f:235
  40869b:	8b 0d 6f 74 20 00           	(move)  	mov	0x20746f(%rip),%ecx
  4086a1:	89 4c 24 20                 	(move)  	mov	%ecx,0x20(%rsp)
  4086a5:	85 c9                       	(arith) 	test	%ecx,%ecx
  4086a7:	0f 8e 6d 05 00 00           	(control)	jle	408c1a <x_solve_+0x1316>	; ↲ label 626
695:	
/home/jgarcia/TFG/source_code/SP/x_solve.f:236
  4086ad:	8b 15 4d 74 20 00           	(move)  	mov	0x20744d(%rip),%edx
/home/jgarcia/TFG/source_code/SP/x_solve.f:239
  4086b3:	8d 42 fe                    	(arith) 	lea	-0x2(%rdx),%eax
  4086b6:	48 98                       	(conv)  	cltq
  4086b8:	4c 8d 3c 80                 	(arith) 	lea	(%rax,%rax,4),%r15
/home/jgarcia/TFG/source_code/SP/x_solve.f:241
  4086bc:	48 8d 44 80 04              	(arith) 	lea	0x4(%rax,%rax,4),%rax
  4086c1:	48 89 44 24 30              	(move)  	mov	%rax,0x30(%rsp)
/home/jgarcia/TFG/source_code/SP/x_solve.f:244
  4086c6:	8d 42 ff                    	(arith) 	lea	-0x1(%rdx),%eax
  4086c9:	48 98                       	(conv)  	cltq
  4086cb:	48 8d 14 80                 	(arith) 	lea	(%rax,%rax,4),%rdx
  4086cf:	48 89 54 24 28              	(move)  	mov	%rdx,0x28(%rsp)
/home/jgarcia/TFG/source_code/SP/x_solve.f:264
  4086d4:	48 8d 44 80 04              	(arith) 	lea	0x4(%rax,%rax,4),%rax
  4086d9:	49 8d 14 04                 	(arith) 	lea	(%r12,%rax,1),%rdx
  4086dd:	41 b8 00 00 00 00           	(move)  	mov	$0,%r8d
/home/jgarcia/TFG/source_code/SP/x_solve.f:239
  4086e3:	48 b8 20 cb 61 00 00 00 00 00	(move)  	mov	$0x61cb20,%rax
  4086ed:	f2 0f 10 0d bb 5d 00 00     	(move)  	movsd	0x5dbb(%rip),%xmm1
  4086f5:	4c 89 64 24 38              	(move)  	mov	%r12,0x38(%rsp)
  4086fa:	49 89 d4                    	(move)  	mov	%rdx,%r12
; ------- Loop 136 entry
696 (loop 136):	
/home/jgarcia/TFG/source_code/SP/x_solve.f:5
  4086fd:	41 83 c0 01                 	(arith) 	add	$0x1,%r8d
/home/jgarcia/TFG/source_code/SP/x_solve.f:239
  408701:	49 63 d0                    	(move)  	movsxd	%r8d,%rdx
  408704:	48 89 d1                    	(move)  	mov	%rdx,%rcx
  408707:	48 c1 e1 09                 	(logic) 	sal	$0x9,%rcx
  40870b:	48 29 d1                    	(arith) 	sub	%rdx,%rcx
  40870e:	48 8d 34 8a                 	(arith) 	lea	(%rdx,%rcx,4),%rsi
  408712:	4a 8d 0c 3e                 	(arith) 	lea	(%rsi,%r15,1),%rcx
  408716:	66 0f 28 c1                 	(move)  	movapd	%xmm1,%xmm0
  40871a:	f2 0f 5e 84 c8 b8 19 66 00  	(arith) 	divsd	0x6619b8(%rax,%rcx,8),%xmm0
/home/jgarcia/TFG/source_code/SP/x_solve.f:240
  408723:	4c 8d b1 38 c3 0c 00        	(arith) 	lea	0xcc338(%rcx),%r14
  40872a:	f2 42 0f 10 14 f0           	(move)  	movsd	(%rax,%r14,8),%xmm2
  408730:	f2 0f 59 d0                 	(arith) 	mulsd	%xmm0,%xmm2
  408734:	f2 42 0f 11 14 f0           	(move)  	movsd	%xmm2,(%rax,%r14,8)
/home/jgarcia/TFG/source_code/SP/x_solve.f:241
  40873a:	4c 8b 54 24 30              	(move)  	mov	0x30(%rsp),%r10
  40873f:	4e 8d 14 16                 	(arith) 	lea	(%rsi,%r10,1),%r10
  408743:	49 8d aa 35 c3 0c 00        	(arith) 	lea	0xcc335(%r10),%rbp
  40874a:	f2 0f 10 14 e8              	(move)  	movsd	(%rax,%rbp,8),%xmm2
  40874f:	f2 0f 59 d0                 	(arith) 	mulsd	%xmm0,%xmm2
  408753:	f2 0f 11 14 e8              	(move)  	movsd	%xmm2,(%rax,%rbp,8)
/home/jgarcia/TFG/source_code/SP/x_solve.f:242
  408758:	48 8d 94 39 20 11 d1 30     	(arith) 	lea	0x30d11120(%rcx,%rdi,1),%rdx
  408760:	f2 0f 59 04 d3              	(arith) 	mulsd	(%rbx,%rdx,8),%xmm0
  408765:	f2 0f 11 04 d3              	(move)  	movsd	%xmm0,(%rbx,%rdx,8)
/home/jgarcia/TFG/source_code/SP/x_solve.f:244
  40876a:	48 8b 54 24 28              	(move)  	mov	0x28(%rsp),%rdx
  40876f:	48 8d 14 16                 	(arith) 	lea	(%rsi,%rdx,1),%rdx
  408773:	4c 8d 8a 37 c3 0c 00        	(arith) 	lea	0xcc337(%rdx),%r9
  40877a:	4c 8d 9a 36 c3 0c 00        	(arith) 	lea	0xcc336(%rdx),%r11
  408781:	f2 42 0f 10 1c d8           	(move)  	movsd	(%rax,%r11,8),%xmm3
  408787:	f2 42 0f 59 1c f0           	(arith) 	mulsd	(%rax,%r14,8),%xmm3
  40878d:	f2 42 0f 10 14 c8           	(move)  	movsd	(%rax,%r9,8),%xmm2
  408793:	f2 0f 5c d3                 	(arith) 	subsd	%xmm3,%xmm2
  408797:	f2 42 0f 11 14 c8           	(move)  	movsd	%xmm2,(%rax,%r9,8)
/home/jgarcia/TFG/source_code/SP/x_solve.f:246
  40879d:	4c 8d b2 38 c3 0c 00        	(arith) 	lea	0xcc338(%rdx),%r14
  4087a4:	f2 42 0f 10 1c d8           	(move)  	movsd	(%rax,%r11,8),%xmm3
  4087aa:	f2 0f 59 1c e8              	(arith) 	mulsd	(%rax,%rbp,8),%xmm3
  4087af:	f2 42 0f 10 14 f0           	(move)  	movsd	(%rax,%r14,8),%xmm2
  4087b5:	f2 0f 5c d3                 	(arith) 	subsd	%xmm3,%xmm2
  4087b9:	f2 42 0f 11 14 f0           	(move)  	movsd	%xmm2,(%rax,%r14,8)
/home/jgarcia/TFG/source_code/SP/x_solve.f:248
  4087bf:	48 8d ac 3a 20 11 d1 30     	(arith) 	lea	0x30d11120(%rdx,%rdi,1),%rbp
  4087c7:	f2 42 0f 59 04 d8           	(arith) 	mulsd	(%rax,%r11,8),%xmm0
  4087cd:	f2 0f 10 14 eb              	(move)  	movsd	(%rbx,%rbp,8),%xmm2
  4087d2:	f2 0f 5c d0                 	(arith) 	subsd	%xmm0,%xmm2
  4087d6:	f2 0f 11 14 eb              	(move)  	movsd	%xmm2,(%rbx,%rbp,8)
/home/jgarcia/TFG/source_code/SP/x_solve.f:250
  4087db:	66 0f 28 c1                 	(move)  	movapd	%xmm1,%xmm0
  4087df:	f2 0f 5e 84 c8 60 33 cc 00  	(arith) 	divsd	0xcc3360(%rax,%rcx,8),%xmm0
/home/jgarcia/TFG/source_code/SP/x_solve.f:251
  4087e8:	4c 8d 99 6d 86 19 00        	(arith) 	lea	0x19866d(%rcx),%r11
  4087ef:	f2 42 0f 10 14 d8           	(move)  	movsd	(%rax,%r11,8),%xmm2
  4087f5:	f2 0f 59 d0                 	(arith) 	mulsd	%xmm0,%xmm2
  4087f9:	f2 42 0f 11 14 d8           	(move)  	movsd	%xmm2,(%rax,%r11,8)
/home/jgarcia/TFG/source_code/SP/x_solve.f:252
  4087ff:	49 81 c2 6a 86 19 00        	(arith) 	add	$0x19866a,%r10
  408806:	f2 42 0f 10 14 d0           	(move)  	movsd	(%rax,%r10,8),%xmm2
  40880c:	f2 0f 59 d0                 	(arith) 	mulsd	%xmm0,%xmm2
  408810:	f2 42 0f 11 14 d0           	(move)  	movsd	%xmm2,(%rax,%r10,8)
/home/jgarcia/TFG/source_code/SP/x_solve.f:253
  408816:	4a 8d 8c 29 20 11 d1 30     	(arith) 	lea	0x30d11120(%rcx,%r13,1),%rcx
  40881e:	f2 0f 59 04 cb              	(arith) 	mulsd	(%rbx,%rcx,8),%xmm0
  408823:	f2 0f 11 04 cb              	(move)  	movsd	%xmm0,(%rbx,%rcx,8)
/home/jgarcia/TFG/source_code/SP/x_solve.f:255
  408828:	48 8d 8a 6c 86 19 00        	(arith) 	lea	0x19866c(%rdx),%rcx
  40882f:	4c 8d b2 6b 86 19 00        	(arith) 	lea	0x19866b(%rdx),%r14
  408836:	f2 42 0f 10 1c f0           	(move)  	movsd	(%rax,%r14,8),%xmm3
  40883c:	f2 42 0f 59 1c d8           	(arith) 	mulsd	(%rax,%r11,8),%xmm3
  408842:	f2 0f 10 14 c8              	(move)  	movsd	(%rax,%rcx,8),%xmm2
  408847:	f2 0f 5c d3                 	(arith) 	subsd	%xmm3,%xmm2
  40884b:	f2 0f 11 14 c8              	(move)  	movsd	%xmm2,(%rax,%rcx,8)
/home/jgarcia/TFG/source_code/SP/x_solve.f:257
  408850:	4c 8d 9a 6d 86 19 00        	(arith) 	lea	0x19866d(%rdx),%r11
  408857:	f2 42 0f 10 1c f0           	(move)  	movsd	(%rax,%r14,8),%xmm3
  40885d:	f2 42 0f 59 1c d0           	(arith) 	mulsd	(%rax,%r10,8),%xmm3
  408863:	f2 42 0f 10 14 d8           	(move)  	movsd	(%rax,%r11,8),%xmm2
  408869:	f2 0f 5c d3                 	(arith) 	subsd	%xmm3,%xmm2
  40886d:	f2 42 0f 11 14 d8           	(move)  	movsd	%xmm2,(%rax,%r11,8)
/home/jgarcia/TFG/source_code/SP/x_solve.f:259
  408873:	4a 8d 94 2a 20 11 d1 30     	(arith) 	lea	0x30d11120(%rdx,%r13,1),%rdx
  40887b:	f2 42 0f 59 04 f0           	(arith) 	mulsd	(%rax,%r14,8),%xmm0
  408881:	f2 0f 10 14 d3              	(move)  	movsd	(%rbx,%rdx,8),%xmm2
  408886:	f2 0f 5c d0                 	(arith) 	subsd	%xmm0,%xmm2
  40888a:	f2 0f 11 14 d3              	(move)  	movsd	%xmm2,(%rbx,%rdx,8)
/home/jgarcia/TFG/source_code/SP/x_solve.f:263
  40888f:	f2 0f 10 04 eb              	(move)  	movsd	(%rbx,%rbp,8),%xmm0
  408894:	f2 42 0f 5e 04 c8           	(arith) 	divsd	(%rax,%r9,8),%xmm0
  40889a:	f2 0f 11 04 eb              	(move)  	movsd	%xmm0,(%rbx,%rbp,8)
/home/jgarcia/TFG/source_code/SP/x_solve.f:264
  40889f:	49 8d 94 34 20 11 d1 30     	(arith) 	lea	0x30d11120(%r12,%rsi,1),%rdx
  4088a7:	f2 0f 10 04 d3              	(move)  	movsd	(%rbx,%rdx,8),%xmm0
  4088ac:	f2 0f 5e 04 c8              	(arith) 	divsd	(%rax,%rcx,8),%xmm0
  4088b1:	f2 0f 11 04 d3              	(move)  	movsd	%xmm0,(%rbx,%rdx,8)
/home/jgarcia/TFG/source_code/SP/x_solve.f:235
  4088b6:	44 39 44 24 20              	(arith) 	cmp	%r8d,0x20(%rsp)
  4088bb:	0f 85 3c fe ff ff           	(control)	jne	4086fd <x_solve_+0xdf9>	; ↰ label 696 (loop 136)
; ------- Loop 136 exit
697:	
  4088c1:	4c 8b 64 24 38              	(move)  	mov	0x38(%rsp),%r12
/home/jgarcia/TFG/source_code/SP/x_solve.f:273
  4088c6:	8b 0d 44 72 20 00           	(move)  	mov	0x207244(%rip),%ecx
  4088cc:	89 4c 24 20                 	(move)  	mov	%ecx,0x20(%rsp)
  4088d0:	85 c9                       	(arith) 	test	%ecx,%ecx
  4088d2:	0f 8e 42 03 00 00           	(control)	jle	408c1a <x_solve_+0x1316>	; ↲ label 626
698:	
/home/jgarcia/TFG/source_code/SP/x_solve.f:274
  4088d8:	8b 05 22 72 20 00           	(move)  	mov	0x207222(%rip),%eax
/home/jgarcia/TFG/source_code/SP/x_solve.f:278
  4088de:	8d 50 fe                    	(arith) 	lea	-0x2(%rax),%edx
  4088e1:	48 63 d2                    	(move)  	movsxd	%edx,%rdx
  4088e4:	4c 8d 34 92                 	(arith) 	lea	(%rdx,%rdx,4),%r14
  4088e8:	83 e8 01                    	(arith) 	sub	$0x1,%eax
  4088eb:	48 98                       	(conv)  	cltq
  4088ed:	4c 8d 3c 80                 	(arith) 	lea	(%rax,%rax,4),%r15
  4088f1:	41 b9 01 00 00 00           	(move)  	mov	$0x1,%r9d
  4088f7:	49 ba 20 cb 61 00 00 00 00 00	(move)  	mov	$0x61cb20,%r10
  408901:	4c 8b 6c 24 40              	(move)  	mov	0x40(%rsp),%r13
  408906:	49 83 c5 01                 	(arith) 	add	$0x1,%r13
/home/jgarcia/TFG/source_code/SP/x_solve.f:284
  40890a:	48 8d 54 92 04              	(arith) 	lea	0x4(%rdx,%rdx,4),%rdx
  40890f:	49 8d 14 14                 	(arith) 	lea	(%r12,%rdx,1),%rdx
  408913:	48 89 54 24 28              	(move)  	mov	%rdx,0x28(%rsp)
  408918:	48 8d 44 80 05              	(arith) 	lea	0x5(%rax,%rax,4),%rax
  40891d:	48 89 44 24 38              	(move)  	mov	%rax,0x38(%rsp)
; ------- Loop 141 entry
699 (loop 141):	
/home/jgarcia/TFG/source_code/SP/x_solve.f:278
  408922:	49 63 c1                    	(move)  	movsxd	%r9d,%rax
  408925:	48 89 c2                    	(move)  	mov	%rax,%rdx
  408928:	48 c1 e2 09                 	(logic) 	sal	$0x9,%rdx
  40892c:	48 29 c2                    	(arith) 	sub	%rax,%rdx
  40892f:	48 8d 0c 90                 	(arith) 	lea	(%rax,%rdx,4),%rcx
  408933:	4e 8d 04 31                 	(arith) 	lea	(%rcx,%r14,1),%r8
  408937:	48 8b 74 24 40              	(move)  	mov	0x40(%rsp),%rsi
  40893c:	4c 01 c6                    	(arith) 	add	%r8,%rsi
  40893f:	49 8d 68 03                 	(arith) 	lea	0x3(%r8),%rbp
  408943:	f2 41 0f 10 14 ea           	(move)  	movsd	(%r10,%rbp,8),%xmm2
  408949:	4e 8d 1c 39                 	(arith) 	lea	(%rcx,%r15,1),%r11
  40894d:	48 8d 86 21 11 d1 30        	(arith) 	lea	0x30d11121(%rsi),%rax
  408954:	48 8d 04 c3                 	(arith) 	lea	(%rbx,%rax,8),%rax
  408958:	48 89 44 24 58              	(move)  	mov	%rax,0x58(%rsp)
  40895d:	4c 89 6c 24 30              	(move)  	mov	%r13,0x30(%rsp)
  408962:	4b 8d 94 2b 20 11 d1 30     	(arith) 	lea	0x30d11120(%r11,%r13,1),%rdx
  40896a:	48 8d 14 d3                 	(arith) 	lea	(%rbx,%rdx,8),%rdx
/home/jgarcia/TFG/source_code/SP/x_solve.f:5
  40896e:	48 b8 40 a1 1c 88 01 00 00 00	(move)  	mov	$0x1881ca140,%rax
  408978:	48 8d 34 f0                 	(arith) 	lea	(%rax,%rsi,8),%rsi
  40897c:	48 8b 44 24 58              	(move)  	mov	0x58(%rsp),%rax
; ------- Loop 137 entry
700 (loop 137):	
/home/jgarcia/TFG/source_code/SP/x_solve.f:278
  408981:	66 0f 28 ca                 	(move)  	movapd	%xmm2,%xmm1
  408985:	f2 0f 59 0a                 	(arith) 	mulsd	(%rdx),%xmm1
  408989:	f2 0f 10 00                 	(move)  	movsd	(%rax),%xmm0
  40898d:	f2 0f 5c c1                 	(arith) 	subsd	%xmm1,%xmm0
  408991:	f2 0f 11 00                 	(move)  	movsd	%xmm0,(%rax)
  408995:	48 83 c0 08                 	(arith) 	add	$0x8,%rax
  408999:	48 83 c2 08                 	(arith) 	add	$0x8,%rdx
/home/jgarcia/TFG/source_code/SP/x_solve.f:276
  40899d:	48 39 f0                    	(arith) 	cmp	%rsi,%rax
  4089a0:	75 df                       	(control)	jne	408981 <x_solve_+0x107d>	; ↰ label 700 (loop 137)
; ------- Loop 137 exit
701:	
/home/jgarcia/TFG/source_code/SP/x_solve.f:282
  4089a2:	49 8d 84 38 20 11 d1 30     	(arith) 	lea	0x30d11120(%r8,%rdi,1),%rax
  4089aa:	49 8d 94 3b 20 11 d1 30     	(arith) 	lea	0x30d11120(%r11,%rdi,1),%rdx
  4089b2:	f2 41 0f 10 8c ea a8 19 66 00	(move)  	movsd	0x6619a8(%r10,%rbp,8),%xmm1
  4089bc:	f2 0f 59 0c d3              	(arith) 	mulsd	(%rbx,%rdx,8),%xmm1
  4089c1:	f2 0f 10 04 c3              	(move)  	movsd	(%rbx,%rax,8),%xmm0
  4089c6:	f2 0f 5c c1                 	(arith) 	subsd	%xmm1,%xmm0
  4089ca:	f2 0f 11 04 c3              	(move)  	movsd	%xmm0,(%rbx,%rax,8)
/home/jgarcia/TFG/source_code/SP/x_solve.f:284
  4089cf:	48 8b 54 24 28              	(move)  	mov	0x28(%rsp),%rdx
  4089d4:	48 8d 84 11 20 11 d1 30     	(arith) 	lea	0x30d11120(%rcx,%rdx,1),%rax
  4089dc:	48 03 4c 24 38              	(arith) 	add	0x38(%rsp),%rcx
  4089e1:	49 8d 94 0c 1f 11 d1 30     	(arith) 	lea	0x30d1111f(%r12,%rcx,1),%rdx
  4089e9:	f2 41 0f 10 8c ea 50 33 cc 00	(move)  	movsd	0xcc3350(%r10,%rbp,8),%xmm1
  4089f3:	f2 0f 59 0c d3              	(arith) 	mulsd	(%rbx,%rdx,8),%xmm1
  4089f8:	f2 0f 10 04 c3              	(move)  	movsd	(%rbx,%rax,8),%xmm0
  4089fd:	f2 0f 5c c1                 	(arith) 	subsd	%xmm1,%xmm0
  408a01:	f2 0f 11 04 c3              	(move)  	movsd	%xmm0,(%rbx,%rax,8)
/home/jgarcia/TFG/source_code/SP/x_solve.f:273
  408a06:	44 3b 4c 24 20              	(arith) 	cmp	0x20(%rsp),%r9d
  408a0b:	74 09                       	(control)	je	408a16 <x_solve_+0x1112>	; ↲ label 702
703:	
  408a0d:	41 83 c1 01                 	(arith) 	add	$0x1,%r9d
  408a11:	e9 0c ff ff ff              	(control)	jmp	408922 <x_solve_+0x101e>	; ↰ label 699 (loop 141)
; ------- Loop 141 exit
702:	
/home/jgarcia/TFG/source_code/SP/x_solve.f:290
  408a16:	8b 0d f4 70 20 00           	(move)  	mov	0x2070f4(%rip),%ecx
  408a1c:	89 4c 24 60                 	(move)  	mov	%ecx,0x60(%rsp)
  408a20:	85 c9                       	(arith) 	test	%ecx,%ecx
  408a22:	0f 8e f2 01 00 00           	(control)	jle	408c1a <x_solve_+0x1316>	; ↲ label 626
704:	
/home/jgarcia/TFG/source_code/SP/x_solve.f:291
  408a28:	8b 05 d2 70 20 00           	(move)  	mov	0x2070d2(%rip),%eax
  408a2e:	83 e8 03                    	(arith) 	sub	$0x3,%eax
  408a31:	89 44 24 58                 	(move)  	mov	%eax,0x58(%rsp)
  408a35:	c7 44 24 54 01 00 00 00     	(move)  	movl	$0x1,0x54(%rsp)
/home/jgarcia/TFG/source_code/SP/x_solve.f:297
  408a3d:	89 44 24 64                 	(move)  	mov	%eax,0x64(%rsp)
  408a41:	48 be 20 cb 61 00 00 00 00 00	(move)  	mov	$0x61cb20,%rsi
; ------- Loop 138 entry
705 (loop 138):	
/home/jgarcia/TFG/source_code/SP/x_solve.f:291
  408a4b:	83 7c 24 58 00              	(arith) 	cmpl	$0,0x58(%rsp)
  408a50:	0f 88 b0 01 00 00           	(control)	js	408c06 <x_solve_+0x1302>	; ↲ label 706
707:	
/home/jgarcia/TFG/source_code/SP/x_solve.f:297
  408a56:	48 63 44 24 54              	(move)  	movsxd	0x54(%rsp),%rax
  408a5b:	48 89 c2                    	(move)  	mov	%rax,%rdx
  408a5e:	48 c1 e2 09                 	(logic) 	sal	$0x9,%rdx
  408a62:	48 29 c2                    	(arith) 	sub	%rax,%rdx
  408a65:	4c 8d 14 90                 	(arith) 	lea	(%rax,%rdx,4),%r10
  408a69:	8b 6c 24 64                 	(move)  	mov	0x64(%rsp),%ebp
/home/jgarcia/TFG/source_code/SP/x_solve.f:308
  408a6d:	48 8b 44 24 40              	(move)  	mov	0x40(%rsp),%rax
  408a72:	4c 01 d0                    	(arith) 	add	%r10,%rax
  408a75:	48 89 44 24 38              	(move)  	mov	%rax,0x38(%rsp)
; ------- Loop 140 entry
708 (loop 140):	
/home/jgarcia/TFG/source_code/SP/x_solve.f:297
  408a7a:	48 63 c5                    	(move)  	movsxd	%ebp,%rax
  408a7d:	4c 8d 34 80                 	(arith) 	lea	(%rax,%rax,4),%r14
  408a81:	4d 01 d6                    	(arith) 	add	%r10,%r14
  408a84:	4c 8b 5c 24 40              	(move)  	mov	0x40(%rsp),%r11
  408a89:	4d 01 f3                    	(arith) 	add	%r14,%r11
  408a8c:	4d 8d 6e 03                 	(arith) 	lea	0x3(%r14),%r13
  408a90:	f2 42 0f 10 1c ee           	(move)  	movsd	(%rsi,%r13,8),%xmm3
  408a96:	44 8d 4d 01                 	(arith) 	lea	0x1(%rbp),%r9d
  408a9a:	4d 63 c9                    	(move)  	movsxd	%r9d,%r9
  408a9d:	4f 8d 3c 89                 	(arith) 	lea	(%r9,%r9,4),%r15
  408aa1:	4d 01 d7                    	(arith) 	add	%r10,%r15
  408aa4:	48 8d 44 80 05              	(arith) 	lea	0x5(%rax,%rax,4),%rax
  408aa9:	4c 01 d0                    	(arith) 	add	%r10,%rax
  408aac:	48 89 44 24 28              	(move)  	mov	%rax,0x28(%rsp)
  408ab1:	49 89 c4                    	(move)  	mov	%rax,%r12
  408ab4:	49 83 ec 01                 	(arith) 	sub	$0x1,%r12
  408ab8:	f2 42 0f 10 14 e6           	(move)  	movsd	(%rsi,%r12,8),%xmm2
  408abe:	44 8d 45 02                 	(arith) 	lea	0x2(%rbp),%r8d
  408ac2:	4d 63 c0                    	(move)  	movsxd	%r8d,%r8
  408ac5:	4b 8d 04 80                 	(arith) 	lea	(%r8,%r8,4),%rax
  408ac9:	4c 01 d0                    	(arith) 	add	%r10,%rax
  408acc:	48 89 44 24 20              	(move)  	mov	%rax,0x20(%rsp)
  408ad1:	49 8d 83 21 11 d1 30        	(arith) 	lea	0x30d11121(%r11),%rax
  408ad8:	48 8d 04 c3                 	(arith) 	lea	(%rbx,%rax,8),%rax
  408adc:	48 89 44 24 08              	(move)  	mov	%rax,0x8(%rsp)
  408ae1:	48 8b 4c 24 30              	(move)  	mov	0x30(%rsp),%rcx
  408ae6:	49 8d 94 0f 20 11 d1 30     	(arith) 	lea	0x30d11120(%r15,%rcx,1),%rdx
  408aee:	48 8d 14 d3                 	(arith) 	lea	(%rbx,%rdx,8),%rdx
  408af2:	48 89 54 24 10              	(move)  	mov	%rdx,0x10(%rsp)
  408af7:	48 8b 44 24 20              	(move)  	mov	0x20(%rsp),%rax
  408afc:	48 8d 94 08 20 11 d1 30     	(arith) 	lea	0x30d11120(%rax,%rcx,1),%rdx
  408b04:	48 8d 14 d3                 	(arith) 	lea	(%rbx,%rdx,8),%rdx
/home/jgarcia/TFG/source_code/SP/x_solve.f:5
  408b08:	48 8b 4c 24 48              	(move)  	mov	0x48(%rsp),%rcx
  408b0d:	4e 8d 1c d9                 	(arith) 	lea	(%rcx,%r11,8),%r11
  408b11:	48 8b 4c 24 10              	(move)  	mov	0x10(%rsp),%rcx
  408b16:	48 8b 44 24 08              	(move)  	mov	0x8(%rsp),%rax
; ------- Loop 139 entry
709 (loop 139):	
/home/jgarcia/TFG/source_code/SP/x_solve.f:297
  408b1b:	66 0f 28 cb                 	(move)  	movapd	%xmm3,%xmm1
  408b1f:	f2 0f 59 09                 	(arith) 	mulsd	(%rcx),%xmm1
  408b23:	f2 0f 10 00                 	(move)  	movsd	(%rax),%xmm0
  408b27:	f2 0f 5c c1                 	(arith) 	subsd	%xmm1,%xmm0
  408b2b:	66 0f 28 ca                 	(move)  	movapd	%xmm2,%xmm1
  408b2f:	f2 0f 59 0a                 	(arith) 	mulsd	(%rdx),%xmm1
  408b33:	f2 0f 5c c1                 	(arith) 	subsd	%xmm1,%xmm0
  408b37:	f2 0f 11 00                 	(move)  	movsd	%xmm0,(%rax)
  408b3b:	48 83 c0 08                 	(arith) 	add	$0x8,%rax
  408b3f:	48 83 c1 08                 	(arith) 	add	$0x8,%rcx
  408b43:	48 83 c2 08                 	(arith) 	add	$0x8,%rdx
/home/jgarcia/TFG/source_code/SP/x_solve.f:294
  408b47:	4c 39 d8                    	(arith) 	cmp	%r11,%rax
  408b4a:	75 cf                       	(control)	jne	408b1b <x_solve_+0x1217>	; ↰ label 709 (loop 139)
; ------- Loop 139 exit
710:	
/home/jgarcia/TFG/source_code/SP/x_solve.f:305
  408b4c:	49 8d 84 3e 20 11 d1 30     	(arith) 	lea	0x30d11120(%r14,%rdi,1),%rax
  408b54:	49 8d 94 3f 20 11 d1 30     	(arith) 	lea	0x30d11120(%r15,%rdi,1),%rdx
  408b5c:	f2 42 0f 10 8c ee a8 19 66 00	(move)  	movsd	0x6619a8(%rsi,%r13,8),%xmm1
  408b66:	f2 0f 59 0c d3              	(arith) 	mulsd	(%rbx,%rdx,8),%xmm1
  408b6b:	f2 0f 10 04 c3              	(move)  	movsd	(%rbx,%rax,8),%xmm0
  408b70:	f2 0f 5c c1                 	(arith) 	subsd	%xmm1,%xmm0
  408b74:	48 8b 4c 24 20              	(move)  	mov	0x20(%rsp),%rcx
  408b79:	48 8d 94 39 20 11 d1 30     	(arith) 	lea	0x30d11120(%rcx,%rdi,1),%rdx
  408b81:	f2 42 0f 10 8c e6 a8 19 66 00	(move)  	movsd	0x6619a8(%rsi,%r12,8),%xmm1
  408b8b:	f2 0f 59 0c d3              	(arith) 	mulsd	(%rbx,%rdx,8),%xmm1
  408b90:	f2 0f 5c c1                 	(arith) 	subsd	%xmm1,%xmm0
  408b94:	f2 0f 11 04 c3              	(move)  	movsd	%xmm0,(%rbx,%rax,8)
/home/jgarcia/TFG/source_code/SP/x_solve.f:308
  408b99:	48 8b 4c 24 28              	(move)  	mov	0x28(%rsp),%rcx
  408b9e:	48 8b 54 24 40              	(move)  	mov	0x40(%rsp),%rdx
  408ba3:	48 8d 84 11 20 11 d1 30     	(arith) 	lea	0x30d11120(%rcx,%rdx,1),%rax
  408bab:	4b 8d 54 89 05              	(arith) 	lea	0x5(%r9,%r9,4),%rdx
  408bb0:	48 8b 4c 24 38              	(move)  	mov	0x38(%rsp),%rcx
  408bb5:	48 8d 94 0a 20 11 d1 30     	(arith) 	lea	0x30d11120(%rdx,%rcx,1),%rdx
  408bbd:	f2 42 0f 10 8c ee 50 33 cc 00	(move)  	movsd	0xcc3350(%rsi,%r13,8),%xmm1
  408bc7:	f2 0f 59 0c d3              	(arith) 	mulsd	(%rbx,%rdx,8),%xmm1
  408bcc:	f2 0f 10 04 c3              	(move)  	movsd	(%rbx,%rax,8),%xmm0
  408bd1:	f2 0f 5c c1                 	(arith) 	subsd	%xmm1,%xmm0
  408bd5:	4b 8d 54 80 05              	(arith) 	lea	0x5(%r8,%r8,4),%rdx
  408bda:	48 8d 94 0a 20 11 d1 30     	(arith) 	lea	0x30d11120(%rdx,%rcx,1),%rdx
  408be2:	f2 42 0f 10 8c e6 50 33 cc 00	(move)  	movsd	0xcc3350(%rsi,%r12,8),%xmm1
  408bec:	f2 0f 59 0c d3              	(arith) 	mulsd	(%rbx,%rdx,8),%xmm1
  408bf1:	f2 0f 5c c1                 	(arith) 	subsd	%xmm1,%xmm0
  408bf5:	f2 0f 11 04 c3              	(move)  	movsd	%xmm0,(%rbx,%rax,8)
/home/jgarcia/TFG/source_code/SP/x_solve.f:291
  408bfa:	85 ed                       	(arith) 	test	%ebp,%ebp
  408bfc:	74 08                       	(control)	je	408c06 <x_solve_+0x1302>	; ↲ label 706
711:	
  408bfe:	83 ed 01                    	(arith) 	sub	$0x1,%ebp
  408c01:	e9 74 fe ff ff              	(control)	jmp	408a7a <x_solve_+0x1176>	; ↰ label 708 (loop 140)
; ------- Loop 140 exit
706:	
/home/jgarcia/TFG/source_code/SP/x_solve.f:290
  408c06:	8b 44 24 60                 	(move)  	mov	0x60(%rsp),%eax
  408c0a:	39 44 24 54                 	(arith) 	cmp	%eax,0x54(%rsp)
  408c0e:	74 0a                       	(control)	je	408c1a <x_solve_+0x1316>	; ↲ label 626
712:	
  408c10:	83 44 24 54 01              	(arith) 	addl	$0x1,0x54(%rsp)
  408c15:	e9 31 fe ff ff              	(control)	jmp	408a4b <x_solve_+0x1147>	; ↰ label 705 (loop 138)
; ------- Loop 138 exit
626:	
/home/jgarcia/TFG/source_code/SP/x_solve.f:26
  408c1a:	8b 54 24 6c                 	(move)  	mov	0x6c(%rsp),%edx
  408c1e:	39 54 24 68                 	(arith) 	cmp	%edx,0x68(%rsp)
  408c22:	74 0a                       	(control)	je	408c2e <x_solve_+0x132a>	; ↲ label 622
713:	
  408c24:	83 44 24 68 01              	(arith) 	addl	$0x1,0x68(%rsp)
  408c29:	e9 32 ed ff ff              	(control)	jmp	407960 <x_solve_+0x5c>	; ↰ label 624 (loop 131)
; ------- Loop 131 exit
622:	
/home/jgarcia/TFG/source_code/SP/x_solve.f:312
  408c2e:	83 3d e3 6e 20 00 00        	(arith) 	cmpl	$0,0x206ee3(%rip)
  408c35:	74 0f                       	(control)	je	408c46 <x_solve_+0x1342>	; ↲ label 714
715:	
  408c37:	bf 40 e5 40 00              	(move)  	mov	$0x40e540,%edi
  408c3c:	b8 00 00 00 00              	(move)  	mov	$0,%eax
  408c41:	e8 c5 53 00 00              	(control)	call	40e00b <timer_stop_>	; ⇄ timer_stop
714:	
/home/jgarcia/TFG/source_code/SP/x_solve.f:317
  408c46:	b8 00 00 00 00              	(move)  	mov	$0,%eax
  408c4b:	e8 14 00 00 00              	(control)	call	408c64 <ninvr_>	; ⇄ ninvr
717:	
/home/jgarcia/TFG/source_code/SP/x_solve.f:320
  408c50:	48 81 c4 88 00 00 00        	(arith) 	add	$0x88,%rsp
  408c57:	5b                          	(move)  	pop	%rbx
  408c58:	5d                          	(move)  	pop	%rbp
  408c59:	41 5c                       	(move)  	pop	%r12
  408c5b:	41 5d                       	(move)  	pop	%r13
  408c5d:	41 5e                       	(move)  	pop	%r14
  408c5f:	41 5f                       	(move)  	pop	%r15
  408c61:	c3                          	(control)	ret
718:	
/home/jgarcia/TFG/source_code/SP/ninvr.f:5
  408c62:	90                          	(other) 	nop
  408c63:	90                          	(other) 	nop


0000000000408c64 <ninvr>:
716 (function ninvr_):	
/home/jgarcia/TFG/source_code/SP/ninvr.f:5
  408c64:	41 57                       	(move)  	push	%r15
  408c66:	41 56                       	(move)  	push	%r14
  408c68:	41 55                       	(move)  	push	%r13
  408c6a:	41 54                       	(move)  	push	%r12
  408c6c:	55                          	(move)  	push	%rbp
  408c6d:	53                          	(move)  	push	%rbx
  408c6e:	48 83 ec 28                 	(arith) 	sub	$0x28,%rsp
/home/jgarcia/TFG/source_code/SP/ninvr.f:19
  408c72:	83 3d 9f 6e 20 00 00        	(arith) 	cmpl	$0,0x206e9f(%rip)
  408c79:	74 0f                       	(control)	je	408c8a <ninvr_+0x26>	; ↲ label 719
720:	
  408c7b:	bf 44 e5 40 00              	(move)  	mov	$0x40e544,%edi
  408c80:	b8 00 00 00 00              	(move)  	mov	$0,%eax
  408c85:	e8 ad 53 00 00              	(control)	call	40e037 <timer_start_>	; ⇄ timer_start
719:	
/home/jgarcia/TFG/source_code/SP/ninvr.f:20
  408c8a:	8b 05 84 6e 20 00           	(move)  	mov	0x206e84(%rip),%eax
  408c90:	89 44 24 1c                 	(move)  	mov	%eax,0x1c(%rsp)
  408c94:	85 c0                       	(arith) 	test	%eax,%eax
  408c96:	0f 8e 5e 01 00 00           	(control)	jle	408dfa <ninvr_+0x196>	; ↲ label 721
722:	
/home/jgarcia/TFG/source_code/SP/ninvr.f:21
  408c9c:	8b 15 6e 6e 20 00           	(move)  	mov	0x206e6e(%rip),%edx
  408ca2:	89 54 24 0c                 	(move)  	mov	%edx,0xc(%rsp)
/home/jgarcia/TFG/source_code/SP/ninvr.f:22
  408ca6:	8b 1d 60 6e 20 00           	(move)  	mov	0x206e60(%rip),%ebx
/home/jgarcia/TFG/source_code/SP/ninvr.f:30
  408cac:	f2 0f 10 25 b4 6d 20 00     	(move)  	movsd	0x206db4(%rip),%xmm4
  408cb4:	c7 44 24 18 01 00 00 00     	(move)  	movl	$0x1,0x18(%rsp)
/home/jgarcia/TFG/source_code/SP/ninvr.f:24
  408cbc:	48 b8 20 18 94 01 00 00 00 00	(move)  	mov	$0x1941820,%rax
/home/jgarcia/TFG/source_code/SP/ninvr.f:31
  408cc6:	f2 0f 10 3d ea 57 00 00     	(move)  	movsd	0x57ea(%rip),%xmm7
/home/jgarcia/TFG/source_code/SP/ninvr.f:33
  408cce:	f2 0f 10 35 0a 58 00 00     	(move)  	movsd	0x580a(%rip),%xmm6
; ------- Loop 156 entry
723 (loop 156):	
/home/jgarcia/TFG/source_code/SP/ninvr.f:21
  408cd6:	83 7c 24 0c 00              	(arith) 	cmpl	$0,0xc(%rsp)
  408cdb:	0f 8e 05 01 00 00           	(control)	jle	408de6 <ninvr_+0x182>	; ↲ label 724
725:	
/home/jgarcia/TFG/source_code/SP/ninvr.f:24
  408ce1:	4c 63 64 24 18              	(move)  	movsxd	0x18(%rsp),%r12
  408ce6:	4d 69 e4 35 c3 0c 00        	(arith) 	imul	$0xcc335,%r12,%r12
/home/jgarcia/TFG/source_code/SP/ninvr.f:25
  408ced:	4d 8d 7c 24 01              	(arith) 	lea	0x1(%r12),%r15
/home/jgarcia/TFG/source_code/SP/ninvr.f:26
  408cf2:	4d 8d 74 24 02              	(arith) 	lea	0x2(%r12),%r14
/home/jgarcia/TFG/source_code/SP/ninvr.f:27
  408cf7:	4d 8d 6c 24 03              	(arith) 	lea	0x3(%r12),%r13
/home/jgarcia/TFG/source_code/SP/ninvr.f:28
  408cfc:	49 8d 54 24 ff              	(arith) 	lea	-0x1(%r12),%rdx
  408d01:	48 89 54 24 10              	(move)  	mov	%rdx,0x10(%rsp)
  408d06:	c7 44 24 08 01 00 00 00     	(move)  	movl	$0x1,0x8(%rsp)
; ------- Loop 157 entry
726 (loop 157):	
/home/jgarcia/TFG/source_code/SP/ninvr.f:22
  408d0e:	85 db                       	(arith) 	test	%ebx,%ebx
  408d10:	0f 8e bc 00 00 00           	(control)	jle	408dd2 <ninvr_+0x16e>	; ↲ label 727
728:	
/home/jgarcia/TFG/source_code/SP/ninvr.f:24
  408d16:	48 63 54 24 08              	(move)  	movsxd	0x8(%rsp),%rdx
  408d1b:	48 89 d1                    	(move)  	mov	%rdx,%rcx
  408d1e:	48 c1 e1 09                 	(logic) 	sal	$0x9,%rcx
  408d22:	48 29 d1                    	(arith) 	sub	%rdx,%rcx
  408d25:	4c 8d 14 8a                 	(arith) 	lea	(%rdx,%rcx,4),%r10
/home/jgarcia/TFG/source_code/SP/ninvr.f:28
  408d29:	4c 8b 5c 24 10              	(move)  	mov	0x10(%rsp),%r11
  408d2e:	4f 8d 1c 1a                 	(arith) 	lea	(%r10,%r11,1),%r11
  408d32:	b9 00 00 00 00              	(move)  	mov	$0,%ecx
; ------- Loop 158 entry
729 (loop 158):	
/home/jgarcia/TFG/source_code/SP/ninvr.f:5
  408d37:	83 c1 01                    	(arith) 	add	$0x1,%ecx
/home/jgarcia/TFG/source_code/SP/ninvr.f:24
  408d3a:	48 63 f1                    	(move)  	movsxd	%ecx,%rsi
  408d3d:	48 8d 14 b6                 	(arith) 	lea	(%rsi,%rsi,4),%rdx
  408d41:	4c 01 d2                    	(arith) 	add	%r10,%rdx
  408d44:	4d 8d 84 14 20 11 d1 30     	(arith) 	lea	0x30d11120(%r12,%rdx,1),%r8
  408d4c:	4e 8b 0c c0                 	(move)  	mov	(%rax,%r8,8),%r9
/home/jgarcia/TFG/source_code/SP/ninvr.f:27
  408d50:	49 8d bc 15 20 11 d1 30     	(arith) 	lea	0x30d11120(%r13,%rdx,1),%rdi
  408d58:	f2 0f 10 1c f8              	(move)  	movsd	(%rax,%rdi,8),%xmm3
/home/jgarcia/TFG/source_code/SP/ninvr.f:28
  408d5d:	48 8d 74 b6 05              	(arith) 	lea	0x5(%rsi,%rsi,4),%rsi
  408d62:	49 8d b4 33 20 11 d1 30     	(arith) 	lea	0x30d11120(%r11,%rsi,1),%rsi
  408d6a:	f2 0f 10 14 f0              	(move)  	movsd	(%rax,%rsi,8),%xmm2
/home/jgarcia/TFG/source_code/SP/ninvr.f:30
  408d6f:	49 8d ac 16 20 11 d1 30     	(arith) 	lea	0x30d11120(%r14,%rdx,1),%rbp
  408d77:	66 0f 28 cc                 	(move)  	movapd	%xmm4,%xmm1
  408d7b:	f2 0f 59 0c e8              	(arith) 	mulsd	(%rax,%rbp,8),%xmm1
/home/jgarcia/TFG/source_code/SP/ninvr.f:31
  408d80:	66 0f 28 c3                 	(move)  	movapd	%xmm3,%xmm0
  408d84:	f2 0f 58 c2                 	(arith) 	addsd	%xmm2,%xmm0
  408d88:	f2 0f 59 c7                 	(arith) 	mulsd	%xmm7,%xmm0
/home/jgarcia/TFG/source_code/SP/ninvr.f:33
  408d8c:	49 8d 94 17 20 11 d1 30     	(arith) 	lea	0x30d11120(%r15,%rdx,1),%rdx
  408d94:	f2 0f 10 2c d0              	(move)  	movsd	(%rax,%rdx,8),%xmm5
  408d99:	66 0f 57 ee                 	(logic) 	xorpd	%xmm6,%xmm5
  408d9d:	f2 42 0f 11 2c c0           	(move)  	movsd	%xmm5,(%rax,%r8,8)
/home/jgarcia/TFG/source_code/SP/ninvr.f:34
  408da3:	4c 89 0c d0                 	(move)  	mov	%r9,(%rax,%rdx,8)
/home/jgarcia/TFG/source_code/SP/ninvr.f:35
  408da7:	f2 0f 5c da                 	(arith) 	subsd	%xmm2,%xmm3
  408dab:	f2 0f 59 dc                 	(arith) 	mulsd	%xmm4,%xmm3
  408daf:	f2 0f 11 1c e8              	(move)  	movsd	%xmm3,(%rax,%rbp,8)
/home/jgarcia/TFG/source_code/SP/ninvr.f:36
  408db4:	66 0f 28 d0                 	(move)  	movapd	%xmm0,%xmm2
  408db8:	f2 0f 5c d1                 	(arith) 	subsd	%xmm1,%xmm2
  408dbc:	f2 0f 11 14 f8              	(move)  	movsd	%xmm2,(%rax,%rdi,8)
/home/jgarcia/TFG/source_code/SP/ninvr.f:37
  408dc1:	f2 0f 58 c1                 	(arith) 	addsd	%xmm1,%xmm0
  408dc5:	f2 0f 11 04 f0              	(move)  	movsd	%xmm0,(%rax,%rsi,8)
/home/jgarcia/TFG/source_code/SP/ninvr.f:22
  408dca:	39 cb                       	(arith) 	cmp	%ecx,%ebx
  408dcc:	0f 85 65 ff ff ff           	(control)	jne	408d37 <ninvr_+0xd3>	; ↰ label 729 (loop 158)
; ------- Loop 158 exit
727:	
/home/jgarcia/TFG/source_code/SP/ninvr.f:21
  408dd2:	8b 54 24 0c                 	(move)  	mov	0xc(%rsp),%edx
  408dd6:	39 54 24 08                 	(arith) 	cmp	%edx,0x8(%rsp)
  408dda:	74 0a                       	(control)	je	408de6 <ninvr_+0x182>	; ↲ label 724
730:	
  408ddc:	83 44 24 08 01              	(arith) 	addl	$0x1,0x8(%rsp)
  408de1:	e9 28 ff ff ff              	(control)	jmp	408d0e <ninvr_+0xaa>	; ↰ label 726 (loop 157)
; ------- Loop 157 exit
724:	
/home/jgarcia/TFG/source_code/SP/ninvr.f:20
  408de6:	8b 54 24 1c                 	(move)  	mov	0x1c(%rsp),%edx
  408dea:	39 54 24 18                 	(arith) 	cmp	%edx,0x18(%rsp)
  408dee:	74 0a                       	(control)	je	408dfa <ninvr_+0x196>	; ↲ label 721
731:	
  408df0:	83 44 24 18 01              	(arith) 	addl	$0x1,0x18(%rsp)
  408df5:	e9 dc fe ff ff              	(control)	jmp	408cd6 <ninvr_+0x72>	; ↰ label 723 (loop 156)
; ------- Loop 156 exit
721:	
/home/jgarcia/TFG/source_code/SP/ninvr.f:41
  408dfa:	83 3d 17 6d 20 00 00        	(arith) 	cmpl	$0,0x206d17(%rip)
  408e01:	74 0f                       	(control)	je	408e12 <ninvr_+0x1ae>	; ↲ label 732
733:	
  408e03:	bf 44 e5 40 00              	(move)  	mov	$0x40e544,%edi
  408e08:	b8 00 00 00 00              	(move)  	mov	$0,%eax
  408e0d:	e8 f9 51 00 00              	(control)	call	40e00b <timer_stop_>	; ⇄ timer_stop
732:	
/home/jgarcia/TFG/source_code/SP/ninvr.f:44
  408e12:	48 83 c4 28                 	(arith) 	add	$0x28,%rsp
  408e16:	5b                          	(move)  	pop	%rbx
  408e17:	5d                          	(move)  	pop	%rbp
  408e18:	41 5c                       	(move)  	pop	%r12
  408e1a:	41 5d                       	(move)  	pop	%r13
  408e1c:	41 5e                       	(move)  	pop	%r14
  408e1e:	41 5f                       	(move)  	pop	%r15
  408e20:	c3                          	(control)	ret
734:	
/home/jgarcia/TFG/source_code/SP/y_solve.f:5
  408e21:	90                          	(other) 	nop
  408e22:	90                          	(other) 	nop
  408e23:	90                          	(other) 	nop


0000000000408e24 <y_solve>:
413 (function y_solve_):	
/home/jgarcia/TFG/source_code/SP/y_solve.f:5
  408e24:	41 57                       	(move)  	push	%r15
  408e26:	41 56                       	(move)  	push	%r14
  408e28:	41 55                       	(move)  	push	%r13
  408e2a:	41 54                       	(move)  	push	%r12
  408e2c:	55                          	(move)  	push	%rbp
  408e2d:	53                          	(move)  	push	%rbx
  408e2e:	48 83 ec 78                 	(arith) 	sub	$0x78,%rsp
/home/jgarcia/TFG/source_code/SP/y_solve.f:26
  408e32:	83 3d df 6c 20 00 00        	(arith) 	cmpl	$0,0x206cdf(%rip)
  408e39:	74 0f                       	(control)	je	408e4a <y_solve_+0x26>	; ↲ label 735
736:	
  408e3b:	bf 48 e5 40 00              	(move)  	mov	$0x40e548,%edi
  408e40:	b8 00 00 00 00              	(move)  	mov	$0,%eax
  408e45:	e8 ed 51 00 00              	(control)	call	40e037 <timer_start_>	; ⇄ timer_start
735:	
/home/jgarcia/TFG/source_code/SP/y_solve.f:27
  408e4a:	8b 05 b8 6c 20 00           	(move)  	mov	0x206cb8(%rip),%eax
  408e50:	83 e8 02                    	(arith) 	sub	$0x2,%eax
  408e53:	89 44 24 5c                 	(move)  	mov	%eax,0x5c(%rsp)
  408e57:	85 c0                       	(arith) 	test	%eax,%eax
  408e59:	0f 8e b9 13 00 00           	(control)	jle	40a218 <y_solve_+0x13f4>	; ↲ label 737
738:	
  408e5f:	c7 44 24 58 01 00 00 00     	(move)  	movl	$0x1,0x58(%rsp)
/home/jgarcia/TFG/source_code/SP/y_solve.f:41
  408e67:	48 bd 20 18 94 01 00 00 00 00	(move)  	mov	$0x1941820,%rbp
/home/jgarcia/TFG/source_code/SP/y_solve.f:50
  408e71:	48 bb 20 cb 61 00 00 00 00 00	(move)  	mov	$0x61cb20,%rbx
; ------- Loop 159 entry
739 (loop 159):	
/home/jgarcia/TFG/source_code/SP/y_solve.f:29
  408e7b:	8b 05 8f 6c 20 00           	(move)  	mov	0x206c8f(%rip),%eax
  408e81:	83 c0 01                    	(arith) 	add	$0x1,%eax
  408e84:	89 44 24 6c                 	(move)  	mov	%eax,0x6c(%rsp)
  408e88:	be 0c fb 60 00              	(move)  	mov	$0x60fb0c,%esi
  408e8d:	48 8d 7c 24 6c              	(arith) 	lea	0x6c(%rsp),%rdi
  408e92:	b8 00 00 00 00              	(move)  	mov	$0,%eax
  408e97:	e8 36 8e ff ff              	(control)	call	401cd2 <lhsinitj_>	; ⇄ lhsinitj
740:	
/home/jgarcia/TFG/source_code/SP/y_solve.f:39
  408e9c:	8b 05 5e 6c 20 00           	(move)  	mov	0x206c5e(%rip),%eax
  408ea2:	83 e8 02                    	(arith) 	sub	$0x2,%eax
  408ea5:	89 44 24 28                 	(move)  	mov	%eax,0x28(%rsp)
  408ea9:	85 c0                       	(arith) 	test	%eax,%eax
  408eab:	0f 8e f6 02 00 00           	(control)	jle	4091a7 <y_solve_+0x383>	; ↲ label 741
742:	
/home/jgarcia/TFG/source_code/SP/y_solve.f:40
  408eb1:	44 8b 1d 4c 6c 20 00        	(move)  	mov	0x206c4c(%rip),%r11d
  408eb8:	45 8d 63 ff                 	(arith) 	lea	-0x1(%r11),%r12d
/home/jgarcia/TFG/source_code/SP/y_solve.f:41
  408ebc:	48 63 44 24 58              	(move)  	movsxd	0x58(%rsp),%rax
  408ec1:	48 69 c0 71 8d 02 00        	(arith) 	imul	$0x28d71,%rax,%rax
  408ec8:	48 89 44 24 30              	(move)  	mov	%rax,0x30(%rsp)
  408ecd:	f2 44 0f 10 2d 32 6b 20 00  	(move)  	movsd	0x206b32(%rip),%xmm13
/home/jgarcia/TFG/source_code/SP/y_solve.f:46
  408ed6:	f2 44 0f 10 25 11 6c 20 00  	(move)  	movsd	0x206c11(%rip),%xmm12
  408edf:	f2 44 0f 10 1d 98 67 20 00  	(move)  	movsd	0x206798(%rip),%xmm11
  408ee8:	f2 44 0f 10 15 0f 6b 20 00  	(move)  	movsd	0x206b0f(%rip),%xmm10
  408ef1:	f2 44 0f 10 0d 96 67 20 00  	(move)  	movsd	0x206796(%rip),%xmm9
  408efa:	f2 44 0f 10 05 dd 69 20 00  	(move)  	movsd	0x2069dd(%rip),%xmm8
  408f03:	f2 0f 10 2d 65 67 20 00     	(move)  	movsd	0x206765(%rip),%xmm5
/home/jgarcia/TFG/source_code/SP/y_solve.f:49
  408f0b:	41 83 eb 02                 	(arith) 	sub	$0x2,%r11d
/home/jgarcia/TFG/source_code/SP/y_solve.f:51
  408f0f:	f2 0f 10 25 69 6b 20 00     	(move)  	movsd	0x206b69(%rip),%xmm4
  408f17:	f2 0f 10 1d 59 6b 20 00     	(move)  	movsd	0x206b59(%rip),%xmm3
/home/jgarcia/TFG/source_code/SP/y_solve.f:52
  408f1f:	f2 0f 10 3d 79 6b 20 00     	(move)  	movsd	0x206b79(%rip),%xmm7
  408f27:	41 bf 01 00 00 00           	(move)  	mov	$0x1,%r15d
/home/jgarcia/TFG/source_code/SP/y_solve.f:50
  408f2d:	41 ba 00 00 00 00           	(move)  	mov	$0,%r10d
/home/jgarcia/TFG/source_code/SP/y_solve.f:52
  408f33:	f2 0f 10 35 75 55 00 00     	(move)  	movsd	0x5575(%rip),%xmm6
; ------- Loop 181 entry
743 (loop 181):	
/home/jgarcia/TFG/source_code/SP/y_solve.f:40
  408f3b:	45 85 e4                    	(arith) 	test	%r12d,%r12d
  408f3e:	0f 88 ba 00 00 00           	(control)	js	408ffe <y_solve_+0x1da>	; ↲ label 744
745:	
/home/jgarcia/TFG/source_code/SP/y_solve.f:41
  408f44:	4d 63 c7                    	(move)  	movsxd	%r15d,%r8
  408f47:	4c 03 44 24 30              	(arith) 	add	0x30(%rsp),%r8
  408f4c:	ba 00 00 00 00              	(move)  	mov	$0,%edx
/home/jgarcia/TFG/source_code/SP/y_solve.f:42
  408f51:	be 20 fb 60 00              	(move)  	mov	$0x60fb20,%esi
/home/jgarcia/TFG/source_code/SP/y_solve.f:46
  408f56:	f2 0f 11 6c 24 18           	(move)  	movsd	%xmm5,0x18(%rsp)
  408f5c:	4c 8b 4c 24 18              	(move)  	mov	0x18(%rsp),%r9
; ------- Loop 183 entry
746 (loop 183):	
/home/jgarcia/TFG/source_code/SP/y_solve.f:41
  408f61:	48 63 c2                    	(move)  	movsxd	%edx,%rax
  408f64:	48 69 c8 99 01 00 00        	(arith) 	imul	$0x199,%rax,%rcx
  408f6b:	4c 01 c1                    	(arith) 	add	%r8,%rcx
  408f6e:	48 8d b9 d8 cc 9c 24        	(arith) 	lea	0x249cccd8(%rcx),%rdi
  408f75:	66 41 0f 28 cd              	(move)  	movapd	%xmm13,%xmm1
  408f7a:	f2 0f 59 4c fd 00           	(arith) 	mulsd	(%rbp,%rdi,8),%xmm1
/home/jgarcia/TFG/source_code/SP/y_solve.f:42
  408f80:	48 81 c1 90 88 68 18        	(arith) 	add	$0x18688890,%rcx
  408f87:	48 8b 4c cd 00              	(move)  	mov	(%rbp,%rcx,8),%rcx
  408f8c:	48 89 0c c6                 	(move)  	mov	%rcx,(%rsi,%rax,8)
/home/jgarcia/TFG/source_code/SP/y_solve.f:46
  408f90:	66 41 0f 28 c4              	(move)  	movapd	%xmm12,%xmm0
  408f95:	f2 0f 59 c1                 	(arith) 	mulsd	%xmm1,%xmm0
  408f99:	f2 41 0f 58 c3              	(arith) 	addsd	%xmm11,%xmm0
  408f9e:	66 41 0f 28 d2              	(move)  	movapd	%xmm10,%xmm2
  408fa3:	f2 0f 59 d1                 	(arith) 	mulsd	%xmm1,%xmm2
  408fa7:	f2 41 0f 58 d1              	(arith) 	addsd	%xmm9,%xmm2
  408fac:	66 0f 2e d0                 	(arith) 	ucomisd	%xmm0,%xmm2
  408fb0:	77 06                       	(control)	ja	408fb8 <y_solve_+0x194>	; ↲ label 747
748:	
  408fb2:	66 0f 2e c0                 	(arith) 	ucomisd	%xmm0,%xmm0
  408fb6:	7b 04                       	(control)	jnp	408fbc <y_solve_+0x198>	; ↲ label 749
747:	
  408fb8:	66 0f 28 c2                 	(move)  	movapd	%xmm2,%xmm0
749:	
  408fbc:	f2 41 0f 58 c8              	(arith) 	addsd	%xmm8,%xmm1
  408fc1:	66 0f 2e c8                 	(arith) 	ucomisd	%xmm0,%xmm1
  408fc5:	77 06                       	(control)	ja	408fcd <y_solve_+0x1a9>	; ↲ label 750
751:	
  408fc7:	66 0f 2e c0                 	(arith) 	ucomisd	%xmm0,%xmm0
  408fcb:	7b 04                       	(control)	jnp	408fd1 <y_solve_+0x1ad>	; ↲ label 752
750:	
  408fcd:	66 0f 28 c1                 	(move)  	movapd	%xmm1,%xmm0
752:	
  408fd1:	66 0f 2e e8                 	(arith) 	ucomisd	%xmm0,%xmm5
  408fd5:	77 06                       	(control)	ja	408fdd <y_solve_+0x1b9>	; ↲ label 753
754:	
  408fd7:	66 0f 2e c0                 	(arith) 	ucomisd	%xmm0,%xmm0
  408fdb:	7b 0b                       	(control)	jnp	408fe8 <y_solve_+0x1c4>	; ↲ label 755
753:	
  408fdd:	4c 89 4c 24 18              	(move)  	mov	%r9,0x18(%rsp)
  408fe2:	f2 0f 10 44 24 18           	(move)  	movsd	0x18(%rsp),%xmm0
755:	
  408fe8:	f2 0f 11 84 c6 40 26 00 00  	(move)  	movsd	%xmm0,0x2640(%rsi,%rax,8)
/home/jgarcia/TFG/source_code/SP/y_solve.f:40
  408ff1:	44 39 e2                    	(arith) 	cmp	%r12d,%edx
  408ff4:	74 08                       	(control)	je	408ffe <y_solve_+0x1da>	; ↲ label 744
756:	
  408ff6:	83 c2 01                    	(arith) 	add	$0x1,%edx
  408ff9:	e9 63 ff ff ff              	(control)	jmp	408f61 <y_solve_+0x13d>	; ↰ label 746 (loop 183)
; ------- Loop 183 exit
744:	
/home/jgarcia/TFG/source_code/SP/y_solve.f:49
  408ffe:	45 85 db                    	(arith) 	test	%r11d,%r11d
  409001:	0f 8e b1 00 00 00           	(control)	jle	4090b8 <y_solve_+0x294>	; ↲ label 757
758:	
/home/jgarcia/TFG/source_code/SP/y_solve.f:50
  409007:	49 63 c7                    	(move)  	movsxd	%r15d,%rax
  40900a:	4c 8d 34 80                 	(arith) 	lea	(%rax,%rax,4),%r14
/home/jgarcia/TFG/source_code/SP/y_solve.f:54
  40900e:	4c 8d 6c 80 04              	(arith) 	lea	0x4(%rax,%rax,4),%r13
  409013:	bf 00 00 00 00              	(move)  	mov	$0,%edi
  409018:	be 01 00 00 00              	(move)  	mov	$0x1,%esi
/home/jgarcia/TFG/source_code/SP/y_solve.f:51
  40901d:	b8 20 fb 60 00              	(move)  	mov	$0x60fb20,%eax
; ------- Loop 182 entry
759 (loop 182):	
/home/jgarcia/TFG/source_code/SP/y_solve.f:50
  409022:	48 63 ce                    	(move)  	movsxd	%esi,%rcx
  409025:	48 89 ca                    	(move)  	mov	%rcx,%rdx
  409028:	48 c1 e2 09                 	(logic) 	sal	$0x9,%rdx
  40902c:	48 29 ca                    	(arith) 	sub	%rcx,%rdx
  40902f:	4c 8d 04 91                 	(arith) 	lea	(%rcx,%rdx,4),%r8
  409033:	4b 8d 14 30                 	(arith) 	lea	(%r8,%r14,1),%rdx
  409037:	4c 89 14 d3                 	(move)  	mov	%r10,(%rbx,%rdx,8)
/home/jgarcia/TFG/source_code/SP/y_solve.f:51
  40903b:	4c 63 cf                    	(move)  	movsxd	%edi,%r9
  40903e:	66 0f 28 c4                 	(move)  	movapd	%xmm4,%xmm0
  409042:	f2 42 0f 59 04 c8           	(arith) 	mulsd	(%rax,%r9,8),%xmm0
  409048:	66 0f 57 05 90 54 00 00     	(logic) 	xorpd	0x5490(%rip),%xmm0
  409050:	66 0f 28 cb                 	(move)  	movapd	%xmm3,%xmm1
  409054:	f2 42 0f 59 8c c8 40 26 00 00	(arith) 	mulsd	0x2640(%rax,%r9,8),%xmm1
  40905e:	f2 0f 5c c1                 	(arith) 	subsd	%xmm1,%xmm0
  409062:	f2 0f 11 44 d3 08           	(move)  	movsd	%xmm0,0x8(%rbx,%rdx,8)
/home/jgarcia/TFG/source_code/SP/y_solve.f:52
  409068:	66 0f 28 c7                 	(move)  	movapd	%xmm7,%xmm0
  40906c:	f2 0f 59 84 c8 40 26 00 00  	(arith) 	mulsd	0x2640(%rax,%rcx,8),%xmm0
  409075:	f2 0f 58 c6                 	(arith) 	addsd	%xmm6,%xmm0
  409079:	f2 0f 11 44 d3 10           	(move)  	movsd	%xmm0,0x10(%rbx,%rdx,8)
/home/jgarcia/TFG/source_code/SP/y_solve.f:53
  40907f:	83 c6 01                    	(arith) 	add	$0x1,%esi
  409082:	48 63 ce                    	(move)  	movsxd	%esi,%rcx
  409085:	66 0f 28 c4                 	(move)  	movapd	%xmm4,%xmm0
  409089:	f2 0f 59 04 c8              	(arith) 	mulsd	(%rax,%rcx,8),%xmm0
  40908e:	66 0f 28 cb                 	(move)  	movapd	%xmm3,%xmm1
  409092:	f2 0f 59 8c c8 40 26 00 00  	(arith) 	mulsd	0x2640(%rax,%rcx,8),%xmm1
  40909b:	f2 0f 5c c1                 	(arith) 	subsd	%xmm1,%xmm0
  40909f:	f2 0f 11 44 d3 18           	(move)  	movsd	%xmm0,0x18(%rbx,%rdx,8)
/home/jgarcia/TFG/source_code/SP/y_solve.f:54
  4090a5:	4d 01 e8                    	(arith) 	add	%r13,%r8
  4090a8:	4e 89 14 c3                 	(move)  	mov	%r10,(%rbx,%r8,8)
  4090ac:	83 c7 01                    	(arith) 	add	$0x1,%edi
/home/jgarcia/TFG/source_code/SP/y_solve.f:49
  4090af:	44 39 df                    	(arith) 	cmp	%r11d,%edi
  4090b2:	0f 85 6a ff ff ff           	(control)	jne	409022 <y_solve_+0x1fe>	; ↰ label 759 (loop 182)
; ------- Loop 182 exit
757:	
/home/jgarcia/TFG/source_code/SP/y_solve.f:39
  4090b8:	44 3b 7c 24 28              	(arith) 	cmp	0x28(%rsp),%r15d
  4090bd:	74 09                       	(control)	je	4090c8 <y_solve_+0x2a4>	; ↲ label 760
761:	
  4090bf:	41 83 c7 01                 	(arith) 	add	$0x1,%r15d
  4090c3:	e9 73 fe ff ff              	(control)	jmp	408f3b <y_solve_+0x117>	; ↰ label 743 (loop 181)
; ------- Loop 181 exit
760:	
/home/jgarcia/TFG/source_code/SP/y_solve.f:62
  4090c8:	8b 3d 32 6a 20 00           	(move)  	mov	0x206a32(%rip),%edi
  4090ce:	83 ef 02                    	(arith) 	sub	$0x2,%edi
  4090d1:	85 ff                       	(arith) 	test	%edi,%edi
  4090d3:	0f 8e ce 00 00 00           	(control)	jle	4091a7 <y_solve_+0x383>	; ↲ label 741
762:	
/home/jgarcia/TFG/source_code/SP/y_solve.f:64
  4090d9:	f2 0f 10 25 df 69 20 00     	(move)  	movsd	0x2069df(%rip),%xmm4
/home/jgarcia/TFG/source_code/SP/y_solve.f:65
  4090e1:	f2 0f 10 05 cf 69 20 00     	(move)  	movsd	0x2069cf(%rip),%xmm0
/home/jgarcia/TFG/source_code/SP/y_solve.f:66
  4090e9:	f2 0f 10 0d bf 69 20 00     	(move)  	movsd	0x2069bf(%rip),%xmm1
/home/jgarcia/TFG/source_code/SP/y_solve.f:69
  4090f1:	f2 0f 10 1d cf 69 20 00     	(move)  	movsd	0x2069cf(%rip),%xmm3
  4090f9:	b9 00 00 00 00              	(move)  	mov	$0,%ecx
; ------- Loop 180 entry
763 (loop 180):	
/home/jgarcia/TFG/source_code/SP/y_solve.f:5
  4090fe:	83 c1 01                    	(arith) 	add	$0x1,%ecx
/home/jgarcia/TFG/source_code/SP/y_solve.f:64
  409101:	48 63 d1                    	(move)  	movsxd	%ecx,%rdx
  409104:	48 8d 04 92                 	(arith) 	lea	(%rdx,%rdx,4),%rax
  409108:	48 8d b0 ff 07 00 00        	(arith) 	lea	0x7ff(%rax),%rsi
  40910f:	f2 0f 10 14 f3              	(move)  	movsd	(%rbx,%rsi,8),%xmm2
  409114:	f2 0f 58 d4                 	(arith) 	addsd	%xmm4,%xmm2
  409118:	f2 0f 11 14 f3              	(move)  	movsd	%xmm2,(%rbx,%rsi,8)
/home/jgarcia/TFG/source_code/SP/y_solve.f:65
  40911d:	48 8d b0 00 08 00 00        	(arith) 	lea	0x800(%rax),%rsi
  409124:	f2 0f 10 14 f3              	(move)  	movsd	(%rbx,%rsi,8),%xmm2
  409129:	f2 0f 5c d0                 	(arith) 	subsd	%xmm0,%xmm2
  40912d:	f2 0f 11 14 f3              	(move)  	movsd	%xmm2,(%rbx,%rsi,8)
/home/jgarcia/TFG/source_code/SP/y_solve.f:66
  409132:	48 8d 54 92 05              	(arith) 	lea	0x5(%rdx,%rdx,4),%rdx
  409137:	48 8d b2 fc 07 00 00        	(arith) 	lea	0x7fc(%rdx),%rsi
  40913e:	f2 0f 10 14 f3              	(move)  	movsd	(%rbx,%rsi,8),%xmm2
  409143:	f2 0f 58 d1                 	(arith) 	addsd	%xmm1,%xmm2
  409147:	f2 0f 11 14 f3              	(move)  	movsd	%xmm2,(%rbx,%rsi,8)
/home/jgarcia/TFG/source_code/SP/y_solve.f:68
  40914c:	48 8d b0 fb 0f 00 00        	(arith) 	lea	0xffb(%rax),%rsi
  409153:	f2 0f 10 14 f3              	(move)  	movsd	(%rbx,%rsi,8),%xmm2
  409158:	f2 0f 5c d0                 	(arith) 	subsd	%xmm0,%xmm2
  40915c:	f2 0f 11 14 f3              	(move)  	movsd	%xmm2,(%rbx,%rsi,8)
/home/jgarcia/TFG/source_code/SP/y_solve.f:69
  409161:	48 8d b0 fc 0f 00 00        	(arith) 	lea	0xffc(%rax),%rsi
  409168:	f2 0f 10 14 f3              	(move)  	movsd	(%rbx,%rsi,8),%xmm2
  40916d:	f2 0f 58 d3                 	(arith) 	addsd	%xmm3,%xmm2
  409171:	f2 0f 11 14 f3              	(move)  	movsd	%xmm2,(%rbx,%rsi,8)
/home/jgarcia/TFG/source_code/SP/y_solve.f:70
  409176:	48 05 fd 0f 00 00           	(arith) 	add	$0xffd,%rax
  40917c:	f2 0f 10 14 c3              	(move)  	movsd	(%rbx,%rax,8),%xmm2
  409181:	f2 0f 5c d0                 	(arith) 	subsd	%xmm0,%xmm2
  409185:	f2 0f 11 14 c3              	(move)  	movsd	%xmm2,(%rbx,%rax,8)
/home/jgarcia/TFG/source_code/SP/y_solve.f:71
  40918a:	48 8d 82 f9 0f 00 00        	(arith) 	lea	0xff9(%rdx),%rax
  409191:	66 0f 28 d1                 	(move)  	movapd	%xmm1,%xmm2
  409195:	f2 0f 58 14 c3              	(arith) 	addsd	(%rbx,%rax,8),%xmm2
  40919a:	f2 0f 11 14 c3              	(move)  	movsd	%xmm2,(%rbx,%rax,8)
/home/jgarcia/TFG/source_code/SP/y_solve.f:62
  40919f:	39 cf                       	(arith) 	cmp	%ecx,%edi
  4091a1:	0f 85 57 ff ff ff           	(control)	jne	4090fe <y_solve_+0x2da>	; ↰ label 763 (loop 180)
; ------- Loop 180 exit
741:	
/home/jgarcia/TFG/source_code/SP/y_solve.f:74
  4091a7:	44 8b 15 56 69 20 00        	(move)  	mov	0x206956(%rip),%r10d
  4091ae:	41 83 ea 04                 	(arith) 	sub	$0x4,%r10d
  4091b2:	41 83 fa 02                 	(arith) 	cmp	$0x2,%r10d
  4091b6:	0f 8e ca 00 00 00           	(control)	jle	409286 <y_solve_+0x462>	; ↲ label 764
765:	
/home/jgarcia/TFG/source_code/SP/y_solve.f:75
  4091bc:	8b 3d 3e 69 20 00           	(move)  	mov	0x20693e(%rip),%edi
  4091c2:	83 ef 02                    	(arith) 	sub	$0x2,%edi
/home/jgarcia/TFG/source_code/SP/y_solve.f:77
  4091c5:	f2 0f 10 0d e3 68 20 00     	(move)  	movsd	0x2068e3(%rip),%xmm1
/home/jgarcia/TFG/source_code/SP/y_solve.f:78
  4091cd:	f2 0f 10 05 e3 68 20 00     	(move)  	movsd	0x2068e3(%rip),%xmm0
/home/jgarcia/TFG/source_code/SP/y_solve.f:79
  4091d5:	f2 0f 10 1d eb 68 20 00     	(move)  	movsd	0x2068eb(%rip),%xmm3
  4091dd:	41 b9 03 00 00 00           	(move)  	mov	$0x3,%r9d
/home/jgarcia/TFG/source_code/SP/y_solve.f:81
  4091e3:	41 bb 00 00 00 00           	(move)  	mov	$0,%r11d
; ------- Loop 178 entry
766 (loop 178):	
/home/jgarcia/TFG/source_code/SP/y_solve.f:75
  4091e9:	85 ff                       	(arith) 	test	%edi,%edi
  4091eb:	0f 8e 87 00 00 00           	(control)	jle	409278 <y_solve_+0x454>	; ↲ label 767
768:	
/home/jgarcia/TFG/source_code/SP/y_solve.f:77
  4091f1:	49 63 c1                    	(move)  	movsxd	%r9d,%rax
  4091f4:	48 89 c2                    	(move)  	mov	%rax,%rdx
  4091f7:	48 c1 e2 09                 	(logic) 	sal	$0x9,%rdx
  4091fb:	48 29 c2                    	(arith) 	sub	%rax,%rdx
  4091fe:	48 8d 34 90                 	(arith) 	lea	(%rax,%rdx,4),%rsi
/home/jgarcia/TFG/source_code/SP/y_solve.f:81
  409202:	4c 8d 46 ff                 	(arith) 	lea	-0x1(%rsi),%r8
  409206:	44 89 d9                    	(move)  	mov	%r11d,%ecx
; ------- Loop 179 entry
769 (loop 179):	
/home/jgarcia/TFG/source_code/SP/y_solve.f:5
  409209:	83 c1 01                    	(arith) 	add	$0x1,%ecx
/home/jgarcia/TFG/source_code/SP/y_solve.f:77
  40920c:	48 63 d1                    	(move)  	movsxd	%ecx,%rdx
  40920f:	48 8d 04 92                 	(arith) 	lea	(%rdx,%rdx,4),%rax
  409213:	48 01 f0                    	(arith) 	add	%rsi,%rax
  409216:	f2 0f 10 14 c3              	(move)  	movsd	(%rbx,%rax,8),%xmm2
  40921b:	f2 0f 58 d1                 	(arith) 	addsd	%xmm1,%xmm2
  40921f:	f2 0f 11 14 c3              	(move)  	movsd	%xmm2,(%rbx,%rax,8)
/home/jgarcia/TFG/source_code/SP/y_solve.f:78
  409224:	4c 8d 60 01                 	(arith) 	lea	0x1(%rax),%r12
  409228:	f2 42 0f 10 14 e3           	(move)  	movsd	(%rbx,%r12,8),%xmm2
  40922e:	f2 0f 5c d0                 	(arith) 	subsd	%xmm0,%xmm2
  409232:	f2 42 0f 11 14 e3           	(move)  	movsd	%xmm2,(%rbx,%r12,8)
/home/jgarcia/TFG/source_code/SP/y_solve.f:79
  409238:	4c 8d 60 02                 	(arith) 	lea	0x2(%rax),%r12
  40923c:	f2 42 0f 10 14 e3           	(move)  	movsd	(%rbx,%r12,8),%xmm2
  409242:	f2 0f 58 d3                 	(arith) 	addsd	%xmm3,%xmm2
  409246:	f2 42 0f 11 14 e3           	(move)  	movsd	%xmm2,(%rbx,%r12,8)
/home/jgarcia/TFG/source_code/SP/y_solve.f:80
  40924c:	48 83 c0 03                 	(arith) 	add	$0x3,%rax
  409250:	f2 0f 10 14 c3              	(move)  	movsd	(%rbx,%rax,8),%xmm2
  409255:	f2 0f 5c d0                 	(arith) 	subsd	%xmm0,%xmm2
  409259:	f2 0f 11 14 c3              	(move)  	movsd	%xmm2,(%rbx,%rax,8)
/home/jgarcia/TFG/source_code/SP/y_solve.f:81
  40925e:	48 8d 44 92 05              	(arith) 	lea	0x5(%rdx,%rdx,4),%rax
  409263:	4c 01 c0                    	(arith) 	add	%r8,%rax
  409266:	66 0f 28 d1                 	(move)  	movapd	%xmm1,%xmm2
  40926a:	f2 0f 58 14 c3              	(arith) 	addsd	(%rbx,%rax,8),%xmm2
  40926f:	f2 0f 11 14 c3              	(move)  	movsd	%xmm2,(%rbx,%rax,8)
/home/jgarcia/TFG/source_code/SP/y_solve.f:75
  409274:	39 cf                       	(arith) 	cmp	%ecx,%edi
  409276:	75 91                       	(control)	jne	409209 <y_solve_+0x3e5>	; ↰ label 769 (loop 179)
; ------- Loop 179 exit
767:	
/home/jgarcia/TFG/source_code/SP/y_solve.f:74
  409278:	45 39 d1                    	(arith) 	cmp	%r10d,%r9d
  40927b:	74 09                       	(control)	je	409286 <y_solve_+0x462>	; ↲ label 764
770:	
  40927d:	41 83 c1 01                 	(arith) 	add	$0x1,%r9d
  409281:	e9 63 ff ff ff              	(control)	jmp	4091e9 <y_solve_+0x3c5>	; ↰ label 766 (loop 178)
; ------- Loop 178 exit
764:	
/home/jgarcia/TFG/source_code/SP/y_solve.f:85
  409286:	8b 3d 74 68 20 00           	(move)  	mov	0x206874(%rip),%edi
  40928c:	83 ef 02                    	(arith) 	sub	$0x2,%edi
  40928f:	85 ff                       	(arith) 	test	%edi,%edi
  409291:	0f 8e e0 00 00 00           	(control)	jle	409377 <y_solve_+0x553>	; ↲ label 771
772:	
/home/jgarcia/TFG/source_code/SP/y_solve.f:87
  409297:	8b 05 67 68 20 00           	(move)  	mov	0x206867(%rip),%eax
  40929d:	83 e8 03                    	(arith) 	sub	$0x3,%eax
  4092a0:	48 98                       	(conv)  	cltq
  4092a2:	48 89 c2                    	(move)  	mov	%rax,%rdx
  4092a5:	48 c1 e2 09                 	(logic) 	sal	$0x9,%rdx
  4092a9:	48 29 c2                    	(arith) 	sub	%rax,%rdx
  4092ac:	4c 8d 0c 90                 	(arith) 	lea	(%rax,%rdx,4),%r9
  4092b0:	f2 0f 10 0d f8 67 20 00     	(move)  	movsd	0x2067f8(%rip),%xmm1
/home/jgarcia/TFG/source_code/SP/y_solve.f:88
  4092b8:	f2 0f 10 05 f8 67 20 00     	(move)  	movsd	0x2067f8(%rip),%xmm0
/home/jgarcia/TFG/source_code/SP/y_solve.f:89
  4092c0:	f2 0f 10 25 00 68 20 00     	(move)  	movsd	0x206800(%rip),%xmm4
/home/jgarcia/TFG/source_code/SP/y_solve.f:92
  4092c8:	48 83 c0 01                 	(arith) 	add	$0x1,%rax
  4092cc:	48 89 c2                    	(move)  	mov	%rax,%rdx
  4092cf:	48 c1 e2 09                 	(logic) 	sal	$0x9,%rdx
  4092d3:	48 29 c2                    	(arith) 	sub	%rax,%rdx
  4092d6:	4c 8d 04 90                 	(arith) 	lea	(%rax,%rdx,4),%r8
/home/jgarcia/TFG/source_code/SP/y_solve.f:94
  4092da:	f2 0f 10 1d de 67 20 00     	(move)  	movsd	0x2067de(%rip),%xmm3
  4092e2:	ba 00 00 00 00              	(move)  	mov	$0,%edx
; ------- Loop 177 entry
773 (loop 177):	
/home/jgarcia/TFG/source_code/SP/y_solve.f:5
  4092e7:	83 c2 01                    	(arith) 	add	$0x1,%edx
/home/jgarcia/TFG/source_code/SP/y_solve.f:87
  4092ea:	48 63 c2                    	(move)  	movsxd	%edx,%rax
  4092ed:	48 8d 0c 80                 	(arith) 	lea	(%rax,%rax,4),%rcx
  4092f1:	4a 8d 04 09                 	(arith) 	lea	(%rcx,%r9,1),%rax
  4092f5:	f2 0f 10 14 c3              	(move)  	movsd	(%rbx,%rax,8),%xmm2
  4092fa:	f2 0f 58 d1                 	(arith) 	addsd	%xmm1,%xmm2
  4092fe:	f2 0f 11 14 c3              	(move)  	movsd	%xmm2,(%rbx,%rax,8)
/home/jgarcia/TFG/source_code/SP/y_solve.f:88
  409303:	48 8d 70 01                 	(arith) 	lea	0x1(%rax),%rsi
  409307:	f2 0f 10 14 f3              	(move)  	movsd	(%rbx,%rsi,8),%xmm2
  40930c:	f2 0f 5c d0                 	(arith) 	subsd	%xmm0,%xmm2
  409310:	f2 0f 11 14 f3              	(move)  	movsd	%xmm2,(%rbx,%rsi,8)
/home/jgarcia/TFG/source_code/SP/y_solve.f:89
  409315:	48 8d 70 02                 	(arith) 	lea	0x2(%rax),%rsi
  409319:	f2 0f 10 14 f3              	(move)  	movsd	(%rbx,%rsi,8),%xmm2
  40931e:	f2 0f 58 d4                 	(arith) 	addsd	%xmm4,%xmm2
  409322:	f2 0f 11 14 f3              	(move)  	movsd	%xmm2,(%rbx,%rsi,8)
/home/jgarcia/TFG/source_code/SP/y_solve.f:90
  409327:	48 83 c0 03                 	(arith) 	add	$0x3,%rax
  40932b:	f2 0f 10 14 c3              	(move)  	movsd	(%rbx,%rax,8),%xmm2
  409330:	f2 0f 5c d0                 	(arith) 	subsd	%xmm0,%xmm2
  409334:	f2 0f 11 14 c3              	(move)  	movsd	%xmm2,(%rbx,%rax,8)
/home/jgarcia/TFG/source_code/SP/y_solve.f:92
  409339:	4a 8d 04 01                 	(arith) 	lea	(%rcx,%r8,1),%rax
  40933d:	66 0f 28 d1                 	(move)  	movapd	%xmm1,%xmm2
  409341:	f2 0f 58 14 c3              	(arith) 	addsd	(%rbx,%rax,8),%xmm2
  409346:	f2 0f 11 14 c3              	(move)  	movsd	%xmm2,(%rbx,%rax,8)
/home/jgarcia/TFG/source_code/SP/y_solve.f:93
  40934b:	48 8d 48 01                 	(arith) 	lea	0x1(%rax),%rcx
  40934f:	f2 0f 10 14 cb              	(move)  	movsd	(%rbx,%rcx,8),%xmm2
  409354:	f2 0f 5c d0                 	(arith) 	subsd	%xmm0,%xmm2
  409358:	f2 0f 11 14 cb              	(move)  	movsd	%xmm2,(%rbx,%rcx,8)
/home/jgarcia/TFG/source_code/SP/y_solve.f:94
  40935d:	48 83 c0 02                 	(arith) 	add	$0x2,%rax
  409361:	f2 0f 10 14 c3              	(move)  	movsd	(%rbx,%rax,8),%xmm2
  409366:	f2 0f 58 d3                 	(arith) 	addsd	%xmm3,%xmm2
  40936a:	f2 0f 11 14 c3              	(move)  	movsd	%xmm2,(%rbx,%rax,8)
/home/jgarcia/TFG/source_code/SP/y_solve.f:85
  40936f:	39 d7                       	(arith) 	cmp	%edx,%edi
  409371:	0f 85 70 ff ff ff           	(control)	jne	4092e7 <y_solve_+0x4c3>	; ↰ label 773 (loop 177)
; ------- Loop 177 exit
771:	
/home/jgarcia/TFG/source_code/SP/y_solve.f:100
  409377:	8b 05 87 67 20 00           	(move)  	mov	0x206787(%rip),%eax
  40937d:	83 e8 02                    	(arith) 	sub	$0x2,%eax
  409380:	89 44 24 30                 	(move)  	mov	%eax,0x30(%rsp)
  409384:	85 c0                       	(arith) 	test	%eax,%eax
  409386:	0f 8e 5a 01 00 00           	(control)	jle	4094e6 <y_solve_+0x6c2>	; ↲ label 774
775:	
/home/jgarcia/TFG/source_code/SP/y_solve.f:101
  40938c:	44 8b 15 6d 67 20 00        	(move)  	mov	0x20676d(%rip),%r10d
  409393:	41 83 ea 02                 	(arith) 	sub	$0x2,%r10d
/home/jgarcia/TFG/source_code/SP/y_solve.f:104
  409397:	48 63 44 24 58              	(move)  	movsxd	0x58(%rsp),%rax
  40939c:	48 69 c0 71 8d 02 00        	(arith) 	imul	$0x28d71,%rax,%rax
  4093a3:	48 89 44 24 28              	(move)  	mov	%rax,0x28(%rsp)
  4093a8:	f2 0f 10 15 d0 66 20 00     	(move)  	movsd	0x2066d0(%rip),%xmm2
  4093b0:	41 be 01 00 00 00           	(move)  	mov	$0x1,%r14d
; ------- Loop 175 entry
776 (loop 175):	
/home/jgarcia/TFG/source_code/SP/y_solve.f:101
  4093b6:	45 85 d2                    	(arith) 	test	%r10d,%r10d
  4093b9:	0f 8e 17 01 00 00           	(control)	jle	4094d6 <y_solve_+0x6b2>	; ↲ label 777
778:	
/home/jgarcia/TFG/source_code/SP/y_solve.f:102
  4093bf:	49 63 c6                    	(move)  	movsxd	%r14d,%rax
  4093c2:	48 89 c2                    	(move)  	mov	%rax,%rdx
  4093c5:	48 c1 e2 09                 	(logic) 	sal	$0x9,%rdx
  4093c9:	48 29 c2                    	(arith) 	sub	%rax,%rdx
  4093cc:	4c 8d 0c 90                 	(arith) 	lea	(%rax,%rdx,4),%r9
/home/jgarcia/TFG/source_code/SP/y_solve.f:104
  4093d0:	4c 8d 68 ff                 	(arith) 	lea	-0x1(%rax),%r13
  4093d4:	4d 69 ed 99 01 00 00        	(arith) 	imul	$0x199,%r13,%r13
  4093db:	4c 03 6c 24 28              	(arith) 	add	0x28(%rsp),%r13
/home/jgarcia/TFG/source_code/SP/y_solve.f:107
  4093e0:	4c 8d 60 01                 	(arith) 	lea	0x1(%rax),%r12
  4093e4:	4d 69 e4 99 01 00 00        	(arith) 	imul	$0x199,%r12,%r12
  4093eb:	4c 03 64 24 28              	(arith) 	add	0x28(%rsp),%r12
/home/jgarcia/TFG/source_code/SP/y_solve.f:108
  4093f0:	4d 8d 59 ff                 	(arith) 	lea	-0x1(%r9),%r11
  4093f4:	b9 00 00 00 00              	(move)  	mov	$0,%ecx
; ------- Loop 176 entry
779 (loop 176):	
/home/jgarcia/TFG/source_code/SP/y_solve.f:5
  4093f9:	83 c1 01                    	(arith) 	add	$0x1,%ecx
/home/jgarcia/TFG/source_code/SP/y_solve.f:102
  4093fc:	48 63 d1                    	(move)  	movsxd	%ecx,%rdx
  4093ff:	48 8d 04 92                 	(arith) 	lea	(%rdx,%rdx,4),%rax
  409403:	4c 01 c8                    	(arith) 	add	%r9,%rax
  409406:	48 8b 34 c3                 	(move)  	mov	(%rbx,%rax,8),%rsi
  40940a:	48 89 b4 c3 a8 19 66 00     	(move)  	mov	%rsi,0x6619a8(%rbx,%rax,8)
/home/jgarcia/TFG/source_code/SP/y_solve.f:104
  409412:	4c 8d 40 01                 	(arith) 	lea	0x1(%rax),%r8
  409416:	4a 8d b4 2a f0 38 ae 28     	(arith) 	lea	0x28ae38f0(%rdx,%r13,1),%rsi
  40941e:	66 0f 28 ca                 	(move)  	movapd	%xmm2,%xmm1
  409422:	f2 0f 59 4c f5 00           	(arith) 	mulsd	(%rbp,%rsi,8),%xmm1
  409428:	f2 42 0f 10 04 c3           	(move)  	movsd	(%rbx,%r8,8),%xmm0
  40942e:	f2 0f 5c c1                 	(arith) 	subsd	%xmm1,%xmm0
  409432:	f2 0f 11 84 c3 b0 19 66 00  	(move)  	movsd	%xmm0,0x6619b0(%rbx,%rax,8)
/home/jgarcia/TFG/source_code/SP/y_solve.f:105
  40943b:	48 8d 78 02                 	(arith) 	lea	0x2(%rax),%rdi
  40943f:	48 8b 34 fb                 	(move)  	mov	(%rbx,%rdi,8),%rsi
  409443:	48 89 b4 c3 b8 19 66 00     	(move)  	mov	%rsi,0x6619b8(%rbx,%rax,8)
/home/jgarcia/TFG/source_code/SP/y_solve.f:107
  40944b:	48 8d 70 03                 	(arith) 	lea	0x3(%rax),%rsi
  40944f:	4e 8d bc 22 f0 38 ae 28     	(arith) 	lea	0x28ae38f0(%rdx,%r12,1),%r15
  409457:	66 0f 28 c2                 	(move)  	movapd	%xmm2,%xmm0
  40945b:	f2 42 0f 59 44 fd 00        	(arith) 	mulsd	(%rbp,%r15,8),%xmm0
  409462:	f2 0f 10 1c f3              	(move)  	movsd	(%rbx,%rsi,8),%xmm3
  409467:	f2 0f 58 d8                 	(arith) 	addsd	%xmm0,%xmm3
  40946b:	f2 0f 11 9c c3 c0 19 66 00  	(move)  	movsd	%xmm3,0x6619c0(%rbx,%rax,8)
/home/jgarcia/TFG/source_code/SP/y_solve.f:108
  409474:	48 8d 54 92 05              	(arith) 	lea	0x5(%rdx,%rdx,4),%rdx
  409479:	4c 01 da                    	(arith) 	add	%r11,%rdx
  40947c:	4c 8b 3c d3                 	(move)  	mov	(%rbx,%rdx,8),%r15
  409480:	4c 89 bc d3 a8 19 66 00     	(move)  	mov	%r15,0x6619a8(%rbx,%rdx,8)
/home/jgarcia/TFG/source_code/SP/y_solve.f:109
  409488:	4c 8b 3c c3                 	(move)  	mov	(%rbx,%rax,8),%r15
  40948c:	4c 89 bc c3 50 33 cc 00     	(move)  	mov	%r15,0xcc3350(%rbx,%rax,8)
/home/jgarcia/TFG/source_code/SP/y_solve.f:111
  409494:	f2 42 0f 58 0c c3           	(arith) 	addsd	(%rbx,%r8,8),%xmm1
  40949a:	f2 0f 11 8c c3 58 33 cc 00  	(move)  	movsd	%xmm1,0xcc3358(%rbx,%rax,8)
/home/jgarcia/TFG/source_code/SP/y_solve.f:112
  4094a3:	48 8b 3c fb                 	(move)  	mov	(%rbx,%rdi,8),%rdi
  4094a7:	48 89 bc c3 60 33 cc 00     	(move)  	mov	%rdi,0xcc3360(%rbx,%rax,8)
/home/jgarcia/TFG/source_code/SP/y_solve.f:114
  4094af:	f2 0f 10 0c f3              	(move)  	movsd	(%rbx,%rsi,8),%xmm1
  4094b4:	f2 0f 5c c8                 	(arith) 	subsd	%xmm0,%xmm1
  4094b8:	f2 0f 11 8c c3 68 33 cc 00  	(move)  	movsd	%xmm1,0xcc3368(%rbx,%rax,8)
/home/jgarcia/TFG/source_code/SP/y_solve.f:115
  4094c1:	48 8b 04 d3                 	(move)  	mov	(%rbx,%rdx,8),%rax
  4094c5:	48 89 84 d3 50 33 cc 00     	(move)  	mov	%rax,0xcc3350(%rbx,%rdx,8)
/home/jgarcia/TFG/source_code/SP/y_solve.f:101
  4094cd:	41 39 ca                    	(arith) 	cmp	%ecx,%r10d
  4094d0:	0f 85 23 ff ff ff           	(control)	jne	4093f9 <y_solve_+0x5d5>	; ↰ label 779 (loop 176)
; ------- Loop 176 exit
777:	
/home/jgarcia/TFG/source_code/SP/y_solve.f:100
  4094d6:	44 3b 74 24 30              	(arith) 	cmp	0x30(%rsp),%r14d
  4094db:	74 09                       	(control)	je	4094e6 <y_solve_+0x6c2>	; ↲ label 774
780:	
  4094dd:	41 83 c6 01                 	(arith) 	add	$0x1,%r14d
  4094e1:	e9 d0 fe ff ff              	(control)	jmp	4093b6 <y_solve_+0x592>	; ↰ label 776 (loop 175)
; ------- Loop 175 exit
774:	
/home/jgarcia/TFG/source_code/SP/y_solve.f:124
  4094e6:	8b 05 18 66 20 00           	(move)  	mov	0x206618(%rip),%eax
  4094ec:	83 e8 03                    	(arith) 	sub	$0x3,%eax
  4094ef:	89 44 24 54                 	(move)  	mov	%eax,0x54(%rsp)
  4094f3:	0f 88 4e 02 00 00           	(control)	js	409747 <y_solve_+0x923>	; ↲ label 781
782:	
/home/jgarcia/TFG/source_code/SP/y_solve.f:127
  4094f9:	8b 05 01 66 20 00           	(move)  	mov	0x206601(%rip),%eax
  4094ff:	83 e8 02                    	(arith) 	sub	$0x2,%eax
  409502:	89 44 24 28                 	(move)  	mov	%eax,0x28(%rsp)
/home/jgarcia/TFG/source_code/SP/y_solve.f:132
  409506:	4c 63 54 24 58              	(move)  	movsxd	0x58(%rsp),%r10
  40950b:	4d 69 d2 35 c3 0c 00        	(arith) 	imul	$0xcc335,%r10,%r10
  409512:	4d 8d 72 ff                 	(arith) 	lea	-0x1(%r10),%r14
  409516:	ba 00 00 00 00              	(move)  	mov	$0,%edx
/home/jgarcia/TFG/source_code/SP/y_solve.f:128
  40951b:	f2 0f 10 1d 8d 4f 00 00     	(move)  	movsd	0x4f8d(%rip),%xmm3
/home/jgarcia/TFG/source_code/SP/y_solve.f:5
  409523:	4c 89 54 24 40              	(move)  	mov	%r10,0x40(%rsp)
  409528:	49 bb 38 a1 1c 88 01 00 00 00	(move)  	mov	$0x1881ca138,%r11
; ------- Loop 171 entry
783 (loop 171):	
/home/jgarcia/TFG/source_code/SP/y_solve.f:125
  409532:	8d 42 01                    	(arith) 	lea	0x1(%rdx),%eax
  409535:	89 44 24 48                 	(move)  	mov	%eax,0x48(%rsp)
/home/jgarcia/TFG/source_code/SP/y_solve.f:5
  409539:	89 44 24 50                 	(move)  	mov	%eax,0x50(%rsp)
  40953d:	8d 42 02                    	(arith) 	lea	0x2(%rdx),%eax
/home/jgarcia/TFG/source_code/SP/y_solve.f:127
  409540:	83 7c 24 28 00              	(arith) 	cmpl	$0,0x28(%rsp)
  409545:	0f 8e e6 01 00 00           	(control)	jle	409731 <y_solve_+0x90d>	; ↲ label 784
785:	
/home/jgarcia/TFG/source_code/SP/y_solve.f:128
  40954b:	48 63 d2                    	(move)  	movsxd	%edx,%rdx
  40954e:	48 89 d1                    	(move)  	mov	%rdx,%rcx
  409551:	48 c1 e1 09                 	(logic) 	sal	$0x9,%rcx
  409555:	48 29 d1                    	(arith) 	sub	%rdx,%rcx
  409558:	4c 8d 24 8a                 	(arith) 	lea	(%rdx,%rcx,4),%r12
/home/jgarcia/TFG/source_code/SP/y_solve.f:130
  40955c:	49 8d 54 24 ff              	(arith) 	lea	-0x1(%r12),%rdx
  409561:	48 89 54 24 30              	(move)  	mov	%rdx,0x30(%rsp)
/home/jgarcia/TFG/source_code/SP/y_solve.f:135
  409566:	48 63 54 24 48              	(move)  	movsxd	0x48(%rsp),%rdx
  40956b:	48 89 d1                    	(move)  	mov	%rdx,%rcx
  40956e:	48 c1 e1 09                 	(logic) 	sal	$0x9,%rcx
  409572:	48 29 d1                    	(arith) 	sub	%rdx,%rcx
  409575:	4c 8d 2c 8a                 	(arith) 	lea	(%rdx,%rcx,4),%r13
/home/jgarcia/TFG/source_code/SP/y_solve.f:143
  409579:	48 98                       	(conv)  	cltq
  40957b:	48 89 c2                    	(move)  	mov	%rax,%rdx
  40957e:	48 c1 e2 09                 	(logic) 	sal	$0x9,%rdx
  409582:	48 29 c2                    	(arith) 	sub	%rax,%rdx
  409585:	48 8d 14 90                 	(arith) 	lea	(%rax,%rdx,4),%rdx
  409589:	48 89 54 24 38              	(move)  	mov	%rdx,0x38(%rsp)
  40958e:	41 b9 01 00 00 00           	(move)  	mov	$0x1,%r9d
; ------- Loop 174 entry
786 (loop 174):	
/home/jgarcia/TFG/source_code/SP/y_solve.f:128
  409594:	49 63 c1                    	(move)  	movsxd	%r9d,%rax
  409597:	4c 8d 04 80                 	(arith) 	lea	(%rax,%rax,4),%r8
  40959b:	4b 8d 14 20                 	(arith) 	lea	(%r8,%r12,1),%rdx
  40959f:	66 0f 28 c3                 	(move)  	movapd	%xmm3,%xmm0
  4095a3:	f2 0f 5e 44 d3 10           	(arith) 	divsd	0x10(%rbx,%rdx,8),%xmm0
/home/jgarcia/TFG/source_code/SP/y_solve.f:129
  4095a9:	48 8d 7a 03                 	(arith) 	lea	0x3(%rdx),%rdi
  4095ad:	f2 0f 10 0c fb              	(move)  	movsd	(%rbx,%rdi,8),%xmm1
  4095b2:	f2 0f 59 c8                 	(arith) 	mulsd	%xmm0,%xmm1
  4095b6:	f2 0f 11 0c fb              	(move)  	movsd	%xmm1,(%rbx,%rdi,8)
/home/jgarcia/TFG/source_code/SP/y_solve.f:130
  4095bb:	48 8d 74 80 05              	(arith) 	lea	0x5(%rax,%rax,4),%rsi
  4095c0:	48 03 74 24 30              	(arith) 	add	0x30(%rsp),%rsi
  4095c5:	f2 0f 10 0c f3              	(move)  	movsd	(%rbx,%rsi,8),%xmm1
  4095ca:	f2 0f 59 c8                 	(arith) 	mulsd	%xmm0,%xmm1
  4095ce:	f2 0f 11 0c f3              	(move)  	movsd	%xmm1,(%rbx,%rsi,8)
/home/jgarcia/TFG/source_code/SP/y_solve.f:132
  4095d3:	4a 8d 04 32                 	(arith) 	lea	(%rdx,%r14,1),%rax
  4095d7:	48 8d 88 21 11 d1 30        	(arith) 	lea	0x30d11121(%rax),%rcx
  4095de:	f2 0f 10 4c cd 00           	(move)  	movsd	(%rbp,%rcx,8),%xmm1
  4095e4:	f2 0f 59 c8                 	(arith) 	mulsd	%xmm0,%xmm1
  4095e8:	f2 0f 11 4c cd 00           	(move)  	movsd	%xmm1,(%rbp,%rcx,8)
  4095ee:	48 8d 88 22 11 d1 30        	(arith) 	lea	0x30d11122(%rax),%rcx
  4095f5:	f2 0f 10 4c cd 00           	(move)  	movsd	(%rbp,%rcx,8),%xmm1
  4095fb:	f2 0f 59 c8                 	(arith) 	mulsd	%xmm0,%xmm1
  4095ff:	f2 0f 11 4c cd 00           	(move)  	movsd	%xmm1,(%rbp,%rcx,8)
  409605:	48 05 23 11 d1 30           	(arith) 	add	$0x30d11123,%rax
  40960b:	f2 0f 59 44 c5 00           	(arith) 	mulsd	(%rbp,%rax,8),%xmm0
  409611:	f2 0f 11 44 c5 00           	(move)  	movsd	%xmm0,(%rbp,%rax,8)
/home/jgarcia/TFG/source_code/SP/y_solve.f:135
  409617:	4b 8d 04 28                 	(arith) 	lea	(%r8,%r13,1),%rax
  40961b:	4c 8d 78 02                 	(arith) 	lea	0x2(%rax),%r15
  40961f:	48 8d 48 01                 	(arith) 	lea	0x1(%rax),%rcx
  409623:	f2 0f 10 0c cb              	(move)  	movsd	(%rbx,%rcx,8),%xmm1
  409628:	f2 0f 59 0c fb              	(arith) 	mulsd	(%rbx,%rdi,8),%xmm1
  40962d:	f2 42 0f 10 04 fb           	(move)  	movsd	(%rbx,%r15,8),%xmm0
  409633:	f2 0f 5c c1                 	(arith) 	subsd	%xmm1,%xmm0
  409637:	f2 42 0f 11 04 fb           	(move)  	movsd	%xmm0,(%rbx,%r15,8)
/home/jgarcia/TFG/source_code/SP/y_solve.f:137
  40963d:	4c 8d 78 03                 	(arith) 	lea	0x3(%rax),%r15
  409641:	f2 0f 10 0c cb              	(move)  	movsd	(%rbx,%rcx,8),%xmm1
  409646:	f2 0f 59 0c f3              	(arith) 	mulsd	(%rbx,%rsi,8),%xmm1
  40964b:	f2 42 0f 10 04 fb           	(move)  	movsd	(%rbx,%r15,8),%xmm0
  409651:	f2 0f 5c c1                 	(arith) 	subsd	%xmm1,%xmm0
  409655:	f2 42 0f 11 04 fb           	(move)  	movsd	%xmm0,(%rbx,%r15,8)
/home/jgarcia/TFG/source_code/SP/y_solve.f:140
  40965b:	f2 0f 10 14 cb              	(move)  	movsd	(%rbx,%rcx,8),%xmm2
  409660:	4a 8d 0c 10                 	(arith) 	lea	(%rax,%r10,1),%rcx
  409664:	48 8d 81 20 11 d1 30        	(arith) 	lea	0x30d11120(%rcx),%rax
  40966b:	48 8d 44 c5 00              	(arith) 	lea	(%rbp,%rax,8),%rax
  409670:	4a 8d 94 12 20 11 d1 30     	(arith) 	lea	0x30d11120(%rdx,%r10,1),%rdx
  409678:	48 8d 54 d5 00              	(arith) 	lea	(%rbp,%rdx,8),%rdx
/home/jgarcia/TFG/source_code/SP/y_solve.f:5
  40967d:	4d 8d 3c cb                 	(arith) 	lea	(%r11,%rcx,8),%r15
  409681:	48 89 d1                    	(move)  	mov	%rdx,%rcx
; ------- Loop 172 entry
787 (loop 172):	
/home/jgarcia/TFG/source_code/SP/y_solve.f:140
  409684:	66 0f 28 ca                 	(move)  	movapd	%xmm2,%xmm1
  409688:	f2 0f 59 09                 	(arith) 	mulsd	(%rcx),%xmm1
  40968c:	f2 0f 10 00                 	(move)  	movsd	(%rax),%xmm0
  409690:	f2 0f 5c c1                 	(arith) 	subsd	%xmm1,%xmm0
  409694:	f2 0f 11 00                 	(move)  	movsd	%xmm0,(%rax)
  409698:	48 83 c0 08                 	(arith) 	add	$0x8,%rax
  40969c:	48 83 c1 08                 	(arith) 	add	$0x8,%rcx
/home/jgarcia/TFG/source_code/SP/y_solve.f:138
  4096a0:	4c 39 f8                    	(arith) 	cmp	%r15,%rax
  4096a3:	75 df                       	(control)	jne	409684 <y_solve_+0x860>	; ↰ label 787 (loop 172)
; ------- Loop 172 exit
788:	
/home/jgarcia/TFG/source_code/SP/y_solve.f:143
  4096a5:	4c 03 44 24 38              	(arith) 	add	0x38(%rsp),%r8
  4096aa:	49 8d 40 01                 	(arith) 	lea	0x1(%r8),%rax
  4096ae:	f2 42 0f 10 0c c3           	(move)  	movsd	(%rbx,%r8,8),%xmm1
  4096b4:	f2 0f 59 0c fb              	(arith) 	mulsd	(%rbx,%rdi,8),%xmm1
  4096b9:	f2 0f 10 04 c3              	(move)  	movsd	(%rbx,%rax,8),%xmm0
  4096be:	f2 0f 5c c1                 	(arith) 	subsd	%xmm1,%xmm0
  4096c2:	f2 0f 11 04 c3              	(move)  	movsd	%xmm0,(%rbx,%rax,8)
/home/jgarcia/TFG/source_code/SP/y_solve.f:145
  4096c7:	49 8d 40 02                 	(arith) 	lea	0x2(%r8),%rax
  4096cb:	f2 42 0f 10 0c c3           	(move)  	movsd	(%rbx,%r8,8),%xmm1
  4096d1:	f2 0f 59 0c f3              	(arith) 	mulsd	(%rbx,%rsi,8),%xmm1
  4096d6:	f2 0f 10 04 c3              	(move)  	movsd	(%rbx,%rax,8),%xmm0
  4096db:	f2 0f 5c c1                 	(arith) 	subsd	%xmm1,%xmm0
  4096df:	f2 0f 11 04 c3              	(move)  	movsd	%xmm0,(%rbx,%rax,8)
/home/jgarcia/TFG/source_code/SP/y_solve.f:148
  4096e4:	f2 42 0f 10 14 c3           	(move)  	movsd	(%rbx,%r8,8),%xmm2
  4096ea:	4b 8d 84 10 20 11 d1 30     	(arith) 	lea	0x30d11120(%r8,%r10,1),%rax
  4096f2:	48 8d 44 c5 00              	(arith) 	lea	(%rbp,%rax,8),%rax
/home/jgarcia/TFG/source_code/SP/y_solve.f:5
  4096f7:	4c 03 44 24 40              	(arith) 	add	0x40(%rsp),%r8
  4096fc:	4b 8d 0c c3                 	(arith) 	lea	(%r11,%r8,8),%rcx
; ------- Loop 173 entry
789 (loop 173):	
/home/jgarcia/TFG/source_code/SP/y_solve.f:148
  409700:	66 0f 28 ca                 	(move)  	movapd	%xmm2,%xmm1
  409704:	f2 0f 59 0a                 	(arith) 	mulsd	(%rdx),%xmm1
  409708:	f2 0f 10 00                 	(move)  	movsd	(%rax),%xmm0
  40970c:	f2 0f 5c c1                 	(arith) 	subsd	%xmm1,%xmm0
  409710:	f2 0f 11 00                 	(move)  	movsd	%xmm0,(%rax)
  409714:	48 83 c0 08                 	(arith) 	add	$0x8,%rax
  409718:	48 83 c2 08                 	(arith) 	add	$0x8,%rdx
/home/jgarcia/TFG/source_code/SP/y_solve.f:146
  40971c:	48 39 c8                    	(arith) 	cmp	%rcx,%rax
  40971f:	75 df                       	(control)	jne	409700 <y_solve_+0x8dc>	; ↰ label 789 (loop 173)
; ------- Loop 173 exit
790:	
/home/jgarcia/TFG/source_code/SP/y_solve.f:127
  409721:	44 3b 4c 24 28              	(arith) 	cmp	0x28(%rsp),%r9d
  409726:	74 09                       	(control)	je	409731 <y_solve_+0x90d>	; ↲ label 784
791:	
  409728:	41 83 c1 01                 	(arith) 	add	$0x1,%r9d
  40972c:	e9 63 fe ff ff              	(control)	jmp	409594 <y_solve_+0x770>	; ↰ label 786 (loop 174)
; ------- Loop 174 exit
784:	
/home/jgarcia/TFG/source_code/SP/y_solve.f:5
  409731:	8b 44 24 50                 	(move)  	mov	0x50(%rsp),%eax
  409735:	83 e8 01                    	(arith) 	sub	$0x1,%eax
/home/jgarcia/TFG/source_code/SP/y_solve.f:124
  409738:	3b 44 24 54                 	(arith) 	cmp	0x54(%rsp),%eax
  40973c:	74 09                       	(control)	je	409747 <y_solve_+0x923>	; ↲ label 781
792:	
  40973e:	8b 54 24 48                 	(move)  	mov	0x48(%rsp),%edx
  409742:	e9 eb fd ff ff              	(control)	jmp	409532 <y_solve_+0x70e>	; ↰ label 783 (loop 171)
; ------- Loop 171 exit
781:	
/home/jgarcia/TFG/source_code/SP/y_solve.f:159
  409747:	8b 05 b7 63 20 00           	(move)  	mov	0x2063b7(%rip),%eax
  40974d:	8d 50 fe                    	(arith) 	lea	-0x2(%rax),%edx
/home/jgarcia/TFG/source_code/SP/y_solve.f:160
  409750:	83 e8 01                    	(arith) 	sub	$0x1,%eax
/home/jgarcia/TFG/source_code/SP/y_solve.f:161
  409753:	44 8b 1d a6 63 20 00        	(move)  	mov	0x2063a6(%rip),%r11d
  40975a:	41 83 eb 02                 	(arith) 	sub	$0x2,%r11d
  40975e:	45 85 db                    	(arith) 	test	%r11d,%r11d
  409761:	0f 8e 91 01 00 00           	(control)	jle	4098f8 <y_solve_+0xad4>	; ↲ label 793
794:	
/home/jgarcia/TFG/source_code/SP/y_solve.f:162
  409767:	48 63 d2                    	(move)  	movsxd	%edx,%rdx
  40976a:	48 89 d1                    	(move)  	mov	%rdx,%rcx
  40976d:	48 c1 e1 09                 	(logic) 	sal	$0x9,%rcx
  409771:	48 29 d1                    	(arith) 	sub	%rdx,%rcx
  409774:	4c 8d 24 8a                 	(arith) 	lea	(%rdx,%rcx,4),%r12
/home/jgarcia/TFG/source_code/SP/y_solve.f:164
  409778:	4d 8d 7c 24 ff              	(arith) 	lea	-0x1(%r12),%r15
/home/jgarcia/TFG/source_code/SP/y_solve.f:166
  40977d:	4c 63 54 24 58              	(move)  	movsxd	0x58(%rsp),%r10
  409782:	4d 69 d2 35 c3 0c 00        	(arith) 	imul	$0xcc335,%r10,%r10
  409789:	4d 8d 72 ff                 	(arith) 	lea	-0x1(%r10),%r14
/home/jgarcia/TFG/source_code/SP/y_solve.f:169
  40978d:	48 98                       	(conv)  	cltq
  40978f:	48 89 c2                    	(move)  	mov	%rax,%rdx
  409792:	48 c1 e2 09                 	(logic) 	sal	$0x9,%rdx
  409796:	48 29 c2                    	(arith) 	sub	%rax,%rdx
  409799:	48 8d 14 90                 	(arith) 	lea	(%rax,%rdx,4),%rdx
  40979d:	48 89 54 24 28              	(move)  	mov	%rdx,0x28(%rsp)
  4097a2:	41 b9 01 00 00 00           	(move)  	mov	$0x1,%r9d
/home/jgarcia/TFG/source_code/SP/y_solve.f:162
  4097a8:	f2 0f 10 1d 00 4d 00 00     	(move)  	movsd	0x4d00(%rip),%xmm3
/home/jgarcia/TFG/source_code/SP/y_solve.f:5
  4097b0:	49 bd 38 a1 1c 88 01 00 00 00	(move)  	mov	$0x1881ca138,%r13
; ------- Loop 170 entry
795 (loop 170):	
/home/jgarcia/TFG/source_code/SP/y_solve.f:162
  4097ba:	49 63 c9                    	(move)  	movsxd	%r9d,%rcx
  4097bd:	48 8d 14 89                 	(arith) 	lea	(%rcx,%rcx,4),%rdx
  4097c1:	4a 8d 04 22                 	(arith) 	lea	(%rdx,%r12,1),%rax
  4097c5:	66 0f 28 c3                 	(move)  	movapd	%xmm3,%xmm0
  4097c9:	f2 0f 5e 44 c3 10           	(arith) 	divsd	0x10(%rbx,%rax,8),%xmm0
/home/jgarcia/TFG/source_code/SP/y_solve.f:163
  4097cf:	4c 8d 40 03                 	(arith) 	lea	0x3(%rax),%r8
  4097d3:	f2 42 0f 10 0c c3           	(move)  	movsd	(%rbx,%r8,8),%xmm1
  4097d9:	f2 0f 59 c8                 	(arith) 	mulsd	%xmm0,%xmm1
  4097dd:	f2 42 0f 11 0c c3           	(move)  	movsd	%xmm1,(%rbx,%r8,8)
/home/jgarcia/TFG/source_code/SP/y_solve.f:164
  4097e3:	48 8d 7c 89 05              	(arith) 	lea	0x5(%rcx,%rcx,4),%rdi
  4097e8:	4c 01 ff                    	(arith) 	add	%r15,%rdi
  4097eb:	f2 0f 10 0c fb              	(move)  	movsd	(%rbx,%rdi,8),%xmm1
  4097f0:	f2 0f 59 c8                 	(arith) 	mulsd	%xmm0,%xmm1
  4097f4:	f2 0f 11 0c fb              	(move)  	movsd	%xmm1,(%rbx,%rdi,8)
/home/jgarcia/TFG/source_code/SP/y_solve.f:166
  4097f9:	4a 8d 0c 30                 	(arith) 	lea	(%rax,%r14,1),%rcx
  4097fd:	48 8d b1 21 11 d1 30        	(arith) 	lea	0x30d11121(%rcx),%rsi
  409804:	f2 0f 10 4c f5 00           	(move)  	movsd	(%rbp,%rsi,8),%xmm1
  40980a:	f2 0f 59 c8                 	(arith) 	mulsd	%xmm0,%xmm1
  40980e:	f2 0f 11 4c f5 00           	(move)  	movsd	%xmm1,(%rbp,%rsi,8)
  409814:	48 8d b1 22 11 d1 30        	(arith) 	lea	0x30d11122(%rcx),%rsi
  40981b:	f2 0f 10 4c f5 00           	(move)  	movsd	(%rbp,%rsi,8),%xmm1
  409821:	f2 0f 59 c8                 	(arith) 	mulsd	%xmm0,%xmm1
  409825:	f2 0f 11 4c f5 00           	(move)  	movsd	%xmm1,(%rbp,%rsi,8)
  40982b:	48 81 c1 23 11 d1 30        	(arith) 	add	$0x30d11123,%rcx
  409832:	f2 0f 59 44 cd 00           	(arith) 	mulsd	(%rbp,%rcx,8),%xmm0
  409838:	f2 0f 11 44 cd 00           	(move)  	movsd	%xmm0,(%rbp,%rcx,8)
/home/jgarcia/TFG/source_code/SP/y_solve.f:169
  40983e:	48 03 54 24 28              	(arith) 	add	0x28(%rsp),%rdx
  409843:	48 8d 4a 02                 	(arith) 	lea	0x2(%rdx),%rcx
  409847:	48 8d 72 01                 	(arith) 	lea	0x1(%rdx),%rsi
  40984b:	f2 0f 10 0c f3              	(move)  	movsd	(%rbx,%rsi,8),%xmm1
  409850:	f2 42 0f 59 0c c3           	(arith) 	mulsd	(%rbx,%r8,8),%xmm1
  409856:	f2 0f 10 04 cb              	(move)  	movsd	(%rbx,%rcx,8),%xmm0
  40985b:	f2 0f 5c c1                 	(arith) 	subsd	%xmm1,%xmm0
  40985f:	f2 0f 11 04 cb              	(move)  	movsd	%xmm0,(%rbx,%rcx,8)
/home/jgarcia/TFG/source_code/SP/y_solve.f:171
  409864:	4c 8d 42 03                 	(arith) 	lea	0x3(%rdx),%r8
  409868:	f2 0f 10 0c f3              	(move)  	movsd	(%rbx,%rsi,8),%xmm1
  40986d:	f2 0f 59 0c fb              	(arith) 	mulsd	(%rbx,%rdi,8),%xmm1
  409872:	f2 42 0f 10 04 c3           	(move)  	movsd	(%rbx,%r8,8),%xmm0
  409878:	f2 0f 5c c1                 	(arith) 	subsd	%xmm1,%xmm0
  40987c:	f2 42 0f 11 04 c3           	(move)  	movsd	%xmm0,(%rbx,%r8,8)
/home/jgarcia/TFG/source_code/SP/y_solve.f:174
  409882:	f2 0f 10 14 f3              	(move)  	movsd	(%rbx,%rsi,8),%xmm2
  409887:	4c 01 d2                    	(arith) 	add	%r10,%rdx
  40988a:	48 8d b2 20 11 d1 30        	(arith) 	lea	0x30d11120(%rdx),%rsi
  409891:	48 8d 74 f5 00              	(arith) 	lea	(%rbp,%rsi,8),%rsi
  409896:	49 8d 84 02 20 11 d1 30     	(arith) 	lea	0x30d11120(%r10,%rax,1),%rax
  40989e:	48 8d 7c c5 00              	(arith) 	lea	(%rbp,%rax,8),%rdi
/home/jgarcia/TFG/source_code/SP/y_solve.f:5
  4098a3:	49 8d 54 d5 00              	(arith) 	lea	(%r13,%rdx,8),%rdx
  4098a8:	48 89 f0                    	(move)  	mov	%rsi,%rax
; ------- Loop 168 entry
796 (loop 168):	
/home/jgarcia/TFG/source_code/SP/y_solve.f:174
  4098ab:	66 0f 28 ca                 	(move)  	movapd	%xmm2,%xmm1
  4098af:	f2 0f 59 0f                 	(arith) 	mulsd	(%rdi),%xmm1
  4098b3:	f2 0f 10 00                 	(move)  	movsd	(%rax),%xmm0
  4098b7:	f2 0f 5c c1                 	(arith) 	subsd	%xmm1,%xmm0
  4098bb:	f2 0f 11 00                 	(move)  	movsd	%xmm0,(%rax)
  4098bf:	48 83 c0 08                 	(arith) 	add	$0x8,%rax
  4098c3:	48 83 c7 08                 	(arith) 	add	$0x8,%rdi
/home/jgarcia/TFG/source_code/SP/y_solve.f:172
  4098c7:	48 39 d0                    	(arith) 	cmp	%rdx,%rax
  4098ca:	75 df                       	(control)	jne	4098ab <y_solve_+0xa87>	; ↰ label 796 (loop 168)
; ------- Loop 168 exit
797:	
/home/jgarcia/TFG/source_code/SP/y_solve.f:179
  4098cc:	66 0f 28 cb                 	(move)  	movapd	%xmm3,%xmm1
  4098d0:	f2 0f 5e 0c cb              	(arith) 	divsd	(%rbx,%rcx,8),%xmm1
; ------- Loop 169 entry
798 (loop 169):	
/home/jgarcia/TFG/source_code/SP/y_solve.f:181
  4098d5:	f2 0f 10 06                 	(move)  	movsd	(%rsi),%xmm0
  4098d9:	f2 0f 59 c1                 	(arith) 	mulsd	%xmm1,%xmm0
  4098dd:	f2 0f 11 06                 	(move)  	movsd	%xmm0,(%rsi)
  4098e1:	48 83 c6 08                 	(arith) 	add	$0x8,%rsi
/home/jgarcia/TFG/source_code/SP/y_solve.f:180
  4098e5:	48 39 f2                    	(arith) 	cmp	%rsi,%rdx
  4098e8:	75 eb                       	(control)	jne	4098d5 <y_solve_+0xab1>	; ↰ label 798 (loop 169)
; ------- Loop 169 exit
799:	
/home/jgarcia/TFG/source_code/SP/y_solve.f:161
  4098ea:	45 39 d9                    	(arith) 	cmp	%r11d,%r9d
  4098ed:	74 09                       	(control)	je	4098f8 <y_solve_+0xad4>	; ↲ label 793
800:	
  4098ef:	41 83 c1 01                 	(arith) 	add	$0x1,%r9d
  4098f3:	e9 c2 fe ff ff              	(control)	jmp	4097ba <y_solve_+0x996>	; ↰ label 795 (loop 170)
; ------- Loop 170 exit
793:	
/home/jgarcia/TFG/source_code/SP/y_solve.f:188
  4098f8:	8b 05 06 62 20 00           	(move)  	mov	0x206206(%rip),%eax
  4098fe:	83 e8 03                    	(arith) 	sub	$0x3,%eax
  409901:	89 44 24 54                 	(move)  	mov	%eax,0x54(%rsp)
  409905:	0f 88 1f 03 00 00           	(control)	js	409c2a <y_solve_+0xe06>	; ↲ label 801
802:	
/home/jgarcia/TFG/source_code/SP/y_solve.f:191
  40990b:	8b 05 ef 61 20 00           	(move)  	mov	0x2061ef(%rip),%eax
  409911:	83 e8 02                    	(arith) 	sub	$0x2,%eax
  409914:	89 44 24 28                 	(move)  	mov	%eax,0x28(%rsp)
/home/jgarcia/TFG/source_code/SP/y_solve.f:196
  409918:	4c 63 5c 24 58              	(move)  	movsxd	0x58(%rsp),%r11
  40991d:	4d 69 db 35 c3 0c 00        	(arith) 	imul	$0xcc335,%r11,%r11
  409924:	4d 8d 63 03                 	(arith) 	lea	0x3(%r11),%r12
/home/jgarcia/TFG/source_code/SP/y_solve.f:213
  409928:	49 83 c3 04                 	(arith) 	add	$0x4,%r11
  40992c:	ba 00 00 00 00              	(move)  	mov	$0,%edx
/home/jgarcia/TFG/source_code/SP/y_solve.f:193
  409931:	f2 0f 10 0d 77 4b 00 00     	(move)  	movsd	0x4b77(%rip),%xmm1
; ------- Loop 166 entry
803 (loop 166):	
/home/jgarcia/TFG/source_code/SP/y_solve.f:189
  409939:	8d 4a 01                    	(arith) 	lea	0x1(%rdx),%ecx
  40993c:	89 4c 24 48                 	(move)  	mov	%ecx,0x48(%rsp)
/home/jgarcia/TFG/source_code/SP/y_solve.f:5
  409940:	89 4c 24 50                 	(move)  	mov	%ecx,0x50(%rsp)
  409944:	8d 42 02                    	(arith) 	lea	0x2(%rdx),%eax
/home/jgarcia/TFG/source_code/SP/y_solve.f:191
  409947:	83 7c 24 28 00              	(arith) 	cmpl	$0,0x28(%rsp)
  40994c:	0f 8e c2 02 00 00           	(control)	jle	409c14 <y_solve_+0xdf0>	; ↲ label 804
805:	
/home/jgarcia/TFG/source_code/SP/y_solve.f:193
  409952:	48 63 d2                    	(move)  	movsxd	%edx,%rdx
  409955:	48 89 d1                    	(move)  	mov	%rdx,%rcx
  409958:	48 c1 e1 09                 	(logic) 	sal	$0x9,%rcx
  40995c:	48 29 d1                    	(arith) 	sub	%rdx,%rcx
  40995f:	4c 8d 34 8a                 	(arith) 	lea	(%rdx,%rcx,4),%r14
/home/jgarcia/TFG/source_code/SP/y_solve.f:195
  409963:	49 8d 56 ff                 	(arith) 	lea	-0x1(%r14),%rdx
  409967:	48 89 54 24 40              	(move)  	mov	%rdx,0x40(%rsp)
/home/jgarcia/TFG/source_code/SP/y_solve.f:198
  40996c:	48 63 54 24 48              	(move)  	movsxd	0x48(%rsp),%rdx
  409971:	48 89 d1                    	(move)  	mov	%rdx,%rcx
  409974:	48 c1 e1 09                 	(logic) 	sal	$0x9,%rcx
  409978:	48 29 d1                    	(arith) 	sub	%rdx,%rcx
  40997b:	48 8d 0c 8a                 	(arith) 	lea	(%rdx,%rcx,4),%rcx
  40997f:	48 89 4c 24 38              	(move)  	mov	%rcx,0x38(%rsp)
/home/jgarcia/TFG/source_code/SP/y_solve.f:204
  409984:	48 98                       	(conv)  	cltq
  409986:	48 89 c2                    	(move)  	mov	%rax,%rdx
  409989:	48 c1 e2 09                 	(logic) 	sal	$0x9,%rdx
  40998d:	48 29 c2                    	(arith) 	sub	%rax,%rdx
  409990:	48 8d 14 90                 	(arith) 	lea	(%rax,%rdx,4),%rdx
  409994:	48 89 54 24 30              	(move)  	mov	%rdx,0x30(%rsp)
  409999:	41 b8 00 00 00 00           	(move)  	mov	$0,%r8d
; ------- Loop 167 entry
806 (loop 167):	
/home/jgarcia/TFG/source_code/SP/y_solve.f:5
  40999f:	41 83 c0 01                 	(arith) 	add	$0x1,%r8d
/home/jgarcia/TFG/source_code/SP/y_solve.f:193
  4099a3:	49 63 d0                    	(move)  	movsxd	%r8d,%rdx
  4099a6:	48 8d 04 92                 	(arith) 	lea	(%rdx,%rdx,4),%rax
  4099aa:	4a 8d 0c 30                 	(arith) 	lea	(%rax,%r14,1),%rcx
  4099ae:	66 0f 28 c1                 	(move)  	movapd	%xmm1,%xmm0
  4099b2:	f2 0f 5e 84 cb b8 19 66 00  	(arith) 	divsd	0x6619b8(%rbx,%rcx,8),%xmm0
/home/jgarcia/TFG/source_code/SP/y_solve.f:194
  4099bb:	48 8d b9 38 c3 0c 00        	(arith) 	lea	0xcc338(%rcx),%rdi
  4099c2:	f2 0f 10 14 fb              	(move)  	movsd	(%rbx,%rdi,8),%xmm2
  4099c7:	f2 0f 59 d0                 	(arith) 	mulsd	%xmm0,%xmm2
  4099cb:	f2 0f 11 14 fb              	(move)  	movsd	%xmm2,(%rbx,%rdi,8)
/home/jgarcia/TFG/source_code/SP/y_solve.f:195
  4099d0:	4c 8d 6c 92 05              	(arith) 	lea	0x5(%rdx,%rdx,4),%r13
  4099d5:	4c 03 6c 24 40              	(arith) 	add	0x40(%rsp),%r13
  4099da:	49 8d b5 35 c3 0c 00        	(arith) 	lea	0xcc335(%r13),%rsi
  4099e1:	f2 0f 10 14 f3              	(move)  	movsd	(%rbx,%rsi,8),%xmm2
  4099e6:	f2 0f 59 d0                 	(arith) 	mulsd	%xmm0,%xmm2
  4099ea:	f2 0f 11 14 f3              	(move)  	movsd	%xmm2,(%rbx,%rsi,8)
/home/jgarcia/TFG/source_code/SP/y_solve.f:196
  4099ef:	4d 8d 8c 0c 20 11 d1 30     	(arith) 	lea	0x30d11120(%r12,%rcx,1),%r9
  4099f7:	f2 42 0f 59 44 cd 00        	(arith) 	mulsd	(%rbp,%r9,8),%xmm0
  4099fe:	f2 42 0f 11 44 cd 00        	(move)  	movsd	%xmm0,(%rbp,%r9,8)
/home/jgarcia/TFG/source_code/SP/y_solve.f:198
  409a05:	48 8b 54 24 38              	(move)  	mov	0x38(%rsp),%rdx
  409a0a:	48 8d 14 10                 	(arith) 	lea	(%rax,%rdx,1),%rdx
  409a0e:	4c 8d ba 37 c3 0c 00        	(arith) 	lea	0xcc337(%rdx),%r15
  409a15:	4c 8d 92 36 c3 0c 00        	(arith) 	lea	0xcc336(%rdx),%r10
  409a1c:	f2 42 0f 10 1c d3           	(move)  	movsd	(%rbx,%r10,8),%xmm3
  409a22:	f2 0f 59 1c fb              	(arith) 	mulsd	(%rbx,%rdi,8),%xmm3
  409a27:	f2 42 0f 10 14 fb           	(move)  	movsd	(%rbx,%r15,8),%xmm2
  409a2d:	f2 0f 5c d3                 	(arith) 	subsd	%xmm3,%xmm2
  409a31:	f2 42 0f 11 14 fb           	(move)  	movsd	%xmm2,(%rbx,%r15,8)
/home/jgarcia/TFG/source_code/SP/y_solve.f:200
  409a37:	4c 8d ba 38 c3 0c 00        	(arith) 	lea	0xcc338(%rdx),%r15
  409a3e:	f2 42 0f 10 1c d3           	(move)  	movsd	(%rbx,%r10,8),%xmm3
  409a44:	f2 0f 59 1c f3              	(arith) 	mulsd	(%rbx,%rsi,8),%xmm3
  409a49:	f2 42 0f 10 14 fb           	(move)  	movsd	(%rbx,%r15,8),%xmm2
  409a4f:	f2 0f 5c d3                 	(arith) 	subsd	%xmm3,%xmm2
  409a53:	f2 42 0f 11 14 fb           	(move)  	movsd	%xmm2,(%rbx,%r15,8)
/home/jgarcia/TFG/source_code/SP/y_solve.f:202
  409a59:	4e 8d bc 22 20 11 d1 30     	(arith) 	lea	0x30d11120(%rdx,%r12,1),%r15
  409a61:	f2 42 0f 59 04 d3           	(arith) 	mulsd	(%rbx,%r10,8),%xmm0
  409a67:	f2 42 0f 10 54 fd 00        	(move)  	movsd	(%rbp,%r15,8),%xmm2
  409a6e:	f2 0f 5c d0                 	(arith) 	subsd	%xmm0,%xmm2
  409a72:	f2 42 0f 11 54 fd 00        	(move)  	movsd	%xmm2,(%rbp,%r15,8)
/home/jgarcia/TFG/source_code/SP/y_solve.f:204
  409a79:	48 03 44 24 30              	(arith) 	add	0x30(%rsp),%rax
  409a7e:	4c 8d b8 36 c3 0c 00        	(arith) 	lea	0xcc336(%rax),%r15
  409a85:	4c 8d 90 35 c3 0c 00        	(arith) 	lea	0xcc335(%rax),%r10
  409a8c:	f2 42 0f 10 14 d3           	(move)  	movsd	(%rbx,%r10,8),%xmm2
  409a92:	f2 0f 59 14 fb              	(arith) 	mulsd	(%rbx,%rdi,8),%xmm2
  409a97:	f2 42 0f 10 04 fb           	(move)  	movsd	(%rbx,%r15,8),%xmm0
  409a9d:	f2 0f 5c c2                 	(arith) 	subsd	%xmm2,%xmm0
  409aa1:	f2 42 0f 11 04 fb           	(move)  	movsd	%xmm0,(%rbx,%r15,8)
/home/jgarcia/TFG/source_code/SP/y_solve.f:206
  409aa7:	48 8d b8 37 c3 0c 00        	(arith) 	lea	0xcc337(%rax),%rdi
  409aae:	f2 42 0f 10 14 d3           	(move)  	movsd	(%rbx,%r10,8),%xmm2
  409ab4:	f2 0f 59 14 f3              	(arith) 	mulsd	(%rbx,%rsi,8),%xmm2
  409ab9:	f2 0f 10 04 fb              	(move)  	movsd	(%rbx,%rdi,8),%xmm0
  409abe:	f2 0f 5c c2                 	(arith) 	subsd	%xmm2,%xmm0
  409ac2:	f2 0f 11 04 fb              	(move)  	movsd	%xmm0,(%rbx,%rdi,8)
/home/jgarcia/TFG/source_code/SP/y_solve.f:208
  409ac7:	4a 8d b4 20 20 11 d1 30     	(arith) 	lea	0x30d11120(%rax,%r12,1),%rsi
  409acf:	f2 42 0f 10 14 d3           	(move)  	movsd	(%rbx,%r10,8),%xmm2
  409ad5:	f2 42 0f 59 54 cd 00        	(arith) 	mulsd	(%rbp,%r9,8),%xmm2
  409adc:	f2 0f 10 44 f5 00           	(move)  	movsd	(%rbp,%rsi,8),%xmm0
  409ae2:	f2 0f 5c c2                 	(arith) 	subsd	%xmm2,%xmm0
  409ae6:	f2 0f 11 44 f5 00           	(move)  	movsd	%xmm0,(%rbp,%rsi,8)
/home/jgarcia/TFG/source_code/SP/y_solve.f:210
  409aec:	66 0f 28 c1                 	(move)  	movapd	%xmm1,%xmm0
  409af0:	f2 0f 5e 84 cb 60 33 cc 00  	(arith) 	divsd	0xcc3360(%rbx,%rcx,8),%xmm0
/home/jgarcia/TFG/source_code/SP/y_solve.f:211
  409af9:	48 8d b1 6d 86 19 00        	(arith) 	lea	0x19866d(%rcx),%rsi
  409b00:	f2 0f 10 14 f3              	(move)  	movsd	(%rbx,%rsi,8),%xmm2
  409b05:	f2 0f 59 d0                 	(arith) 	mulsd	%xmm0,%xmm2
  409b09:	f2 0f 11 14 f3              	(move)  	movsd	%xmm2,(%rbx,%rsi,8)
/home/jgarcia/TFG/source_code/SP/y_solve.f:212
  409b0e:	49 81 c5 6a 86 19 00        	(arith) 	add	$0x19866a,%r13
  409b15:	f2 42 0f 10 14 eb           	(move)  	movsd	(%rbx,%r13,8),%xmm2
  409b1b:	f2 0f 59 d0                 	(arith) 	mulsd	%xmm0,%xmm2
  409b1f:	f2 42 0f 11 14 eb           	(move)  	movsd	%xmm2,(%rbx,%r13,8)
/home/jgarcia/TFG/source_code/SP/y_solve.f:213
  409b25:	49 8d 8c 0b 20 11 d1 30     	(arith) 	lea	0x30d11120(%r11,%rcx,1),%rcx
  409b2d:	f2 0f 59 44 cd 00           	(arith) 	mulsd	(%rbp,%rcx,8),%xmm0
  409b33:	f2 0f 11 44 cd 00           	(move)  	movsd	%xmm0,(%rbp,%rcx,8)
/home/jgarcia/TFG/source_code/SP/y_solve.f:215
  409b39:	4c 8d 8a 6c 86 19 00        	(arith) 	lea	0x19866c(%rdx),%r9
  409b40:	48 8d ba 6b 86 19 00        	(arith) 	lea	0x19866b(%rdx),%rdi
  409b47:	f2 0f 10 1c fb              	(move)  	movsd	(%rbx,%rdi,8),%xmm3
  409b4c:	f2 0f 59 1c f3              	(arith) 	mulsd	(%rbx,%rsi,8),%xmm3
  409b51:	f2 42 0f 10 14 cb           	(move)  	movsd	(%rbx,%r9,8),%xmm2
  409b57:	f2 0f 5c d3                 	(arith) 	subsd	%xmm3,%xmm2
  409b5b:	f2 42 0f 11 14 cb           	(move)  	movsd	%xmm2,(%rbx,%r9,8)
/home/jgarcia/TFG/source_code/SP/y_solve.f:217
  409b61:	4c 8d 8a 6d 86 19 00        	(arith) 	lea	0x19866d(%rdx),%r9
  409b68:	f2 0f 10 1c fb              	(move)  	movsd	(%rbx,%rdi,8),%xmm3
  409b6d:	f2 42 0f 59 1c eb           	(arith) 	mulsd	(%rbx,%r13,8),%xmm3
  409b73:	f2 42 0f 10 14 cb           	(move)  	movsd	(%rbx,%r9,8),%xmm2
  409b79:	f2 0f 5c d3                 	(arith) 	subsd	%xmm3,%xmm2
  409b7d:	f2 42 0f 11 14 cb           	(move)  	movsd	%xmm2,(%rbx,%r9,8)
/home/jgarcia/TFG/source_code/SP/y_solve.f:219
  409b83:	49 8d 94 13 20 11 d1 30     	(arith) 	lea	0x30d11120(%r11,%rdx,1),%rdx
  409b8b:	f2 0f 59 04 fb              	(arith) 	mulsd	(%rbx,%rdi,8),%xmm0
  409b90:	f2 0f 10 54 d5 00           	(move)  	movsd	(%rbp,%rdx,8),%xmm2
  409b96:	f2 0f 5c d0                 	(arith) 	subsd	%xmm0,%xmm2
  409b9a:	f2 0f 11 54 d5 00           	(move)  	movsd	%xmm2,(%rbp,%rdx,8)
/home/jgarcia/TFG/source_code/SP/y_solve.f:221
  409ba0:	48 8d b8 6b 86 19 00        	(arith) 	lea	0x19866b(%rax),%rdi
  409ba7:	48 8d 90 6a 86 19 00        	(arith) 	lea	0x19866a(%rax),%rdx
  409bae:	f2 0f 10 14 d3              	(move)  	movsd	(%rbx,%rdx,8),%xmm2
  409bb3:	f2 0f 59 14 f3              	(arith) 	mulsd	(%rbx,%rsi,8),%xmm2
  409bb8:	f2 0f 10 04 fb              	(move)  	movsd	(%rbx,%rdi,8),%xmm0
  409bbd:	f2 0f 5c c2                 	(arith) 	subsd	%xmm2,%xmm0
  409bc1:	f2 0f 11 04 fb              	(move)  	movsd	%xmm0,(%rbx,%rdi,8)
/home/jgarcia/TFG/source_code/SP/y_solve.f:223
  409bc6:	48 8d b0 6c 86 19 00        	(arith) 	lea	0x19866c(%rax),%rsi
  409bcd:	f2 0f 10 14 d3              	(move)  	movsd	(%rbx,%rdx,8),%xmm2
  409bd2:	f2 42 0f 59 14 eb           	(arith) 	mulsd	(%rbx,%r13,8),%xmm2
  409bd8:	f2 0f 10 04 f3              	(move)  	movsd	(%rbx,%rsi,8),%xmm0
  409bdd:	f2 0f 5c c2                 	(arith) 	subsd	%xmm2,%xmm0
  409be1:	f2 0f 11 04 f3              	(move)  	movsd	%xmm0,(%rbx,%rsi,8)
/home/jgarcia/TFG/source_code/SP/y_solve.f:225
  409be6:	49 8d 84 03 20 11 d1 30     	(arith) 	lea	0x30d11120(%r11,%rax,1),%rax
  409bee:	f2 0f 10 14 d3              	(move)  	movsd	(%rbx,%rdx,8),%xmm2
  409bf3:	f2 0f 59 54 cd 00           	(arith) 	mulsd	(%rbp,%rcx,8),%xmm2
  409bf9:	f2 0f 10 44 c5 00           	(move)  	movsd	(%rbp,%rax,8),%xmm0
  409bff:	f2 0f 5c c2                 	(arith) 	subsd	%xmm2,%xmm0
  409c03:	f2 0f 11 44 c5 00           	(move)  	movsd	%xmm0,(%rbp,%rax,8)
/home/jgarcia/TFG/source_code/SP/y_solve.f:191
  409c09:	44 39 44 24 28              	(arith) 	cmp	%r8d,0x28(%rsp)
  409c0e:	0f 85 8b fd ff ff           	(control)	jne	40999f <y_solve_+0xb7b>	; ↰ label 806 (loop 167)
; ------- Loop 167 exit
804:	
/home/jgarcia/TFG/source_code/SP/y_solve.f:5
  409c14:	8b 44 24 50                 	(move)  	mov	0x50(%rsp),%eax
  409c18:	83 e8 01                    	(arith) 	sub	$0x1,%eax
/home/jgarcia/TFG/source_code/SP/y_solve.f:188
  409c1b:	3b 44 24 54                 	(arith) 	cmp	0x54(%rsp),%eax
  409c1f:	74 09                       	(control)	je	409c2a <y_solve_+0xe06>	; ↲ label 801
807:	
  409c21:	8b 54 24 48                 	(move)  	mov	0x48(%rsp),%edx
  409c25:	e9 0f fd ff ff              	(control)	jmp	409939 <y_solve_+0xb15>	; ↰ label 803 (loop 166)
; ------- Loop 166 exit
801:	
/home/jgarcia/TFG/source_code/SP/y_solve.f:232
  409c2a:	8b 05 d4 5e 20 00           	(move)  	mov	0x205ed4(%rip),%eax
  409c30:	8d 50 fe                    	(arith) 	lea	-0x2(%rax),%edx
/home/jgarcia/TFG/source_code/SP/y_solve.f:233
  409c33:	83 e8 01                    	(arith) 	sub	$0x1,%eax
/home/jgarcia/TFG/source_code/SP/y_solve.f:234
  409c36:	8b 0d c4 5e 20 00           	(move)  	mov	0x205ec4(%rip),%ecx
  409c3c:	83 e9 02                    	(arith) 	sub	$0x2,%ecx
  409c3f:	89 4c 24 30                 	(move)  	mov	%ecx,0x30(%rsp)
  409c43:	85 c9                       	(arith) 	test	%ecx,%ecx
  409c45:	0f 8e 82 03 00 00           	(control)	jle	409fcd <y_solve_+0x11a9>	; ↲ label 808
809:	
/home/jgarcia/TFG/source_code/SP/y_solve.f:236
  409c4b:	48 63 d2                    	(move)  	movsxd	%edx,%rdx
  409c4e:	48 89 d1                    	(move)  	mov	%rdx,%rcx
  409c51:	48 c1 e1 09                 	(logic) 	sal	$0x9,%rcx
  409c55:	48 29 d1                    	(arith) 	sub	%rdx,%rcx
  409c58:	4c 8d 2c 8a                 	(arith) 	lea	(%rdx,%rcx,4),%r13
/home/jgarcia/TFG/source_code/SP/y_solve.f:238
  409c5c:	4d 8d 75 ff                 	(arith) 	lea	-0x1(%r13),%r14
/home/jgarcia/TFG/source_code/SP/y_solve.f:239
  409c60:	48 63 54 24 58              	(move)  	movsxd	0x58(%rsp),%rdx
  409c65:	48 69 d2 35 c3 0c 00        	(arith) 	imul	$0xcc335,%rdx,%rdx
  409c6c:	48 89 54 24 28              	(move)  	mov	%rdx,0x28(%rsp)
  409c71:	48 89 d6                    	(move)  	mov	%rdx,%rsi
  409c74:	48 83 c6 03                 	(arith) 	add	$0x3,%rsi
/home/jgarcia/TFG/source_code/SP/y_solve.f:241
  409c78:	48 98                       	(conv)  	cltq
  409c7a:	48 89 c2                    	(move)  	mov	%rax,%rdx
  409c7d:	48 c1 e2 09                 	(logic) 	sal	$0x9,%rdx
  409c81:	48 29 c2                    	(arith) 	sub	%rax,%rdx
  409c84:	48 8d 14 90                 	(arith) 	lea	(%rax,%rdx,4),%rdx
  409c88:	48 89 54 24 38              	(move)  	mov	%rdx,0x38(%rsp)
/home/jgarcia/TFG/source_code/SP/y_solve.f:250
  409c8d:	4c 8b 64 24 28              	(move)  	mov	0x28(%rsp),%r12
  409c92:	49 83 c4 04                 	(arith) 	add	$0x4,%r12
/home/jgarcia/TFG/source_code/SP/y_solve.f:261
  409c96:	48 8b 4c 24 28              	(move)  	mov	0x28(%rsp),%rcx
  409c9b:	48 8d 4c 0a ff              	(arith) 	lea	-0x1(%rdx,%rcx,1),%rcx
  409ca0:	48 89 4c 24 40              	(move)  	mov	%rcx,0x40(%rsp)
  409ca5:	bf 00 00 00 00              	(move)  	mov	$0,%edi
/home/jgarcia/TFG/source_code/SP/y_solve.f:236
  409caa:	f2 0f 10 0d fe 47 00 00     	(move)  	movsd	0x47fe(%rip),%xmm1
; ------- Loop 163 entry
810 (loop 163):	
/home/jgarcia/TFG/source_code/SP/y_solve.f:5
  409cb2:	83 c7 01                    	(arith) 	add	$0x1,%edi
/home/jgarcia/TFG/source_code/SP/y_solve.f:236
  409cb5:	48 63 cf                    	(move)  	movsxd	%edi,%rcx
  409cb8:	48 8d 04 89                 	(arith) 	lea	(%rcx,%rcx,4),%rax
  409cbc:	4a 8d 14 28                 	(arith) 	lea	(%rax,%r13,1),%rdx
  409cc0:	66 0f 28 c1                 	(move)  	movapd	%xmm1,%xmm0
  409cc4:	f2 0f 5e 84 d3 b8 19 66 00  	(arith) 	divsd	0x6619b8(%rbx,%rdx,8),%xmm0
/home/jgarcia/TFG/source_code/SP/y_solve.f:237
  409ccd:	4c 8d ba 38 c3 0c 00        	(arith) 	lea	0xcc338(%rdx),%r15
  409cd4:	f2 42 0f 10 14 fb           	(move)  	movsd	(%rbx,%r15,8),%xmm2
  409cda:	f2 0f 59 d0                 	(arith) 	mulsd	%xmm0,%xmm2
  409cde:	f2 42 0f 11 14 fb           	(move)  	movsd	%xmm2,(%rbx,%r15,8)
/home/jgarcia/TFG/source_code/SP/y_solve.f:238
  409ce4:	4c 8d 5c 89 05              	(arith) 	lea	0x5(%rcx,%rcx,4),%r11
  409ce9:	4f 8d 0c 33                 	(arith) 	lea	(%r11,%r14,1),%r9
  409ced:	49 8d 89 35 c3 0c 00        	(arith) 	lea	0xcc335(%r9),%rcx
  409cf4:	f2 0f 10 14 cb              	(move)  	movsd	(%rbx,%rcx,8),%xmm2
  409cf9:	f2 0f 59 d0                 	(arith) 	mulsd	%xmm0,%xmm2
  409cfd:	f2 0f 11 14 cb              	(move)  	movsd	%xmm2,(%rbx,%rcx,8)
/home/jgarcia/TFG/source_code/SP/y_solve.f:239
  409d02:	4c 8d 84 16 20 11 d1 30     	(arith) 	lea	0x30d11120(%rsi,%rdx,1),%r8
  409d0a:	f2 42 0f 59 44 c5 00        	(arith) 	mulsd	(%rbp,%r8,8),%xmm0
  409d11:	f2 42 0f 11 44 c5 00        	(move)  	movsd	%xmm0,(%rbp,%r8,8)
/home/jgarcia/TFG/source_code/SP/y_solve.f:241
  409d18:	48 03 44 24 38              	(arith) 	add	0x38(%rsp),%rax
  409d1d:	4c 8d 80 37 c3 0c 00        	(arith) 	lea	0xcc337(%rax),%r8
  409d24:	4c 8d 90 36 c3 0c 00        	(arith) 	lea	0xcc336(%rax),%r10
  409d2b:	f2 42 0f 10 1c d3           	(move)  	movsd	(%rbx,%r10,8),%xmm3
  409d31:	f2 42 0f 59 1c fb           	(arith) 	mulsd	(%rbx,%r15,8),%xmm3
  409d37:	f2 42 0f 10 14 c3           	(move)  	movsd	(%rbx,%r8,8),%xmm2
  409d3d:	f2 0f 5c d3                 	(arith) 	subsd	%xmm3,%xmm2
  409d41:	f2 42 0f 11 14 c3           	(move)  	movsd	%xmm2,(%rbx,%r8,8)
/home/jgarcia/TFG/source_code/SP/y_solve.f:243
  409d47:	4c 8d b8 38 c3 0c 00        	(arith) 	lea	0xcc338(%rax),%r15
  409d4e:	f2 42 0f 10 1c d3           	(move)  	movsd	(%rbx,%r10,8),%xmm3
  409d54:	f2 0f 59 1c cb              	(arith) 	mulsd	(%rbx,%rcx,8),%xmm3
  409d59:	f2 42 0f 10 14 fb           	(move)  	movsd	(%rbx,%r15,8),%xmm2
  409d5f:	f2 0f 5c d3                 	(arith) 	subsd	%xmm3,%xmm2
  409d63:	f2 42 0f 11 14 fb           	(move)  	movsd	%xmm2,(%rbx,%r15,8)
/home/jgarcia/TFG/source_code/SP/y_solve.f:245
  409d69:	48 8d 8c 30 20 11 d1 30     	(arith) 	lea	0x30d11120(%rax,%rsi,1),%rcx
  409d71:	f2 42 0f 59 04 d3           	(arith) 	mulsd	(%rbx,%r10,8),%xmm0
  409d77:	f2 0f 10 54 cd 00           	(move)  	movsd	(%rbp,%rcx,8),%xmm2
  409d7d:	f2 0f 5c d0                 	(arith) 	subsd	%xmm0,%xmm2
  409d81:	f2 0f 11 54 cd 00           	(move)  	movsd	%xmm2,(%rbp,%rcx,8)
/home/jgarcia/TFG/source_code/SP/y_solve.f:247
  409d87:	66 0f 28 c1                 	(move)  	movapd	%xmm1,%xmm0
  409d8b:	f2 0f 5e 84 d3 60 33 cc 00  	(arith) 	divsd	0xcc3360(%rbx,%rdx,8),%xmm0
/home/jgarcia/TFG/source_code/SP/y_solve.f:248
  409d94:	4c 8d 92 6d 86 19 00        	(arith) 	lea	0x19866d(%rdx),%r10
  409d9b:	f2 42 0f 10 14 d3           	(move)  	movsd	(%rbx,%r10,8),%xmm2
  409da1:	f2 0f 59 d0                 	(arith) 	mulsd	%xmm0,%xmm2
  409da5:	f2 42 0f 11 14 d3           	(move)  	movsd	%xmm2,(%rbx,%r10,8)
/home/jgarcia/TFG/source_code/SP/y_solve.f:249
  409dab:	49 81 c1 6a 86 19 00        	(arith) 	add	$0x19866a,%r9
  409db2:	f2 42 0f 10 14 cb           	(move)  	movsd	(%rbx,%r9,8),%xmm2
  409db8:	f2 0f 59 d0                 	(arith) 	mulsd	%xmm0,%xmm2
  409dbc:	f2 42 0f 11 14 cb           	(move)  	movsd	%xmm2,(%rbx,%r9,8)
/home/jgarcia/TFG/source_code/SP/y_solve.f:250
  409dc2:	49 8d 94 14 20 11 d1 30     	(arith) 	lea	0x30d11120(%r12,%rdx,1),%rdx
  409dca:	f2 0f 59 44 d5 00           	(arith) 	mulsd	(%rbp,%rdx,8),%xmm0
  409dd0:	f2 0f 11 44 d5 00           	(move)  	movsd	%xmm0,(%rbp,%rdx,8)
/home/jgarcia/TFG/source_code/SP/y_solve.f:252
  409dd6:	48 8d 90 6c 86 19 00        	(arith) 	lea	0x19866c(%rax),%rdx
  409ddd:	4c 8d b8 6b 86 19 00        	(arith) 	lea	0x19866b(%rax),%r15
  409de4:	f2 42 0f 10 1c fb           	(move)  	movsd	(%rbx,%r15,8),%xmm3
  409dea:	f2 42 0f 59 1c d3           	(arith) 	mulsd	(%rbx,%r10,8),%xmm3
  409df0:	f2 0f 10 14 d3              	(move)  	movsd	(%rbx,%rdx,8),%xmm2
  409df5:	f2 0f 5c d3                 	(arith) 	subsd	%xmm3,%xmm2
  409df9:	f2 0f 11 14 d3              	(move)  	movsd	%xmm2,(%rbx,%rdx,8)
/home/jgarcia/TFG/source_code/SP/y_solve.f:254
  409dfe:	4c 8d 90 6d 86 19 00        	(arith) 	lea	0x19866d(%rax),%r10
  409e05:	f2 42 0f 10 1c fb           	(move)  	movsd	(%rbx,%r15,8),%xmm3
  409e0b:	f2 42 0f 59 1c cb           	(arith) 	mulsd	(%rbx,%r9,8),%xmm3
  409e11:	f2 42 0f 10 14 d3           	(move)  	movsd	(%rbx,%r10,8),%xmm2
  409e17:	f2 0f 5c d3                 	(arith) 	subsd	%xmm3,%xmm2
  409e1b:	f2 42 0f 11 14 d3           	(move)  	movsd	%xmm2,(%rbx,%r10,8)
/home/jgarcia/TFG/source_code/SP/y_solve.f:256
  409e21:	49 8d 84 04 20 11 d1 30     	(arith) 	lea	0x30d11120(%r12,%rax,1),%rax
  409e29:	f2 42 0f 59 04 fb           	(arith) 	mulsd	(%rbx,%r15,8),%xmm0
  409e2f:	f2 0f 10 54 c5 00           	(move)  	movsd	(%rbp,%rax,8),%xmm2
  409e35:	f2 0f 5c d0                 	(arith) 	subsd	%xmm0,%xmm2
  409e39:	f2 0f 11 54 c5 00           	(move)  	movsd	%xmm2,(%rbp,%rax,8)
/home/jgarcia/TFG/source_code/SP/y_solve.f:260
  409e3f:	f2 0f 10 44 cd 00           	(move)  	movsd	(%rbp,%rcx,8),%xmm0
  409e45:	f2 42 0f 5e 04 c3           	(arith) 	divsd	(%rbx,%r8,8),%xmm0
  409e4b:	f2 0f 11 44 cd 00           	(move)  	movsd	%xmm0,(%rbp,%rcx,8)
/home/jgarcia/TFG/source_code/SP/y_solve.f:261
  409e51:	48 8b 4c 24 40              	(move)  	mov	0x40(%rsp),%rcx
  409e56:	4a 8d 84 19 20 11 d1 30     	(arith) 	lea	0x30d11120(%rcx,%r11,1),%rax
  409e5e:	f2 0f 10 44 c5 00           	(move)  	movsd	(%rbp,%rax,8),%xmm0
  409e64:	f2 0f 5e 04 d3              	(arith) 	divsd	(%rbx,%rdx,8),%xmm0
  409e69:	f2 0f 11 44 c5 00           	(move)  	movsd	%xmm0,(%rbp,%rax,8)
/home/jgarcia/TFG/source_code/SP/y_solve.f:234
  409e6f:	39 7c 24 30                 	(arith) 	cmp	%edi,0x30(%rsp)
  409e73:	0f 85 39 fe ff ff           	(control)	jne	409cb2 <y_solve_+0xe8e>	; ↰ label 810 (loop 163)
; ------- Loop 163 exit
811:	
/home/jgarcia/TFG/source_code/SP/y_solve.f:269
  409e79:	8b 05 85 5c 20 00           	(move)  	mov	0x205c85(%rip),%eax
  409e7f:	8d 50 fe                    	(arith) 	lea	-0x2(%rax),%edx
/home/jgarcia/TFG/source_code/SP/y_solve.f:270
  409e82:	83 e8 01                    	(arith) 	sub	$0x1,%eax
/home/jgarcia/TFG/source_code/SP/y_solve.f:271
  409e85:	8b 0d 75 5c 20 00           	(move)  	mov	0x205c75(%rip),%ecx
  409e8b:	83 e9 02                    	(arith) 	sub	$0x2,%ecx
  409e8e:	89 4c 24 30                 	(move)  	mov	%ecx,0x30(%rsp)
  409e92:	85 c9                       	(arith) 	test	%ecx,%ecx
  409e94:	0f 8e 33 01 00 00           	(control)	jle	409fcd <y_solve_+0x11a9>	; ↲ label 808
812:	
/home/jgarcia/TFG/source_code/SP/y_solve.f:274
  409e9a:	48 63 d2                    	(move)  	movsxd	%edx,%rdx
  409e9d:	48 89 d1                    	(move)  	mov	%rdx,%rcx
  409ea0:	48 c1 e1 09                 	(logic) 	sal	$0x9,%rcx
  409ea4:	48 29 d1                    	(arith) 	sub	%rdx,%rcx
  409ea7:	4c 8d 2c 8a                 	(arith) 	lea	(%rdx,%rcx,4),%r13
  409eab:	4c 8b 74 24 28              	(move)  	mov	0x28(%rsp),%r14
  409eb0:	49 83 ee 01                 	(arith) 	sub	$0x1,%r14
  409eb4:	48 98                       	(conv)  	cltq
  409eb6:	48 89 c2                    	(move)  	mov	%rax,%rdx
  409eb9:	48 c1 e2 09                 	(logic) 	sal	$0x9,%rdx
  409ebd:	48 29 c2                    	(arith) 	sub	%rax,%rdx
  409ec0:	4c 8d 24 90                 	(arith) 	lea	(%rax,%rdx,4),%r12
  409ec4:	41 ba 01 00 00 00           	(move)  	mov	$0x1,%r10d
  409eca:	4d 8d 7e 01                 	(arith) 	lea	0x1(%r14),%r15
/home/jgarcia/TFG/source_code/SP/y_solve.f:280
  409ece:	48 8b 44 24 28              	(move)  	mov	0x28(%rsp),%rax
  409ed3:	49 8d 44 05 ff              	(arith) 	lea	-0x1(%r13,%rax,1),%rax
  409ed8:	48 89 44 24 38              	(move)  	mov	%rax,0x38(%rsp)
; ------- Loop 165 entry
813 (loop 165):	
/home/jgarcia/TFG/source_code/SP/y_solve.f:274
  409edd:	49 63 ca                    	(move)  	movsxd	%r10d,%rcx
  409ee0:	4c 8d 1c 89                 	(arith) 	lea	(%rcx,%rcx,4),%r11
  409ee4:	4f 8d 0c 2b                 	(arith) 	lea	(%r11,%r13,1),%r9
  409ee8:	4b 8d 3c 31                 	(arith) 	lea	(%r9,%r14,1),%rdi
  409eec:	4d 8d 41 03                 	(arith) 	lea	0x3(%r9),%r8
  409ef0:	f2 42 0f 10 14 c3           	(move)  	movsd	(%rbx,%r8,8),%xmm2
  409ef6:	4d 01 e3                    	(arith) 	add	%r12,%r11
  409ef9:	48 8d 87 21 11 d1 30        	(arith) 	lea	0x30d11121(%rdi),%rax
  409f00:	48 8d 44 c5 00              	(arith) 	lea	(%rbp,%rax,8),%rax
  409f05:	48 89 44 24 40              	(move)  	mov	%rax,0x40(%rsp)
  409f0a:	4b 8d 94 3b 20 11 d1 30     	(arith) 	lea	0x30d11120(%r11,%r15,1),%rdx
  409f12:	48 8d 54 d5 00              	(arith) 	lea	(%rbp,%rdx,8),%rdx
/home/jgarcia/TFG/source_code/SP/y_solve.f:5
  409f17:	48 b8 40 a1 1c 88 01 00 00 00	(move)  	mov	$0x1881ca140,%rax
  409f21:	48 8d 3c f8                 	(arith) 	lea	(%rax,%rdi,8),%rdi
  409f25:	48 8b 44 24 40              	(move)  	mov	0x40(%rsp),%rax
; ------- Loop 164 entry
814 (loop 164):	
/home/jgarcia/TFG/source_code/SP/y_solve.f:274
  409f2a:	66 0f 28 ca                 	(move)  	movapd	%xmm2,%xmm1
  409f2e:	f2 0f 59 0a                 	(arith) 	mulsd	(%rdx),%xmm1
  409f32:	f2 0f 10 00                 	(move)  	movsd	(%rax),%xmm0
  409f36:	f2 0f 5c c1                 	(arith) 	subsd	%xmm1,%xmm0
  409f3a:	f2 0f 11 00                 	(move)  	movsd	%xmm0,(%rax)
  409f3e:	48 83 c0 08                 	(arith) 	add	$0x8,%rax
  409f42:	48 83 c2 08                 	(arith) 	add	$0x8,%rdx
/home/jgarcia/TFG/source_code/SP/y_solve.f:272
  409f46:	48 39 f8                    	(arith) 	cmp	%rdi,%rax
  409f49:	75 df                       	(control)	jne	409f2a <y_solve_+0x1106>	; ↰ label 814 (loop 164)
; ------- Loop 164 exit
815:	
/home/jgarcia/TFG/source_code/SP/y_solve.f:278
  409f4b:	49 8d 84 31 20 11 d1 30     	(arith) 	lea	0x30d11120(%r9,%rsi,1),%rax
  409f53:	49 8d 94 33 20 11 d1 30     	(arith) 	lea	0x30d11120(%r11,%rsi,1),%rdx
  409f5b:	f2 42 0f 10 8c c3 a8 19 66 00	(move)  	movsd	0x6619a8(%rbx,%r8,8),%xmm1
  409f65:	f2 0f 59 4c d5 00           	(arith) 	mulsd	(%rbp,%rdx,8),%xmm1
  409f6b:	f2 0f 10 44 c5 00           	(move)  	movsd	(%rbp,%rax,8),%xmm0
  409f71:	f2 0f 5c c1                 	(arith) 	subsd	%xmm1,%xmm0
  409f75:	f2 0f 11 44 c5 00           	(move)  	movsd	%xmm0,(%rbp,%rax,8)
/home/jgarcia/TFG/source_code/SP/y_solve.f:280
  409f7b:	48 8d 54 89 05              	(arith) 	lea	0x5(%rcx,%rcx,4),%rdx
  409f80:	48 8b 4c 24 38              	(move)  	mov	0x38(%rsp),%rcx
  409f85:	48 8d 84 0a 20 11 d1 30     	(arith) 	lea	0x30d11120(%rdx,%rcx,1),%rax
  409f8d:	4c 01 e2                    	(arith) 	add	%r12,%rdx
  409f90:	48 8b 4c 24 28              	(move)  	mov	0x28(%rsp),%rcx
  409f95:	48 8d 94 11 1f 11 d1 30     	(arith) 	lea	0x30d1111f(%rcx,%rdx,1),%rdx
  409f9d:	f2 42 0f 10 8c c3 50 33 cc 00	(move)  	movsd	0xcc3350(%rbx,%r8,8),%xmm1
  409fa7:	f2 0f 59 4c d5 00           	(arith) 	mulsd	(%rbp,%rdx,8),%xmm1
  409fad:	f2 0f 10 44 c5 00           	(move)  	movsd	(%rbp,%rax,8),%xmm0
  409fb3:	f2 0f 5c c1                 	(arith) 	subsd	%xmm1,%xmm0
  409fb7:	f2 0f 11 44 c5 00           	(move)  	movsd	%xmm0,(%rbp,%rax,8)
/home/jgarcia/TFG/source_code/SP/y_solve.f:271
  409fbd:	44 3b 54 24 30              	(arith) 	cmp	0x30(%rsp),%r10d
  409fc2:	74 09                       	(control)	je	409fcd <y_solve_+0x11a9>	; ↲ label 808
816:	
  409fc4:	41 83 c2 01                 	(arith) 	add	$0x1,%r10d
  409fc8:	e9 10 ff ff ff              	(control)	jmp	409edd <y_solve_+0x10b9>	; ↰ label 813 (loop 165)
; ------- Loop 165 exit
808:	
/home/jgarcia/TFG/source_code/SP/y_solve.f:286
  409fcd:	8b 05 31 5b 20 00           	(move)  	mov	0x205b31(%rip),%eax
  409fd3:	83 e8 03                    	(arith) 	sub	$0x3,%eax
  409fd6:	89 44 24 54                 	(move)  	mov	%eax,0x54(%rsp)
  409fda:	0f 88 24 02 00 00           	(control)	js	40a204 <y_solve_+0x13e0>	; ↲ label 817
818:	
/home/jgarcia/TFG/source_code/SP/y_solve.f:289
  409fe0:	8b 05 1a 5b 20 00           	(move)  	mov	0x205b1a(%rip),%eax
  409fe6:	83 e8 02                    	(arith) 	sub	$0x2,%eax
  409fe9:	89 44 24 50                 	(move)  	mov	%eax,0x50(%rsp)
/home/jgarcia/TFG/source_code/SP/y_solve.f:293
  409fed:	4c 63 6c 24 58              	(move)  	movsxd	0x58(%rsp),%r13
  409ff2:	4d 69 ed 35 c3 0c 00        	(arith) 	imul	$0xcc335,%r13,%r13
  409ff9:	49 8d 75 ff                 	(arith) 	lea	-0x1(%r13),%rsi
  409ffd:	48 8d 46 01                 	(arith) 	lea	0x1(%rsi),%rax
  40a001:	48 89 44 24 48              	(move)  	mov	%rax,0x48(%rsp)
/home/jgarcia/TFG/source_code/SP/y_solve.f:301
  40a006:	49 83 c5 03                 	(arith) 	add	$0x3,%r13
; ------- Loop 160 entry
819 (loop 160):	
/home/jgarcia/TFG/source_code/SP/y_solve.f:5
  40a00a:	8b 54 24 54                 	(move)  	mov	0x54(%rsp),%edx
  40a00e:	83 c2 01                    	(arith) 	add	$0x1,%edx
  40a011:	8b 44 24 54                 	(move)  	mov	0x54(%rsp),%eax
  40a015:	83 c0 02                    	(arith) 	add	$0x2,%eax
/home/jgarcia/TFG/source_code/SP/y_solve.f:289
  40a018:	83 7c 24 50 00              	(arith) 	cmpl	$0,0x50(%rsp)
  40a01d:	0f 8e d0 01 00 00           	(control)	jle	40a1f3 <y_solve_+0x13cf>	; ↲ label 820
821:	
/home/jgarcia/TFG/source_code/SP/y_solve.f:293
  40a023:	48 63 4c 24 54              	(move)  	movsxd	0x54(%rsp),%rcx
  40a028:	48 89 cf                    	(move)  	mov	%rcx,%rdi
  40a02b:	48 c1 e7 09                 	(logic) 	sal	$0x9,%rdi
  40a02f:	48 29 cf                    	(arith) 	sub	%rcx,%rdi
  40a032:	48 8d 3c b9                 	(arith) 	lea	(%rcx,%rdi,4),%rdi
  40a036:	48 89 7c 24 40              	(move)  	mov	%rdi,0x40(%rsp)
  40a03b:	48 63 d2                    	(move)  	movsxd	%edx,%rdx
  40a03e:	48 89 d1                    	(move)  	mov	%rdx,%rcx
  40a041:	48 c1 e1 09                 	(logic) 	sal	$0x9,%rcx
  40a045:	48 29 d1                    	(arith) 	sub	%rdx,%rcx
  40a048:	48 8d 0c 8a                 	(arith) 	lea	(%rdx,%rcx,4),%rcx
  40a04c:	48 89 4c 24 38              	(move)  	mov	%rcx,0x38(%rsp)
  40a051:	48 98                       	(conv)  	cltq
  40a053:	48 89 c2                    	(move)  	mov	%rax,%rdx
  40a056:	48 c1 e2 09                 	(logic) 	sal	$0x9,%rdx
  40a05a:	48 29 c2                    	(arith) 	sub	%rax,%rdx
  40a05d:	48 8d 14 90                 	(arith) 	lea	(%rax,%rdx,4),%rdx
  40a061:	48 89 54 24 30              	(move)  	mov	%rdx,0x30(%rsp)
  40a066:	41 bc 01 00 00 00           	(move)  	mov	$0x1,%r12d
; ------- Loop 162 entry
822 (loop 162):	
  40a06c:	49 63 d4                    	(move)  	movsxd	%r12d,%rdx
  40a06f:	48 8d 04 92                 	(arith) 	lea	(%rdx,%rdx,4),%rax
  40a073:	4c 8b 5c 24 40              	(move)  	mov	0x40(%rsp),%r11
  40a078:	4e 8d 1c 18                 	(arith) 	lea	(%rax,%r11,1),%r11
  40a07c:	49 8d 3c 33                 	(arith) 	lea	(%r11,%rsi,1),%rdi
  40a080:	4d 8d 53 03                 	(arith) 	lea	0x3(%r11),%r10
  40a084:	f2 42 0f 10 1c d3           	(move)  	movsd	(%rbx,%r10,8),%xmm3
  40a08a:	4c 8b 7c 24 38              	(move)  	mov	0x38(%rsp),%r15
  40a08f:	4e 8d 3c 38                 	(arith) 	lea	(%rax,%r15,1),%r15
  40a093:	4c 8d 4c 92 05              	(arith) 	lea	0x5(%rdx,%rdx,4),%r9
  40a098:	4c 8b 74 24 40              	(move)  	mov	0x40(%rsp),%r14
  40a09d:	4f 8d 34 31                 	(arith) 	lea	(%r9,%r14,1),%r14
  40a0a1:	4d 8d 46 ff                 	(arith) 	lea	-0x1(%r14),%r8
  40a0a5:	f2 42 0f 10 14 c3           	(move)  	movsd	(%rbx,%r8,8),%xmm2
  40a0ab:	48 03 44 24 30              	(arith) 	add	0x30(%rsp),%rax
  40a0b0:	48 89 44 24 28              	(move)  	mov	%rax,0x28(%rsp)
  40a0b5:	48 8d 87 21 11 d1 30        	(arith) 	lea	0x30d11121(%rdi),%rax
  40a0bc:	48 8d 44 c5 00              	(arith) 	lea	(%rbp,%rax,8),%rax
  40a0c1:	48 89 44 24 08              	(move)  	mov	%rax,0x8(%rsp)
  40a0c6:	48 8b 4c 24 48              	(move)  	mov	0x48(%rsp),%rcx
  40a0cb:	49 8d 94 0f 20 11 d1 30     	(arith) 	lea	0x30d11120(%r15,%rcx,1),%rdx
  40a0d3:	48 8d 54 d5 00              	(arith) 	lea	(%rbp,%rdx,8),%rdx
  40a0d8:	48 89 54 24 10              	(move)  	mov	%rdx,0x10(%rsp)
  40a0dd:	48 8b 44 24 28              	(move)  	mov	0x28(%rsp),%rax
  40a0e2:	48 8d 94 08 20 11 d1 30     	(arith) 	lea	0x30d11120(%rax,%rcx,1),%rdx
  40a0ea:	48 8d 54 d5 00              	(arith) 	lea	(%rbp,%rdx,8),%rdx
/home/jgarcia/TFG/source_code/SP/y_solve.f:5
  40a0ef:	48 b9 40 a1 1c 88 01 00 00 00	(move)  	mov	$0x1881ca140,%rcx
  40a0f9:	48 8d 3c f9                 	(arith) 	lea	(%rcx,%rdi,8),%rdi
  40a0fd:	48 8b 4c 24 10              	(move)  	mov	0x10(%rsp),%rcx
  40a102:	48 8b 44 24 08              	(move)  	mov	0x8(%rsp),%rax
; ------- Loop 161 entry
823 (loop 161):	
/home/jgarcia/TFG/source_code/SP/y_solve.f:293
  40a107:	66 0f 28 cb                 	(move)  	movapd	%xmm3,%xmm1
  40a10b:	f2 0f 59 09                 	(arith) 	mulsd	(%rcx),%xmm1
  40a10f:	f2 0f 10 00                 	(move)  	movsd	(%rax),%xmm0
  40a113:	f2 0f 5c c1                 	(arith) 	subsd	%xmm1,%xmm0
  40a117:	66 0f 28 ca                 	(move)  	movapd	%xmm2,%xmm1
  40a11b:	f2 0f 59 0a                 	(arith) 	mulsd	(%rdx),%xmm1
  40a11f:	f2 0f 5c c1                 	(arith) 	subsd	%xmm1,%xmm0
  40a123:	f2 0f 11 00                 	(move)  	movsd	%xmm0,(%rax)
  40a127:	48 83 c0 08                 	(arith) 	add	$0x8,%rax
  40a12b:	48 83 c1 08                 	(arith) 	add	$0x8,%rcx
  40a12f:	48 83 c2 08                 	(arith) 	add	$0x8,%rdx
/home/jgarcia/TFG/source_code/SP/y_solve.f:290
  40a133:	48 39 f8                    	(arith) 	cmp	%rdi,%rax
  40a136:	75 cf                       	(control)	jne	40a107 <y_solve_+0x12e3>	; ↰ label 823 (loop 161)
; ------- Loop 161 exit
824:	
/home/jgarcia/TFG/source_code/SP/y_solve.f:301
  40a138:	4b 8d 84 2b 20 11 d1 30     	(arith) 	lea	0x30d11120(%r11,%r13,1),%rax
  40a140:	4b 8d 94 2f 20 11 d1 30     	(arith) 	lea	0x30d11120(%r15,%r13,1),%rdx
  40a148:	f2 42 0f 10 8c d3 a8 19 66 00	(move)  	movsd	0x6619a8(%rbx,%r10,8),%xmm1
  40a152:	f2 0f 59 4c d5 00           	(arith) 	mulsd	(%rbp,%rdx,8),%xmm1
  40a158:	f2 0f 10 44 c5 00           	(move)  	movsd	(%rbp,%rax,8),%xmm0
  40a15e:	f2 0f 5c c1                 	(arith) 	subsd	%xmm1,%xmm0
  40a162:	48 8b 4c 24 28              	(move)  	mov	0x28(%rsp),%rcx
  40a167:	4a 8d 94 29 20 11 d1 30     	(arith) 	lea	0x30d11120(%rcx,%r13,1),%rdx
  40a16f:	f2 42 0f 10 8c c3 a8 19 66 00	(move)  	movsd	0x6619a8(%rbx,%r8,8),%xmm1
  40a179:	f2 0f 59 4c d5 00           	(arith) 	mulsd	(%rbp,%rdx,8),%xmm1
  40a17f:	f2 0f 5c c1                 	(arith) 	subsd	%xmm1,%xmm0
  40a183:	f2 0f 11 44 c5 00           	(move)  	movsd	%xmm0,(%rbp,%rax,8)
/home/jgarcia/TFG/source_code/SP/y_solve.f:304
  40a189:	49 8d 84 36 20 11 d1 30     	(arith) 	lea	0x30d11120(%r14,%rsi,1),%rax
  40a191:	48 8b 54 24 38              	(move)  	mov	0x38(%rsp),%rdx
  40a196:	49 8d 14 11                 	(arith) 	lea	(%r9,%rdx,1),%rdx
  40a19a:	48 8d 94 16 20 11 d1 30     	(arith) 	lea	0x30d11120(%rsi,%rdx,1),%rdx
  40a1a2:	f2 42 0f 10 8c d3 50 33 cc 00	(move)  	movsd	0xcc3350(%rbx,%r10,8),%xmm1
  40a1ac:	f2 0f 59 4c d5 00           	(arith) 	mulsd	(%rbp,%rdx,8),%xmm1
  40a1b2:	f2 0f 10 44 c5 00           	(move)  	movsd	(%rbp,%rax,8),%xmm0
  40a1b8:	f2 0f 5c c1                 	(arith) 	subsd	%xmm1,%xmm0
  40a1bc:	4c 03 4c 24 30              	(arith) 	add	0x30(%rsp),%r9
  40a1c1:	4a 8d 94 0e 20 11 d1 30     	(arith) 	lea	0x30d11120(%rsi,%r9,1),%rdx
  40a1c9:	f2 42 0f 10 8c c3 50 33 cc 00	(move)  	movsd	0xcc3350(%rbx,%r8,8),%xmm1
  40a1d3:	f2 0f 59 4c d5 00           	(arith) 	mulsd	(%rbp,%rdx,8),%xmm1
  40a1d9:	f2 0f 5c c1                 	(arith) 	subsd	%xmm1,%xmm0
  40a1dd:	f2 0f 11 44 c5 00           	(move)  	movsd	%xmm0,(%rbp,%rax,8)
/home/jgarcia/TFG/source_code/SP/y_solve.f:289
  40a1e3:	44 3b 64 24 50              	(arith) 	cmp	0x50(%rsp),%r12d
  40a1e8:	74 09                       	(control)	je	40a1f3 <y_solve_+0x13cf>	; ↲ label 820
825:	
  40a1ea:	41 83 c4 01                 	(arith) 	add	$0x1,%r12d
  40a1ee:	e9 79 fe ff ff              	(control)	jmp	40a06c <y_solve_+0x1248>	; ↰ label 822 (loop 162)
; ------- Loop 162 exit
820:	
/home/jgarcia/TFG/source_code/SP/y_solve.f:286
  40a1f3:	83 7c 24 54 00              	(arith) 	cmpl	$0,0x54(%rsp)
  40a1f8:	74 0a                       	(control)	je	40a204 <y_solve_+0x13e0>	; ↲ label 817
826:	
  40a1fa:	83 6c 24 54 01              	(arith) 	subl	$0x1,0x54(%rsp)
  40a1ff:	e9 06 fe ff ff              	(control)	jmp	40a00a <y_solve_+0x11e6>	; ↰ label 819 (loop 160)
; ------- Loop 160 exit
817:	
/home/jgarcia/TFG/source_code/SP/y_solve.f:27
  40a204:	8b 44 24 5c                 	(move)  	mov	0x5c(%rsp),%eax
  40a208:	39 44 24 58                 	(arith) 	cmp	%eax,0x58(%rsp)
  40a20c:	74 0a                       	(control)	je	40a218 <y_solve_+0x13f4>	; ↲ label 737
827:	
  40a20e:	83 44 24 58 01              	(arith) 	addl	$0x1,0x58(%rsp)
  40a213:	e9 63 ec ff ff              	(control)	jmp	408e7b <y_solve_+0x57>	; ↰ label 739 (loop 159)
; ------- Loop 159 exit
737:	
/home/jgarcia/TFG/source_code/SP/y_solve.f:308
  40a218:	83 3d f9 58 20 00 00        	(arith) 	cmpl	$0,0x2058f9(%rip)
  40a21f:	74 0f                       	(control)	je	40a230 <y_solve_+0x140c>	; ↲ label 828
829:	
  40a221:	bf 48 e5 40 00              	(move)  	mov	$0x40e548,%edi
  40a226:	b8 00 00 00 00              	(move)  	mov	$0,%eax
  40a22b:	e8 db 3d 00 00              	(control)	call	40e00b <timer_stop_>	; ⇄ timer_stop
828:	
/home/jgarcia/TFG/source_code/SP/y_solve.f:310
  40a230:	b8 00 00 00 00              	(move)  	mov	$0,%eax
  40a235:	e8 12 00 00 00              	(control)	call	40a24c <pinvr_>	; ⇄ pinvr
831:	
/home/jgarcia/TFG/source_code/SP/y_solve.f:313
  40a23a:	48 83 c4 78                 	(arith) 	add	$0x78,%rsp
  40a23e:	5b                          	(move)  	pop	%rbx
  40a23f:	5d                          	(move)  	pop	%rbp
  40a240:	41 5c                       	(move)  	pop	%r12
  40a242:	41 5d                       	(move)  	pop	%r13
  40a244:	41 5e                       	(move)  	pop	%r14
  40a246:	41 5f                       	(move)  	pop	%r15
  40a248:	c3                          	(control)	ret
832:	
/home/jgarcia/TFG/source_code/SP/pinvr.f:5
  40a249:	90                          	(other) 	nop
  40a24a:	90                          	(other) 	nop
  40a24b:	90                          	(other) 	nop


000000000040a24c <pinvr>:
830 (function pinvr_):	
/home/jgarcia/TFG/source_code/SP/pinvr.f:5
  40a24c:	41 57                       	(move)  	push	%r15
  40a24e:	41 56                       	(move)  	push	%r14
  40a250:	41 55                       	(move)  	push	%r13
  40a252:	41 54                       	(move)  	push	%r12
  40a254:	55                          	(move)  	push	%rbp
  40a255:	53                          	(move)  	push	%rbx
  40a256:	48 83 ec 28                 	(arith) 	sub	$0x28,%rsp
/home/jgarcia/TFG/source_code/SP/pinvr.f:19
  40a25a:	83 3d b7 58 20 00 00        	(arith) 	cmpl	$0,0x2058b7(%rip)
  40a261:	74 0f                       	(control)	je	40a272 <pinvr_+0x26>	; ↲ label 833
834:	
  40a263:	bf 4c e5 40 00              	(move)  	mov	$0x40e54c,%edi
  40a268:	b8 00 00 00 00              	(move)  	mov	$0,%eax
  40a26d:	e8 c5 3d 00 00              	(control)	call	40e037 <timer_start_>	; ⇄ timer_start
833:	
/home/jgarcia/TFG/source_code/SP/pinvr.f:20
  40a272:	8b 05 9c 58 20 00           	(move)  	mov	0x20589c(%rip),%eax
  40a278:	89 44 24 1c                 	(move)  	mov	%eax,0x1c(%rsp)
  40a27c:	85 c0                       	(arith) 	test	%eax,%eax
  40a27e:	0f 8e 62 01 00 00           	(control)	jle	40a3e6 <pinvr_+0x19a>	; ↲ label 835
836:	
/home/jgarcia/TFG/source_code/SP/pinvr.f:21
  40a284:	8b 15 86 58 20 00           	(move)  	mov	0x205886(%rip),%edx
  40a28a:	89 54 24 0c                 	(move)  	mov	%edx,0xc(%rsp)
/home/jgarcia/TFG/source_code/SP/pinvr.f:22
  40a28e:	8b 1d 78 58 20 00           	(move)  	mov	0x205878(%rip),%ebx
/home/jgarcia/TFG/source_code/SP/pinvr.f:30
  40a294:	f2 0f 10 25 cc 57 20 00     	(move)  	movsd	0x2057cc(%rip),%xmm4
  40a29c:	c7 44 24 18 01 00 00 00     	(move)  	movl	$0x1,0x18(%rsp)
/home/jgarcia/TFG/source_code/SP/pinvr.f:25
  40a2a4:	48 b8 20 18 94 01 00 00 00 00	(move)  	mov	$0x1941820,%rax
/home/jgarcia/TFG/source_code/SP/pinvr.f:31
  40a2ae:	f2 0f 10 3d 02 42 00 00     	(move)  	movsd	0x4202(%rip),%xmm7
/home/jgarcia/TFG/source_code/SP/pinvr.f:34
  40a2b6:	f2 0f 10 35 22 42 00 00     	(move)  	movsd	0x4222(%rip),%xmm6
; ------- Loop 184 entry
837 (loop 184):	
/home/jgarcia/TFG/source_code/SP/pinvr.f:21
  40a2be:	83 7c 24 0c 00              	(arith) 	cmpl	$0,0xc(%rsp)
  40a2c3:	0f 8e 09 01 00 00           	(control)	jle	40a3d2 <pinvr_+0x186>	; ↲ label 838
839:	
/home/jgarcia/TFG/source_code/SP/pinvr.f:24
  40a2c9:	4c 63 64 24 18              	(move)  	movsxd	0x18(%rsp),%r12
  40a2ce:	4d 69 e4 35 c3 0c 00        	(arith) 	imul	$0xcc335,%r12,%r12
/home/jgarcia/TFG/source_code/SP/pinvr.f:25
  40a2d5:	4d 8d 7c 24 01              	(arith) 	lea	0x1(%r12),%r15
/home/jgarcia/TFG/source_code/SP/pinvr.f:26
  40a2da:	4d 8d 74 24 02              	(arith) 	lea	0x2(%r12),%r14
/home/jgarcia/TFG/source_code/SP/pinvr.f:27
  40a2df:	4d 8d 6c 24 03              	(arith) 	lea	0x3(%r12),%r13
/home/jgarcia/TFG/source_code/SP/pinvr.f:28
  40a2e4:	49 8d 54 24 ff              	(arith) 	lea	-0x1(%r12),%rdx
  40a2e9:	48 89 54 24 10              	(move)  	mov	%rdx,0x10(%rsp)
  40a2ee:	c7 44 24 08 01 00 00 00     	(move)  	movl	$0x1,0x8(%rsp)
; ------- Loop 185 entry
840 (loop 185):	
/home/jgarcia/TFG/source_code/SP/pinvr.f:22
  40a2f6:	85 db                       	(arith) 	test	%ebx,%ebx
  40a2f8:	0f 8e c0 00 00 00           	(control)	jle	40a3be <pinvr_+0x172>	; ↲ label 841
842:	
/home/jgarcia/TFG/source_code/SP/pinvr.f:24
  40a2fe:	48 63 54 24 08              	(move)  	movsxd	0x8(%rsp),%rdx
  40a303:	48 89 d1                    	(move)  	mov	%rdx,%rcx
  40a306:	48 c1 e1 09                 	(logic) 	sal	$0x9,%rcx
  40a30a:	48 29 d1                    	(arith) 	sub	%rdx,%rcx
  40a30d:	4c 8d 14 8a                 	(arith) 	lea	(%rdx,%rcx,4),%r10
/home/jgarcia/TFG/source_code/SP/pinvr.f:28
  40a311:	4c 8b 5c 24 10              	(move)  	mov	0x10(%rsp),%r11
  40a316:	4f 8d 1c 1a                 	(arith) 	lea	(%r10,%r11,1),%r11
  40a31a:	be 00 00 00 00              	(move)  	mov	$0,%esi
; ------- Loop 186 entry
843 (loop 186):	
/home/jgarcia/TFG/source_code/SP/pinvr.f:5
  40a31f:	83 c6 01                    	(arith) 	add	$0x1,%esi
/home/jgarcia/TFG/source_code/SP/pinvr.f:24
  40a322:	48 63 ce                    	(move)  	movsxd	%esi,%rcx
  40a325:	48 8d 14 89                 	(arith) 	lea	(%rcx,%rcx,4),%rdx
  40a329:	4c 01 d2                    	(arith) 	add	%r10,%rdx
/home/jgarcia/TFG/source_code/SP/pinvr.f:25
  40a32c:	4d 8d 84 17 20 11 d1 30     	(arith) 	lea	0x30d11120(%r15,%rdx,1),%r8
  40a334:	4e 8b 0c c0                 	(move)  	mov	(%rax,%r8,8),%r9
/home/jgarcia/TFG/source_code/SP/pinvr.f:26
  40a338:	49 8d ac 16 20 11 d1 30     	(arith) 	lea	0x30d11120(%r14,%rdx,1),%rbp
  40a340:	f2 0f 10 2c e8              	(move)  	movsd	(%rax,%rbp,8),%xmm5
/home/jgarcia/TFG/source_code/SP/pinvr.f:27
  40a345:	49 8d bc 15 20 11 d1 30     	(arith) 	lea	0x30d11120(%r13,%rdx,1),%rdi
  40a34d:	f2 0f 10 1c f8              	(move)  	movsd	(%rax,%rdi,8),%xmm3
/home/jgarcia/TFG/source_code/SP/pinvr.f:28
  40a352:	48 8d 4c 89 05              	(arith) 	lea	0x5(%rcx,%rcx,4),%rcx
  40a357:	49 8d 8c 0b 20 11 d1 30     	(arith) 	lea	0x30d11120(%r11,%rcx,1),%rcx
  40a35f:	f2 0f 10 14 c8              	(move)  	movsd	(%rax,%rcx,8),%xmm2
/home/jgarcia/TFG/source_code/SP/pinvr.f:30
  40a364:	49 8d 94 14 20 11 d1 30     	(arith) 	lea	0x30d11120(%r12,%rdx,1),%rdx
  40a36c:	66 0f 28 cc                 	(move)  	movapd	%xmm4,%xmm1
  40a370:	f2 0f 59 0c d0              	(arith) 	mulsd	(%rax,%rdx,8),%xmm1
/home/jgarcia/TFG/source_code/SP/pinvr.f:31
  40a375:	66 0f 28 c3                 	(move)  	movapd	%xmm3,%xmm0
  40a379:	f2 0f 58 c2                 	(arith) 	addsd	%xmm2,%xmm0
  40a37d:	f2 0f 59 c7                 	(arith) 	mulsd	%xmm7,%xmm0
/home/jgarcia/TFG/source_code/SP/pinvr.f:33
  40a381:	f2 0f 5c da                 	(arith) 	subsd	%xmm2,%xmm3
  40a385:	f2 0f 59 dc                 	(arith) 	mulsd	%xmm4,%xmm3
  40a389:	f2 0f 11 1c d0              	(move)  	movsd	%xmm3,(%rax,%rdx,8)
/home/jgarcia/TFG/source_code/SP/pinvr.f:34
  40a38e:	66 0f 28 d5                 	(move)  	movapd	%xmm5,%xmm2
  40a392:	66 0f 57 d6                 	(logic) 	xorpd	%xmm6,%xmm2
  40a396:	f2 42 0f 11 14 c0           	(move)  	movsd	%xmm2,(%rax,%r8,8)
/home/jgarcia/TFG/source_code/SP/pinvr.f:35
  40a39c:	4c 89 0c e8                 	(move)  	mov	%r9,(%rax,%rbp,8)
/home/jgarcia/TFG/source_code/SP/pinvr.f:36
  40a3a0:	66 0f 28 d0                 	(move)  	movapd	%xmm0,%xmm2
  40a3a4:	f2 0f 5c d1                 	(arith) 	subsd	%xmm1,%xmm2
  40a3a8:	f2 0f 11 14 f8              	(move)  	movsd	%xmm2,(%rax,%rdi,8)
/home/jgarcia/TFG/source_code/SP/pinvr.f:37
  40a3ad:	f2 0f 58 c1                 	(arith) 	addsd	%xmm1,%xmm0
  40a3b1:	f2 0f 11 04 c8              	(move)  	movsd	%xmm0,(%rax,%rcx,8)
/home/jgarcia/TFG/source_code/SP/pinvr.f:22
  40a3b6:	39 f3                       	(arith) 	cmp	%esi,%ebx
  40a3b8:	0f 85 61 ff ff ff           	(control)	jne	40a31f <pinvr_+0xd3>	; ↰ label 843 (loop 186)
; ------- Loop 186 exit
841:	
/home/jgarcia/TFG/source_code/SP/pinvr.f:21
  40a3be:	8b 54 24 0c                 	(move)  	mov	0xc(%rsp),%edx
  40a3c2:	39 54 24 08                 	(arith) 	cmp	%edx,0x8(%rsp)
  40a3c6:	74 0a                       	(control)	je	40a3d2 <pinvr_+0x186>	; ↲ label 838
844:	
  40a3c8:	83 44 24 08 01              	(arith) 	addl	$0x1,0x8(%rsp)
  40a3cd:	e9 24 ff ff ff              	(control)	jmp	40a2f6 <pinvr_+0xaa>	; ↰ label 840 (loop 185)
; ------- Loop 185 exit
838:	
/home/jgarcia/TFG/source_code/SP/pinvr.f:20
  40a3d2:	8b 54 24 1c                 	(move)  	mov	0x1c(%rsp),%edx
  40a3d6:	39 54 24 18                 	(arith) 	cmp	%edx,0x18(%rsp)
  40a3da:	74 0a                       	(control)	je	40a3e6 <pinvr_+0x19a>	; ↲ label 835
845:	
  40a3dc:	83 44 24 18 01              	(arith) 	addl	$0x1,0x18(%rsp)
  40a3e1:	e9 d8 fe ff ff              	(control)	jmp	40a2be <pinvr_+0x72>	; ↰ label 837 (loop 184)
; ------- Loop 184 exit
835:	
/home/jgarcia/TFG/source_code/SP/pinvr.f:41
  40a3e6:	83 3d 2b 57 20 00 00        	(arith) 	cmpl	$0,0x20572b(%rip)
  40a3ed:	74 0f                       	(control)	je	40a3fe <pinvr_+0x1b2>	; ↲ label 846
847:	
  40a3ef:	bf 4c e5 40 00              	(move)  	mov	$0x40e54c,%edi
  40a3f4:	b8 00 00 00 00              	(move)  	mov	$0,%eax
  40a3f9:	e8 0d 3c 00 00              	(control)	call	40e00b <timer_stop_>	; ⇄ timer_stop
846:	
/home/jgarcia/TFG/source_code/SP/pinvr.f:44
  40a3fe:	48 83 c4 28                 	(arith) 	add	$0x28,%rsp
  40a402:	5b                          	(move)  	pop	%rbx
  40a403:	5d                          	(move)  	pop	%rbp
  40a404:	41 5c                       	(move)  	pop	%r12
  40a406:	41 5d                       	(move)  	pop	%r13
  40a408:	41 5e                       	(move)  	pop	%r14
  40a40a:	41 5f                       	(move)  	pop	%r15
  40a40c:	c3                          	(control)	ret
848:	
/home/jgarcia/TFG/source_code/SP/z_solve.f:5
  40a40d:	90                          	(other) 	nop
  40a40e:	90                          	(other) 	nop
  40a40f:	90                          	(other) 	nop


000000000040a410 <z_solve>:
415 (function z_solve_):	
/home/jgarcia/TFG/source_code/SP/z_solve.f:5
  40a410:	41 57                       	(move)  	push	%r15
  40a412:	41 56                       	(move)  	push	%r14
  40a414:	41 55                       	(move)  	push	%r13
  40a416:	41 54                       	(move)  	push	%r12
  40a418:	55                          	(move)  	push	%rbp
  40a419:	53                          	(move)  	push	%rbx
  40a41a:	48 81 ec 88 00 00 00        	(arith) 	sub	$0x88,%rsp
/home/jgarcia/TFG/source_code/SP/z_solve.f:26
  40a421:	83 3d f0 56 20 00 00        	(arith) 	cmpl	$0,0x2056f0(%rip)
  40a428:	74 0f                       	(control)	je	40a439 <z_solve_+0x29>	; ↲ label 849
850:	
  40a42a:	bf 50 e5 40 00              	(move)  	mov	$0x40e550,%edi
  40a42f:	b8 00 00 00 00              	(move)  	mov	$0,%eax
  40a434:	e8 fe 3b 00 00              	(control)	call	40e037 <timer_start_>	; ⇄ timer_start
849:	
/home/jgarcia/TFG/source_code/SP/z_solve.f:27
  40a439:	8b 05 d1 56 20 00           	(move)  	mov	0x2056d1(%rip),%eax
  40a43f:	89 44 24 6c                 	(move)  	mov	%eax,0x6c(%rsp)
  40a443:	85 c0                       	(arith) 	test	%eax,%eax
  40a445:	0f 8e 67 14 00 00           	(control)	jle	40b8b2 <z_solve_+0x14a2>	; ↲ label 851
852:	
  40a44b:	c7 44 24 68 01 00 00 00     	(move)  	movl	$0x1,0x68(%rsp)
/home/jgarcia/TFG/source_code/SP/z_solve.f:41
  40a453:	48 bd 20 18 94 01 00 00 00 00	(move)  	mov	$0x1941820,%rbp
/home/jgarcia/TFG/source_code/SP/z_solve.f:50
  40a45d:	48 bb 20 cb 61 00 00 00 00 00	(move)  	mov	$0x61cb20,%rbx
; ------- Loop 187 entry
853 (loop 187):	
/home/jgarcia/TFG/source_code/SP/z_solve.f:29
  40a467:	8b 05 a7 56 20 00           	(move)  	mov	0x2056a7(%rip),%eax
  40a46d:	83 c0 01                    	(arith) 	add	$0x1,%eax
  40a470:	89 44 24 7c                 	(move)  	mov	%eax,0x7c(%rsp)
  40a474:	be 0c fb 60 00              	(move)  	mov	$0x60fb0c,%esi
  40a479:	48 8d 7c 24 7c              	(arith) 	lea	0x7c(%rsp),%rdi
  40a47e:	b8 00 00 00 00              	(move)  	mov	$0,%eax
  40a483:	e8 4a 78 ff ff              	(control)	call	401cd2 <lhsinitj_>	; ⇄ lhsinitj
854:	
/home/jgarcia/TFG/source_code/SP/z_solve.f:39
  40a488:	8b 15 7e 56 20 00           	(move)  	mov	0x20567e(%rip),%edx
  40a48e:	89 54 24 18                 	(move)  	mov	%edx,0x18(%rsp)
  40a492:	85 d2                       	(arith) 	test	%edx,%edx
  40a494:	0f 8e ef 02 00 00           	(control)	jle	40a789 <z_solve_+0x379>	; ↲ label 855
856:	
/home/jgarcia/TFG/source_code/SP/z_solve.f:40
  40a49a:	44 8b 1d 73 56 20 00        	(move)  	mov	0x205673(%rip),%r11d
  40a4a1:	45 8d 63 01                 	(arith) 	lea	0x1(%r11),%r12d
/home/jgarcia/TFG/source_code/SP/z_solve.f:41
  40a4a5:	48 63 44 24 68              	(move)  	movsxd	0x68(%rsp),%rax
  40a4aa:	48 69 c0 99 01 00 00        	(arith) 	imul	$0x199,%rax,%rax
  40a4b1:	48 89 44 24 20              	(move)  	mov	%rax,0x20(%rsp)
  40a4b6:	f2 44 0f 10 2d 49 55 20 00  	(move)  	movsd	0x205549(%rip),%xmm13
/home/jgarcia/TFG/source_code/SP/z_solve.f:46
  40a4bf:	f2 44 0f 10 25 28 56 20 00  	(move)  	movsd	0x205628(%rip),%xmm12
  40a4c8:	f2 44 0f 10 1d df 51 20 00  	(move)  	movsd	0x2051df(%rip),%xmm11
  40a4d1:	f2 44 0f 10 15 26 55 20 00  	(move)  	movsd	0x205526(%rip),%xmm10
  40a4da:	f2 44 0f 10 0d d5 51 20 00  	(move)  	movsd	0x2051d5(%rip),%xmm9
  40a4e3:	f2 44 0f 10 05 fc 53 20 00  	(move)  	movsd	0x2053fc(%rip),%xmm8
  40a4ec:	f2 0f 10 2d a4 51 20 00     	(move)  	movsd	0x2051a4(%rip),%xmm5
/home/jgarcia/TFG/source_code/SP/z_solve.f:51
  40a4f4:	f2 0f 10 25 94 55 20 00     	(move)  	movsd	0x205594(%rip),%xmm4
  40a4fc:	f2 0f 10 1d 84 55 20 00     	(move)  	movsd	0x205584(%rip),%xmm3
/home/jgarcia/TFG/source_code/SP/z_solve.f:52
  40a504:	f2 0f 10 3d 9c 55 20 00     	(move)  	movsd	0x20559c(%rip),%xmm7
  40a50c:	41 bf 01 00 00 00           	(move)  	mov	$0x1,%r15d
/home/jgarcia/TFG/source_code/SP/z_solve.f:50
  40a512:	41 ba 00 00 00 00           	(move)  	mov	$0,%r10d
/home/jgarcia/TFG/source_code/SP/z_solve.f:52
  40a518:	f2 0f 10 35 90 3f 00 00     	(move)  	movsd	0x3f90(%rip),%xmm6
; ------- Loop 209 entry
857 (loop 209):	
/home/jgarcia/TFG/source_code/SP/z_solve.f:40
  40a520:	45 85 e4                    	(arith) 	test	%r12d,%r12d
  40a523:	0f 88 ba 00 00 00           	(control)	js	40a5e3 <z_solve_+0x1d3>	; ↲ label 858
859:	
/home/jgarcia/TFG/source_code/SP/z_solve.f:41
  40a529:	4d 63 c7                    	(move)  	movsxd	%r15d,%r8
  40a52c:	4c 03 44 24 20              	(arith) 	add	0x20(%rsp),%r8
  40a531:	ba 00 00 00 00              	(move)  	mov	$0,%edx
/home/jgarcia/TFG/source_code/SP/z_solve.f:42
  40a536:	be 20 fb 60 00              	(move)  	mov	$0x60fb20,%esi
/home/jgarcia/TFG/source_code/SP/z_solve.f:46
  40a53b:	f2 0f 11 6c 24 08           	(move)  	movsd	%xmm5,0x8(%rsp)
  40a541:	4c 8b 4c 24 08              	(move)  	mov	0x8(%rsp),%r9
; ------- Loop 211 entry
860 (loop 211):	
/home/jgarcia/TFG/source_code/SP/z_solve.f:41
  40a546:	48 63 c2                    	(move)  	movsxd	%edx,%rax
  40a549:	48 69 c8 71 8d 02 00        	(arith) 	imul	$0x28d71,%rax,%rcx
  40a550:	4c 01 c1                    	(arith) 	add	%r8,%rcx
  40a553:	48 8d b9 d8 cc 9c 24        	(arith) 	lea	0x249cccd8(%rcx),%rdi
  40a55a:	66 41 0f 28 cd              	(move)  	movapd	%xmm13,%xmm1
  40a55f:	f2 0f 59 4c fd 00           	(arith) 	mulsd	(%rbp,%rdi,8),%xmm1
/home/jgarcia/TFG/source_code/SP/z_solve.f:42
  40a565:	48 81 c1 a8 f4 79 1c        	(arith) 	add	$0x1c79f4a8,%rcx
  40a56c:	48 8b 4c cd 00              	(move)  	mov	(%rbp,%rcx,8),%rcx
  40a571:	48 89 0c c6                 	(move)  	mov	%rcx,(%rsi,%rax,8)
/home/jgarcia/TFG/source_code/SP/z_solve.f:46
  40a575:	66 41 0f 28 c4              	(move)  	movapd	%xmm12,%xmm0
  40a57a:	f2 0f 59 c1                 	(arith) 	mulsd	%xmm1,%xmm0
  40a57e:	f2 41 0f 58 c3              	(arith) 	addsd	%xmm11,%xmm0
  40a583:	66 41 0f 28 d2              	(move)  	movapd	%xmm10,%xmm2
  40a588:	f2 0f 59 d1                 	(arith) 	mulsd	%xmm1,%xmm2
  40a58c:	f2 41 0f 58 d1              	(arith) 	addsd	%xmm9,%xmm2
  40a591:	66 0f 2e d0                 	(arith) 	ucomisd	%xmm0,%xmm2
  40a595:	77 06                       	(control)	ja	40a59d <z_solve_+0x18d>	; ↲ label 861
862:	
  40a597:	66 0f 2e c0                 	(arith) 	ucomisd	%xmm0,%xmm0
  40a59b:	7b 04                       	(control)	jnp	40a5a1 <z_solve_+0x191>	; ↲ label 863
861:	
  40a59d:	66 0f 28 c2                 	(move)  	movapd	%xmm2,%xmm0
863:	
  40a5a1:	f2 41 0f 58 c8              	(arith) 	addsd	%xmm8,%xmm1
  40a5a6:	66 0f 2e c8                 	(arith) 	ucomisd	%xmm0,%xmm1
  40a5aa:	77 06                       	(control)	ja	40a5b2 <z_solve_+0x1a2>	; ↲ label 864
865:	
  40a5ac:	66 0f 2e c0                 	(arith) 	ucomisd	%xmm0,%xmm0
  40a5b0:	7b 04                       	(control)	jnp	40a5b6 <z_solve_+0x1a6>	; ↲ label 866
864:	
  40a5b2:	66 0f 28 c1                 	(move)  	movapd	%xmm1,%xmm0
866:	
  40a5b6:	66 0f 2e e8                 	(arith) 	ucomisd	%xmm0,%xmm5
  40a5ba:	77 06                       	(control)	ja	40a5c2 <z_solve_+0x1b2>	; ↲ label 867
868:	
  40a5bc:	66 0f 2e c0                 	(arith) 	ucomisd	%xmm0,%xmm0
  40a5c0:	7b 0b                       	(control)	jnp	40a5cd <z_solve_+0x1bd>	; ↲ label 869
867:	
  40a5c2:	4c 89 4c 24 08              	(move)  	mov	%r9,0x8(%rsp)
  40a5c7:	f2 0f 10 44 24 08           	(move)  	movsd	0x8(%rsp),%xmm0
869:	
  40a5cd:	f2 0f 11 84 c6 80 19 00 00  	(move)  	movsd	%xmm0,0x1980(%rsi,%rax,8)
/home/jgarcia/TFG/source_code/SP/z_solve.f:40
  40a5d6:	44 39 e2                    	(arith) 	cmp	%r12d,%edx
  40a5d9:	74 08                       	(control)	je	40a5e3 <z_solve_+0x1d3>	; ↲ label 858
870:	
  40a5db:	83 c2 01                    	(arith) 	add	$0x1,%edx
  40a5de:	e9 63 ff ff ff              	(control)	jmp	40a546 <z_solve_+0x136>	; ↰ label 860 (loop 211)
; ------- Loop 211 exit
858:	
/home/jgarcia/TFG/source_code/SP/z_solve.f:49
  40a5e3:	45 85 db                    	(arith) 	test	%r11d,%r11d
  40a5e6:	0f 8e b1 00 00 00           	(control)	jle	40a69d <z_solve_+0x28d>	; ↲ label 871
872:	
/home/jgarcia/TFG/source_code/SP/z_solve.f:50
  40a5ec:	49 63 c7                    	(move)  	movsxd	%r15d,%rax
  40a5ef:	4c 8d 34 80                 	(arith) 	lea	(%rax,%rax,4),%r14
/home/jgarcia/TFG/source_code/SP/z_solve.f:54
  40a5f3:	4c 8d 6c 80 04              	(arith) 	lea	0x4(%rax,%rax,4),%r13
  40a5f8:	bf 00 00 00 00              	(move)  	mov	$0,%edi
  40a5fd:	be 01 00 00 00              	(move)  	mov	$0x1,%esi
/home/jgarcia/TFG/source_code/SP/z_solve.f:51
  40a602:	b8 20 fb 60 00              	(move)  	mov	$0x60fb20,%eax
; ------- Loop 210 entry
873 (loop 210):	
/home/jgarcia/TFG/source_code/SP/z_solve.f:50
  40a607:	48 63 ce                    	(move)  	movsxd	%esi,%rcx
  40a60a:	48 89 ca                    	(move)  	mov	%rcx,%rdx
  40a60d:	48 c1 e2 09                 	(logic) 	sal	$0x9,%rdx
  40a611:	48 29 ca                    	(arith) 	sub	%rcx,%rdx
  40a614:	4c 8d 04 91                 	(arith) 	lea	(%rcx,%rdx,4),%r8
  40a618:	4b 8d 14 30                 	(arith) 	lea	(%r8,%r14,1),%rdx
  40a61c:	4c 89 14 d3                 	(move)  	mov	%r10,(%rbx,%rdx,8)
/home/jgarcia/TFG/source_code/SP/z_solve.f:51
  40a620:	4c 63 cf                    	(move)  	movsxd	%edi,%r9
  40a623:	66 0f 28 c4                 	(move)  	movapd	%xmm4,%xmm0
  40a627:	f2 42 0f 59 04 c8           	(arith) 	mulsd	(%rax,%r9,8),%xmm0
  40a62d:	66 0f 57 05 ab 3e 00 00     	(logic) 	xorpd	0x3eab(%rip),%xmm0
  40a635:	66 0f 28 cb                 	(move)  	movapd	%xmm3,%xmm1
  40a639:	f2 42 0f 59 8c c8 80 19 00 00	(arith) 	mulsd	0x1980(%rax,%r9,8),%xmm1
  40a643:	f2 0f 5c c1                 	(arith) 	subsd	%xmm1,%xmm0
  40a647:	f2 0f 11 44 d3 08           	(move)  	movsd	%xmm0,0x8(%rbx,%rdx,8)
/home/jgarcia/TFG/source_code/SP/z_solve.f:52
  40a64d:	66 0f 28 c7                 	(move)  	movapd	%xmm7,%xmm0
  40a651:	f2 0f 59 84 c8 80 19 00 00  	(arith) 	mulsd	0x1980(%rax,%rcx,8),%xmm0
  40a65a:	f2 0f 58 c6                 	(arith) 	addsd	%xmm6,%xmm0
  40a65e:	f2 0f 11 44 d3 10           	(move)  	movsd	%xmm0,0x10(%rbx,%rdx,8)
/home/jgarcia/TFG/source_code/SP/z_solve.f:53
  40a664:	83 c6 01                    	(arith) 	add	$0x1,%esi
  40a667:	48 63 ce                    	(move)  	movsxd	%esi,%rcx
  40a66a:	66 0f 28 c4                 	(move)  	movapd	%xmm4,%xmm0
  40a66e:	f2 0f 59 04 c8              	(arith) 	mulsd	(%rax,%rcx,8),%xmm0
  40a673:	66 0f 28 cb                 	(move)  	movapd	%xmm3,%xmm1
  40a677:	f2 0f 59 8c c8 80 19 00 00  	(arith) 	mulsd	0x1980(%rax,%rcx,8),%xmm1
  40a680:	f2 0f 5c c1                 	(arith) 	subsd	%xmm1,%xmm0
  40a684:	f2 0f 11 44 d3 18           	(move)  	movsd	%xmm0,0x18(%rbx,%rdx,8)
/home/jgarcia/TFG/source_code/SP/z_solve.f:54
  40a68a:	4d 01 e8                    	(arith) 	add	%r13,%r8
  40a68d:	4e 89 14 c3                 	(move)  	mov	%r10,(%rbx,%r8,8)
  40a691:	83 c7 01                    	(arith) 	add	$0x1,%edi
/home/jgarcia/TFG/source_code/SP/z_solve.f:49
  40a694:	41 39 fb                    	(arith) 	cmp	%edi,%r11d
  40a697:	0f 85 6a ff ff ff           	(control)	jne	40a607 <z_solve_+0x1f7>	; ↰ label 873 (loop 210)
; ------- Loop 210 exit
871:	
/home/jgarcia/TFG/source_code/SP/z_solve.f:39
  40a69d:	44 3b 7c 24 18              	(arith) 	cmp	0x18(%rsp),%r15d
  40a6a2:	74 09                       	(control)	je	40a6ad <z_solve_+0x29d>	; ↲ label 874
875:	
  40a6a4:	41 83 c7 01                 	(arith) 	add	$0x1,%r15d
  40a6a8:	e9 73 fe ff ff              	(control)	jmp	40a520 <z_solve_+0x110>	; ↰ label 857 (loop 209)
; ------- Loop 209 exit
874:	
/home/jgarcia/TFG/source_code/SP/z_solve.f:62
  40a6ad:	8b 3d 59 54 20 00           	(move)  	mov	0x205459(%rip),%edi
  40a6b3:	85 ff                       	(arith) 	test	%edi,%edi
  40a6b5:	0f 8e ce 00 00 00           	(control)	jle	40a789 <z_solve_+0x379>	; ↲ label 855
876:	
/home/jgarcia/TFG/source_code/SP/z_solve.f:64
  40a6bb:	f2 0f 10 25 fd 53 20 00     	(move)  	movsd	0x2053fd(%rip),%xmm4
/home/jgarcia/TFG/source_code/SP/z_solve.f:65
  40a6c3:	f2 0f 10 05 ed 53 20 00     	(move)  	movsd	0x2053ed(%rip),%xmm0
/home/jgarcia/TFG/source_code/SP/z_solve.f:66
  40a6cb:	f2 0f 10 0d dd 53 20 00     	(move)  	movsd	0x2053dd(%rip),%xmm1
/home/jgarcia/TFG/source_code/SP/z_solve.f:70
  40a6d3:	f2 0f 10 1d ed 53 20 00     	(move)  	movsd	0x2053ed(%rip),%xmm3
  40a6db:	b9 00 00 00 00              	(move)  	mov	$0,%ecx
; ------- Loop 208 entry
877 (loop 208):	
/home/jgarcia/TFG/source_code/SP/z_solve.f:5
  40a6e0:	83 c1 01                    	(arith) 	add	$0x1,%ecx
/home/jgarcia/TFG/source_code/SP/z_solve.f:64
  40a6e3:	48 63 d1                    	(move)  	movsxd	%ecx,%rdx
  40a6e6:	48 8d 04 92                 	(arith) 	lea	(%rdx,%rdx,4),%rax
  40a6ea:	48 8d b0 ff 07 00 00        	(arith) 	lea	0x7ff(%rax),%rsi
  40a6f1:	f2 0f 10 14 f3              	(move)  	movsd	(%rbx,%rsi,8),%xmm2
  40a6f6:	f2 0f 58 d4                 	(arith) 	addsd	%xmm4,%xmm2
  40a6fa:	f2 0f 11 14 f3              	(move)  	movsd	%xmm2,(%rbx,%rsi,8)
/home/jgarcia/TFG/source_code/SP/z_solve.f:65
  40a6ff:	48 8d b0 00 08 00 00        	(arith) 	lea	0x800(%rax),%rsi
  40a706:	f2 0f 10 14 f3              	(move)  	movsd	(%rbx,%rsi,8),%xmm2
  40a70b:	f2 0f 5c d0                 	(arith) 	subsd	%xmm0,%xmm2
  40a70f:	f2 0f 11 14 f3              	(move)  	movsd	%xmm2,(%rbx,%rsi,8)
/home/jgarcia/TFG/source_code/SP/z_solve.f:66
  40a714:	48 8d 54 92 05              	(arith) 	lea	0x5(%rdx,%rdx,4),%rdx
  40a719:	48 8d b2 fc 07 00 00        	(arith) 	lea	0x7fc(%rdx),%rsi
  40a720:	f2 0f 10 14 f3              	(move)  	movsd	(%rbx,%rsi,8),%xmm2
  40a725:	f2 0f 58 d1                 	(arith) 	addsd	%xmm1,%xmm2
  40a729:	f2 0f 11 14 f3              	(move)  	movsd	%xmm2,(%rbx,%rsi,8)
/home/jgarcia/TFG/source_code/SP/z_solve.f:69
  40a72e:	48 8d b0 fb 0f 00 00        	(arith) 	lea	0xffb(%rax),%rsi
  40a735:	f2 0f 10 14 f3              	(move)  	movsd	(%rbx,%rsi,8),%xmm2
  40a73a:	f2 0f 5c d0                 	(arith) 	subsd	%xmm0,%xmm2
  40a73e:	f2 0f 11 14 f3              	(move)  	movsd	%xmm2,(%rbx,%rsi,8)
/home/jgarcia/TFG/source_code/SP/z_solve.f:70
  40a743:	48 8d b0 fc 0f 00 00        	(arith) 	lea	0xffc(%rax),%rsi
  40a74a:	f2 0f 10 14 f3              	(move)  	movsd	(%rbx,%rsi,8),%xmm2
  40a74f:	f2 0f 58 d3                 	(arith) 	addsd	%xmm3,%xmm2
  40a753:	f2 0f 11 14 f3              	(move)  	movsd	%xmm2,(%rbx,%rsi,8)
/home/jgarcia/TFG/source_code/SP/z_solve.f:71
  40a758:	48 05 fd 0f 00 00           	(arith) 	add	$0xffd,%rax
  40a75e:	f2 0f 10 14 c3              	(move)  	movsd	(%rbx,%rax,8),%xmm2
  40a763:	f2 0f 5c d0                 	(arith) 	subsd	%xmm0,%xmm2
  40a767:	f2 0f 11 14 c3              	(move)  	movsd	%xmm2,(%rbx,%rax,8)
/home/jgarcia/TFG/source_code/SP/z_solve.f:72
  40a76c:	48 8d 82 f9 0f 00 00        	(arith) 	lea	0xff9(%rdx),%rax
  40a773:	66 0f 28 d1                 	(move)  	movapd	%xmm1,%xmm2
  40a777:	f2 0f 58 14 c3              	(arith) 	addsd	(%rbx,%rax,8),%xmm2
  40a77c:	f2 0f 11 14 c3              	(move)  	movsd	%xmm2,(%rbx,%rax,8)
/home/jgarcia/TFG/source_code/SP/z_solve.f:62
  40a781:	39 cf                       	(arith) 	cmp	%ecx,%edi
  40a783:	0f 85 57 ff ff ff           	(control)	jne	40a6e0 <z_solve_+0x2d0>	; ↰ label 877 (loop 208)
; ------- Loop 208 exit
855:	
/home/jgarcia/TFG/source_code/SP/z_solve.f:75
  40a789:	44 8b 15 84 53 20 00        	(move)  	mov	0x205384(%rip),%r10d
  40a790:	41 83 ea 02                 	(arith) 	sub	$0x2,%r10d
  40a794:	41 83 fa 02                 	(arith) 	cmp	$0x2,%r10d
  40a798:	0f 8e c7 00 00 00           	(control)	jle	40a865 <z_solve_+0x455>	; ↲ label 878
879:	
/home/jgarcia/TFG/source_code/SP/z_solve.f:76
  40a79e:	8b 3d 68 53 20 00           	(move)  	mov	0x205368(%rip),%edi
/home/jgarcia/TFG/source_code/SP/z_solve.f:77
  40a7a4:	f2 0f 10 0d 04 53 20 00     	(move)  	movsd	0x205304(%rip),%xmm1
/home/jgarcia/TFG/source_code/SP/z_solve.f:78
  40a7ac:	f2 0f 10 05 04 53 20 00     	(move)  	movsd	0x205304(%rip),%xmm0
/home/jgarcia/TFG/source_code/SP/z_solve.f:79
  40a7b4:	f2 0f 10 1d 0c 53 20 00     	(move)  	movsd	0x20530c(%rip),%xmm3
  40a7bc:	41 b9 03 00 00 00           	(move)  	mov	$0x3,%r9d
/home/jgarcia/TFG/source_code/SP/z_solve.f:81
  40a7c2:	41 bb 00 00 00 00           	(move)  	mov	$0,%r11d
; ------- Loop 206 entry
880 (loop 206):	
/home/jgarcia/TFG/source_code/SP/z_solve.f:76
  40a7c8:	85 ff                       	(arith) 	test	%edi,%edi
  40a7ca:	0f 8e 87 00 00 00           	(control)	jle	40a857 <z_solve_+0x447>	; ↲ label 881
882:	
/home/jgarcia/TFG/source_code/SP/z_solve.f:77
  40a7d0:	49 63 c1                    	(move)  	movsxd	%r9d,%rax
  40a7d3:	48 89 c2                    	(move)  	mov	%rax,%rdx
  40a7d6:	48 c1 e2 09                 	(logic) 	sal	$0x9,%rdx
  40a7da:	48 29 c2                    	(arith) 	sub	%rax,%rdx
  40a7dd:	48 8d 34 90                 	(arith) 	lea	(%rax,%rdx,4),%rsi
/home/jgarcia/TFG/source_code/SP/z_solve.f:81
  40a7e1:	4c 8d 46 ff                 	(arith) 	lea	-0x1(%rsi),%r8
  40a7e5:	44 89 d9                    	(move)  	mov	%r11d,%ecx
; ------- Loop 207 entry
883 (loop 207):	
/home/jgarcia/TFG/source_code/SP/z_solve.f:5
  40a7e8:	83 c1 01                    	(arith) 	add	$0x1,%ecx
/home/jgarcia/TFG/source_code/SP/z_solve.f:77
  40a7eb:	48 63 d1                    	(move)  	movsxd	%ecx,%rdx
  40a7ee:	48 8d 04 92                 	(arith) 	lea	(%rdx,%rdx,4),%rax
  40a7f2:	48 01 f0                    	(arith) 	add	%rsi,%rax
  40a7f5:	f2 0f 10 14 c3              	(move)  	movsd	(%rbx,%rax,8),%xmm2
  40a7fa:	f2 0f 58 d1                 	(arith) 	addsd	%xmm1,%xmm2
  40a7fe:	f2 0f 11 14 c3              	(move)  	movsd	%xmm2,(%rbx,%rax,8)
/home/jgarcia/TFG/source_code/SP/z_solve.f:78
  40a803:	4c 8d 60 01                 	(arith) 	lea	0x1(%rax),%r12
  40a807:	f2 42 0f 10 14 e3           	(move)  	movsd	(%rbx,%r12,8),%xmm2
  40a80d:	f2 0f 5c d0                 	(arith) 	subsd	%xmm0,%xmm2
  40a811:	f2 42 0f 11 14 e3           	(move)  	movsd	%xmm2,(%rbx,%r12,8)
/home/jgarcia/TFG/source_code/SP/z_solve.f:79
  40a817:	4c 8d 60 02                 	(arith) 	lea	0x2(%rax),%r12
  40a81b:	f2 42 0f 10 14 e3           	(move)  	movsd	(%rbx,%r12,8),%xmm2
  40a821:	f2 0f 58 d3                 	(arith) 	addsd	%xmm3,%xmm2
  40a825:	f2 42 0f 11 14 e3           	(move)  	movsd	%xmm2,(%rbx,%r12,8)
/home/jgarcia/TFG/source_code/SP/z_solve.f:80
  40a82b:	48 83 c0 03                 	(arith) 	add	$0x3,%rax
  40a82f:	f2 0f 10 14 c3              	(move)  	movsd	(%rbx,%rax,8),%xmm2
  40a834:	f2 0f 5c d0                 	(arith) 	subsd	%xmm0,%xmm2
  40a838:	f2 0f 11 14 c3              	(move)  	movsd	%xmm2,(%rbx,%rax,8)
/home/jgarcia/TFG/source_code/SP/z_solve.f:81
  40a83d:	48 8d 44 92 05              	(arith) 	lea	0x5(%rdx,%rdx,4),%rax
  40a842:	4c 01 c0                    	(arith) 	add	%r8,%rax
  40a845:	66 0f 28 d1                 	(move)  	movapd	%xmm1,%xmm2
  40a849:	f2 0f 58 14 c3              	(arith) 	addsd	(%rbx,%rax,8),%xmm2
  40a84e:	f2 0f 11 14 c3              	(move)  	movsd	%xmm2,(%rbx,%rax,8)
/home/jgarcia/TFG/source_code/SP/z_solve.f:76
  40a853:	39 cf                       	(arith) 	cmp	%ecx,%edi
  40a855:	75 91                       	(control)	jne	40a7e8 <z_solve_+0x3d8>	; ↰ label 883 (loop 207)
; ------- Loop 207 exit
881:	
/home/jgarcia/TFG/source_code/SP/z_solve.f:75
  40a857:	45 39 d1                    	(arith) 	cmp	%r10d,%r9d
  40a85a:	74 09                       	(control)	je	40a865 <z_solve_+0x455>	; ↲ label 878
884:	
  40a85c:	41 83 c1 01                 	(arith) 	add	$0x1,%r9d
  40a860:	e9 63 ff ff ff              	(control)	jmp	40a7c8 <z_solve_+0x3b8>	; ↰ label 880 (loop 206)
; ------- Loop 206 exit
878:	
/home/jgarcia/TFG/source_code/SP/z_solve.f:85
  40a865:	8b 3d a1 52 20 00           	(move)  	mov	0x2052a1(%rip),%edi
  40a86b:	85 ff                       	(arith) 	test	%edi,%edi
  40a86d:	0f 8e df 00 00 00           	(control)	jle	40a952 <z_solve_+0x542>	; ↲ label 885
886:	
/home/jgarcia/TFG/source_code/SP/z_solve.f:86
  40a873:	8b 05 9b 52 20 00           	(move)  	mov	0x20529b(%rip),%eax
/home/jgarcia/TFG/source_code/SP/z_solve.f:87
  40a879:	8d 50 ff                    	(arith) 	lea	-0x1(%rax),%edx
  40a87c:	48 63 d2                    	(move)  	movsxd	%edx,%rdx
  40a87f:	48 89 d1                    	(move)  	mov	%rdx,%rcx
  40a882:	48 c1 e1 09                 	(logic) 	sal	$0x9,%rcx
  40a886:	48 29 d1                    	(arith) 	sub	%rdx,%rcx
  40a889:	4c 8d 0c 8a                 	(arith) 	lea	(%rdx,%rcx,4),%r9
  40a88d:	f2 0f 10 0d 1b 52 20 00     	(move)  	movsd	0x20521b(%rip),%xmm1
/home/jgarcia/TFG/source_code/SP/z_solve.f:88
  40a895:	f2 0f 10 05 1b 52 20 00     	(move)  	movsd	0x20521b(%rip),%xmm0
/home/jgarcia/TFG/source_code/SP/z_solve.f:89
  40a89d:	f2 0f 10 25 23 52 20 00     	(move)  	movsd	0x205223(%rip),%xmm4
/home/jgarcia/TFG/source_code/SP/z_solve.f:93
  40a8a5:	48 98                       	(conv)  	cltq
  40a8a7:	48 89 c2                    	(move)  	mov	%rax,%rdx
  40a8aa:	48 c1 e2 09                 	(logic) 	sal	$0x9,%rdx
  40a8ae:	48 29 c2                    	(arith) 	sub	%rax,%rdx
  40a8b1:	4c 8d 04 90                 	(arith) 	lea	(%rax,%rdx,4),%r8
/home/jgarcia/TFG/source_code/SP/z_solve.f:95
  40a8b5:	f2 0f 10 1d 03 52 20 00     	(move)  	movsd	0x205203(%rip),%xmm3
  40a8bd:	ba 00 00 00 00              	(move)  	mov	$0,%edx
; ------- Loop 205 entry
887 (loop 205):	
/home/jgarcia/TFG/source_code/SP/z_solve.f:5
  40a8c2:	83 c2 01                    	(arith) 	add	$0x1,%edx
/home/jgarcia/TFG/source_code/SP/z_solve.f:87
  40a8c5:	48 63 c2                    	(move)  	movsxd	%edx,%rax
  40a8c8:	48 8d 0c 80                 	(arith) 	lea	(%rax,%rax,4),%rcx
  40a8cc:	4a 8d 04 09                 	(arith) 	lea	(%rcx,%r9,1),%rax
  40a8d0:	f2 0f 10 14 c3              	(move)  	movsd	(%rbx,%rax,8),%xmm2
  40a8d5:	f2 0f 58 d1                 	(arith) 	addsd	%xmm1,%xmm2
  40a8d9:	f2 0f 11 14 c3              	(move)  	movsd	%xmm2,(%rbx,%rax,8)
/home/jgarcia/TFG/source_code/SP/z_solve.f:88
  40a8de:	48 8d 70 01                 	(arith) 	lea	0x1(%rax),%rsi
  40a8e2:	f2 0f 10 14 f3              	(move)  	movsd	(%rbx,%rsi,8),%xmm2
  40a8e7:	f2 0f 5c d0                 	(arith) 	subsd	%xmm0,%xmm2
  40a8eb:	f2 0f 11 14 f3              	(move)  	movsd	%xmm2,(%rbx,%rsi,8)
/home/jgarcia/TFG/source_code/SP/z_solve.f:89
  40a8f0:	48 8d 70 02                 	(arith) 	lea	0x2(%rax),%rsi
  40a8f4:	f2 0f 10 14 f3              	(move)  	movsd	(%rbx,%rsi,8),%xmm2
  40a8f9:	f2 0f 58 d4                 	(arith) 	addsd	%xmm4,%xmm2
  40a8fd:	f2 0f 11 14 f3              	(move)  	movsd	%xmm2,(%rbx,%rsi,8)
/home/jgarcia/TFG/source_code/SP/z_solve.f:90
  40a902:	48 83 c0 03                 	(arith) 	add	$0x3,%rax
  40a906:	f2 0f 10 14 c3              	(move)  	movsd	(%rbx,%rax,8),%xmm2
  40a90b:	f2 0f 5c d0                 	(arith) 	subsd	%xmm0,%xmm2
  40a90f:	f2 0f 11 14 c3              	(move)  	movsd	%xmm2,(%rbx,%rax,8)
/home/jgarcia/TFG/source_code/SP/z_solve.f:93
  40a914:	4a 8d 04 01                 	(arith) 	lea	(%rcx,%r8,1),%rax
  40a918:	66 0f 28 d1                 	(move)  	movapd	%xmm1,%xmm2
  40a91c:	f2 0f 58 14 c3              	(arith) 	addsd	(%rbx,%rax,8),%xmm2
  40a921:	f2 0f 11 14 c3              	(move)  	movsd	%xmm2,(%rbx,%rax,8)
/home/jgarcia/TFG/source_code/SP/z_solve.f:94
  40a926:	48 8d 48 01                 	(arith) 	lea	0x1(%rax),%rcx
  40a92a:	f2 0f 10 14 cb              	(move)  	movsd	(%rbx,%rcx,8),%xmm2
  40a92f:	f2 0f 5c d0                 	(arith) 	subsd	%xmm0,%xmm2
  40a933:	f2 0f 11 14 cb              	(move)  	movsd	%xmm2,(%rbx,%rcx,8)
/home/jgarcia/TFG/source_code/SP/z_solve.f:95
  40a938:	48 83 c0 02                 	(arith) 	add	$0x2,%rax
  40a93c:	f2 0f 10 14 c3              	(move)  	movsd	(%rbx,%rax,8),%xmm2
  40a941:	f2 0f 58 d3                 	(arith) 	addsd	%xmm3,%xmm2
  40a945:	f2 0f 11 14 c3              	(move)  	movsd	%xmm2,(%rbx,%rax,8)
/home/jgarcia/TFG/source_code/SP/z_solve.f:85
  40a94a:	39 d7                       	(arith) 	cmp	%edx,%edi
  40a94c:	0f 85 70 ff ff ff           	(control)	jne	40a8c2 <z_solve_+0x4b2>	; ↰ label 887 (loop 205)
; ------- Loop 205 exit
885:	
/home/jgarcia/TFG/source_code/SP/z_solve.f:102
  40a952:	44 8b 0d bb 51 20 00        	(move)  	mov	0x2051bb(%rip),%r9d
  40a959:	44 89 4c 24 20              	(move)  	mov	%r9d,0x20(%rsp)
  40a95e:	45 85 c9                    	(arith) 	test	%r9d,%r9d
  40a961:	0f 8e 56 01 00 00           	(control)	jle	40aabd <z_solve_+0x6ad>	; ↲ label 888
889:	
/home/jgarcia/TFG/source_code/SP/z_solve.f:103
  40a967:	44 8b 15 9e 51 20 00        	(move)  	mov	0x20519e(%rip),%r10d
/home/jgarcia/TFG/source_code/SP/z_solve.f:106
  40a96e:	48 63 44 24 68              	(move)  	movsxd	0x68(%rsp),%rax
  40a973:	48 69 c0 99 01 00 00        	(arith) 	imul	$0x199,%rax,%rax
  40a97a:	48 89 44 24 18              	(move)  	mov	%rax,0x18(%rsp)
  40a97f:	f2 0f 10 15 09 51 20 00     	(move)  	movsd	0x205109(%rip),%xmm2
  40a987:	41 be 01 00 00 00           	(move)  	mov	$0x1,%r14d
; ------- Loop 203 entry
890 (loop 203):	
/home/jgarcia/TFG/source_code/SP/z_solve.f:103
  40a98d:	45 85 d2                    	(arith) 	test	%r10d,%r10d
  40a990:	0f 8e 17 01 00 00           	(control)	jle	40aaad <z_solve_+0x69d>	; ↲ label 891
892:	
/home/jgarcia/TFG/source_code/SP/z_solve.f:104
  40a996:	49 63 c6                    	(move)  	movsxd	%r14d,%rax
  40a999:	48 89 c2                    	(move)  	mov	%rax,%rdx
  40a99c:	48 c1 e2 09                 	(logic) 	sal	$0x9,%rdx
  40a9a0:	48 29 c2                    	(arith) 	sub	%rax,%rdx
  40a9a3:	4c 8d 0c 90                 	(arith) 	lea	(%rax,%rdx,4),%r9
/home/jgarcia/TFG/source_code/SP/z_solve.f:106
  40a9a7:	4c 8d 68 ff                 	(arith) 	lea	-0x1(%rax),%r13
  40a9ab:	4d 69 ed 71 8d 02 00        	(arith) 	imul	$0x28d71,%r13,%r13
  40a9b2:	4c 03 6c 24 18              	(arith) 	add	0x18(%rsp),%r13
/home/jgarcia/TFG/source_code/SP/z_solve.f:109
  40a9b7:	4c 8d 60 01                 	(arith) 	lea	0x1(%rax),%r12
  40a9bb:	4d 69 e4 71 8d 02 00        	(arith) 	imul	$0x28d71,%r12,%r12
  40a9c2:	4c 03 64 24 18              	(arith) 	add	0x18(%rsp),%r12
/home/jgarcia/TFG/source_code/SP/z_solve.f:110
  40a9c7:	4d 8d 59 ff                 	(arith) 	lea	-0x1(%r9),%r11
  40a9cb:	b9 00 00 00 00              	(move)  	mov	$0,%ecx
; ------- Loop 204 entry
893 (loop 204):	
/home/jgarcia/TFG/source_code/SP/z_solve.f:5
  40a9d0:	83 c1 01                    	(arith) 	add	$0x1,%ecx
/home/jgarcia/TFG/source_code/SP/z_solve.f:104
  40a9d3:	48 63 d1                    	(move)  	movsxd	%ecx,%rdx
  40a9d6:	48 8d 04 92                 	(arith) 	lea	(%rdx,%rdx,4),%rax
  40a9da:	4c 01 c8                    	(arith) 	add	%r9,%rax
  40a9dd:	48 8b 34 c3                 	(move)  	mov	(%rbx,%rax,8),%rsi
  40a9e1:	48 89 b4 c3 a8 19 66 00     	(move)  	mov	%rsi,0x6619a8(%rbx,%rax,8)
/home/jgarcia/TFG/source_code/SP/z_solve.f:106
  40a9e9:	4c 8d 40 01                 	(arith) 	lea	0x1(%rax),%r8
  40a9ed:	4a 8d b4 2a f0 38 ae 28     	(arith) 	lea	0x28ae38f0(%rdx,%r13,1),%rsi
  40a9f5:	66 0f 28 ca                 	(move)  	movapd	%xmm2,%xmm1
  40a9f9:	f2 0f 59 4c f5 00           	(arith) 	mulsd	(%rbp,%rsi,8),%xmm1
  40a9ff:	f2 42 0f 10 04 c3           	(move)  	movsd	(%rbx,%r8,8),%xmm0
  40aa05:	f2 0f 5c c1                 	(arith) 	subsd	%xmm1,%xmm0
  40aa09:	f2 0f 11 84 c3 b0 19 66 00  	(move)  	movsd	%xmm0,0x6619b0(%rbx,%rax,8)
/home/jgarcia/TFG/source_code/SP/z_solve.f:107
  40aa12:	48 8d 78 02                 	(arith) 	lea	0x2(%rax),%rdi
  40aa16:	48 8b 34 fb                 	(move)  	mov	(%rbx,%rdi,8),%rsi
  40aa1a:	48 89 b4 c3 b8 19 66 00     	(move)  	mov	%rsi,0x6619b8(%rbx,%rax,8)
/home/jgarcia/TFG/source_code/SP/z_solve.f:109
  40aa22:	48 8d 70 03                 	(arith) 	lea	0x3(%rax),%rsi
  40aa26:	4e 8d bc 22 f0 38 ae 28     	(arith) 	lea	0x28ae38f0(%rdx,%r12,1),%r15
  40aa2e:	66 0f 28 c2                 	(move)  	movapd	%xmm2,%xmm0
  40aa32:	f2 42 0f 59 44 fd 00        	(arith) 	mulsd	(%rbp,%r15,8),%xmm0
  40aa39:	f2 0f 10 1c f3              	(move)  	movsd	(%rbx,%rsi,8),%xmm3
  40aa3e:	f2 0f 58 d8                 	(arith) 	addsd	%xmm0,%xmm3
  40aa42:	f2 0f 11 9c c3 c0 19 66 00  	(move)  	movsd	%xmm3,0x6619c0(%rbx,%rax,8)
/home/jgarcia/TFG/source_code/SP/z_solve.f:110
  40aa4b:	48 8d 54 92 05              	(arith) 	lea	0x5(%rdx,%rdx,4),%rdx
  40aa50:	4c 01 da                    	(arith) 	add	%r11,%rdx
  40aa53:	4c 8b 3c d3                 	(move)  	mov	(%rbx,%rdx,8),%r15
  40aa57:	4c 89 bc d3 a8 19 66 00     	(move)  	mov	%r15,0x6619a8(%rbx,%rdx,8)
/home/jgarcia/TFG/source_code/SP/z_solve.f:111
  40aa5f:	4c 8b 3c c3                 	(move)  	mov	(%rbx,%rax,8),%r15
  40aa63:	4c 89 bc c3 50 33 cc 00     	(move)  	mov	%r15,0xcc3350(%rbx,%rax,8)
/home/jgarcia/TFG/source_code/SP/z_solve.f:113
  40aa6b:	f2 42 0f 58 0c c3           	(arith) 	addsd	(%rbx,%r8,8),%xmm1
  40aa71:	f2 0f 11 8c c3 58 33 cc 00  	(move)  	movsd	%xmm1,0xcc3358(%rbx,%rax,8)
/home/jgarcia/TFG/source_code/SP/z_solve.f:114
  40aa7a:	48 8b 3c fb                 	(move)  	mov	(%rbx,%rdi,8),%rdi
  40aa7e:	48 89 bc c3 60 33 cc 00     	(move)  	mov	%rdi,0xcc3360(%rbx,%rax,8)
/home/jgarcia/TFG/source_code/SP/z_solve.f:116
  40aa86:	f2 0f 10 0c f3              	(move)  	movsd	(%rbx,%rsi,8),%xmm1
  40aa8b:	f2 0f 5c c8                 	(arith) 	subsd	%xmm0,%xmm1
  40aa8f:	f2 0f 11 8c c3 68 33 cc 00  	(move)  	movsd	%xmm1,0xcc3368(%rbx,%rax,8)
/home/jgarcia/TFG/source_code/SP/z_solve.f:117
  40aa98:	48 8b 04 d3                 	(move)  	mov	(%rbx,%rdx,8),%rax
  40aa9c:	48 89 84 d3 50 33 cc 00     	(move)  	mov	%rax,0xcc3350(%rbx,%rdx,8)
/home/jgarcia/TFG/source_code/SP/z_solve.f:103
  40aaa4:	41 39 ca                    	(arith) 	cmp	%ecx,%r10d
  40aaa7:	0f 85 23 ff ff ff           	(control)	jne	40a9d0 <z_solve_+0x5c0>	; ↰ label 893 (loop 204)
; ------- Loop 204 exit
891:	
/home/jgarcia/TFG/source_code/SP/z_solve.f:102
  40aaad:	44 3b 74 24 20              	(arith) 	cmp	0x20(%rsp),%r14d
  40aab2:	74 09                       	(control)	je	40aabd <z_solve_+0x6ad>	; ↲ label 888
894:	
  40aab4:	41 83 c6 01                 	(arith) 	add	$0x1,%r14d
  40aab8:	e9 d0 fe ff ff              	(control)	jmp	40a98d <z_solve_+0x57d>	; ↰ label 890 (loop 203)
; ------- Loop 203 exit
888:	
/home/jgarcia/TFG/source_code/SP/z_solve.f:126
  40aabd:	8b 05 45 50 20 00           	(move)  	mov	0x205045(%rip),%eax
  40aac3:	83 e8 03                    	(arith) 	sub	$0x3,%eax
  40aac6:	89 44 24 64                 	(move)  	mov	%eax,0x64(%rsp)
  40aaca:	0f 88 a0 02 00 00           	(control)	js	40ad70 <z_solve_+0x960>	; ↲ label 895
896:	
/home/jgarcia/TFG/source_code/SP/z_solve.f:129
  40aad0:	44 8b 15 35 50 20 00        	(move)  	mov	0x205035(%rip),%r10d
  40aad7:	44 89 54 24 20              	(move)  	mov	%r10d,0x20(%rsp)
/home/jgarcia/TFG/source_code/SP/z_solve.f:134
  40aadc:	48 63 44 24 68              	(move)  	movsxd	0x68(%rsp),%rax
  40aae1:	48 89 c2                    	(move)  	mov	%rax,%rdx
  40aae4:	48 c1 e2 09                 	(logic) 	sal	$0x9,%rdx
  40aae8:	48 29 c2                    	(arith) 	sub	%rax,%rdx
  40aaeb:	48 8d 14 90                 	(arith) 	lea	(%rax,%rdx,4),%rdx
  40aaef:	48 89 54 24 50              	(move)  	mov	%rdx,0x50(%rsp)
  40aaf4:	b8 00 00 00 00              	(move)  	mov	$0,%eax
/home/jgarcia/TFG/source_code/SP/z_solve.f:130
  40aaf9:	f2 0f 10 1d af 39 00 00     	(move)  	movsd	0x39af(%rip),%xmm3
/home/jgarcia/TFG/source_code/SP/z_solve.f:5
  40ab01:	49 bd 38 a1 1c 88 01 00 00 00	(move)  	mov	$0x1881ca138,%r13
; ------- Loop 199 entry
897 (loop 199):	
/home/jgarcia/TFG/source_code/SP/z_solve.f:127
  40ab0b:	44 8d 70 01                 	(arith) 	lea	0x1(%rax),%r14d
  40ab0f:	44 89 74 24 5c              	(move)  	mov	%r14d,0x5c(%rsp)
/home/jgarcia/TFG/source_code/SP/z_solve.f:5
  40ab14:	44 89 74 24 60              	(move)  	mov	%r14d,0x60(%rsp)
  40ab19:	44 8d 60 02                 	(arith) 	lea	0x2(%rax),%r12d
/home/jgarcia/TFG/source_code/SP/z_solve.f:129
  40ab1d:	83 7c 24 20 00              	(arith) 	cmpl	$0,0x20(%rsp)
  40ab22:	0f 8e 32 02 00 00           	(control)	jle	40ad5a <z_solve_+0x94a>	; ↲ label 898
899:	
/home/jgarcia/TFG/source_code/SP/z_solve.f:130
  40ab28:	48 98                       	(conv)  	cltq
  40ab2a:	48 89 c2                    	(move)  	mov	%rax,%rdx
  40ab2d:	48 c1 e2 09                 	(logic) 	sal	$0x9,%rdx
  40ab31:	48 29 c2                    	(arith) 	sub	%rax,%rdx
  40ab34:	4c 8d 3c 90                 	(arith) 	lea	(%rax,%rdx,4),%r15
/home/jgarcia/TFG/source_code/SP/z_solve.f:132
  40ab38:	49 8d 57 ff                 	(arith) 	lea	-0x1(%r15),%rdx
  40ab3c:	48 89 54 24 28              	(move)  	mov	%rdx,0x28(%rsp)
/home/jgarcia/TFG/source_code/SP/z_solve.f:134
  40ab41:	48 69 c0 35 c3 0c 00        	(arith) 	imul	$0xcc335,%rax,%rax
  40ab48:	48 89 44 24 18              	(move)  	mov	%rax,0x18(%rsp)
  40ab4d:	48 83 e8 01                 	(arith) 	sub	$0x1,%rax
  40ab51:	48 89 44 24 48              	(move)  	mov	%rax,0x48(%rsp)
/home/jgarcia/TFG/source_code/SP/z_solve.f:137
  40ab56:	49 63 c6                    	(move)  	movsxd	%r14d,%rax
  40ab59:	48 89 c2                    	(move)  	mov	%rax,%rdx
  40ab5c:	48 c1 e2 09                 	(logic) 	sal	$0x9,%rdx
  40ab60:	48 29 c2                    	(arith) 	sub	%rax,%rdx
  40ab63:	48 8d 14 90                 	(arith) 	lea	(%rax,%rdx,4),%rdx
  40ab67:	48 89 54 24 40              	(move)  	mov	%rdx,0x40(%rsp)
/home/jgarcia/TFG/source_code/SP/z_solve.f:142
  40ab6c:	48 69 c0 35 c3 0c 00        	(arith) 	imul	$0xcc335,%rax,%rax
  40ab73:	48 89 44 24 38              	(move)  	mov	%rax,0x38(%rsp)
/home/jgarcia/TFG/source_code/SP/z_solve.f:145
  40ab78:	4d 63 e4                    	(move)  	movsxd	%r12d,%r12
  40ab7b:	4c 89 e0                    	(move)  	mov	%r12,%rax
  40ab7e:	48 c1 e0 09                 	(logic) 	sal	$0x9,%rax
  40ab82:	4c 29 e0                    	(arith) 	sub	%r12,%rax
  40ab85:	49 8d 04 84                 	(arith) 	lea	(%r12,%rax,4),%rax
  40ab89:	48 89 44 24 30              	(move)  	mov	%rax,0x30(%rsp)
/home/jgarcia/TFG/source_code/SP/z_solve.f:150
  40ab8e:	4d 69 e4 35 c3 0c 00        	(arith) 	imul	$0xcc335,%r12,%r12
  40ab95:	41 bb 01 00 00 00           	(move)  	mov	$0x1,%r11d
; ------- Loop 202 entry
900 (loop 202):	
/home/jgarcia/TFG/source_code/SP/z_solve.f:130
  40ab9b:	49 63 c3                    	(move)  	movsxd	%r11d,%rax
  40ab9e:	4c 8d 0c 80                 	(arith) 	lea	(%rax,%rax,4),%r9
  40aba2:	4f 8d 04 39                 	(arith) 	lea	(%r9,%r15,1),%r8
  40aba6:	66 0f 28 c3                 	(move)  	movapd	%xmm3,%xmm0
  40abaa:	f2 42 0f 5e 44 c3 10        	(arith) 	divsd	0x10(%rbx,%r8,8),%xmm0
/home/jgarcia/TFG/source_code/SP/z_solve.f:131
  40abb1:	49 83 c0 03                 	(arith) 	add	$0x3,%r8
  40abb5:	f2 42 0f 10 0c c3           	(move)  	movsd	(%rbx,%r8,8),%xmm1
  40abbb:	f2 0f 59 c8                 	(arith) 	mulsd	%xmm0,%xmm1
  40abbf:	f2 42 0f 11 0c c3           	(move)  	movsd	%xmm1,(%rbx,%r8,8)
/home/jgarcia/TFG/source_code/SP/z_solve.f:132
  40abc5:	48 8d 7c 80 05              	(arith) 	lea	0x5(%rax,%rax,4),%rdi
  40abca:	48 03 7c 24 28              	(arith) 	add	0x28(%rsp),%rdi
  40abcf:	f2 0f 10 0c fb              	(move)  	movsd	(%rbx,%rdi,8),%xmm1
  40abd4:	f2 0f 59 c8                 	(arith) 	mulsd	%xmm0,%xmm1
  40abd8:	f2 0f 11 0c fb              	(move)  	movsd	%xmm1,(%rbx,%rdi,8)
/home/jgarcia/TFG/source_code/SP/z_solve.f:134
  40abdd:	48 8b 74 24 50              	(move)  	mov	0x50(%rsp),%rsi
  40abe2:	49 8d 34 31                 	(arith) 	lea	(%r9,%rsi,1),%rsi
  40abe6:	48 8b 44 24 48              	(move)  	mov	0x48(%rsp),%rax
  40abeb:	48 8d 04 06                 	(arith) 	lea	(%rsi,%rax,1),%rax
  40abef:	48 8d 90 21 11 d1 30        	(arith) 	lea	0x30d11121(%rax),%rdx
  40abf6:	f2 0f 10 4c d5 00           	(move)  	movsd	(%rbp,%rdx,8),%xmm1
  40abfc:	f2 0f 59 c8                 	(arith) 	mulsd	%xmm0,%xmm1
  40ac00:	f2 0f 11 4c d5 00           	(move)  	movsd	%xmm1,(%rbp,%rdx,8)
  40ac06:	48 8d 90 22 11 d1 30        	(arith) 	lea	0x30d11122(%rax),%rdx
  40ac0d:	f2 0f 10 4c d5 00           	(move)  	movsd	(%rbp,%rdx,8),%xmm1
  40ac13:	f2 0f 59 c8                 	(arith) 	mulsd	%xmm0,%xmm1
  40ac17:	f2 0f 11 4c d5 00           	(move)  	movsd	%xmm1,(%rbp,%rdx,8)
  40ac1d:	48 05 23 11 d1 30           	(arith) 	add	$0x30d11123,%rax
  40ac23:	f2 0f 59 44 c5 00           	(arith) 	mulsd	(%rbp,%rax,8),%xmm0
  40ac29:	f2 0f 11 44 c5 00           	(move)  	movsd	%xmm0,(%rbp,%rax,8)
/home/jgarcia/TFG/source_code/SP/z_solve.f:137
  40ac2f:	48 8b 54 24 40              	(move)  	mov	0x40(%rsp),%rdx
  40ac34:	49 8d 14 11                 	(arith) 	lea	(%r9,%rdx,1),%rdx
  40ac38:	48 8d 4a 02                 	(arith) 	lea	0x2(%rdx),%rcx
  40ac3c:	48 8d 42 01                 	(arith) 	lea	0x1(%rdx),%rax
  40ac40:	f2 0f 10 0c c3              	(move)  	movsd	(%rbx,%rax,8),%xmm1
  40ac45:	f2 42 0f 59 0c c3           	(arith) 	mulsd	(%rbx,%r8,8),%xmm1
  40ac4b:	f2 0f 10 04 cb              	(move)  	movsd	(%rbx,%rcx,8),%xmm0
  40ac50:	f2 0f 5c c1                 	(arith) 	subsd	%xmm1,%xmm0
  40ac54:	f2 0f 11 04 cb              	(move)  	movsd	%xmm0,(%rbx,%rcx,8)
/home/jgarcia/TFG/source_code/SP/z_solve.f:139
  40ac59:	48 83 c2 03                 	(arith) 	add	$0x3,%rdx
  40ac5d:	f2 0f 10 0c c3              	(move)  	movsd	(%rbx,%rax,8),%xmm1
  40ac62:	f2 0f 59 0c fb              	(arith) 	mulsd	(%rbx,%rdi,8),%xmm1
  40ac67:	f2 0f 10 04 d3              	(move)  	movsd	(%rbx,%rdx,8),%xmm0
  40ac6c:	f2 0f 5c c1                 	(arith) 	subsd	%xmm1,%xmm0
  40ac70:	f2 0f 11 04 d3              	(move)  	movsd	%xmm0,(%rbx,%rdx,8)
/home/jgarcia/TFG/source_code/SP/z_solve.f:142
  40ac75:	f2 0f 10 14 c3              	(move)  	movsd	(%rbx,%rax,8),%xmm2
  40ac7a:	48 8b 4c 24 38              	(move)  	mov	0x38(%rsp),%rcx
  40ac7f:	48 8d 0c 0e                 	(arith) 	lea	(%rsi,%rcx,1),%rcx
  40ac83:	48 8d 81 20 11 d1 30        	(arith) 	lea	0x30d11120(%rcx),%rax
  40ac8a:	48 8d 44 c5 00              	(arith) 	lea	(%rbp,%rax,8),%rax
  40ac8f:	4c 8b 54 24 18              	(move)  	mov	0x18(%rsp),%r10
  40ac94:	49 8d 94 32 20 11 d1 30     	(arith) 	lea	0x30d11120(%r10,%rsi,1),%rdx
  40ac9c:	48 8d 54 d5 00              	(arith) 	lea	(%rbp,%rdx,8),%rdx
/home/jgarcia/TFG/source_code/SP/z_solve.f:5
  40aca1:	49 89 f6                    	(move)  	mov	%rsi,%r14
  40aca4:	4d 8d 54 cd 00              	(arith) 	lea	(%r13,%rcx,8),%r10
  40aca9:	48 89 d1                    	(move)  	mov	%rdx,%rcx
; ------- Loop 200 entry
901 (loop 200):	
/home/jgarcia/TFG/source_code/SP/z_solve.f:142
  40acac:	66 0f 28 ca                 	(move)  	movapd	%xmm2,%xmm1
  40acb0:	f2 0f 59 09                 	(arith) 	mulsd	(%rcx),%xmm1
  40acb4:	f2 0f 10 00                 	(move)  	movsd	(%rax),%xmm0
  40acb8:	f2 0f 5c c1                 	(arith) 	subsd	%xmm1,%xmm0
  40acbc:	f2 0f 11 00                 	(move)  	movsd	%xmm0,(%rax)
  40acc0:	48 83 c0 08                 	(arith) 	add	$0x8,%rax
  40acc4:	48 83 c1 08                 	(arith) 	add	$0x8,%rcx
/home/jgarcia/TFG/source_code/SP/z_solve.f:140
  40acc8:	4c 39 d0                    	(arith) 	cmp	%r10,%rax
  40accb:	75 df                       	(control)	jne	40acac <z_solve_+0x89c>	; ↰ label 901 (loop 200)
; ------- Loop 200 exit
902:	
/home/jgarcia/TFG/source_code/SP/z_solve.f:145
  40accd:	4c 03 4c 24 30              	(arith) 	add	0x30(%rsp),%r9
  40acd2:	49 8d 41 01                 	(arith) 	lea	0x1(%r9),%rax
  40acd6:	f2 42 0f 10 0c cb           	(move)  	movsd	(%rbx,%r9,8),%xmm1
  40acdc:	f2 42 0f 59 0c c3           	(arith) 	mulsd	(%rbx,%r8,8),%xmm1
  40ace2:	f2 0f 10 04 c3              	(move)  	movsd	(%rbx,%rax,8),%xmm0
  40ace7:	f2 0f 5c c1                 	(arith) 	subsd	%xmm1,%xmm0
  40aceb:	f2 0f 11 04 c3              	(move)  	movsd	%xmm0,(%rbx,%rax,8)
/home/jgarcia/TFG/source_code/SP/z_solve.f:147
  40acf0:	49 8d 41 02                 	(arith) 	lea	0x2(%r9),%rax
  40acf4:	f2 42 0f 10 0c cb           	(move)  	movsd	(%rbx,%r9,8),%xmm1
  40acfa:	f2 0f 59 0c fb              	(arith) 	mulsd	(%rbx,%rdi,8),%xmm1
  40acff:	f2 0f 10 04 c3              	(move)  	movsd	(%rbx,%rax,8),%xmm0
  40ad04:	f2 0f 5c c1                 	(arith) 	subsd	%xmm1,%xmm0
  40ad08:	f2 0f 11 04 c3              	(move)  	movsd	%xmm0,(%rbx,%rax,8)
/home/jgarcia/TFG/source_code/SP/z_solve.f:150
  40ad0d:	f2 42 0f 10 14 cb           	(move)  	movsd	(%rbx,%r9,8),%xmm2
  40ad13:	49 8d 84 34 20 11 d1 30     	(arith) 	lea	0x30d11120(%r12,%rsi,1),%rax
  40ad1b:	48 8d 44 c5 00              	(arith) 	lea	(%rbp,%rax,8),%rax
/home/jgarcia/TFG/source_code/SP/z_solve.f:5
  40ad20:	4f 8d 34 34                 	(arith) 	lea	(%r12,%r14,1),%r14
  40ad24:	4b 8d 4c f5 00              	(arith) 	lea	(%r13,%r14,8),%rcx
; ------- Loop 201 entry
903 (loop 201):	
/home/jgarcia/TFG/source_code/SP/z_solve.f:150
  40ad29:	66 0f 28 ca                 	(move)  	movapd	%xmm2,%xmm1
  40ad2d:	f2 0f 59 0a                 	(arith) 	mulsd	(%rdx),%xmm1
  40ad31:	f2 0f 10 00                 	(move)  	movsd	(%rax),%xmm0
  40ad35:	f2 0f 5c c1                 	(arith) 	subsd	%xmm1,%xmm0
  40ad39:	f2 0f 11 00                 	(move)  	movsd	%xmm0,(%rax)
  40ad3d:	48 83 c0 08                 	(arith) 	add	$0x8,%rax
  40ad41:	48 83 c2 08                 	(arith) 	add	$0x8,%rdx
/home/jgarcia/TFG/source_code/SP/z_solve.f:148
  40ad45:	48 39 c8                    	(arith) 	cmp	%rcx,%rax
  40ad48:	75 df                       	(control)	jne	40ad29 <z_solve_+0x919>	; ↰ label 903 (loop 201)
; ------- Loop 201 exit
904:	
/home/jgarcia/TFG/source_code/SP/z_solve.f:129
  40ad4a:	44 3b 5c 24 20              	(arith) 	cmp	0x20(%rsp),%r11d
  40ad4f:	74 09                       	(control)	je	40ad5a <z_solve_+0x94a>	; ↲ label 898
905:	
  40ad51:	41 83 c3 01                 	(arith) 	add	$0x1,%r11d
  40ad55:	e9 41 fe ff ff              	(control)	jmp	40ab9b <z_solve_+0x78b>	; ↰ label 900 (loop 202)
; ------- Loop 202 exit
898:	
/home/jgarcia/TFG/source_code/SP/z_solve.f:5
  40ad5a:	8b 44 24 60                 	(move)  	mov	0x60(%rsp),%eax
  40ad5e:	83 e8 01                    	(arith) 	sub	$0x1,%eax
/home/jgarcia/TFG/source_code/SP/z_solve.f:126
  40ad61:	3b 44 24 64                 	(arith) 	cmp	0x64(%rsp),%eax
  40ad65:	74 09                       	(control)	je	40ad70 <z_solve_+0x960>	; ↲ label 895
906:	
  40ad67:	8b 44 24 5c                 	(move)  	mov	0x5c(%rsp),%eax
  40ad6b:	e9 9b fd ff ff              	(control)	jmp	40ab0b <z_solve_+0x6fb>	; ↰ label 897 (loop 199)
; ------- Loop 199 exit
895:	
/home/jgarcia/TFG/source_code/SP/z_solve.f:160
  40ad70:	8b 05 92 4d 20 00           	(move)  	mov	0x204d92(%rip),%eax
  40ad76:	44 8d 50 fe                 	(arith) 	lea	-0x2(%rax),%r10d
/home/jgarcia/TFG/source_code/SP/z_solve.f:161
  40ad7a:	44 8d 68 ff                 	(arith) 	lea	-0x1(%rax),%r13d
/home/jgarcia/TFG/source_code/SP/z_solve.f:162
  40ad7e:	44 8b 35 87 4d 20 00        	(move)  	mov	0x204d87(%rip),%r14d
  40ad85:	44 89 74 24 18              	(move)  	mov	%r14d,0x18(%rsp)
  40ad8a:	45 85 f6                    	(arith) 	test	%r14d,%r14d
  40ad8d:	0f 8e b2 01 00 00           	(control)	jle	40af45 <z_solve_+0xb35>	; ↲ label 907
908:	
/home/jgarcia/TFG/source_code/SP/z_solve.f:163
  40ad93:	4d 63 d2                    	(move)  	movsxd	%r10d,%r10
  40ad96:	4c 89 d0                    	(move)  	mov	%r10,%rax
  40ad99:	48 c1 e0 09                 	(logic) 	sal	$0x9,%rax
  40ad9d:	4c 29 d0                    	(arith) 	sub	%r10,%rax
  40ada0:	4d 8d 1c 82                 	(arith) 	lea	(%r10,%rax,4),%r11
/home/jgarcia/TFG/source_code/SP/z_solve.f:165
  40ada4:	49 8d 43 ff                 	(arith) 	lea	-0x1(%r11),%rax
  40ada8:	48 89 44 24 28              	(move)  	mov	%rax,0x28(%rsp)
/home/jgarcia/TFG/source_code/SP/z_solve.f:167
  40adad:	48 63 44 24 68              	(move)  	movsxd	0x68(%rsp),%rax
  40adb2:	48 89 c2                    	(move)  	mov	%rax,%rdx
  40adb5:	48 c1 e2 09                 	(logic) 	sal	$0x9,%rdx
  40adb9:	48 29 c2                    	(arith) 	sub	%rax,%rdx
  40adbc:	4c 8d 3c 90                 	(arith) 	lea	(%rax,%rdx,4),%r15
  40adc0:	4d 69 d2 35 c3 0c 00        	(arith) 	imul	$0xcc335,%r10,%r10
  40adc7:	4d 8d 72 ff                 	(arith) 	lea	-0x1(%r10),%r14
/home/jgarcia/TFG/source_code/SP/z_solve.f:170
  40adcb:	4d 63 ed                    	(move)  	movsxd	%r13d,%r13
  40adce:	4c 89 e8                    	(move)  	mov	%r13,%rax
  40add1:	48 c1 e0 09                 	(logic) 	sal	$0x9,%rax
  40add5:	4c 29 e8                    	(arith) 	sub	%r13,%rax
  40add8:	49 8d 44 85 00              	(arith) 	lea	(%r13,%rax,4),%rax
  40addd:	48 89 44 24 20              	(move)  	mov	%rax,0x20(%rsp)
/home/jgarcia/TFG/source_code/SP/z_solve.f:175
  40ade2:	4d 69 ed 35 c3 0c 00        	(arith) 	imul	$0xcc335,%r13,%r13
  40ade9:	41 b9 01 00 00 00           	(move)  	mov	$0x1,%r9d
/home/jgarcia/TFG/source_code/SP/z_solve.f:163
  40adef:	f2 0f 10 1d b9 36 00 00     	(move)  	movsd	0x36b9(%rip),%xmm3
/home/jgarcia/TFG/source_code/SP/z_solve.f:5
  40adf7:	49 bc 38 a1 1c 88 01 00 00 00	(move)  	mov	$0x1881ca138,%r12
; ------- Loop 198 entry
909 (loop 198):	
/home/jgarcia/TFG/source_code/SP/z_solve.f:163
  40ae01:	49 63 c1                    	(move)  	movsxd	%r9d,%rax
  40ae04:	48 8d 3c 80                 	(arith) 	lea	(%rax,%rax,4),%rdi
  40ae08:	4e 8d 04 1f                 	(arith) 	lea	(%rdi,%r11,1),%r8
  40ae0c:	66 0f 28 c3                 	(move)  	movapd	%xmm3,%xmm0
  40ae10:	f2 42 0f 5e 44 c3 10        	(arith) 	divsd	0x10(%rbx,%r8,8),%xmm0
/home/jgarcia/TFG/source_code/SP/z_solve.f:164
  40ae17:	49 83 c0 03                 	(arith) 	add	$0x3,%r8
  40ae1b:	f2 42 0f 10 0c c3           	(move)  	movsd	(%rbx,%r8,8),%xmm1
  40ae21:	f2 0f 59 c8                 	(arith) 	mulsd	%xmm0,%xmm1
  40ae25:	f2 42 0f 11 0c c3           	(move)  	movsd	%xmm1,(%rbx,%r8,8)
/home/jgarcia/TFG/source_code/SP/z_solve.f:165
  40ae2b:	48 8d 74 80 05              	(arith) 	lea	0x5(%rax,%rax,4),%rsi
  40ae30:	48 03 74 24 28              	(arith) 	add	0x28(%rsp),%rsi
  40ae35:	f2 0f 10 0c f3              	(move)  	movsd	(%rbx,%rsi,8),%xmm1
  40ae3a:	f2 0f 59 c8                 	(arith) 	mulsd	%xmm0,%xmm1
  40ae3e:	f2 0f 11 0c f3              	(move)  	movsd	%xmm1,(%rbx,%rsi,8)
/home/jgarcia/TFG/source_code/SP/z_solve.f:167
  40ae43:	4a 8d 14 3f                 	(arith) 	lea	(%rdi,%r15,1),%rdx
  40ae47:	4a 8d 04 32                 	(arith) 	lea	(%rdx,%r14,1),%rax
  40ae4b:	48 8d 88 21 11 d1 30        	(arith) 	lea	0x30d11121(%rax),%rcx
  40ae52:	f2 0f 10 4c cd 00           	(move)  	movsd	(%rbp,%rcx,8),%xmm1
  40ae58:	f2 0f 59 c8                 	(arith) 	mulsd	%xmm0,%xmm1
  40ae5c:	f2 0f 11 4c cd 00           	(move)  	movsd	%xmm1,(%rbp,%rcx,8)
  40ae62:	48 8d 88 22 11 d1 30        	(arith) 	lea	0x30d11122(%rax),%rcx
  40ae69:	f2 0f 10 4c cd 00           	(move)  	movsd	(%rbp,%rcx,8),%xmm1
  40ae6f:	f2 0f 59 c8                 	(arith) 	mulsd	%xmm0,%xmm1
  40ae73:	f2 0f 11 4c cd 00           	(move)  	movsd	%xmm1,(%rbp,%rcx,8)
  40ae79:	48 05 23 11 d1 30           	(arith) 	add	$0x30d11123,%rax
  40ae7f:	f2 0f 59 44 c5 00           	(arith) 	mulsd	(%rbp,%rax,8),%xmm0
  40ae85:	f2 0f 11 44 c5 00           	(move)  	movsd	%xmm0,(%rbp,%rax,8)
/home/jgarcia/TFG/source_code/SP/z_solve.f:170
  40ae8b:	48 03 7c 24 20              	(arith) 	add	0x20(%rsp),%rdi
  40ae90:	48 8d 47 02                 	(arith) 	lea	0x2(%rdi),%rax
  40ae94:	48 8d 4f 01                 	(arith) 	lea	0x1(%rdi),%rcx
  40ae98:	f2 0f 10 0c cb              	(move)  	movsd	(%rbx,%rcx,8),%xmm1
  40ae9d:	f2 42 0f 59 0c c3           	(arith) 	mulsd	(%rbx,%r8,8),%xmm1
  40aea3:	f2 0f 10 04 c3              	(move)  	movsd	(%rbx,%rax,8),%xmm0
  40aea8:	f2 0f 5c c1                 	(arith) 	subsd	%xmm1,%xmm0
  40aeac:	f2 0f 11 04 c3              	(move)  	movsd	%xmm0,(%rbx,%rax,8)
/home/jgarcia/TFG/source_code/SP/z_solve.f:172
  40aeb1:	48 83 c7 03                 	(arith) 	add	$0x3,%rdi
  40aeb5:	f2 0f 10 0c cb              	(move)  	movsd	(%rbx,%rcx,8),%xmm1
  40aeba:	f2 0f 59 0c f3              	(arith) 	mulsd	(%rbx,%rsi,8),%xmm1
  40aebf:	f2 0f 10 04 fb              	(move)  	movsd	(%rbx,%rdi,8),%xmm0
  40aec4:	f2 0f 5c c1                 	(arith) 	subsd	%xmm1,%xmm0
  40aec8:	f2 0f 11 04 fb              	(move)  	movsd	%xmm0,(%rbx,%rdi,8)
/home/jgarcia/TFG/source_code/SP/z_solve.f:175
  40aecd:	f2 0f 10 14 cb              	(move)  	movsd	(%rbx,%rcx,8),%xmm2
  40aed2:	4a 8d 3c 2a                 	(arith) 	lea	(%rdx,%r13,1),%rdi
  40aed6:	48 8d 8f 20 11 d1 30        	(arith) 	lea	0x30d11120(%rdi),%rcx
  40aedd:	48 8d 4c cd 00              	(arith) 	lea	(%rbp,%rcx,8),%rcx
  40aee2:	49 8d 94 12 20 11 d1 30     	(arith) 	lea	0x30d11120(%r10,%rdx,1),%rdx
  40aeea:	48 8d 74 d5 00              	(arith) 	lea	(%rbp,%rdx,8),%rsi
/home/jgarcia/TFG/source_code/SP/z_solve.f:5
  40aeef:	49 8d 3c fc                 	(arith) 	lea	(%r12,%rdi,8),%rdi
  40aef3:	48 89 ca                    	(move)  	mov	%rcx,%rdx
; ------- Loop 196 entry
910 (loop 196):	
/home/jgarcia/TFG/source_code/SP/z_solve.f:175
  40aef6:	66 0f 28 ca                 	(move)  	movapd	%xmm2,%xmm1
  40aefa:	f2 0f 59 0e                 	(arith) 	mulsd	(%rsi),%xmm1
  40aefe:	f2 0f 10 02                 	(move)  	movsd	(%rdx),%xmm0
  40af02:	f2 0f 5c c1                 	(arith) 	subsd	%xmm1,%xmm0
  40af06:	f2 0f 11 02                 	(move)  	movsd	%xmm0,(%rdx)
  40af0a:	48 83 c2 08                 	(arith) 	add	$0x8,%rdx
  40af0e:	48 83 c6 08                 	(arith) 	add	$0x8,%rsi
/home/jgarcia/TFG/source_code/SP/z_solve.f:173
  40af12:	48 39 fa                    	(arith) 	cmp	%rdi,%rdx
  40af15:	75 df                       	(control)	jne	40aef6 <z_solve_+0xae6>	; ↰ label 910 (loop 196)
; ------- Loop 196 exit
911:	
/home/jgarcia/TFG/source_code/SP/z_solve.f:180
  40af17:	66 0f 28 cb                 	(move)  	movapd	%xmm3,%xmm1
  40af1b:	f2 0f 5e 0c c3              	(arith) 	divsd	(%rbx,%rax,8),%xmm1
; ------- Loop 197 entry
912 (loop 197):	
/home/jgarcia/TFG/source_code/SP/z_solve.f:182
  40af20:	f2 0f 10 01                 	(move)  	movsd	(%rcx),%xmm0
  40af24:	f2 0f 59 c1                 	(arith) 	mulsd	%xmm1,%xmm0
  40af28:	f2 0f 11 01                 	(move)  	movsd	%xmm0,(%rcx)
  40af2c:	48 83 c1 08                 	(arith) 	add	$0x8,%rcx
/home/jgarcia/TFG/source_code/SP/z_solve.f:181
  40af30:	48 39 cf                    	(arith) 	cmp	%rcx,%rdi
  40af33:	75 eb                       	(control)	jne	40af20 <z_solve_+0xb10>	; ↰ label 912 (loop 197)
; ------- Loop 197 exit
913:	
/home/jgarcia/TFG/source_code/SP/z_solve.f:162
  40af35:	44 3b 4c 24 18              	(arith) 	cmp	0x18(%rsp),%r9d
  40af3a:	74 09                       	(control)	je	40af45 <z_solve_+0xb35>	; ↲ label 907
914:	
  40af3c:	41 83 c1 01                 	(arith) 	add	$0x1,%r9d
  40af40:	e9 bc fe ff ff              	(control)	jmp	40ae01 <z_solve_+0x9f1>	; ↰ label 909 (loop 198)
; ------- Loop 198 exit
907:	
/home/jgarcia/TFG/source_code/SP/z_solve.f:189
  40af45:	8b 05 bd 4b 20 00           	(move)  	mov	0x204bbd(%rip),%eax
  40af4b:	83 e8 03                    	(arith) 	sub	$0x3,%eax
  40af4e:	89 44 24 64                 	(move)  	mov	%eax,0x64(%rsp)
  40af52:	0f 88 7d 03 00 00           	(control)	js	40b2d5 <z_solve_+0xec5>	; ↲ label 915
916:	
/home/jgarcia/TFG/source_code/SP/z_solve.f:192
  40af58:	8b 15 ae 4b 20 00           	(move)  	mov	0x204bae(%rip),%edx
  40af5e:	89 54 24 30                 	(move)  	mov	%edx,0x30(%rsp)
/home/jgarcia/TFG/source_code/SP/z_solve.f:197
  40af62:	48 63 44 24 68              	(move)  	movsxd	0x68(%rsp),%rax
  40af67:	48 89 c2                    	(move)  	mov	%rax,%rdx
  40af6a:	48 c1 e2 09                 	(logic) 	sal	$0x9,%rdx
  40af6e:	48 29 c2                    	(arith) 	sub	%rax,%rdx
  40af71:	48 8d 14 90                 	(arith) 	lea	(%rax,%rdx,4),%rdx
  40af75:	48 89 54 24 50              	(move)  	mov	%rdx,0x50(%rsp)
  40af7a:	ba 00 00 00 00              	(move)  	mov	$0,%edx
/home/jgarcia/TFG/source_code/SP/z_solve.f:194
  40af7f:	f2 0f 10 0d 29 35 00 00     	(move)  	movsd	0x3529(%rip),%xmm1
; ------- Loop 194 entry
917 (loop 194):	
/home/jgarcia/TFG/source_code/SP/z_solve.f:190
  40af87:	8d 4a 01                    	(arith) 	lea	0x1(%rdx),%ecx
  40af8a:	89 4c 24 5c                 	(move)  	mov	%ecx,0x5c(%rsp)
/home/jgarcia/TFG/source_code/SP/z_solve.f:5
  40af8e:	89 4c 24 60                 	(move)  	mov	%ecx,0x60(%rsp)
  40af92:	8d 42 02                    	(arith) 	lea	0x2(%rdx),%eax
/home/jgarcia/TFG/source_code/SP/z_solve.f:192
  40af95:	83 7c 24 30 00              	(arith) 	cmpl	$0,0x30(%rsp)
  40af9a:	0f 8e 1f 03 00 00           	(control)	jle	40b2bf <z_solve_+0xeaf>	; ↲ label 918
919:	
/home/jgarcia/TFG/source_code/SP/z_solve.f:194
  40afa0:	4c 63 f2                    	(move)  	movsxd	%edx,%r14
  40afa3:	4c 89 f2                    	(move)  	mov	%r14,%rdx
  40afa6:	48 c1 e2 09                 	(logic) 	sal	$0x9,%rdx
  40afaa:	4c 29 f2                    	(arith) 	sub	%r14,%rdx
  40afad:	49 8d 14 96                 	(arith) 	lea	(%r14,%rdx,4),%rdx
  40afb1:	48 89 54 24 28              	(move)  	mov	%rdx,0x28(%rsp)
/home/jgarcia/TFG/source_code/SP/z_solve.f:196
  40afb6:	48 83 ea 01                 	(arith) 	sub	$0x1,%rdx
  40afba:	48 89 54 24 48              	(move)  	mov	%rdx,0x48(%rsp)
/home/jgarcia/TFG/source_code/SP/z_solve.f:197
  40afbf:	4d 69 f6 35 c3 0c 00        	(arith) 	imul	$0xcc335,%r14,%r14
  40afc6:	49 83 ee 01                 	(arith) 	sub	$0x1,%r14
/home/jgarcia/TFG/source_code/SP/z_solve.f:199
  40afca:	48 63 d1                    	(move)  	movsxd	%ecx,%rdx
  40afcd:	48 89 d1                    	(move)  	mov	%rdx,%rcx
  40afd0:	48 c1 e1 09                 	(logic) 	sal	$0x9,%rcx
  40afd4:	48 29 d1                    	(arith) 	sub	%rdx,%rcx
  40afd7:	48 8d 0c 8a                 	(arith) 	lea	(%rdx,%rcx,4),%rcx
  40afdb:	48 89 4c 24 40              	(move)  	mov	%rcx,0x40(%rsp)
/home/jgarcia/TFG/source_code/SP/z_solve.f:203
  40afe0:	48 69 d2 35 c3 0c 00        	(arith) 	imul	$0xcc335,%rdx,%rdx
  40afe7:	48 83 ea 01                 	(arith) 	sub	$0x1,%rdx
  40afeb:	48 89 54 24 20              	(move)  	mov	%rdx,0x20(%rsp)
/home/jgarcia/TFG/source_code/SP/z_solve.f:205
  40aff0:	48 98                       	(conv)  	cltq
  40aff2:	48 89 c2                    	(move)  	mov	%rax,%rdx
  40aff5:	48 c1 e2 09                 	(logic) 	sal	$0x9,%rdx
  40aff9:	48 29 c2                    	(arith) 	sub	%rax,%rdx
  40affc:	48 8d 14 90                 	(arith) 	lea	(%rax,%rdx,4),%rdx
  40b000:	48 89 54 24 38              	(move)  	mov	%rdx,0x38(%rsp)
/home/jgarcia/TFG/source_code/SP/z_solve.f:209
  40b005:	48 69 c0 35 c3 0c 00        	(arith) 	imul	$0xcc335,%rax,%rax
  40b00c:	48 83 e8 01                 	(arith) 	sub	$0x1,%rax
  40b010:	48 89 44 24 18              	(move)  	mov	%rax,0x18(%rsp)
  40b015:	41 b8 00 00 00 00           	(move)  	mov	$0,%r8d
  40b01b:	4c 89 34 24                 	(move)  	mov	%r14,(%rsp)
; ------- Loop 195 entry
920 (loop 195):	
/home/jgarcia/TFG/source_code/SP/z_solve.f:5
  40b01f:	41 83 c0 01                 	(arith) 	add	$0x1,%r8d
/home/jgarcia/TFG/source_code/SP/z_solve.f:194
  40b023:	49 63 d0                    	(move)  	movsxd	%r8d,%rdx
  40b026:	48 8d 04 92                 	(arith) 	lea	(%rdx,%rdx,4),%rax
  40b02a:	48 8b 4c 24 28              	(move)  	mov	0x28(%rsp),%rcx
  40b02f:	48 8d 0c 08                 	(arith) 	lea	(%rax,%rcx,1),%rcx
  40b033:	66 0f 28 c1                 	(move)  	movapd	%xmm1,%xmm0
  40b037:	f2 0f 5e 84 cb b8 19 66 00  	(arith) 	divsd	0x6619b8(%rbx,%rcx,8),%xmm0
/home/jgarcia/TFG/source_code/SP/z_solve.f:195
  40b040:	48 8d b9 38 c3 0c 00        	(arith) 	lea	0xcc338(%rcx),%rdi
  40b047:	f2 0f 10 14 fb              	(move)  	movsd	(%rbx,%rdi,8),%xmm2
  40b04c:	f2 0f 59 d0                 	(arith) 	mulsd	%xmm0,%xmm2
  40b050:	f2 0f 11 14 fb              	(move)  	movsd	%xmm2,(%rbx,%rdi,8)
/home/jgarcia/TFG/source_code/SP/z_solve.f:196
  40b055:	4c 8d 6c 92 05              	(arith) 	lea	0x5(%rdx,%rdx,4),%r13
  40b05a:	4c 03 6c 24 48              	(arith) 	add	0x48(%rsp),%r13
  40b05f:	49 8d b5 35 c3 0c 00        	(arith) 	lea	0xcc335(%r13),%rsi
  40b066:	f2 0f 10 14 f3              	(move)  	movsd	(%rbx,%rsi,8),%xmm2
  40b06b:	f2 0f 59 d0                 	(arith) 	mulsd	%xmm0,%xmm2
  40b06f:	f2 0f 11 14 f3              	(move)  	movsd	%xmm2,(%rbx,%rsi,8)
/home/jgarcia/TFG/source_code/SP/z_solve.f:197
  40b074:	4c 8b 64 24 50              	(move)  	mov	0x50(%rsp),%r12
  40b079:	4e 8d 24 20                 	(arith) 	lea	(%rax,%r12,1),%r12
  40b07d:	4d 8d 5c 24 04              	(arith) 	lea	0x4(%r12),%r11
  40b082:	4c 8b 14 24                 	(move)  	mov	(%rsp),%r10
  40b086:	4f 8d 8c 1a 20 11 d1 30     	(arith) 	lea	0x30d11120(%r10,%r11,1),%r9
  40b08e:	f2 42 0f 59 44 cd 00        	(arith) 	mulsd	(%rbp,%r9,8),%xmm0
  40b095:	f2 42 0f 11 44 cd 00        	(move)  	movsd	%xmm0,(%rbp,%r9,8)
/home/jgarcia/TFG/source_code/SP/z_solve.f:199
  40b09c:	48 8b 54 24 40              	(move)  	mov	0x40(%rsp),%rdx
  40b0a1:	48 8d 14 10                 	(arith) 	lea	(%rax,%rdx,1),%rdx
  40b0a5:	4c 8d ba 37 c3 0c 00        	(arith) 	lea	0xcc337(%rdx),%r15
  40b0ac:	4c 8d 92 36 c3 0c 00        	(arith) 	lea	0xcc336(%rdx),%r10
  40b0b3:	f2 42 0f 10 1c d3           	(move)  	movsd	(%rbx,%r10,8),%xmm3
  40b0b9:	f2 0f 59 1c fb              	(arith) 	mulsd	(%rbx,%rdi,8),%xmm3
  40b0be:	f2 42 0f 10 14 fb           	(move)  	movsd	(%rbx,%r15,8),%xmm2
  40b0c4:	f2 0f 5c d3                 	(arith) 	subsd	%xmm3,%xmm2
  40b0c8:	f2 42 0f 11 14 fb           	(move)  	movsd	%xmm2,(%rbx,%r15,8)
/home/jgarcia/TFG/source_code/SP/z_solve.f:201
  40b0ce:	4c 8d ba 38 c3 0c 00        	(arith) 	lea	0xcc338(%rdx),%r15
  40b0d5:	f2 42 0f 10 1c d3           	(move)  	movsd	(%rbx,%r10,8),%xmm3
  40b0db:	f2 0f 59 1c f3              	(arith) 	mulsd	(%rbx,%rsi,8),%xmm3
  40b0e0:	f2 42 0f 10 14 fb           	(move)  	movsd	(%rbx,%r15,8),%xmm2
  40b0e6:	f2 0f 5c d3                 	(arith) 	subsd	%xmm3,%xmm2
  40b0ea:	f2 42 0f 11 14 fb           	(move)  	movsd	%xmm2,(%rbx,%r15,8)
/home/jgarcia/TFG/source_code/SP/z_solve.f:203
  40b0f0:	4c 8b 74 24 20              	(move)  	mov	0x20(%rsp),%r14
  40b0f5:	4f 8d bc 33 20 11 d1 30     	(arith) 	lea	0x30d11120(%r11,%r14,1),%r15
  40b0fd:	f2 42 0f 59 04 d3           	(arith) 	mulsd	(%rbx,%r10,8),%xmm0
  40b103:	f2 42 0f 10 54 fd 00        	(move)  	movsd	(%rbp,%r15,8),%xmm2
  40b10a:	f2 0f 5c d0                 	(arith) 	subsd	%xmm0,%xmm2
  40b10e:	f2 42 0f 11 54 fd 00        	(move)  	movsd	%xmm2,(%rbp,%r15,8)
/home/jgarcia/TFG/source_code/SP/z_solve.f:205
  40b115:	48 03 44 24 38              	(arith) 	add	0x38(%rsp),%rax
  40b11a:	4c 8d b8 36 c3 0c 00        	(arith) 	lea	0xcc336(%rax),%r15
  40b121:	4c 8d 90 35 c3 0c 00        	(arith) 	lea	0xcc335(%rax),%r10
  40b128:	f2 42 0f 10 14 d3           	(move)  	movsd	(%rbx,%r10,8),%xmm2
  40b12e:	f2 0f 59 14 fb              	(arith) 	mulsd	(%rbx,%rdi,8),%xmm2
  40b133:	f2 42 0f 10 04 fb           	(move)  	movsd	(%rbx,%r15,8),%xmm0
  40b139:	f2 0f 5c c2                 	(arith) 	subsd	%xmm2,%xmm0
  40b13d:	f2 42 0f 11 04 fb           	(move)  	movsd	%xmm0,(%rbx,%r15,8)
/home/jgarcia/TFG/source_code/SP/z_solve.f:207
  40b143:	48 8d b8 37 c3 0c 00        	(arith) 	lea	0xcc337(%rax),%rdi
  40b14a:	f2 42 0f 10 14 d3           	(move)  	movsd	(%rbx,%r10,8),%xmm2
  40b150:	f2 0f 59 14 f3              	(arith) 	mulsd	(%rbx,%rsi,8),%xmm2
  40b155:	f2 0f 10 04 fb              	(move)  	movsd	(%rbx,%rdi,8),%xmm0
  40b15a:	f2 0f 5c c2                 	(arith) 	subsd	%xmm2,%xmm0
  40b15e:	f2 0f 11 04 fb              	(move)  	movsd	%xmm0,(%rbx,%rdi,8)
/home/jgarcia/TFG/source_code/SP/z_solve.f:209
  40b163:	48 8b 7c 24 18              	(move)  	mov	0x18(%rsp),%rdi
  40b168:	49 8d b4 3b 20 11 d1 30     	(arith) 	lea	0x30d11120(%r11,%rdi,1),%rsi
  40b170:	f2 42 0f 10 14 d3           	(move)  	movsd	(%rbx,%r10,8),%xmm2
  40b176:	f2 42 0f 59 54 cd 00        	(arith) 	mulsd	(%rbp,%r9,8),%xmm2
  40b17d:	f2 0f 10 44 f5 00           	(move)  	movsd	(%rbp,%rsi,8),%xmm0
  40b183:	f2 0f 5c c2                 	(arith) 	subsd	%xmm2,%xmm0
  40b187:	f2 0f 11 44 f5 00           	(move)  	movsd	%xmm0,(%rbp,%rsi,8)
/home/jgarcia/TFG/source_code/SP/z_solve.f:211
  40b18d:	66 0f 28 c1                 	(move)  	movapd	%xmm1,%xmm0
  40b191:	f2 0f 5e 84 cb 60 33 cc 00  	(arith) 	divsd	0xcc3360(%rbx,%rcx,8),%xmm0
/home/jgarcia/TFG/source_code/SP/z_solve.f:212
  40b19a:	48 81 c1 6d 86 19 00        	(arith) 	add	$0x19866d,%rcx
  40b1a1:	f2 0f 10 14 cb              	(move)  	movsd	(%rbx,%rcx,8),%xmm2
  40b1a6:	f2 0f 59 d0                 	(arith) 	mulsd	%xmm0,%xmm2
  40b1aa:	f2 0f 11 14 cb              	(move)  	movsd	%xmm2,(%rbx,%rcx,8)
/home/jgarcia/TFG/source_code/SP/z_solve.f:213
  40b1af:	49 81 c5 6a 86 19 00        	(arith) 	add	$0x19866a,%r13
  40b1b6:	f2 42 0f 10 14 eb           	(move)  	movsd	(%rbx,%r13,8),%xmm2
  40b1bc:	f2 0f 59 d0                 	(arith) 	mulsd	%xmm0,%xmm2
  40b1c0:	f2 42 0f 11 14 eb           	(move)  	movsd	%xmm2,(%rbx,%r13,8)
/home/jgarcia/TFG/source_code/SP/z_solve.f:214
  40b1c6:	49 83 c4 05                 	(arith) 	add	$0x5,%r12
  40b1ca:	4c 8b 0c 24                 	(move)  	mov	(%rsp),%r9
  40b1ce:	4b 8d b4 0c 20 11 d1 30     	(arith) 	lea	0x30d11120(%r12,%r9,1),%rsi
  40b1d6:	f2 0f 59 44 f5 00           	(arith) 	mulsd	(%rbp,%rsi,8),%xmm0
  40b1dc:	f2 0f 11 44 f5 00           	(move)  	movsd	%xmm0,(%rbp,%rsi,8)
/home/jgarcia/TFG/source_code/SP/z_solve.f:216
  40b1e2:	4c 8d 8a 6c 86 19 00        	(arith) 	lea	0x19866c(%rdx),%r9
  40b1e9:	48 8d ba 6b 86 19 00        	(arith) 	lea	0x19866b(%rdx),%rdi
  40b1f0:	f2 0f 10 1c fb              	(move)  	movsd	(%rbx,%rdi,8),%xmm3
  40b1f5:	f2 0f 59 1c cb              	(arith) 	mulsd	(%rbx,%rcx,8),%xmm3
  40b1fa:	f2 42 0f 10 14 cb           	(move)  	movsd	(%rbx,%r9,8),%xmm2
  40b200:	f2 0f 5c d3                 	(arith) 	subsd	%xmm3,%xmm2
  40b204:	f2 42 0f 11 14 cb           	(move)  	movsd	%xmm2,(%rbx,%r9,8)
/home/jgarcia/TFG/source_code/SP/z_solve.f:218
  40b20a:	48 81 c2 6d 86 19 00        	(arith) 	add	$0x19866d,%rdx
  40b211:	f2 0f 10 1c fb              	(move)  	movsd	(%rbx,%rdi,8),%xmm3
  40b216:	f2 42 0f 59 1c eb           	(arith) 	mulsd	(%rbx,%r13,8),%xmm3
  40b21c:	f2 0f 10 14 d3              	(move)  	movsd	(%rbx,%rdx,8),%xmm2
  40b221:	f2 0f 5c d3                 	(arith) 	subsd	%xmm3,%xmm2
  40b225:	f2 0f 11 14 d3              	(move)  	movsd	%xmm2,(%rbx,%rdx,8)
/home/jgarcia/TFG/source_code/SP/z_solve.f:220
  40b22a:	4b 8d 94 34 20 11 d1 30     	(arith) 	lea	0x30d11120(%r12,%r14,1),%rdx
  40b232:	f2 0f 59 04 fb              	(arith) 	mulsd	(%rbx,%rdi,8),%xmm0
  40b237:	f2 0f 10 54 d5 00           	(move)  	movsd	(%rbp,%rdx,8),%xmm2
  40b23d:	f2 0f 5c d0                 	(arith) 	subsd	%xmm0,%xmm2
  40b241:	f2 0f 11 54 d5 00           	(move)  	movsd	%xmm2,(%rbp,%rdx,8)
/home/jgarcia/TFG/source_code/SP/z_solve.f:222
  40b247:	48 8d b8 6b 86 19 00        	(arith) 	lea	0x19866b(%rax),%rdi
  40b24e:	48 8d 90 6a 86 19 00        	(arith) 	lea	0x19866a(%rax),%rdx
  40b255:	f2 0f 10 14 d3              	(move)  	movsd	(%rbx,%rdx,8),%xmm2
  40b25a:	f2 0f 59 14 cb              	(arith) 	mulsd	(%rbx,%rcx,8),%xmm2
  40b25f:	f2 0f 10 04 fb              	(move)  	movsd	(%rbx,%rdi,8),%xmm0
  40b264:	f2 0f 5c c2                 	(arith) 	subsd	%xmm2,%xmm0
  40b268:	f2 0f 11 04 fb              	(move)  	movsd	%xmm0,(%rbx,%rdi,8)
/home/jgarcia/TFG/source_code/SP/z_solve.f:224
  40b26d:	48 05 6c 86 19 00           	(arith) 	add	$0x19866c,%rax
  40b273:	f2 0f 10 14 d3              	(move)  	movsd	(%rbx,%rdx,8),%xmm2
  40b278:	f2 42 0f 59 14 eb           	(arith) 	mulsd	(%rbx,%r13,8),%xmm2
  40b27e:	f2 0f 10 04 c3              	(move)  	movsd	(%rbx,%rax,8),%xmm0
  40b283:	f2 0f 5c c2                 	(arith) 	subsd	%xmm2,%xmm0
  40b287:	f2 0f 11 04 c3              	(move)  	movsd	%xmm0,(%rbx,%rax,8)
/home/jgarcia/TFG/source_code/SP/z_solve.f:226
  40b28c:	4c 8b 54 24 18              	(move)  	mov	0x18(%rsp),%r10
  40b291:	4b 8d 84 14 20 11 d1 30     	(arith) 	lea	0x30d11120(%r12,%r10,1),%rax
  40b299:	f2 0f 10 14 d3              	(move)  	movsd	(%rbx,%rdx,8),%xmm2
  40b29e:	f2 0f 59 54 f5 00           	(arith) 	mulsd	(%rbp,%rsi,8),%xmm2
  40b2a4:	f2 0f 10 44 c5 00           	(move)  	movsd	(%rbp,%rax,8),%xmm0
  40b2aa:	f2 0f 5c c2                 	(arith) 	subsd	%xmm2,%xmm0
  40b2ae:	f2 0f 11 44 c5 00           	(move)  	movsd	%xmm0,(%rbp,%rax,8)
/home/jgarcia/TFG/source_code/SP/z_solve.f:192
  40b2b4:	44 39 44 24 30              	(arith) 	cmp	%r8d,0x30(%rsp)
  40b2b9:	0f 85 60 fd ff ff           	(control)	jne	40b01f <z_solve_+0xc0f>	; ↰ label 920 (loop 195)
; ------- Loop 195 exit
918:	
/home/jgarcia/TFG/source_code/SP/z_solve.f:5
  40b2bf:	8b 44 24 60                 	(move)  	mov	0x60(%rsp),%eax
  40b2c3:	83 e8 01                    	(arith) 	sub	$0x1,%eax
/home/jgarcia/TFG/source_code/SP/z_solve.f:189
  40b2c6:	3b 44 24 64                 	(arith) 	cmp	0x64(%rsp),%eax
  40b2ca:	74 09                       	(control)	je	40b2d5 <z_solve_+0xec5>	; ↲ label 915
921:	
  40b2cc:	8b 54 24 5c                 	(move)  	mov	0x5c(%rsp),%edx
  40b2d0:	e9 b2 fc ff ff              	(control)	jmp	40af87 <z_solve_+0xb77>	; ↰ label 917 (loop 194)
; ------- Loop 194 exit
915:	
/home/jgarcia/TFG/source_code/SP/z_solve.f:233
  40b2d5:	8b 05 2d 48 20 00           	(move)  	mov	0x20482d(%rip),%eax
  40b2db:	8d 50 fe                    	(arith) 	lea	-0x2(%rax),%edx
/home/jgarcia/TFG/source_code/SP/z_solve.f:234
  40b2de:	83 e8 01                    	(arith) 	sub	$0x1,%eax
/home/jgarcia/TFG/source_code/SP/z_solve.f:235
  40b2e1:	44 8b 35 24 48 20 00        	(move)  	mov	0x204824(%rip),%r14d
  40b2e8:	44 89 74 24 18              	(move)  	mov	%r14d,0x18(%rsp)
  40b2ed:	45 85 f6                    	(arith) 	test	%r14d,%r14d
  40b2f0:	0f 8e 88 03 00 00           	(control)	jle	40b67e <z_solve_+0x126e>	; ↲ label 922
923:	
/home/jgarcia/TFG/source_code/SP/z_solve.f:237
  40b2f6:	48 63 d2                    	(move)  	movsxd	%edx,%rdx
  40b2f9:	48 89 d1                    	(move)  	mov	%rdx,%rcx
  40b2fc:	48 c1 e1 09                 	(logic) 	sal	$0x9,%rcx
  40b300:	48 29 d1                    	(arith) 	sub	%rdx,%rcx
  40b303:	48 8d 0c 8a                 	(arith) 	lea	(%rdx,%rcx,4),%rcx
  40b307:	48 89 4c 24 20              	(move)  	mov	%rcx,0x20(%rsp)
/home/jgarcia/TFG/source_code/SP/z_solve.f:239
  40b30c:	48 83 e9 01                 	(arith) 	sub	$0x1,%rcx
  40b310:	48 89 4c 24 38              	(move)  	mov	%rcx,0x38(%rsp)
/home/jgarcia/TFG/source_code/SP/z_solve.f:240
  40b315:	48 63 4c 24 68              	(move)  	movsxd	0x68(%rsp),%rcx
  40b31a:	48 89 ce                    	(move)  	mov	%rcx,%rsi
  40b31d:	48 c1 e6 09                 	(logic) 	sal	$0x9,%rsi
  40b321:	48 29 ce                    	(arith) 	sub	%rcx,%rsi
  40b324:	4c 8d 14 b1                 	(arith) 	lea	(%rcx,%rsi,4),%r10
  40b328:	48 69 d2 35 c3 0c 00        	(arith) 	imul	$0xcc335,%rdx,%rdx
  40b32f:	4c 8d 72 ff                 	(arith) 	lea	-0x1(%rdx),%r14
/home/jgarcia/TFG/source_code/SP/z_solve.f:242
  40b333:	48 98                       	(conv)  	cltq
  40b335:	48 89 c2                    	(move)  	mov	%rax,%rdx
  40b338:	48 c1 e2 09                 	(logic) 	sal	$0x9,%rdx
  40b33c:	48 29 c2                    	(arith) 	sub	%rax,%rdx
  40b33f:	48 8d 14 90                 	(arith) 	lea	(%rax,%rdx,4),%rdx
  40b343:	48 89 54 24 30              	(move)  	mov	%rdx,0x30(%rsp)
/home/jgarcia/TFG/source_code/SP/z_solve.f:246
  40b348:	48 69 c0 35 c3 0c 00        	(arith) 	imul	$0xcc335,%rax,%rax
  40b34f:	4c 8d 78 ff                 	(arith) 	lea	-0x1(%rax),%r15
/home/jgarcia/TFG/source_code/SP/z_solve.f:263
  40b353:	4b 8d 04 3a                 	(arith) 	lea	(%r10,%r15,1),%rax
  40b357:	48 89 44 24 40              	(move)  	mov	%rax,0x40(%rsp)
  40b35c:	b9 00 00 00 00              	(move)  	mov	$0,%ecx
/home/jgarcia/TFG/source_code/SP/z_solve.f:237
  40b361:	f2 0f 10 0d 47 31 00 00     	(move)  	movsd	0x3147(%rip),%xmm1
  40b369:	4c 89 54 24 28              	(move)  	mov	%r10,0x28(%rsp)
; ------- Loop 191 entry
924 (loop 191):	
/home/jgarcia/TFG/source_code/SP/z_solve.f:5
  40b36e:	83 c1 01                    	(arith) 	add	$0x1,%ecx
/home/jgarcia/TFG/source_code/SP/z_solve.f:237
  40b371:	48 63 f1                    	(move)  	movsxd	%ecx,%rsi
  40b374:	48 8d 04 b6                 	(arith) 	lea	(%rsi,%rsi,4),%rax
  40b378:	48 8b 54 24 20              	(move)  	mov	0x20(%rsp),%rdx
  40b37d:	48 8d 14 10                 	(arith) 	lea	(%rax,%rdx,1),%rdx
  40b381:	66 0f 28 c1                 	(move)  	movapd	%xmm1,%xmm0
  40b385:	f2 0f 5e 84 d3 b8 19 66 00  	(arith) 	divsd	0x6619b8(%rbx,%rdx,8),%xmm0
/home/jgarcia/TFG/source_code/SP/z_solve.f:238
  40b38e:	4c 8d 8a 38 c3 0c 00        	(arith) 	lea	0xcc338(%rdx),%r9
  40b395:	f2 42 0f 10 14 cb           	(move)  	movsd	(%rbx,%r9,8),%xmm2
  40b39b:	f2 0f 59 d0                 	(arith) 	mulsd	%xmm0,%xmm2
  40b39f:	f2 42 0f 11 14 cb           	(move)  	movsd	%xmm2,(%rbx,%r9,8)
/home/jgarcia/TFG/source_code/SP/z_solve.f:239
  40b3a5:	4c 8d 54 b6 05              	(arith) 	lea	0x5(%rsi,%rsi,4),%r10
  40b3aa:	4c 8b 64 24 38              	(move)  	mov	0x38(%rsp),%r12
  40b3af:	4f 8d 24 22                 	(arith) 	lea	(%r10,%r12,1),%r12
  40b3b3:	4d 8d 84 24 35 c3 0c 00     	(arith) 	lea	0xcc335(%r12),%r8
  40b3bb:	f2 42 0f 10 14 c3           	(move)  	movsd	(%rbx,%r8,8),%xmm2
  40b3c1:	f2 0f 59 d0                 	(arith) 	mulsd	%xmm0,%xmm2
  40b3c5:	f2 42 0f 11 14 c3           	(move)  	movsd	%xmm2,(%rbx,%r8,8)
/home/jgarcia/TFG/source_code/SP/z_solve.f:240
  40b3cb:	4c 8b 5c 24 28              	(move)  	mov	0x28(%rsp),%r11
  40b3d0:	4e 8d 1c 18                 	(arith) 	lea	(%rax,%r11,1),%r11
  40b3d4:	4d 8d 6b 04                 	(arith) 	lea	0x4(%r11),%r13
  40b3d8:	4b 8d b4 2e 20 11 d1 30     	(arith) 	lea	0x30d11120(%r14,%r13,1),%rsi
  40b3e0:	f2 0f 59 44 f5 00           	(arith) 	mulsd	(%rbp,%rsi,8),%xmm0
  40b3e6:	f2 0f 11 44 f5 00           	(move)  	movsd	%xmm0,(%rbp,%rsi,8)
/home/jgarcia/TFG/source_code/SP/z_solve.f:242
  40b3ec:	48 03 44 24 30              	(arith) 	add	0x30(%rsp),%rax
  40b3f1:	48 8d b0 37 c3 0c 00        	(arith) 	lea	0xcc337(%rax),%rsi
  40b3f8:	48 8d b8 36 c3 0c 00        	(arith) 	lea	0xcc336(%rax),%rdi
  40b3ff:	f2 0f 10 1c fb              	(move)  	movsd	(%rbx,%rdi,8),%xmm3
  40b404:	f2 42 0f 59 1c cb           	(arith) 	mulsd	(%rbx,%r9,8),%xmm3
  40b40a:	f2 0f 10 14 f3              	(move)  	movsd	(%rbx,%rsi,8),%xmm2
  40b40f:	f2 0f 5c d3                 	(arith) 	subsd	%xmm3,%xmm2
  40b413:	f2 0f 11 14 f3              	(move)  	movsd	%xmm2,(%rbx,%rsi,8)
/home/jgarcia/TFG/source_code/SP/z_solve.f:244
  40b418:	4c 8d 88 38 c3 0c 00        	(arith) 	lea	0xcc338(%rax),%r9
  40b41f:	f2 0f 10 1c fb              	(move)  	movsd	(%rbx,%rdi,8),%xmm3
  40b424:	f2 42 0f 59 1c c3           	(arith) 	mulsd	(%rbx,%r8,8),%xmm3
  40b42a:	f2 42 0f 10 14 cb           	(move)  	movsd	(%rbx,%r9,8),%xmm2
  40b430:	f2 0f 5c d3                 	(arith) 	subsd	%xmm3,%xmm2
  40b434:	f2 42 0f 11 14 cb           	(move)  	movsd	%xmm2,(%rbx,%r9,8)
/home/jgarcia/TFG/source_code/SP/z_solve.f:246
  40b43a:	4f 8d 84 2f 20 11 d1 30     	(arith) 	lea	0x30d11120(%r15,%r13,1),%r8
  40b442:	f2 0f 59 04 fb              	(arith) 	mulsd	(%rbx,%rdi,8),%xmm0
  40b447:	f2 42 0f 10 54 c5 00        	(move)  	movsd	(%rbp,%r8,8),%xmm2
  40b44e:	f2 0f 5c d0                 	(arith) 	subsd	%xmm0,%xmm2
  40b452:	f2 42 0f 11 54 c5 00        	(move)  	movsd	%xmm2,(%rbp,%r8,8)
/home/jgarcia/TFG/source_code/SP/z_solve.f:248
  40b459:	66 0f 28 c1                 	(move)  	movapd	%xmm1,%xmm0
  40b45d:	f2 0f 5e 84 d3 60 33 cc 00  	(arith) 	divsd	0xcc3360(%rbx,%rdx,8),%xmm0
/home/jgarcia/TFG/source_code/SP/z_solve.f:249
  40b466:	48 81 c2 6d 86 19 00        	(arith) 	add	$0x19866d,%rdx
  40b46d:	f2 0f 10 14 d3              	(move)  	movsd	(%rbx,%rdx,8),%xmm2
  40b472:	f2 0f 59 d0                 	(arith) 	mulsd	%xmm0,%xmm2
  40b476:	f2 0f 11 14 d3              	(move)  	movsd	%xmm2,(%rbx,%rdx,8)
/home/jgarcia/TFG/source_code/SP/z_solve.f:250
  40b47b:	49 81 c4 6a 86 19 00        	(arith) 	add	$0x19866a,%r12
  40b482:	f2 42 0f 10 14 e3           	(move)  	movsd	(%rbx,%r12,8),%xmm2
  40b488:	f2 0f 59 d0                 	(arith) 	mulsd	%xmm0,%xmm2
  40b48c:	f2 42 0f 11 14 e3           	(move)  	movsd	%xmm2,(%rbx,%r12,8)
/home/jgarcia/TFG/source_code/SP/z_solve.f:251
  40b492:	49 83 c3 05                 	(arith) 	add	$0x5,%r11
  40b496:	4b 8d bc 33 20 11 d1 30     	(arith) 	lea	0x30d11120(%r11,%r14,1),%rdi
  40b49e:	f2 0f 59 44 fd 00           	(arith) 	mulsd	(%rbp,%rdi,8),%xmm0
  40b4a4:	f2 0f 11 44 fd 00           	(move)  	movsd	%xmm0,(%rbp,%rdi,8)
/home/jgarcia/TFG/source_code/SP/z_solve.f:253
  40b4aa:	48 8d b8 6c 86 19 00        	(arith) 	lea	0x19866c(%rax),%rdi
  40b4b1:	4c 8d 88 6b 86 19 00        	(arith) 	lea	0x19866b(%rax),%r9
  40b4b8:	f2 42 0f 10 1c cb           	(move)  	movsd	(%rbx,%r9,8),%xmm3
  40b4be:	f2 0f 59 1c d3              	(arith) 	mulsd	(%rbx,%rdx,8),%xmm3
  40b4c3:	f2 0f 10 14 fb              	(move)  	movsd	(%rbx,%rdi,8),%xmm2
  40b4c8:	f2 0f 5c d3                 	(arith) 	subsd	%xmm3,%xmm2
  40b4cc:	f2 0f 11 14 fb              	(move)  	movsd	%xmm2,(%rbx,%rdi,8)
/home/jgarcia/TFG/source_code/SP/z_solve.f:255
  40b4d1:	48 05 6d 86 19 00           	(arith) 	add	$0x19866d,%rax
  40b4d7:	f2 42 0f 10 1c cb           	(move)  	movsd	(%rbx,%r9,8),%xmm3
  40b4dd:	f2 42 0f 59 1c e3           	(arith) 	mulsd	(%rbx,%r12,8),%xmm3
  40b4e3:	f2 0f 10 14 c3              	(move)  	movsd	(%rbx,%rax,8),%xmm2
  40b4e8:	f2 0f 5c d3                 	(arith) 	subsd	%xmm3,%xmm2
  40b4ec:	f2 0f 11 14 c3              	(move)  	movsd	%xmm2,(%rbx,%rax,8)
/home/jgarcia/TFG/source_code/SP/z_solve.f:257
  40b4f1:	4b 8d 84 3b 20 11 d1 30     	(arith) 	lea	0x30d11120(%r11,%r15,1),%rax
  40b4f9:	f2 42 0f 59 04 cb           	(arith) 	mulsd	(%rbx,%r9,8),%xmm0
  40b4ff:	f2 0f 10 54 c5 00           	(move)  	movsd	(%rbp,%rax,8),%xmm2
  40b505:	f2 0f 5c d0                 	(arith) 	subsd	%xmm0,%xmm2
  40b509:	f2 0f 11 54 c5 00           	(move)  	movsd	%xmm2,(%rbp,%rax,8)
/home/jgarcia/TFG/source_code/SP/z_solve.f:262
  40b50f:	f2 42 0f 10 44 c5 00        	(move)  	movsd	(%rbp,%r8,8),%xmm0
  40b516:	f2 0f 5e 04 f3              	(arith) 	divsd	(%rbx,%rsi,8),%xmm0
  40b51b:	f2 42 0f 11 44 c5 00        	(move)  	movsd	%xmm0,(%rbp,%r8,8)
/home/jgarcia/TFG/source_code/SP/z_solve.f:263
  40b522:	48 8b 54 24 40              	(move)  	mov	0x40(%rsp),%rdx
  40b527:	4a 8d 84 12 20 11 d1 30     	(arith) 	lea	0x30d11120(%rdx,%r10,1),%rax
  40b52f:	f2 0f 10 44 c5 00           	(move)  	movsd	(%rbp,%rax,8),%xmm0
  40b535:	f2 0f 5e 04 fb              	(arith) 	divsd	(%rbx,%rdi,8),%xmm0
  40b53a:	f2 0f 11 44 c5 00           	(move)  	movsd	%xmm0,(%rbp,%rax,8)
/home/jgarcia/TFG/source_code/SP/z_solve.f:235
  40b540:	39 4c 24 18                 	(arith) 	cmp	%ecx,0x18(%rsp)
  40b544:	0f 85 24 fe ff ff           	(control)	jne	40b36e <z_solve_+0xf5e>	; ↰ label 924 (loop 191)
; ------- Loop 191 exit
925:	
  40b54a:	4c 8b 54 24 28              	(move)  	mov	0x28(%rsp),%r10
/home/jgarcia/TFG/source_code/SP/z_solve.f:271
  40b54f:	8b 15 b3 45 20 00           	(move)  	mov	0x2045b3(%rip),%edx
  40b555:	8d 42 fe                    	(arith) 	lea	-0x2(%rdx),%eax
/home/jgarcia/TFG/source_code/SP/z_solve.f:272
  40b558:	83 ea 01                    	(arith) 	sub	$0x1,%edx
/home/jgarcia/TFG/source_code/SP/z_solve.f:273
  40b55b:	8b 0d ab 45 20 00           	(move)  	mov	0x2045ab(%rip),%ecx
  40b561:	89 4c 24 18                 	(move)  	mov	%ecx,0x18(%rsp)
  40b565:	85 c9                       	(arith) 	test	%ecx,%ecx
  40b567:	0f 8e 11 01 00 00           	(control)	jle	40b67e <z_solve_+0x126e>	; ↲ label 922
926:	
/home/jgarcia/TFG/source_code/SP/z_solve.f:276
  40b56d:	48 98                       	(conv)  	cltq
  40b56f:	4c 69 f0 35 c3 0c 00        	(arith) 	imul	$0xcc335,%rax,%r14
  40b576:	4d 8d 66 ff                 	(arith) 	lea	-0x1(%r14),%r12
  40b57a:	48 89 c1                    	(move)  	mov	%rax,%rcx
  40b57d:	48 c1 e1 09                 	(logic) 	sal	$0x9,%rcx
  40b581:	48 29 c1                    	(arith) 	sub	%rax,%rcx
  40b584:	48 8d 4c 88 03              	(arith) 	lea	0x3(%rax,%rcx,4),%rcx
  40b589:	48 89 4c 24 20              	(move)  	mov	%rcx,0x20(%rsp)
  40b58e:	4c 63 ea                    	(move)  	movsxd	%edx,%r13
  40b591:	4d 69 ed 35 c3 0c 00        	(arith) 	imul	$0xcc335,%r13,%r13
  40b598:	4d 8d 5d ff                 	(arith) 	lea	-0x1(%r13),%r11
  40b59c:	41 b9 01 00 00 00           	(move)  	mov	$0x1,%r9d
/home/jgarcia/TFG/source_code/SP/z_solve.f:5
  40b5a2:	49 bf 38 a1 1c 88 01 00 00 00	(move)  	mov	$0x1881ca138,%r15
; ------- Loop 193 entry
927 (loop 193):	
/home/jgarcia/TFG/source_code/SP/z_solve.f:276
  40b5ac:	49 63 c9                    	(move)  	movsxd	%r9d,%rcx
  40b5af:	48 8d 3c 89                 	(arith) 	lea	(%rcx,%rcx,4),%rdi
  40b5b3:	4d 8d 04 3a                 	(arith) 	lea	(%r10,%rdi,1),%r8
  40b5b7:	48 03 7c 24 20              	(arith) 	add	0x20(%rsp),%rdi
  40b5bc:	f2 0f 10 14 fb              	(move)  	movsd	(%rbx,%rdi,8),%xmm2
  40b5c1:	4b 8d 34 30                 	(arith) 	lea	(%r8,%r14,1),%rsi
  40b5c5:	48 8d 86 20 11 d1 30        	(arith) 	lea	0x30d11120(%rsi),%rax
  40b5cc:	48 8d 44 c5 00              	(arith) 	lea	(%rbp,%rax,8),%rax
  40b5d1:	4b 8d 94 05 20 11 d1 30     	(arith) 	lea	0x30d11120(%r13,%r8,1),%rdx
  40b5d9:	48 8d 54 d5 00              	(arith) 	lea	(%rbp,%rdx,8),%rdx
/home/jgarcia/TFG/source_code/SP/z_solve.f:5
  40b5de:	49 8d 34 f7                 	(arith) 	lea	(%r15,%rsi,8),%rsi
; ------- Loop 192 entry
928 (loop 192):	
/home/jgarcia/TFG/source_code/SP/z_solve.f:276
  40b5e2:	66 0f 28 ca                 	(move)  	movapd	%xmm2,%xmm1
  40b5e6:	f2 0f 59 0a                 	(arith) 	mulsd	(%rdx),%xmm1
  40b5ea:	f2 0f 10 00                 	(move)  	movsd	(%rax),%xmm0
  40b5ee:	f2 0f 5c c1                 	(arith) 	subsd	%xmm1,%xmm0
  40b5f2:	f2 0f 11 00                 	(move)  	movsd	%xmm0,(%rax)
  40b5f6:	48 83 c0 08                 	(arith) 	add	$0x8,%rax
  40b5fa:	48 83 c2 08                 	(arith) 	add	$0x8,%rdx
/home/jgarcia/TFG/source_code/SP/z_solve.f:274
  40b5fe:	48 39 f0                    	(arith) 	cmp	%rsi,%rax
  40b601:	75 df                       	(control)	jne	40b5e2 <z_solve_+0x11d2>	; ↰ label 928 (loop 192)
; ------- Loop 192 exit
929:	
/home/jgarcia/TFG/source_code/SP/z_solve.f:280
  40b603:	49 83 c0 04                 	(arith) 	add	$0x4,%r8
  40b607:	4b 8d 84 04 20 11 d1 30     	(arith) 	lea	0x30d11120(%r12,%r8,1),%rax
  40b60f:	4b 8d 94 03 20 11 d1 30     	(arith) 	lea	0x30d11120(%r11,%r8,1),%rdx
  40b617:	f2 0f 10 8c fb a8 19 66 00  	(move)  	movsd	0x6619a8(%rbx,%rdi,8),%xmm1
  40b620:	f2 0f 59 4c d5 00           	(arith) 	mulsd	(%rbp,%rdx,8),%xmm1
  40b626:	f2 0f 10 44 c5 00           	(move)  	movsd	(%rbp,%rax,8),%xmm0
  40b62c:	f2 0f 5c c1                 	(arith) 	subsd	%xmm1,%xmm0
  40b630:	f2 0f 11 44 c5 00           	(move)  	movsd	%xmm0,(%rbp,%rax,8)
/home/jgarcia/TFG/source_code/SP/z_solve.f:282
  40b636:	48 8d 54 89 05              	(arith) 	lea	0x5(%rcx,%rcx,4),%rdx
  40b63b:	49 8d 14 12                 	(arith) 	lea	(%r10,%rdx,1),%rdx
  40b63f:	49 8d 84 14 20 11 d1 30     	(arith) 	lea	0x30d11120(%r12,%rdx,1),%rax
  40b647:	49 8d 94 13 20 11 d1 30     	(arith) 	lea	0x30d11120(%r11,%rdx,1),%rdx
  40b64f:	f2 0f 10 8c fb 50 33 cc 00  	(move)  	movsd	0xcc3350(%rbx,%rdi,8),%xmm1
  40b658:	f2 0f 59 4c d5 00           	(arith) 	mulsd	(%rbp,%rdx,8),%xmm1
  40b65e:	f2 0f 10 44 c5 00           	(move)  	movsd	(%rbp,%rax,8),%xmm0
  40b664:	f2 0f 5c c1                 	(arith) 	subsd	%xmm1,%xmm0
  40b668:	f2 0f 11 44 c5 00           	(move)  	movsd	%xmm0,(%rbp,%rax,8)
/home/jgarcia/TFG/source_code/SP/z_solve.f:273
  40b66e:	44 3b 4c 24 18              	(arith) 	cmp	0x18(%rsp),%r9d
  40b673:	74 09                       	(control)	je	40b67e <z_solve_+0x126e>	; ↲ label 922
930:	
  40b675:	41 83 c1 01                 	(arith) 	add	$0x1,%r9d
  40b679:	e9 2e ff ff ff              	(control)	jmp	40b5ac <z_solve_+0x119c>	; ↰ label 927 (loop 193)
; ------- Loop 193 exit
922:	
/home/jgarcia/TFG/source_code/SP/z_solve.f:293
  40b67e:	8b 05 84 44 20 00           	(move)  	mov	0x204484(%rip),%eax
  40b684:	83 e8 03                    	(arith) 	sub	$0x3,%eax
  40b687:	89 44 24 48                 	(move)  	mov	%eax,0x48(%rsp)
  40b68b:	0f 88 0d 02 00 00           	(control)	js	40b89e <z_solve_+0x148e>	; ↲ label 931
932:	
/home/jgarcia/TFG/source_code/SP/z_solve.f:296
  40b691:	8b 35 75 44 20 00           	(move)  	mov	0x204475(%rip),%esi
  40b697:	89 74 24 30                 	(move)  	mov	%esi,0x30(%rsp)
/home/jgarcia/TFG/source_code/SP/z_solve.f:300
  40b69b:	48 63 44 24 68              	(move)  	movsxd	0x68(%rsp),%rax
  40b6a0:	48 89 c2                    	(move)  	mov	%rax,%rdx
  40b6a3:	48 c1 e2 09                 	(logic) 	sal	$0x9,%rdx
  40b6a7:	48 29 c2                    	(arith) 	sub	%rax,%rdx
  40b6aa:	4c 8d 3c 90                 	(arith) 	lea	(%rax,%rdx,4),%r15
; ------- Loop 188 entry
933 (loop 188):	
/home/jgarcia/TFG/source_code/SP/z_solve.f:5
  40b6ae:	8b 4c 24 48                 	(move)  	mov	0x48(%rsp),%ecx
  40b6b2:	83 c1 01                    	(arith) 	add	$0x1,%ecx
  40b6b5:	8b 54 24 48                 	(move)  	mov	0x48(%rsp),%edx
  40b6b9:	83 c2 02                    	(arith) 	add	$0x2,%edx
/home/jgarcia/TFG/source_code/SP/z_solve.f:296
  40b6bc:	83 7c 24 30 00              	(arith) 	cmpl	$0,0x30(%rsp)
  40b6c1:	0f 8e c6 01 00 00           	(control)	jle	40b88d <z_solve_+0x147d>	; ↲ label 934
935:	
/home/jgarcia/TFG/source_code/SP/z_solve.f:300
  40b6c7:	48 63 44 24 48              	(move)  	movsxd	0x48(%rsp),%rax
  40b6cc:	48 69 f8 35 c3 0c 00        	(arith) 	imul	$0xcc335,%rax,%rdi
  40b6d3:	48 89 7c 24 28              	(move)  	mov	%rdi,0x28(%rsp)
  40b6d8:	49 89 fe                    	(move)  	mov	%rdi,%r14
  40b6db:	49 83 ee 01                 	(arith) 	sub	$0x1,%r14
  40b6df:	48 89 c6                    	(move)  	mov	%rax,%rsi
  40b6e2:	48 c1 e6 09                 	(logic) 	sal	$0x9,%rsi
  40b6e6:	48 29 c6                    	(arith) 	sub	%rax,%rsi
  40b6e9:	48 8d 04 b0                 	(arith) 	lea	(%rax,%rsi,4),%rax
  40b6ed:	4c 8d 48 03                 	(arith) 	lea	0x3(%rax),%r9
  40b6f1:	4c 89 4c 24 40              	(move)  	mov	%r9,0x40(%rsp)
  40b6f6:	48 63 c9                    	(move)  	movsxd	%ecx,%rcx
  40b6f9:	48 69 c9 35 c3 0c 00        	(arith) 	imul	$0xcc335,%rcx,%rcx
  40b700:	48 89 4c 24 20              	(move)  	mov	%rcx,0x20(%rsp)
  40b705:	49 89 cd                    	(move)  	mov	%rcx,%r13
  40b708:	49 83 ed 01                 	(arith) 	sub	$0x1,%r13
  40b70c:	48 83 e8 01                 	(arith) 	sub	$0x1,%rax
  40b710:	48 89 44 24 38              	(move)  	mov	%rax,0x38(%rsp)
  40b715:	48 63 d2                    	(move)  	movsxd	%edx,%rdx
  40b718:	48 69 d2 35 c3 0c 00        	(arith) 	imul	$0xcc335,%rdx,%rdx
  40b71f:	48 89 54 24 18              	(move)  	mov	%rdx,0x18(%rsp)
  40b724:	49 89 d4                    	(move)  	mov	%rdx,%r12
  40b727:	49 83 ec 01                 	(arith) 	sub	$0x1,%r12
  40b72b:	41 ba 01 00 00 00           	(move)  	mov	$0x1,%r10d
; ------- Loop 190 entry
936 (loop 190):	
  40b731:	49 63 c2                    	(move)  	movsxd	%r10d,%rax
  40b734:	4c 8d 0c 80                 	(arith) 	lea	(%rax,%rax,4),%r9
  40b738:	4b 8d 34 39                 	(arith) 	lea	(%r9,%r15,1),%rsi
  40b73c:	4c 03 4c 24 40              	(arith) 	add	0x40(%rsp),%r9
  40b741:	f2 42 0f 10 1c cb           	(move)  	movsd	(%rbx,%r9,8),%xmm3
  40b747:	4c 8d 5c 80 05              	(arith) 	lea	0x5(%rax,%rax,4),%r11
  40b74c:	4c 8b 44 24 38              	(move)  	mov	0x38(%rsp),%r8
  40b751:	4f 8d 04 03                 	(arith) 	lea	(%r11,%r8,1),%r8
  40b755:	f2 42 0f 10 14 c3           	(move)  	movsd	(%rbx,%r8,8),%xmm2
  40b75b:	48 8b 7c 24 28              	(move)  	mov	0x28(%rsp),%rdi
  40b760:	48 8d 3c 3e                 	(arith) 	lea	(%rsi,%rdi,1),%rdi
  40b764:	48 8d 87 20 11 d1 30        	(arith) 	lea	0x30d11120(%rdi),%rax
  40b76b:	48 8d 44 c5 00              	(arith) 	lea	(%rbp,%rax,8),%rax
  40b770:	48 89 44 24 50              	(move)  	mov	%rax,0x50(%rsp)
  40b775:	48 8b 44 24 20              	(move)  	mov	0x20(%rsp),%rax
  40b77a:	48 8d 94 30 20 11 d1 30     	(arith) 	lea	0x30d11120(%rax,%rsi,1),%rdx
  40b782:	48 8d 4c d5 00              	(arith) 	lea	(%rbp,%rdx,8),%rcx
  40b787:	48 8b 44 24 18              	(move)  	mov	0x18(%rsp),%rax
  40b78c:	48 8d 94 30 20 11 d1 30     	(arith) 	lea	0x30d11120(%rax,%rsi,1),%rdx
  40b794:	48 8d 54 d5 00              	(arith) 	lea	(%rbp,%rdx,8),%rdx
/home/jgarcia/TFG/source_code/SP/z_solve.f:5
  40b799:	48 b8 38 a1 1c 88 01 00 00 00	(move)  	mov	$0x1881ca138,%rax
  40b7a3:	48 8d 3c f8                 	(arith) 	lea	(%rax,%rdi,8),%rdi
  40b7a7:	48 8b 44 24 50              	(move)  	mov	0x50(%rsp),%rax
; ------- Loop 189 entry
937 (loop 189):	
/home/jgarcia/TFG/source_code/SP/z_solve.f:300
  40b7ac:	66 0f 28 cb                 	(move)  	movapd	%xmm3,%xmm1
  40b7b0:	f2 0f 59 09                 	(arith) 	mulsd	(%rcx),%xmm1
  40b7b4:	f2 0f 10 00                 	(move)  	movsd	(%rax),%xmm0
  40b7b8:	f2 0f 5c c1                 	(arith) 	subsd	%xmm1,%xmm0
  40b7bc:	66 0f 28 ca                 	(move)  	movapd	%xmm2,%xmm1
  40b7c0:	f2 0f 59 0a                 	(arith) 	mulsd	(%rdx),%xmm1
  40b7c4:	f2 0f 5c c1                 	(arith) 	subsd	%xmm1,%xmm0
  40b7c8:	f2 0f 11 00                 	(move)  	movsd	%xmm0,(%rax)
  40b7cc:	48 83 c0 08                 	(arith) 	add	$0x8,%rax
  40b7d0:	48 83 c1 08                 	(arith) 	add	$0x8,%rcx
  40b7d4:	48 83 c2 08                 	(arith) 	add	$0x8,%rdx
/home/jgarcia/TFG/source_code/SP/z_solve.f:297
  40b7d8:	48 39 f8                    	(arith) 	cmp	%rdi,%rax
  40b7db:	75 cf                       	(control)	jne	40b7ac <z_solve_+0x139c>	; ↰ label 937 (loop 189)
; ------- Loop 189 exit
938:	
/home/jgarcia/TFG/source_code/SP/z_solve.f:308
  40b7dd:	48 83 c6 04                 	(arith) 	add	$0x4,%rsi
  40b7e1:	4a 8d 84 36 20 11 d1 30     	(arith) 	lea	0x30d11120(%rsi,%r14,1),%rax
  40b7e9:	4a 8d 94 2e 20 11 d1 30     	(arith) 	lea	0x30d11120(%rsi,%r13,1),%rdx
  40b7f1:	f2 42 0f 10 8c cb a8 19 66 00	(move)  	movsd	0x6619a8(%rbx,%r9,8),%xmm1
  40b7fb:	f2 0f 59 4c d5 00           	(arith) 	mulsd	(%rbp,%rdx,8),%xmm1
  40b801:	f2 0f 10 44 c5 00           	(move)  	movsd	(%rbp,%rax,8),%xmm0
  40b807:	f2 0f 5c c1                 	(arith) 	subsd	%xmm1,%xmm0
  40b80b:	4a 8d 94 26 20 11 d1 30     	(arith) 	lea	0x30d11120(%rsi,%r12,1),%rdx
  40b813:	f2 42 0f 10 8c c3 a8 19 66 00	(move)  	movsd	0x6619a8(%rbx,%r8,8),%xmm1
  40b81d:	f2 0f 59 4c d5 00           	(arith) 	mulsd	(%rbp,%rdx,8),%xmm1
  40b823:	f2 0f 5c c1                 	(arith) 	subsd	%xmm1,%xmm0
  40b827:	f2 0f 11 44 c5 00           	(move)  	movsd	%xmm0,(%rbp,%rax,8)
/home/jgarcia/TFG/source_code/SP/z_solve.f:311
  40b82d:	4f 8d 1c 1f                 	(arith) 	lea	(%r15,%r11,1),%r11
  40b831:	4b 8d 84 33 20 11 d1 30     	(arith) 	lea	0x30d11120(%r11,%r14,1),%rax
  40b839:	4b 8d 94 2b 20 11 d1 30     	(arith) 	lea	0x30d11120(%r11,%r13,1),%rdx
  40b841:	f2 42 0f 10 8c cb 50 33 cc 00	(move)  	movsd	0xcc3350(%rbx,%r9,8),%xmm1
  40b84b:	f2 0f 59 4c d5 00           	(arith) 	mulsd	(%rbp,%rdx,8),%xmm1
  40b851:	f2 0f 10 44 c5 00           	(move)  	movsd	(%rbp,%rax,8),%xmm0
  40b857:	f2 0f 5c c1                 	(arith) 	subsd	%xmm1,%xmm0
  40b85b:	4b 8d 94 23 20 11 d1 30     	(arith) 	lea	0x30d11120(%r11,%r12,1),%rdx
  40b863:	f2 42 0f 10 8c c3 50 33 cc 00	(move)  	movsd	0xcc3350(%rbx,%r8,8),%xmm1
  40b86d:	f2 0f 59 4c d5 00           	(arith) 	mulsd	(%rbp,%rdx,8),%xmm1
  40b873:	f2 0f 5c c1                 	(arith) 	subsd	%xmm1,%xmm0
  40b877:	f2 0f 11 44 c5 00           	(move)  	movsd	%xmm0,(%rbp,%rax,8)
/home/jgarcia/TFG/source_code/SP/z_solve.f:296
  40b87d:	44 3b 54 24 30              	(arith) 	cmp	0x30(%rsp),%r10d
  40b882:	74 09                       	(control)	je	40b88d <z_solve_+0x147d>	; ↲ label 934
939:	
  40b884:	41 83 c2 01                 	(arith) 	add	$0x1,%r10d
  40b888:	e9 a4 fe ff ff              	(control)	jmp	40b731 <z_solve_+0x1321>	; ↰ label 936 (loop 190)
; ------- Loop 190 exit
934:	
/home/jgarcia/TFG/source_code/SP/z_solve.f:293
  40b88d:	83 7c 24 48 00              	(arith) 	cmpl	$0,0x48(%rsp)
  40b892:	74 0a                       	(control)	je	40b89e <z_solve_+0x148e>	; ↲ label 931
940:	
  40b894:	83 6c 24 48 01              	(arith) 	subl	$0x1,0x48(%rsp)
  40b899:	e9 10 fe ff ff              	(control)	jmp	40b6ae <z_solve_+0x129e>	; ↰ label 933 (loop 188)
; ------- Loop 188 exit
931:	
/home/jgarcia/TFG/source_code/SP/z_solve.f:27
  40b89e:	8b 54 24 6c                 	(move)  	mov	0x6c(%rsp),%edx
  40b8a2:	39 54 24 68                 	(arith) 	cmp	%edx,0x68(%rsp)
  40b8a6:	74 0a                       	(control)	je	40b8b2 <z_solve_+0x14a2>	; ↲ label 851
941:	
  40b8a8:	83 44 24 68 01              	(arith) 	addl	$0x1,0x68(%rsp)
  40b8ad:	e9 b5 eb ff ff              	(control)	jmp	40a467 <z_solve_+0x57>	; ↰ label 853 (loop 187)
; ------- Loop 187 exit
851:	
/home/jgarcia/TFG/source_code/SP/z_solve.f:316
  40b8b2:	83 3d 5f 42 20 00 00        	(arith) 	cmpl	$0,0x20425f(%rip)
  40b8b9:	74 0f                       	(control)	je	40b8ca <z_solve_+0x14ba>	; ↲ label 942
943:	
  40b8bb:	bf 50 e5 40 00              	(move)  	mov	$0x40e550,%edi
  40b8c0:	b8 00 00 00 00              	(move)  	mov	$0,%eax
  40b8c5:	e8 41 27 00 00              	(control)	call	40e00b <timer_stop_>	; ⇄ timer_stop
942:	
/home/jgarcia/TFG/source_code/SP/z_solve.f:318
  40b8ca:	b8 00 00 00 00              	(move)  	mov	$0,%eax
  40b8cf:	e8 14 00 00 00              	(control)	call	40b8e8 <tzetar_>	; ⇄ tzetar
945:	
/home/jgarcia/TFG/source_code/SP/z_solve.f:321
  40b8d4:	48 81 c4 88 00 00 00        	(arith) 	add	$0x88,%rsp
  40b8db:	5b                          	(move)  	pop	%rbx
  40b8dc:	5d                          	(move)  	pop	%rbp
  40b8dd:	41 5c                       	(move)  	pop	%r12
  40b8df:	41 5d                       	(move)  	pop	%r13
  40b8e1:	41 5e                       	(move)  	pop	%r14
  40b8e3:	41 5f                       	(move)  	pop	%r15
  40b8e5:	c3                          	(control)	ret
946:	
/home/jgarcia/TFG/source_code/SP/tzetar.f:5
  40b8e6:	90                          	(other) 	nop
  40b8e7:	90                          	(other) 	nop


000000000040b8e8 <tzetar>:
944 (function tzetar_):	
/home/jgarcia/TFG/source_code/SP/tzetar.f:5
  40b8e8:	41 57                       	(move)  	push	%r15
  40b8ea:	41 56                       	(move)  	push	%r14
  40b8ec:	41 55                       	(move)  	push	%r13
  40b8ee:	41 54                       	(move)  	push	%r12
  40b8f0:	55                          	(move)  	push	%rbp
  40b8f1:	53                          	(move)  	push	%rbx
  40b8f2:	48 83 ec 48                 	(arith) 	sub	$0x48,%rsp
/home/jgarcia/TFG/source_code/SP/tzetar.f:21
  40b8f6:	83 3d 1b 42 20 00 00        	(arith) 	cmpl	$0,0x20421b(%rip)
  40b8fd:	74 0f                       	(control)	je	40b90e <tzetar_+0x26>	; ↲ label 947
948:	
  40b8ff:	bf 54 e5 40 00              	(move)  	mov	$0x40e554,%edi
  40b904:	b8 00 00 00 00              	(move)  	mov	$0,%eax
  40b909:	e8 29 27 00 00              	(control)	call	40e037 <timer_start_>	; ⇄ timer_start
947:	
/home/jgarcia/TFG/source_code/SP/tzetar.f:22
  40b90e:	8b 05 00 42 20 00           	(move)  	mov	0x204200(%rip),%eax
  40b914:	89 44 24 3c                 	(move)  	mov	%eax,0x3c(%rsp)
  40b918:	85 c0                       	(arith) 	test	%eax,%eax
  40b91a:	0f 8e 56 02 00 00           	(control)	jle	40bb76 <tzetar_+0x28e>	; ↲ label 949
950:	
/home/jgarcia/TFG/source_code/SP/tzetar.f:23
  40b920:	8b 15 ea 41 20 00           	(move)  	mov	0x2041ea(%rip),%edx
  40b926:	89 54 24 24                 	(move)  	mov	%edx,0x24(%rsp)
/home/jgarcia/TFG/source_code/SP/tzetar.f:24
  40b92a:	44 8b 15 db 41 20 00        	(move)  	mov	0x2041db(%rip),%r10d
  40b931:	44 89 54 24 14              	(move)  	mov	%r10d,0x14(%rsp)
/home/jgarcia/TFG/source_code/SP/tzetar.f:40
  40b936:	f2 44 0f 10 2d 29 41 20 00  	(move)  	movsd	0x204129(%rip),%xmm13
/home/jgarcia/TFG/source_code/SP/tzetar.f:51
  40b93f:	f2 44 0f 10 25 a0 41 20 00  	(move)  	movsd	0x2041a0(%rip),%xmm12
  40b948:	c7 44 24 38 01 00 00 00     	(move)  	movl	$0x1,0x38(%rsp)
/home/jgarcia/TFG/source_code/SP/tzetar.f:26
  40b950:	48 b8 20 18 94 01 00 00 00 00	(move)  	mov	$0x1941820,%rax
; ------- Loop 212 entry
951 (loop 212):	
/home/jgarcia/TFG/source_code/SP/tzetar.f:23
  40b95a:	83 7c 24 24 00              	(arith) 	cmpl	$0,0x24(%rsp)
  40b95f:	0f 8e fb 01 00 00           	(control)	jle	40bb60 <tzetar_+0x278>	; ↲ label 952
953:	
/home/jgarcia/TFG/source_code/SP/tzetar.f:26
  40b965:	4c 63 6c 24 38              	(move)  	movsxd	0x38(%rsp),%r13
  40b96a:	49 69 d5 71 8d 02 00        	(arith) 	imul	$0x28d71,%r13,%rdx
  40b971:	48 89 54 24 30              	(move)  	mov	%rdx,0x30(%rsp)
/home/jgarcia/TFG/source_code/SP/tzetar.f:33
  40b976:	4d 69 ed 35 c3 0c 00        	(arith) 	imul	$0xcc335,%r13,%r13
/home/jgarcia/TFG/source_code/SP/tzetar.f:34
  40b97d:	4d 8d 7d 01                 	(arith) 	lea	0x1(%r13),%r15
/home/jgarcia/TFG/source_code/SP/tzetar.f:35
  40b981:	4d 8d 75 02                 	(arith) 	lea	0x2(%r13),%r14
/home/jgarcia/TFG/source_code/SP/tzetar.f:36
  40b985:	4d 8d 55 03                 	(arith) 	lea	0x3(%r13),%r10
  40b989:	4c 89 54 24 18              	(move)  	mov	%r10,0x18(%rsp)
/home/jgarcia/TFG/source_code/SP/tzetar.f:37
  40b98e:	49 8d 55 ff                 	(arith) 	lea	-0x1(%r13),%rdx
  40b992:	48 89 54 24 28              	(move)  	mov	%rdx,0x28(%rsp)
  40b997:	c7 44 24 20 01 00 00 00     	(move)  	movl	$0x1,0x20(%rsp)
; ------- Loop 213 entry
954 (loop 213):	
/home/jgarcia/TFG/source_code/SP/tzetar.f:24
  40b99f:	83 7c 24 14 00              	(arith) 	cmpl	$0,0x14(%rsp)
  40b9a4:	0f 8e a2 01 00 00           	(control)	jle	40bb4c <tzetar_+0x264>	; ↲ label 955
956:	
/home/jgarcia/TFG/source_code/SP/tzetar.f:26
  40b9aa:	48 63 54 24 20              	(move)  	movsxd	0x20(%rsp),%rdx
  40b9af:	4c 69 e2 99 01 00 00        	(arith) 	imul	$0x199,%rdx,%r12
  40b9b6:	4c 03 64 24 30              	(arith) 	add	0x30(%rsp),%r12
/home/jgarcia/TFG/source_code/SP/tzetar.f:33
  40b9bb:	48 89 d1                    	(move)  	mov	%rdx,%rcx
  40b9be:	48 c1 e1 09                 	(logic) 	sal	$0x9,%rcx
  40b9c2:	48 29 d1                    	(arith) 	sub	%rdx,%rcx
  40b9c5:	4c 8d 14 8a                 	(arith) 	lea	(%rdx,%rcx,4),%r10
/home/jgarcia/TFG/source_code/SP/tzetar.f:37
  40b9c9:	4c 8b 5c 24 28              	(move)  	mov	0x28(%rsp),%r11
  40b9ce:	4f 8d 1c 1a                 	(arith) 	lea	(%r10,%r11,1),%r11
  40b9d2:	be 00 00 00 00              	(move)  	mov	$0,%esi
  40b9d7:	4c 89 54 24 08              	(move)  	mov	%r10,0x8(%rsp)
; ------- Loop 214 entry
957 (loop 214):	
/home/jgarcia/TFG/source_code/SP/tzetar.f:5
  40b9dc:	83 c6 01                    	(arith) 	add	$0x1,%esi
/home/jgarcia/TFG/source_code/SP/tzetar.f:26
  40b9df:	48 63 ce                    	(move)  	movsxd	%esi,%rcx
  40b9e2:	4a 8d 14 21                 	(arith) 	lea	(%rcx,%r12,1),%rdx
  40b9e6:	48 8d 9a 78 1c 57 14        	(arith) 	lea	0x14571c78(%rdx),%rbx
  40b9ed:	f2 0f 10 3c d8              	(move)  	movsd	(%rax,%rbx,8),%xmm7
/home/jgarcia/TFG/source_code/SP/tzetar.f:27
  40b9f2:	48 8d 9a 90 88 68 18        	(arith) 	lea	0x18688890(%rdx),%rbx
  40b9f9:	f2 44 0f 10 0c d8           	(move)  	movsd	(%rax,%rbx,8),%xmm9
/home/jgarcia/TFG/source_code/SP/tzetar.f:28
  40b9ff:	48 8d 9a a8 f4 79 1c        	(arith) 	lea	0x1c79f4a8(%rdx),%rbx
  40ba06:	f2 0f 10 24 d8              	(move)  	movsd	(%rax,%rbx,8),%xmm4
/home/jgarcia/TFG/source_code/SP/tzetar.f:29
  40ba0b:	48 8d 9a f0 38 ae 28        	(arith) 	lea	0x28ae38f0(%rdx),%rbx
  40ba12:	f2 0f 10 14 d8              	(move)  	movsd	(%rax,%rbx,8),%xmm2
/home/jgarcia/TFG/source_code/SP/tzetar.f:33
  40ba17:	48 8d 1c 89                 	(arith) 	lea	(%rcx,%rcx,4),%rbx
  40ba1b:	48 03 5c 24 08              	(arith) 	add	0x8(%rsp),%rbx
  40ba20:	4e 8d 0c 2b                 	(arith) 	lea	(%rbx,%r13,1),%r9
  40ba24:	4d 8d 81 20 11 d1 30        	(arith) 	lea	0x30d11120(%r9),%r8
  40ba2b:	f2 46 0f 10 04 c0           	(move)  	movsd	(%rax,%r8,8),%xmm8
/home/jgarcia/TFG/source_code/SP/tzetar.f:34
  40ba31:	49 8d ac 1f 20 11 d1 30     	(arith) 	lea	0x30d11120(%r15,%rbx,1),%rbp
  40ba39:	f2 0f 10 34 e8              	(move)  	movsd	(%rax,%rbp,8),%xmm6
/home/jgarcia/TFG/source_code/SP/tzetar.f:36
  40ba3e:	4c 8b 54 24 18              	(move)  	mov	0x18(%rsp),%r10
  40ba43:	49 8d bc 1a 20 11 d1 30     	(arith) 	lea	0x30d11120(%r10,%rbx,1),%rdi
  40ba4b:	f2 0f 10 1c f8              	(move)  	movsd	(%rax,%rdi,8),%xmm3
/home/jgarcia/TFG/source_code/SP/tzetar.f:37
  40ba50:	48 8d 4c 89 05              	(arith) 	lea	0x5(%rcx,%rcx,4),%rcx
  40ba55:	49 8d 8c 0b 20 11 d1 30     	(arith) 	lea	0x30d11120(%r11,%rcx,1),%rcx
  40ba5d:	f2 44 0f 10 1c c8           	(move)  	movsd	(%rax,%rcx,8),%xmm11
/home/jgarcia/TFG/source_code/SP/tzetar.f:39
  40ba63:	f2 42 0f 10 0c c8           	(move)  	movsd	(%rax,%r9,8),%xmm1
/home/jgarcia/TFG/source_code/SP/tzetar.f:40
  40ba69:	66 45 0f 28 d5              	(move)  	movapd	%xmm13,%xmm10
  40ba6e:	f2 44 0f 59 d1              	(arith) 	mulsd	%xmm1,%xmm10
/home/jgarcia/TFG/source_code/SP/tzetar.f:42
  40ba73:	66 41 0f 28 ea              	(move)  	movapd	%xmm10,%xmm5
  40ba78:	f2 0f 5e ea                 	(arith) 	divsd	%xmm2,%xmm5
  40ba7c:	66 0f 28 c3                 	(move)  	movapd	%xmm3,%xmm0
  40ba80:	f2 41 0f 58 c3              	(arith) 	addsd	%xmm11,%xmm0
  40ba85:	f2 0f 59 e8                 	(arith) 	mulsd	%xmm0,%xmm5
/home/jgarcia/TFG/source_code/SP/tzetar.f:43
  40ba89:	49 8d 9c 1e 20 11 d1 30     	(arith) 	lea	0x30d11120(%r14,%rbx,1),%rbx
  40ba91:	66 0f 28 c5                 	(move)  	movapd	%xmm5,%xmm0
  40ba95:	f2 0f 58 04 d8              	(arith) 	addsd	(%rax,%rbx,8),%xmm0
/home/jgarcia/TFG/source_code/SP/tzetar.f:44
  40ba9a:	f2 41 0f 5c db              	(arith) 	subsd	%xmm11,%xmm3
  40ba9f:	f2 41 0f 59 da              	(arith) 	mulsd	%xmm10,%xmm3
/home/jgarcia/TFG/source_code/SP/tzetar.f:46
  40baa4:	f2 42 0f 11 04 c0           	(move)  	movsd	%xmm0,(%rax,%r8,8)
/home/jgarcia/TFG/source_code/SP/tzetar.f:47
  40baaa:	66 44 0f 28 d7              	(move)  	movapd	%xmm7,%xmm10
  40baaf:	f2 44 0f 59 d0              	(arith) 	mulsd	%xmm0,%xmm10
  40bab4:	66 44 0f 28 d9              	(move)  	movapd	%xmm1,%xmm11
  40bab9:	f2 44 0f 59 de              	(arith) 	mulsd	%xmm6,%xmm11
  40babe:	f2 45 0f 5c d3              	(arith) 	subsd	%xmm11,%xmm10
  40bac3:	f2 44 0f 11 14 e8           	(move)  	movsd	%xmm10,(%rax,%rbp,8)
/home/jgarcia/TFG/source_code/SP/tzetar.f:48
  40bac9:	66 44 0f 28 d9              	(move)  	movapd	%xmm1,%xmm11
  40bace:	f2 45 0f 59 d8              	(arith) 	mulsd	%xmm8,%xmm11
  40bad3:	66 45 0f 28 d1              	(move)  	movapd	%xmm9,%xmm10
  40bad8:	f2 44 0f 59 d0              	(arith) 	mulsd	%xmm0,%xmm10
  40badd:	f2 45 0f 58 d3              	(arith) 	addsd	%xmm11,%xmm10
  40bae2:	f2 44 0f 11 14 d8           	(move)  	movsd	%xmm10,(%rax,%rbx,8)
/home/jgarcia/TFG/source_code/SP/tzetar.f:49
  40bae8:	66 44 0f 28 d4              	(move)  	movapd	%xmm4,%xmm10
  40baed:	f2 44 0f 59 d0              	(arith) 	mulsd	%xmm0,%xmm10
  40baf2:	f2 44 0f 58 d3              	(arith) 	addsd	%xmm3,%xmm10
  40baf7:	f2 44 0f 11 14 f8           	(move)  	movsd	%xmm10,(%rax,%rdi,8)
/home/jgarcia/TFG/source_code/SP/tzetar.f:51
  40bafd:	f2 45 0f 59 c1              	(arith) 	mulsd	%xmm9,%xmm8
  40bb02:	f2 0f 59 f7                 	(arith) 	mulsd	%xmm7,%xmm6
  40bb06:	f2 44 0f 5c c6              	(arith) 	subsd	%xmm6,%xmm8
  40bb0b:	f2 41 0f 59 c8              	(arith) 	mulsd	%xmm8,%xmm1
  40bb10:	48 81 c2 c0 60 8b 20        	(arith) 	add	$0x208b60c0,%rdx
  40bb17:	f2 0f 59 04 d0              	(arith) 	mulsd	(%rax,%rdx,8),%xmm0
  40bb1c:	f2 0f 58 c8                 	(arith) 	addsd	%xmm0,%xmm1
  40bb20:	f2 0f 59 d2                 	(arith) 	mulsd	%xmm2,%xmm2
  40bb24:	f2 41 0f 59 d4              	(arith) 	mulsd	%xmm12,%xmm2
  40bb29:	f2 0f 59 ea                 	(arith) 	mulsd	%xmm2,%xmm5
  40bb2d:	f2 0f 58 e9                 	(arith) 	addsd	%xmm1,%xmm5
  40bb31:	f2 0f 59 e3                 	(arith) 	mulsd	%xmm3,%xmm4
  40bb35:	66 0f 28 dd                 	(move)  	movapd	%xmm5,%xmm3
  40bb39:	f2 0f 58 dc                 	(arith) 	addsd	%xmm4,%xmm3
  40bb3d:	f2 0f 11 1c c8              	(move)  	movsd	%xmm3,(%rax,%rcx,8)
/home/jgarcia/TFG/source_code/SP/tzetar.f:24
  40bb42:	39 74 24 14                 	(arith) 	cmp	%esi,0x14(%rsp)
  40bb46:	0f 85 90 fe ff ff           	(control)	jne	40b9dc <tzetar_+0xf4>	; ↰ label 957 (loop 214)
; ------- Loop 214 exit
955:	
/home/jgarcia/TFG/source_code/SP/tzetar.f:23
  40bb4c:	8b 54 24 24                 	(move)  	mov	0x24(%rsp),%edx
  40bb50:	39 54 24 20                 	(arith) 	cmp	%edx,0x20(%rsp)
  40bb54:	74 0a                       	(control)	je	40bb60 <tzetar_+0x278>	; ↲ label 952
958:	
  40bb56:	83 44 24 20 01              	(arith) 	addl	$0x1,0x20(%rsp)
  40bb5b:	e9 3f fe ff ff              	(control)	jmp	40b99f <tzetar_+0xb7>	; ↰ label 954 (loop 213)
; ------- Loop 213 exit
952:	
/home/jgarcia/TFG/source_code/SP/tzetar.f:22
  40bb60:	44 8b 54 24 3c              	(move)  	mov	0x3c(%rsp),%r10d
  40bb65:	44 39 54 24 38              	(arith) 	cmp	%r10d,0x38(%rsp)
  40bb6a:	74 0a                       	(control)	je	40bb76 <tzetar_+0x28e>	; ↲ label 949
959:	
  40bb6c:	83 44 24 38 01              	(arith) 	addl	$0x1,0x38(%rsp)
  40bb71:	e9 e4 fd ff ff              	(control)	jmp	40b95a <tzetar_+0x72>	; ↰ label 951 (loop 212)
; ------- Loop 212 exit
949:	
/home/jgarcia/TFG/source_code/SP/tzetar.f:56
  40bb76:	83 3d 9b 3f 20 00 00        	(arith) 	cmpl	$0,0x203f9b(%rip)
  40bb7d:	74 0f                       	(control)	je	40bb8e <tzetar_+0x2a6>	; ↲ label 960
961:	
  40bb7f:	bf 54 e5 40 00              	(move)  	mov	$0x40e554,%edi
  40bb84:	b8 00 00 00 00              	(move)  	mov	$0,%eax
  40bb89:	e8 7d 24 00 00              	(control)	call	40e00b <timer_stop_>	; ⇄ timer_stop
960:	
/home/jgarcia/TFG/source_code/SP/tzetar.f:59
  40bb8e:	48 83 c4 48                 	(arith) 	add	$0x48,%rsp
  40bb92:	5b                          	(move)  	pop	%rbx
  40bb93:	5d                          	(move)  	pop	%rbp
  40bb94:	41 5c                       	(move)  	pop	%r12
  40bb96:	41 5d                       	(move)  	pop	%r13
  40bb98:	41 5e                       	(move)  	pop	%r14
  40bb9a:	41 5f                       	(move)  	pop	%r15
  40bb9c:	c3                          	(control)	ret
962:	
/home/jgarcia/TFG/source_code/SP/add.f:5
  40bb9d:	90                          	(other) 	nop
  40bb9e:	90                          	(other) 	nop
  40bb9f:	90                          	(other) 	nop


000000000040bba0 <add>:
417 (function add_):	
/home/jgarcia/TFG/source_code/SP/add.f:5
  40bba0:	41 57                       	(move)  	push	%r15
  40bba2:	41 56                       	(move)  	push	%r14
  40bba4:	41 55                       	(move)  	push	%r13
  40bba6:	41 54                       	(move)  	push	%r12
  40bba8:	55                          	(move)  	push	%rbp
  40bba9:	53                          	(move)  	push	%rbx
  40bbaa:	48 83 ec 08                 	(arith) 	sub	$0x8,%rsp
/home/jgarcia/TFG/source_code/SP/add.f:18
  40bbae:	83 3d 63 3f 20 00 00        	(arith) 	cmpl	$0,0x203f63(%rip)
  40bbb5:	74 0f                       	(control)	je	40bbc6 <add_+0x26>	; ↲ label 963
964:	
  40bbb7:	bf 58 e5 40 00              	(move)  	mov	$0x40e558,%edi
  40bbbc:	b8 00 00 00 00              	(move)  	mov	$0,%eax
  40bbc1:	e8 71 24 00 00              	(control)	call	40e037 <timer_start_>	; ⇄ timer_start
963:	
/home/jgarcia/TFG/source_code/SP/add.f:19
  40bbc6:	44 8b 35 47 3f 20 00        	(move)  	mov	0x203f47(%rip),%r14d
  40bbcd:	45 85 f6                    	(arith) 	test	%r14d,%r14d
  40bbd0:	0f 8e ae 00 00 00           	(control)	jle	40bc84 <add_+0xe4>	; ↲ label 965
966:	
/home/jgarcia/TFG/source_code/SP/add.f:20
  40bbd6:	8b 1d 34 3f 20 00           	(move)  	mov	0x203f34(%rip),%ebx
/home/jgarcia/TFG/source_code/SP/add.f:21
  40bbdc:	8b 3d 2a 3f 20 00           	(move)  	mov	0x203f2a(%rip),%edi
  40bbe2:	41 bd 01 00 00 00           	(move)  	mov	$0x1,%r13d
/home/jgarcia/TFG/source_code/SP/add.f:23
  40bbe8:	41 bf 01 00 00 00           	(move)  	mov	$0x1,%r15d
  40bbee:	49 ba 20 18 94 01 00 00 00 00	(move)  	mov	$0x1941820,%r10
  40bbf8:	48 b9 00 89 88 86 01 00 00 00	(move)  	mov	$0x186888900,%rcx
  40bc02:	45 89 fc                    	(move)  	mov	%r15d,%r12d
  40bc05:	45 89 f9                    	(move)  	mov	%r15d,%r9d
; ------- Loop 215 entry
967 (loop 215):	
/home/jgarcia/TFG/source_code/SP/add.f:20
  40bc08:	85 db                       	(arith) 	test	%ebx,%ebx
  40bc0a:	7e 6d                       	(control)	jle	40bc79 <add_+0xd9>	; ↲ label 968
969:	
/home/jgarcia/TFG/source_code/SP/add.f:23
  40bc0c:	49 63 ed                    	(move)  	movsxd	%r13d,%rbp
  40bc0f:	48 69 ed 35 c3 0c 00        	(arith) 	imul	$0xcc335,%rbp,%rbp
  40bc16:	48 83 ed 01                 	(arith) 	sub	$0x1,%rbp
  40bc1a:	45 89 fb                    	(move)  	mov	%r15d,%r11d
; ------- Loop 216 entry
970 (loop 216):	
/home/jgarcia/TFG/source_code/SP/add.f:21
  40bc1d:	85 ff                       	(arith) 	test	%edi,%edi
  40bc1f:	7e 4d                       	(control)	jle	40bc6e <add_+0xce>	; ↲ label 971
972:	
/home/jgarcia/TFG/source_code/SP/add.f:23
  40bc21:	49 63 c3                    	(move)  	movsxd	%r11d,%rax
  40bc24:	48 89 c2                    	(move)  	mov	%rax,%rdx
  40bc27:	48 c1 e2 09                 	(logic) 	sal	$0x9,%rdx
  40bc2b:	48 29 c2                    	(arith) 	sub	%rax,%rdx
  40bc2e:	48 8d 04 90                 	(arith) 	lea	(%rax,%rdx,4),%rax
  40bc32:	44 89 e6                    	(move)  	mov	%r12d,%esi
  40bc35:	4c 8d 44 05 01              	(arith) 	lea	0x1(%rbp,%rax,1),%r8
; ------- Loop 218 entry
973 (loop 218):	
  40bc3a:	48 63 c6                    	(move)  	movsxd	%esi,%rax
  40bc3d:	48 8d 04 80                 	(arith) 	lea	(%rax,%rax,4),%rax
  40bc41:	49 8d 04 00                 	(arith) 	lea	(%r8,%rax,1),%rax
  40bc45:	49 8d 04 c2                 	(arith) 	lea	(%r10,%rax,8),%rax
  40bc49:	44 89 ca                    	(move)  	mov	%r9d,%edx
; ------- Loop 217 entry
974 (loop 217):	
  40bc4c:	f2 0f 10 00                 	(move)  	movsd	(%rax),%xmm0
  40bc50:	f2 0f 58 04 08              	(arith) 	addsd	(%rax,%rcx,1),%xmm0
  40bc55:	f2 0f 11 00                 	(move)  	movsd	%xmm0,(%rax)
/home/jgarcia/TFG/source_code/SP/add.f:22
  40bc59:	83 c2 01                    	(arith) 	add	$0x1,%edx
  40bc5c:	48 83 c0 08                 	(arith) 	add	$0x8,%rax
  40bc60:	83 fa 06                    	(arith) 	cmp	$0x6,%edx
  40bc63:	75 e7                       	(control)	jne	40bc4c <add_+0xac>	; ↰ label 974 (loop 217)
; ------- Loop 217 exit
975:	
/home/jgarcia/TFG/source_code/SP/add.f:21
  40bc65:	39 fe                       	(arith) 	cmp	%edi,%esi
  40bc67:	74 05                       	(control)	je	40bc6e <add_+0xce>	; ↲ label 971
976:	
  40bc69:	83 c6 01                    	(arith) 	add	$0x1,%esi
  40bc6c:	eb cc                       	(control)	jmp	40bc3a <add_+0x9a>	; ↰ label 973 (loop 218)
; ------- Loop 218 exit
971:	
/home/jgarcia/TFG/source_code/SP/add.f:20
  40bc6e:	41 39 db                    	(arith) 	cmp	%ebx,%r11d
  40bc71:	74 06                       	(control)	je	40bc79 <add_+0xd9>	; ↲ label 968
977:	
  40bc73:	41 83 c3 01                 	(arith) 	add	$0x1,%r11d
  40bc77:	eb a4                       	(control)	jmp	40bc1d <add_+0x7d>	; ↰ label 970 (loop 216)
; ------- Loop 216 exit
968:	
/home/jgarcia/TFG/source_code/SP/add.f:19
  40bc79:	45 39 f5                    	(arith) 	cmp	%r14d,%r13d
  40bc7c:	74 06                       	(control)	je	40bc84 <add_+0xe4>	; ↲ label 965
978:	
  40bc7e:	41 83 c5 01                 	(arith) 	add	$0x1,%r13d
  40bc82:	eb 84                       	(control)	jmp	40bc08 <add_+0x68>	; ↰ label 967 (loop 215)
; ------- Loop 215 exit
965:	
/home/jgarcia/TFG/source_code/SP/add.f:28
  40bc84:	83 3d 8d 3e 20 00 00        	(arith) 	cmpl	$0,0x203e8d(%rip)
  40bc8b:	74 0f                       	(control)	je	40bc9c <add_+0xfc>	; ↲ label 979
980:	
  40bc8d:	bf 58 e5 40 00              	(move)  	mov	$0x40e558,%edi
  40bc92:	b8 00 00 00 00              	(move)  	mov	$0,%eax
  40bc97:	e8 6f 23 00 00              	(control)	call	40e00b <timer_stop_>	; ⇄ timer_stop
979:	
/home/jgarcia/TFG/source_code/SP/add.f:31
  40bc9c:	48 83 c4 08                 	(arith) 	add	$0x8,%rsp
  40bca0:	5b                          	(move)  	pop	%rbx
  40bca1:	5d                          	(move)  	pop	%rbp
  40bca2:	41 5c                       	(move)  	pop	%r12
  40bca4:	41 5d                       	(move)  	pop	%r13
  40bca6:	41 5e                       	(move)  	pop	%r14
  40bca8:	41 5f                       	(move)  	pop	%r15
  40bcaa:	c3                          	(control)	ret
981:	
/home/jgarcia/TFG/source_code/SP/txinvr.f:5
  40bcab:	90                          	(other) 	nop


000000000040bcac <txinvr>:
409 (function txinvr_):	
/home/jgarcia/TFG/source_code/SP/txinvr.f:5
  40bcac:	41 57                       	(move)  	push	%r15
  40bcae:	41 56                       	(move)  	push	%r14
  40bcb0:	41 55                       	(move)  	push	%r13
  40bcb2:	41 54                       	(move)  	push	%r12
  40bcb4:	55                          	(move)  	push	%rbp
  40bcb5:	53                          	(move)  	push	%rbx
  40bcb6:	48 83 ec 38                 	(arith) 	sub	$0x38,%rsp
/home/jgarcia/TFG/source_code/SP/txinvr.f:21
  40bcba:	83 3d 57 3e 20 00 00        	(arith) 	cmpl	$0,0x203e57(%rip)
  40bcc1:	74 0f                       	(control)	je	40bcd2 <txinvr_+0x26>	; ↲ label 982
983:	
  40bcc3:	bf 5c e5 40 00              	(move)  	mov	$0x40e55c,%edi
  40bcc8:	b8 00 00 00 00              	(move)  	mov	$0,%eax
  40bccd:	e8 65 23 00 00              	(control)	call	40e037 <timer_start_>	; ⇄ timer_start
982:	
/home/jgarcia/TFG/source_code/SP/txinvr.f:22
  40bcd2:	8b 05 3c 3e 20 00           	(move)  	mov	0x203e3c(%rip),%eax
  40bcd8:	89 44 24 2c                 	(move)  	mov	%eax,0x2c(%rsp)
  40bcdc:	85 c0                       	(arith) 	test	%eax,%eax
  40bcde:	0f 8e 55 02 00 00           	(control)	jle	40bf39 <txinvr_+0x28d>	; ↲ label 984
985:	
/home/jgarcia/TFG/source_code/SP/txinvr.f:23
  40bce4:	8b 15 26 3e 20 00           	(move)  	mov	0x203e26(%rip),%edx
  40bcea:	89 54 24 14                 	(move)  	mov	%edx,0x14(%rsp)
/home/jgarcia/TFG/source_code/SP/txinvr.f:24
  40bcee:	8b 05 18 3e 20 00           	(move)  	mov	0x203e18(%rip),%eax
  40bcf4:	89 44 24 0c                 	(move)  	mov	%eax,0xc(%rsp)
/home/jgarcia/TFG/source_code/SP/txinvr.f:40
  40bcf8:	f2 44 0f 10 2d 27 3d 20 00  	(move)  	movsd	0x203d27(%rip),%xmm13
/home/jgarcia/TFG/source_code/SP/txinvr.f:41
  40bd01:	f2 44 0f 10 25 5e 3d 20 00  	(move)  	movsd	0x203d5e(%rip),%xmm12
  40bd0a:	c7 44 24 28 01 00 00 00     	(move)  	movl	$0x1,0x28(%rsp)
/home/jgarcia/TFG/source_code/SP/txinvr.f:26
  40bd12:	48 b8 20 18 94 01 00 00 00 00	(move)  	mov	$0x1941820,%rax
/home/jgarcia/TFG/source_code/SP/txinvr.f:45
  40bd1c:	f2 44 0f 10 1d bb 27 00 00  	(move)  	movsd	0x27bb(%rip),%xmm11
; ------- Loop 219 entry
986 (loop 219):	
/home/jgarcia/TFG/source_code/SP/txinvr.f:23
  40bd25:	83 7c 24 14 00              	(arith) 	cmpl	$0,0x14(%rsp)
  40bd2a:	0f 8e f5 01 00 00           	(control)	jle	40bf25 <txinvr_+0x279>	; ↲ label 987
988:	
/home/jgarcia/TFG/source_code/SP/txinvr.f:26
  40bd30:	4c 63 64 24 28              	(move)  	movsxd	0x28(%rsp),%r12
  40bd35:	49 69 d4 71 8d 02 00        	(arith) 	imul	$0x28d71,%r12,%rdx
  40bd3c:	48 89 54 24 20              	(move)  	mov	%rdx,0x20(%rsp)
/home/jgarcia/TFG/source_code/SP/txinvr.f:33
  40bd41:	4d 69 e4 35 c3 0c 00        	(arith) 	imul	$0xcc335,%r12,%r12
/home/jgarcia/TFG/source_code/SP/txinvr.f:34
  40bd48:	4d 8d 7c 24 01              	(arith) 	lea	0x1(%r12),%r15
/home/jgarcia/TFG/source_code/SP/txinvr.f:35
  40bd4d:	4d 8d 74 24 02              	(arith) 	lea	0x2(%r12),%r14
/home/jgarcia/TFG/source_code/SP/txinvr.f:36
  40bd52:	4d 8d 6c 24 03              	(arith) 	lea	0x3(%r12),%r13
/home/jgarcia/TFG/source_code/SP/txinvr.f:37
  40bd57:	49 8d 54 24 ff              	(arith) 	lea	-0x1(%r12),%rdx
  40bd5c:	48 89 54 24 18              	(move)  	mov	%rdx,0x18(%rsp)
  40bd61:	c7 44 24 10 01 00 00 00     	(move)  	movl	$0x1,0x10(%rsp)
; ------- Loop 220 entry
989 (loop 220):	
/home/jgarcia/TFG/source_code/SP/txinvr.f:24
  40bd69:	83 7c 24 0c 00              	(arith) 	cmpl	$0,0xc(%rsp)
  40bd6e:	0f 8e 9d 01 00 00           	(control)	jle	40bf11 <txinvr_+0x265>	; ↲ label 990
991:	
/home/jgarcia/TFG/source_code/SP/txinvr.f:26
  40bd74:	48 63 54 24 10              	(move)  	movsxd	0x10(%rsp),%rdx
  40bd79:	4c 69 da 99 01 00 00        	(arith) 	imul	$0x199,%rdx,%r11
  40bd80:	4c 03 5c 24 20              	(arith) 	add	0x20(%rsp),%r11
/home/jgarcia/TFG/source_code/SP/txinvr.f:33
  40bd85:	48 89 d1                    	(move)  	mov	%rdx,%rcx
  40bd88:	48 c1 e1 09                 	(logic) 	sal	$0x9,%rcx
  40bd8c:	48 29 d1                    	(arith) 	sub	%rdx,%rcx
  40bd8f:	4c 8d 0c 8a                 	(arith) 	lea	(%rdx,%rcx,4),%r9
/home/jgarcia/TFG/source_code/SP/txinvr.f:37
  40bd93:	4c 8b 54 24 18              	(move)  	mov	0x18(%rsp),%r10
  40bd98:	4f 8d 14 11                 	(arith) 	lea	(%r9,%r10,1),%r10
  40bd9c:	be 00 00 00 00              	(move)  	mov	$0,%esi
; ------- Loop 221 entry
992 (loop 221):	
/home/jgarcia/TFG/source_code/SP/txinvr.f:5
  40bda1:	83 c6 01                    	(arith) 	add	$0x1,%esi
/home/jgarcia/TFG/source_code/SP/txinvr.f:26
  40bda4:	48 63 ce                    	(move)  	movsxd	%esi,%rcx
  40bda7:	4a 8d 14 19                 	(arith) 	lea	(%rcx,%r11,1),%rdx
  40bdab:	48 8d 9a d8 cc 9c 24        	(arith) 	lea	0x249cccd8(%rdx),%rbx
  40bdb2:	f2 0f 10 0c d8              	(move)  	movsd	(%rax,%rbx,8),%xmm1
/home/jgarcia/TFG/source_code/SP/txinvr.f:27
  40bdb7:	48 8d 9a 78 1c 57 14        	(arith) 	lea	0x14571c78(%rdx),%rbx
  40bdbe:	f2 0f 10 1c d8              	(move)  	movsd	(%rax,%rbx,8),%xmm3
/home/jgarcia/TFG/source_code/SP/txinvr.f:28
  40bdc3:	48 8d 9a 90 88 68 18        	(arith) 	lea	0x18688890(%rdx),%rbx
  40bdca:	f2 0f 10 2c d8              	(move)  	movsd	(%rax,%rbx,8),%xmm5
/home/jgarcia/TFG/source_code/SP/txinvr.f:29
  40bdcf:	48 8d 9a a8 f4 79 1c        	(arith) 	lea	0x1c79f4a8(%rdx),%rbx
  40bdd6:	f2 0f 10 3c d8              	(move)  	movsd	(%rax,%rbx,8),%xmm7
/home/jgarcia/TFG/source_code/SP/txinvr.f:30
  40bddb:	48 8d 9a f0 38 ae 28        	(arith) 	lea	0x28ae38f0(%rdx),%rbx
  40bde2:	f2 0f 10 14 d8              	(move)  	movsd	(%rax,%rbx,8),%xmm2
/home/jgarcia/TFG/source_code/SP/txinvr.f:33
  40bde7:	48 8d 1c 89                 	(arith) 	lea	(%rcx,%rcx,4),%rbx
  40bdeb:	4c 01 cb                    	(arith) 	add	%r9,%rbx
  40bdee:	4d 8d 84 1c 20 11 d1 30     	(arith) 	lea	0x30d11120(%r12,%rbx,1),%r8
  40bdf6:	f2 42 0f 10 04 c0           	(move)  	movsd	(%rax,%r8,8),%xmm0
/home/jgarcia/TFG/source_code/SP/txinvr.f:34
  40bdfc:	49 8d ac 1f 20 11 d1 30     	(arith) 	lea	0x30d11120(%r15,%rbx,1),%rbp
  40be04:	f2 44 0f 10 14 e8           	(move)  	movsd	(%rax,%rbp,8),%xmm10
/home/jgarcia/TFG/source_code/SP/txinvr.f:35
  40be0a:	49 8d bc 1e 20 11 d1 30     	(arith) 	lea	0x30d11120(%r14,%rbx,1),%rdi
  40be12:	f2 0f 10 24 f8              	(move)  	movsd	(%rax,%rdi,8),%xmm4
/home/jgarcia/TFG/source_code/SP/txinvr.f:36
  40be17:	49 8d 9c 1d 20 11 d1 30     	(arith) 	lea	0x30d11120(%r13,%rbx,1),%rbx
  40be1f:	f2 0f 10 34 d8              	(move)  	movsd	(%rax,%rbx,8),%xmm6
/home/jgarcia/TFG/source_code/SP/txinvr.f:37
  40be24:	48 8d 4c 89 05              	(arith) 	lea	0x5(%rcx,%rcx,4),%rcx
/home/jgarcia/TFG/source_code/SP/txinvr.f:40
  40be29:	66 44 0f 28 ca              	(move)  	movapd	%xmm2,%xmm9
  40be2e:	f2 44 0f 59 ca              	(arith) 	mulsd	%xmm2,%xmm9
  40be33:	66 45 0f 28 c5              	(move)  	movapd	%xmm13,%xmm8
  40be38:	f2 45 0f 5e c1              	(arith) 	divsd	%xmm9,%xmm8
  40be3d:	66 45 0f 28 c8              	(move)  	movapd	%xmm8,%xmm9
  40be42:	48 81 c2 c0 60 8b 20        	(arith) 	add	$0x208b60c0,%rdx
  40be49:	66 44 0f 28 c0              	(move)  	movapd	%xmm0,%xmm8
  40be4e:	f2 44 0f 59 04 d0           	(arith) 	mulsd	(%rax,%rdx,8),%xmm8
  40be54:	66 44 0f 28 f3              	(move)  	movapd	%xmm3,%xmm14
  40be59:	f2 45 0f 59 f2              	(arith) 	mulsd	%xmm10,%xmm14
  40be5e:	f2 45 0f 5c c6              	(arith) 	subsd	%xmm14,%xmm8
  40be63:	66 44 0f 28 f5              	(move)  	movapd	%xmm5,%xmm14
  40be68:	f2 44 0f 59 f4              	(arith) 	mulsd	%xmm4,%xmm14
  40be6d:	f2 45 0f 5c c6              	(arith) 	subsd	%xmm14,%xmm8
  40be72:	66 44 0f 28 f7              	(move)  	movapd	%xmm7,%xmm14
  40be77:	f2 44 0f 59 f6              	(arith) 	mulsd	%xmm6,%xmm14
  40be7c:	f2 45 0f 5c c6              	(arith) 	subsd	%xmm14,%xmm8
  40be81:	49 8d 94 0a 20 11 d1 30     	(arith) 	lea	0x30d11120(%r10,%rcx,1),%rdx
  40be89:	f2 44 0f 58 04 d0           	(arith) 	addsd	(%rax,%rdx,8),%xmm8
  40be8f:	f2 45 0f 59 c1              	(arith) 	mulsd	%xmm9,%xmm8
/home/jgarcia/TFG/source_code/SP/txinvr.f:41
  40be94:	66 45 0f 28 cc              	(move)  	movapd	%xmm12,%xmm9
  40be99:	f2 44 0f 59 c9              	(arith) 	mulsd	%xmm1,%xmm9
  40be9e:	f2 0f 59 d8                 	(arith) 	mulsd	%xmm0,%xmm3
  40bea2:	f2 41 0f 5c da              	(arith) 	subsd	%xmm10,%xmm3
  40bea7:	f2 41 0f 59 d9              	(arith) 	mulsd	%xmm9,%xmm3
/home/jgarcia/TFG/source_code/SP/txinvr.f:42
  40beac:	f2 41 0f 59 d1              	(arith) 	mulsd	%xmm9,%xmm2
  40beb1:	f2 41 0f 59 d0              	(arith) 	mulsd	%xmm8,%xmm2
/home/jgarcia/TFG/source_code/SP/txinvr.f:44
  40beb6:	66 44 0f 28 c8              	(move)  	movapd	%xmm0,%xmm9
  40bebb:	f2 45 0f 5c c8              	(arith) 	subsd	%xmm8,%xmm9
  40bec0:	f2 46 0f 11 0c c0           	(move)  	movsd	%xmm9,(%rax,%r8,8)
/home/jgarcia/TFG/source_code/SP/txinvr.f:45
  40bec6:	f2 0f 59 f8                 	(arith) 	mulsd	%xmm0,%xmm7
  40beca:	f2 0f 5c fe                 	(arith) 	subsd	%xmm6,%xmm7
  40bece:	66 0f 28 f7                 	(move)  	movapd	%xmm7,%xmm6
  40bed2:	f2 0f 59 f1                 	(arith) 	mulsd	%xmm1,%xmm6
  40bed6:	66 41 0f 57 f3              	(logic) 	xorpd	%xmm11,%xmm6
  40bedb:	f2 0f 11 34 e8              	(move)  	movsd	%xmm6,(%rax,%rbp,8)
/home/jgarcia/TFG/source_code/SP/txinvr.f:46
  40bee0:	f2 0f 59 c5                 	(arith) 	mulsd	%xmm5,%xmm0
  40bee4:	f2 0f 5c c4                 	(arith) 	subsd	%xmm4,%xmm0
  40bee8:	f2 0f 59 c8                 	(arith) 	mulsd	%xmm0,%xmm1
  40beec:	f2 0f 11 0c f8              	(move)  	movsd	%xmm1,(%rax,%rdi,8)
/home/jgarcia/TFG/source_code/SP/txinvr.f:47
  40bef1:	66 0f 28 c2                 	(move)  	movapd	%xmm2,%xmm0
  40bef5:	f2 0f 5c c3                 	(arith) 	subsd	%xmm3,%xmm0
  40bef9:	f2 0f 11 04 d8              	(move)  	movsd	%xmm0,(%rax,%rbx,8)
/home/jgarcia/TFG/source_code/SP/txinvr.f:48
  40befe:	f2 0f 58 d3                 	(arith) 	addsd	%xmm3,%xmm2
  40bf02:	f2 0f 11 14 d0              	(move)  	movsd	%xmm2,(%rax,%rdx,8)
/home/jgarcia/TFG/source_code/SP/txinvr.f:24
  40bf07:	39 74 24 0c                 	(arith) 	cmp	%esi,0xc(%rsp)
  40bf0b:	0f 85 90 fe ff ff           	(control)	jne	40bda1 <txinvr_+0xf5>	; ↰ label 992 (loop 221)
; ------- Loop 221 exit
990:	
/home/jgarcia/TFG/source_code/SP/txinvr.f:23
  40bf11:	8b 54 24 14                 	(move)  	mov	0x14(%rsp),%edx
  40bf15:	39 54 24 10                 	(arith) 	cmp	%edx,0x10(%rsp)
  40bf19:	74 0a                       	(control)	je	40bf25 <txinvr_+0x279>	; ↲ label 987
993:	
  40bf1b:	83 44 24 10 01              	(arith) 	addl	$0x1,0x10(%rsp)
  40bf20:	e9 44 fe ff ff              	(control)	jmp	40bd69 <txinvr_+0xbd>	; ↰ label 989 (loop 220)
; ------- Loop 220 exit
987:	
/home/jgarcia/TFG/source_code/SP/txinvr.f:22
  40bf25:	8b 54 24 2c                 	(move)  	mov	0x2c(%rsp),%edx
  40bf29:	39 54 24 28                 	(arith) 	cmp	%edx,0x28(%rsp)
  40bf2d:	74 0a                       	(control)	je	40bf39 <txinvr_+0x28d>	; ↲ label 984
994:	
  40bf2f:	83 44 24 28 01              	(arith) 	addl	$0x1,0x28(%rsp)
  40bf34:	e9 ec fd ff ff              	(control)	jmp	40bd25 <txinvr_+0x79>	; ↰ label 986 (loop 219)
; ------- Loop 219 exit
984:	
/home/jgarcia/TFG/source_code/SP/txinvr.f:53
  40bf39:	83 3d d8 3b 20 00 00        	(arith) 	cmpl	$0,0x203bd8(%rip)
  40bf40:	74 0f                       	(control)	je	40bf51 <txinvr_+0x2a5>	; ↲ label 995
996:	
  40bf42:	bf 5c e5 40 00              	(move)  	mov	$0x40e55c,%edi
  40bf47:	b8 00 00 00 00              	(move)  	mov	$0,%eax
  40bf4c:	e8 ba 20 00 00              	(control)	call	40e00b <timer_stop_>	; ⇄ timer_stop
995:	
/home/jgarcia/TFG/source_code/SP/txinvr.f:56
  40bf51:	48 83 c4 38                 	(arith) 	add	$0x38,%rsp
  40bf55:	5b                          	(move)  	pop	%rbx
  40bf56:	5d                          	(move)  	pop	%rbp
  40bf57:	41 5c                       	(move)  	pop	%r12
  40bf59:	41 5d                       	(move)  	pop	%r13
  40bf5b:	41 5e                       	(move)  	pop	%r14
  40bf5d:	41 5f                       	(move)  	pop	%r15
  40bf5f:	c3                          	(control)	ret


000000000040bf60 <rhs_norm>:
997 (function rhs_norm_):	
/home/jgarcia/TFG/source_code/SP/error.f:53
  40bf60:	41 57                       	(move)  	push	%r15
  40bf62:	41 56                       	(move)  	push	%r14
  40bf64:	41 55                       	(move)  	push	%r13
  40bf66:	41 54                       	(move)  	push	%r12
  40bf68:	55                          	(move)  	push	%rbp
  40bf69:	53                          	(move)  	push	%rbx
/home/jgarcia/TFG/source_code/SP/error.f:62
  40bf6a:	b8 00 00 00 00              	(move)  	mov	$0,%eax
  40bf6f:	ba 00 00 00 00              	(move)  	mov	$0,%edx
; ------- Loop 222 entry
998 (loop 222):	
  40bf74:	48 89 14 07                 	(move)  	mov	%rdx,(%rdi,%rax,1)
  40bf78:	48 83 c0 08                 	(arith) 	add	$0x8,%rax
/home/jgarcia/TFG/source_code/SP/error.f:61
  40bf7c:	48 83 f8 28                 	(arith) 	cmp	$0x28,%rax
  40bf80:	75 f2                       	(control)	jne	40bf74 <rhs_norm_+0x14>	; ↰ label 998 (loop 222)
; ------- Loop 222 exit
999:	
/home/jgarcia/TFG/source_code/SP/error.f:65
  40bf82:	44 8b 35 8b 3b 20 00        	(move)  	mov	0x203b8b(%rip),%r14d
  40bf89:	45 85 f6                    	(arith) 	test	%r14d,%r14d
  40bf8c:	0f 8e b5 00 00 00           	(control)	jle	40c047 <rhs_norm_+0xe7>	; ↲ label 1000
1001:	
/home/jgarcia/TFG/source_code/SP/error.f:66
  40bf92:	8b 1d 78 3b 20 00           	(move)  	mov	0x203b78(%rip),%ebx
/home/jgarcia/TFG/source_code/SP/error.f:67
  40bf98:	8b 35 6e 3b 20 00           	(move)  	mov	0x203b6e(%rip),%esi
  40bf9e:	41 bd 01 00 00 00           	(move)  	mov	$0x1,%r13d
/home/jgarcia/TFG/source_code/SP/error.f:69
  40bfa4:	41 bf 01 00 00 00           	(move)  	mov	$0x1,%r15d
  40bfaa:	49 ba 20 18 94 01 00 00 00 00	(move)  	mov	$0x1941820,%r10
  40bfb4:	45 89 fc                    	(move)  	mov	%r15d,%r12d
  40bfb7:	41 b9 00 00 00 00           	(move)  	mov	$0,%r9d
; ------- Loop 224 entry
1002 (loop 224):	
/home/jgarcia/TFG/source_code/SP/error.f:66
  40bfbd:	85 db                       	(arith) 	test	%ebx,%ebx
  40bfbf:	7e 78                       	(control)	jle	40c039 <rhs_norm_+0xd9>	; ↲ label 1003
1004:	
/home/jgarcia/TFG/source_code/SP/error.f:69
  40bfc1:	49 63 ed                    	(move)  	movsxd	%r13d,%rbp
  40bfc4:	48 69 ed 35 c3 0c 00        	(arith) 	imul	$0xcc335,%rbp,%rbp
  40bfcb:	48 83 ed 01                 	(arith) 	sub	$0x1,%rbp
  40bfcf:	45 89 fb                    	(move)  	mov	%r15d,%r11d
; ------- Loop 225 entry
1005 (loop 225):	
/home/jgarcia/TFG/source_code/SP/error.f:67
  40bfd2:	85 f6                       	(arith) 	test	%esi,%esi
  40bfd4:	7e 58                       	(control)	jle	40c02e <rhs_norm_+0xce>	; ↲ label 1006
1007:	
/home/jgarcia/TFG/source_code/SP/error.f:69
  40bfd6:	49 63 c3                    	(move)  	movsxd	%r11d,%rax
  40bfd9:	48 89 c2                    	(move)  	mov	%rax,%rdx
  40bfdc:	48 c1 e2 09                 	(logic) 	sal	$0x9,%rdx
  40bfe0:	48 29 c2                    	(arith) 	sub	%rax,%rdx
  40bfe3:	48 8d 04 90                 	(arith) 	lea	(%rax,%rdx,4),%rax
  40bfe7:	44 89 e1                    	(move)  	mov	%r12d,%ecx
  40bfea:	4c 8d 44 05 01              	(arith) 	lea	0x1(%rbp,%rax,1),%r8
; ------- Loop 227 entry
1008 (loop 227):	
  40bfef:	48 63 c1                    	(move)  	movsxd	%ecx,%rax
  40bff2:	48 8d 04 80                 	(arith) 	lea	(%rax,%rax,4),%rax
  40bff6:	4a 8d 84 00 20 11 d1 30     	(arith) 	lea	0x30d11120(%rax,%r8,1),%rax
  40bffe:	49 8d 14 c2                 	(arith) 	lea	(%r10,%rax,8),%rdx
  40c002:	4c 89 c8                    	(move)  	mov	%r9,%rax
; ------- Loop 226 entry
1009 (loop 226):	
  40c005:	f2 0f 10 02                 	(move)  	movsd	(%rdx),%xmm0
/home/jgarcia/TFG/source_code/SP/error.f:70
  40c009:	f2 0f 59 c0                 	(arith) 	mulsd	%xmm0,%xmm0
  40c00d:	f2 0f 58 04 07              	(arith) 	addsd	(%rdi,%rax,1),%xmm0
  40c012:	f2 0f 11 04 07              	(move)  	movsd	%xmm0,(%rdi,%rax,1)
  40c017:	48 83 c2 08                 	(arith) 	add	$0x8,%rdx
  40c01b:	48 83 c0 08                 	(arith) 	add	$0x8,%rax
/home/jgarcia/TFG/source_code/SP/error.f:68
  40c01f:	48 83 f8 28                 	(arith) 	cmp	$0x28,%rax
  40c023:	75 e0                       	(control)	jne	40c005 <rhs_norm_+0xa5>	; ↰ label 1009 (loop 226)
; ------- Loop 226 exit
1010:	
/home/jgarcia/TFG/source_code/SP/error.f:67
  40c025:	39 f1                       	(arith) 	cmp	%esi,%ecx
  40c027:	74 05                       	(control)	je	40c02e <rhs_norm_+0xce>	; ↲ label 1006
1011:	
  40c029:	83 c1 01                    	(arith) 	add	$0x1,%ecx
  40c02c:	eb c1                       	(control)	jmp	40bfef <rhs_norm_+0x8f>	; ↰ label 1008 (loop 227)
; ------- Loop 227 exit
1006:	
/home/jgarcia/TFG/source_code/SP/error.f:66
  40c02e:	41 39 db                    	(arith) 	cmp	%ebx,%r11d
  40c031:	74 06                       	(control)	je	40c039 <rhs_norm_+0xd9>	; ↲ label 1003
1012:	
  40c033:	41 83 c3 01                 	(arith) 	add	$0x1,%r11d
  40c037:	eb 99                       	(control)	jmp	40bfd2 <rhs_norm_+0x72>	; ↰ label 1005 (loop 225)
; ------- Loop 225 exit
1003:	
/home/jgarcia/TFG/source_code/SP/error.f:65
  40c039:	45 39 f5                    	(arith) 	cmp	%r14d,%r13d
  40c03c:	74 09                       	(control)	je	40c047 <rhs_norm_+0xe7>	; ↲ label 1000
1013:	
  40c03e:	41 83 c5 01                 	(arith) 	add	$0x1,%r13d
  40c042:	e9 76 ff ff ff              	(control)	jmp	40bfbd <rhs_norm_+0x5d>	; ↰ label 1002 (loop 224)
; ------- Loop 224 exit
1000:	
  40c047:	b8 00 00 00 00              	(move)  	mov	$0,%eax
/home/jgarcia/TFG/source_code/SP/error.f:78
  40c04c:	be 00 fb 60 00              	(move)  	mov	$0x60fb00,%esi
  40c051:	bb 04 fb 60 00              	(move)  	mov	$0x60fb04,%ebx
  40c056:	b9 08 fb 60 00              	(move)  	mov	$0x60fb08,%ecx
; ------- Loop 223 entry
1014 (loop 223):	
  40c05b:	8b 16                       	(move)  	mov	(%rsi),%edx
  40c05d:	83 ea 02                    	(arith) 	sub	$0x2,%edx
  40c060:	f2 0f 2a ca                 	(conv)  	cvtsi2sd	%edx,%xmm1
  40c064:	f2 0f 10 04 07              	(move)  	movsd	(%rdi,%rax,1),%xmm0
  40c069:	f2 0f 5e c1                 	(arith) 	divsd	%xmm1,%xmm0
  40c06d:	8b 13                       	(move)  	mov	(%rbx),%edx
  40c06f:	83 ea 02                    	(arith) 	sub	$0x2,%edx
  40c072:	f2 0f 2a ca                 	(conv)  	cvtsi2sd	%edx,%xmm1
  40c076:	f2 0f 5e c1                 	(arith) 	divsd	%xmm1,%xmm0
  40c07a:	8b 11                       	(move)  	mov	(%rcx),%edx
  40c07c:	83 ea 02                    	(arith) 	sub	$0x2,%edx
  40c07f:	f2 0f 2a ca                 	(conv)  	cvtsi2sd	%edx,%xmm1
  40c083:	f2 0f 5e c1                 	(arith) 	divsd	%xmm1,%xmm0
/home/jgarcia/TFG/source_code/SP/error.f:80
  40c087:	f2 0f 51 c0                 	(math)  	sqrtsd	%xmm0,%xmm0
  40c08b:	f2 0f 11 04 07              	(move)  	movsd	%xmm0,(%rdi,%rax,1)
  40c090:	48 83 c0 08                 	(arith) 	add	$0x8,%rax
/home/jgarcia/TFG/source_code/SP/error.f:76
  40c094:	48 83 f8 28                 	(arith) 	cmp	$0x28,%rax
  40c098:	75 c1                       	(control)	jne	40c05b <rhs_norm_+0xfb>	; ↰ label 1014 (loop 223)
; ------- Loop 223 exit
1015:	
/home/jgarcia/TFG/source_code/SP/error.f:84
  40c09a:	5b                          	(move)  	pop	%rbx
  40c09b:	5d                          	(move)  	pop	%rbp
  40c09c:	41 5c                       	(move)  	pop	%r12
  40c09e:	41 5d                       	(move)  	pop	%r13
  40c0a0:	41 5e                       	(move)  	pop	%r14
  40c0a2:	41 5f                       	(move)  	pop	%r15
  40c0a4:	c3                          	(control)	ret


000000000040c0a5 <error_norm>:
1016 (function error_norm_):	
/home/jgarcia/TFG/source_code/SP/error.f:5
  40c0a5:	41 57                       	(move)  	push	%r15
  40c0a7:	41 56                       	(move)  	push	%r14
  40c0a9:	41 55                       	(move)  	push	%r13
  40c0ab:	41 54                       	(move)  	push	%r12
  40c0ad:	55                          	(move)  	push	%rbp
  40c0ae:	53                          	(move)  	push	%rbx
  40c0af:	48 83 ec 78                 	(arith) 	sub	$0x78,%rsp
  40c0b3:	48 89 fb                    	(move)  	mov	%rdi,%rbx
/home/jgarcia/TFG/source_code/SP/error.f:22
  40c0b6:	b8 00 00 00 00              	(move)  	mov	$0,%eax
  40c0bb:	ba 00 00 00 00              	(move)  	mov	$0,%edx
; ------- Loop 228 entry
1017 (loop 228):	
  40c0c0:	48 89 14 03                 	(move)  	mov	%rdx,(%rbx,%rax,1)
  40c0c4:	48 83 c0 08                 	(arith) 	add	$0x8,%rax
/home/jgarcia/TFG/source_code/SP/error.f:21
  40c0c8:	48 83 f8 28                 	(arith) 	cmp	$0x28,%rax
  40c0cc:	75 f2                       	(control)	jne	40c0c0 <error_norm_+0x1b>	; ↰ label 1017 (loop 228)
; ------- Loop 228 exit
1018:	
/home/jgarcia/TFG/source_code/SP/error.f:25
  40c0ce:	8b 05 34 3a 20 00           	(move)  	mov	0x203a34(%rip),%eax
  40c0d4:	83 e8 01                    	(arith) 	sub	$0x1,%eax
  40c0d7:	89 44 24 2c                 	(move)  	mov	%eax,0x2c(%rsp)
  40c0db:	0f 88 58 01 00 00           	(control)	js	40c239 <error_norm_+0x194>	; ↲ label 1019
1020:	
  40c0e1:	c7 44 24 28 00 00 00 00     	(move)  	movl	$0,0x28(%rsp)
/home/jgarcia/TFG/source_code/SP/error.f:31
  40c0e9:	48 8d 6c 24 40              	(arith) 	lea	0x40(%rsp),%rbp
  40c0ee:	48 89 6c 24 10              	(move)  	mov	%rbp,0x10(%rsp)
; ------- Loop 230 entry
1021 (loop 230):	
/home/jgarcia/TFG/source_code/SP/error.f:26
  40c0f3:	f2 0f 2a 44 24 28           	(conv)  	cvtsi2sdl	0x28(%rsp),%xmm0
  40c0f9:	f2 0f 59 05 ef 38 20 00     	(arith) 	mulsd	0x2038ef(%rip),%xmm0
  40c101:	f2 0f 11 44 24 30           	(move)  	movsd	%xmm0,0x30(%rsp)
/home/jgarcia/TFG/source_code/SP/error.f:27
  40c107:	8b 05 f7 39 20 00           	(move)  	mov	0x2039f7(%rip),%eax
  40c10d:	83 e8 01                    	(arith) 	sub	$0x1,%eax
  40c110:	89 44 24 1c                 	(move)  	mov	%eax,0x1c(%rsp)
  40c114:	0f 88 0b 01 00 00           	(control)	js	40c225 <error_norm_+0x180>	; ↲ label 1022
1023:	
/home/jgarcia/TFG/source_code/SP/error.f:34
  40c11a:	48 63 44 24 28              	(move)  	movsxd	0x28(%rsp),%rax
  40c11f:	48 69 c0 35 c3 0c 00        	(arith) 	imul	$0xcc335,%rax,%rax
  40c126:	48 83 e8 01                 	(arith) 	sub	$0x1,%rax
  40c12a:	48 89 44 24 20              	(move)  	mov	%rax,0x20(%rsp)
  40c12f:	c7 44 24 18 00 00 00 00     	(move)  	movl	$0,0x18(%rsp)
/home/jgarcia/TFG/source_code/SP/error.f:31
  40c137:	49 be 20 18 94 01 00 00 00 00	(move)  	mov	$0x1941820,%r14
  40c141:	48 8d 44 24 38              	(arith) 	lea	0x38(%rsp),%rax
  40c146:	48 89 44 24 08              	(move)  	mov	%rax,0x8(%rsp)
; ------- Loop 231 entry
1024 (loop 231):	
/home/jgarcia/TFG/source_code/SP/error.f:28
  40c14b:	f2 0f 2a 44 24 18           	(conv)  	cvtsi2sdl	0x18(%rsp),%xmm0
  40c151:	f2 0f 59 05 8f 38 20 00     	(arith) 	mulsd	0x20388f(%rip),%xmm0
  40c159:	f2 0f 11 44 24 68           	(move)  	movsd	%xmm0,0x68(%rsp)
/home/jgarcia/TFG/source_code/SP/error.f:29
  40c15f:	44 8b 3d 9a 39 20 00        	(move)  	mov	0x20399a(%rip),%r15d
  40c166:	41 83 ef 01                 	(arith) 	sub	$0x1,%r15d
  40c16a:	0f 88 a1 00 00 00           	(control)	js	40c211 <error_norm_+0x16c>	; ↲ label 1025
1026:	
/home/jgarcia/TFG/source_code/SP/error.f:34
  40c170:	48 63 44 24 18              	(move)  	movsxd	0x18(%rsp),%rax
  40c175:	48 89 c2                    	(move)  	mov	%rax,%rdx
  40c178:	48 c1 e2 09                 	(logic) 	sal	$0x9,%rdx
  40c17c:	48 29 c2                    	(arith) 	sub	%rax,%rdx
  40c17f:	48 8d 04 90                 	(arith) 	lea	(%rax,%rdx,4),%rax
  40c183:	41 bc 00 00 00 00           	(move)  	mov	$0,%r12d
/home/jgarcia/TFG/source_code/SP/error.f:30
  40c189:	41 bd e0 f9 60 00           	(move)  	mov	$0x60f9e0,%r13d
/home/jgarcia/TFG/source_code/SP/error.f:31
  40c18f:	48 8b 54 24 20              	(move)  	mov	0x20(%rsp),%rdx
  40c194:	48 8d 44 02 01              	(arith) 	lea	0x1(%rdx,%rax,1),%rax
  40c199:	48 89 04 24                 	(move)  	mov	%rax,(%rsp)
; ------- Loop 233 entry
1027 (loop 233):	
/home/jgarcia/TFG/source_code/SP/error.f:30
  40c19d:	f2 41 0f 2a c4              	(conv)  	cvtsi2sd	%r12d,%xmm0
  40c1a2:	f2 41 0f 59 45 00           	(arith) 	mulsd	(%r13),%xmm0
  40c1a8:	f2 0f 11 44 24 38           	(move)  	movsd	%xmm0,0x38(%rsp)
/home/jgarcia/TFG/source_code/SP/error.f:31
  40c1ae:	48 8b 4c 24 10              	(move)  	mov	0x10(%rsp),%rcx
  40c1b3:	48 8d 54 24 30              	(arith) 	lea	0x30(%rsp),%rdx
  40c1b8:	48 8d 74 24 68              	(arith) 	lea	0x68(%rsp),%rsi
  40c1bd:	48 8b 7c 24 08              	(move)  	mov	0x8(%rsp),%rdi
  40c1c2:	b8 00 00 00 00              	(move)  	mov	$0,%eax
  40c1c7:	e8 7c 66 ff ff              	(control)	call	402848 <exact_solution_>	; ⇄ exact_solution
1028:	
  40c1cc:	49 63 c4                    	(move)  	movsxd	%r12d,%rax
  40c1cf:	48 8d 04 80                 	(arith) 	lea	(%rax,%rax,4),%rax
  40c1d3:	48 03 04 24                 	(arith) 	add	(%rsp),%rax
  40c1d7:	49 8d 14 c6                 	(arith) 	lea	(%r14,%rax,8),%rdx
  40c1db:	b8 00 00 00 00              	(move)  	mov	$0,%eax
; ------- Loop 232 entry
1029 (loop 232):	
/home/jgarcia/TFG/source_code/SP/error.f:34
  40c1e0:	f2 0f 10 02                 	(move)  	movsd	(%rdx),%xmm0
  40c1e4:	f2 0f 5c 44 05 00           	(arith) 	subsd	(%rbp,%rax,1),%xmm0
/home/jgarcia/TFG/source_code/SP/error.f:35
  40c1ea:	f2 0f 59 c0                 	(arith) 	mulsd	%xmm0,%xmm0
  40c1ee:	f2 0f 58 04 03              	(arith) 	addsd	(%rbx,%rax,1),%xmm0
  40c1f3:	f2 0f 11 04 03              	(move)  	movsd	%xmm0,(%rbx,%rax,1)
  40c1f8:	48 83 c2 08                 	(arith) 	add	$0x8,%rdx
  40c1fc:	48 83 c0 08                 	(arith) 	add	$0x8,%rax
/home/jgarcia/TFG/source_code/SP/error.f:33
  40c200:	48 83 f8 28                 	(arith) 	cmp	$0x28,%rax
  40c204:	75 da                       	(control)	jne	40c1e0 <error_norm_+0x13b>	; ↰ label 1029 (loop 232)
; ------- Loop 232 exit
1030:	
/home/jgarcia/TFG/source_code/SP/error.f:29
  40c206:	45 39 fc                    	(arith) 	cmp	%r15d,%r12d
  40c209:	74 06                       	(control)	je	40c211 <error_norm_+0x16c>	; ↲ label 1025
1031:	
  40c20b:	41 83 c4 01                 	(arith) 	add	$0x1,%r12d
  40c20f:	eb 8c                       	(control)	jmp	40c19d <error_norm_+0xf8>	; ↰ label 1027 (loop 233)
; ------- Loop 233 exit
1025:	
/home/jgarcia/TFG/source_code/SP/error.f:27
  40c211:	8b 44 24 1c                 	(move)  	mov	0x1c(%rsp),%eax
  40c215:	39 44 24 18                 	(arith) 	cmp	%eax,0x18(%rsp)
  40c219:	74 0a                       	(control)	je	40c225 <error_norm_+0x180>	; ↲ label 1022
1032:	
  40c21b:	83 44 24 18 01              	(arith) 	addl	$0x1,0x18(%rsp)
  40c220:	e9 26 ff ff ff              	(control)	jmp	40c14b <error_norm_+0xa6>	; ↰ label 1024 (loop 231)
; ------- Loop 231 exit
1022:	
/home/jgarcia/TFG/source_code/SP/error.f:25
  40c225:	8b 54 24 2c                 	(move)  	mov	0x2c(%rsp),%edx
  40c229:	39 54 24 28                 	(arith) 	cmp	%edx,0x28(%rsp)
  40c22d:	74 0a                       	(control)	je	40c239 <error_norm_+0x194>	; ↲ label 1019
1033:	
  40c22f:	83 44 24 28 01              	(arith) 	addl	$0x1,0x28(%rsp)
  40c234:	e9 ba fe ff ff              	(control)	jmp	40c0f3 <error_norm_+0x4e>	; ↰ label 1021 (loop 230)
; ------- Loop 230 exit
1019:	
  40c239:	b8 00 00 00 00              	(move)  	mov	$0,%eax
/home/jgarcia/TFG/source_code/SP/error.f:43
  40c23e:	bf 00 fb 60 00              	(move)  	mov	$0x60fb00,%edi
  40c243:	be 04 fb 60 00              	(move)  	mov	$0x60fb04,%esi
  40c248:	b9 08 fb 60 00              	(move)  	mov	$0x60fb08,%ecx
; ------- Loop 229 entry
1034 (loop 229):	
  40c24d:	8b 17                       	(move)  	mov	(%rdi),%edx
  40c24f:	83 ea 02                    	(arith) 	sub	$0x2,%edx
  40c252:	f2 0f 2a ca                 	(conv)  	cvtsi2sd	%edx,%xmm1
  40c256:	f2 0f 10 04 03              	(move)  	movsd	(%rbx,%rax,1),%xmm0
  40c25b:	f2 0f 5e c1                 	(arith) 	divsd	%xmm1,%xmm0
  40c25f:	8b 16                       	(move)  	mov	(%rsi),%edx
  40c261:	83 ea 02                    	(arith) 	sub	$0x2,%edx
  40c264:	f2 0f 2a ca                 	(conv)  	cvtsi2sd	%edx,%xmm1
  40c268:	f2 0f 5e c1                 	(arith) 	divsd	%xmm1,%xmm0
  40c26c:	8b 11                       	(move)  	mov	(%rcx),%edx
  40c26e:	83 ea 02                    	(arith) 	sub	$0x2,%edx
  40c271:	f2 0f 2a ca                 	(conv)  	cvtsi2sd	%edx,%xmm1
  40c275:	f2 0f 5e c1                 	(arith) 	divsd	%xmm1,%xmm0
/home/jgarcia/TFG/source_code/SP/error.f:45
  40c279:	f2 0f 51 c0                 	(math)  	sqrtsd	%xmm0,%xmm0
  40c27d:	f2 0f 11 04 03              	(move)  	movsd	%xmm0,(%rbx,%rax,1)
  40c282:	48 83 c0 08                 	(arith) 	add	$0x8,%rax
/home/jgarcia/TFG/source_code/SP/error.f:41
  40c286:	48 83 f8 28                 	(arith) 	cmp	$0x28,%rax
  40c28a:	75 c1                       	(control)	jne	40c24d <error_norm_+0x1a8>	; ↰ label 1034 (loop 229)
; ------- Loop 229 exit
1035:	
/home/jgarcia/TFG/source_code/SP/error.f:49
  40c28c:	48 83 c4 78                 	(arith) 	add	$0x78,%rsp
  40c290:	5b                          	(move)  	pop	%rbx
  40c291:	5d                          	(move)  	pop	%rbp
  40c292:	41 5c                       	(move)  	pop	%r12
  40c294:	41 5d                       	(move)  	pop	%r13
  40c296:	41 5e                       	(move)  	pop	%r14
  40c298:	41 5f                       	(move)  	pop	%r15
  40c29a:	c3                          	(control)	ret
1036:	
/home/jgarcia/TFG/source_code/SP/verify.f:5
  40c29b:	90                          	(other) 	nop


000000000040c29c <verify>:
119 (function verify_):	
/home/jgarcia/TFG/source_code/SP/verify.f:5
  40c29c:	41 57                       	(move)  	push	%r15
  40c29e:	41 56                       	(move)  	push	%r14
  40c2a0:	41 55                       	(move)  	push	%r13
  40c2a2:	41 54                       	(move)  	push	%r12
  40c2a4:	55                          	(move)  	push	%rbp
  40c2a5:	53                          	(move)  	push	%rbx
  40c2a6:	48 81 ec f8 22 00 00        	(arith) 	sub	$0x22f8,%rsp
  40c2ad:	48 89 fd                    	(move)  	mov	%rdi,%rbp
  40c2b0:	48 89 f3                    	(move)  	mov	%rsi,%rbx
  40c2b3:	49 89 d5                    	(move)  	mov	%rdx,%r13
/home/jgarcia/TFG/source_code/SP/verify.f:25
  40c2b6:	c7 84 24 20 01 00 00 3a 8c 30 e2	(move)  	movl	$-0x1dcf73c6,0x120(%rsp)
  40c2c1:	c7 84 24 24 01 00 00 8e 79 45 3e	(move)  	movl	$0x3e45798e,0x124(%rsp)
/home/jgarcia/TFG/source_code/SP/verify.f:31
  40c2cc:	48 8d bc 24 f0 00 00 00     	(arith) 	lea	0xf0(%rsp),%rdi
  40c2d4:	b8 00 00 00 00              	(move)  	mov	$0,%eax
  40c2d9:	e8 c7 fd ff ff              	(control)	call	40c0a5 <error_norm_>	; ⇄ error_norm
1037:	
/home/jgarcia/TFG/source_code/SP/verify.f:32
  40c2de:	b8 00 00 00 00              	(move)  	mov	$0,%eax
  40c2e3:	e8 38 8f ff ff              	(control)	call	405220 <compute_rhs_>	; ⇄ compute_rhs
1038:	
/home/jgarcia/TFG/source_code/SP/verify.f:34
  40c2e8:	48 8d 7c 24 60              	(arith) 	lea	0x60(%rsp),%rdi
  40c2ed:	b8 00 00 00 00              	(move)  	mov	$0,%eax
  40c2f2:	e8 69 fc ff ff              	(control)	call	40bf60 <rhs_norm_>	; ⇄ rhs_norm
1039:	
/home/jgarcia/TFG/source_code/SP/verify.f:36
  40c2f7:	c7 84 24 1c 01 00 00 01 00 00 00	(move)  	movl	$0x1,0x11c(%rsp)
/home/jgarcia/TFG/source_code/SP/verify.f:37
  40c302:	f2 0f 10 0d be 33 20 00     	(move)  	movsd	0x2033be(%rip),%xmm1
  40c30a:	b8 01 00 00 00              	(move)  	mov	$0x1,%eax
; ------- Loop 234 entry
1040 (loop 234):	
  40c30f:	48 63 d0                    	(move)  	movsxd	%eax,%rdx
  40c312:	48 83 ea 01                 	(arith) 	sub	$0x1,%rdx
  40c316:	f2 0f 10 44 d4 60           	(move)  	movsd	0x60(%rsp,%rdx,8),%xmm0
  40c31c:	f2 0f 5e c1                 	(arith) 	divsd	%xmm1,%xmm0
  40c320:	f2 0f 11 44 d4 60           	(move)  	movsd	%xmm0,0x60(%rsp,%rdx,8)
  40c326:	83 c0 01                    	(arith) 	add	$0x1,%eax
/home/jgarcia/TFG/source_code/SP/verify.f:36
  40c329:	83 f8 06                    	(arith) 	cmp	$0x6,%eax
  40c32c:	75 e1                       	(control)	jne	40c30f <verify_+0x73>	; ↰ label 1040 (loop 234)
; ------- Loop 234 exit
1041:	
/home/jgarcia/TFG/source_code/SP/verify.f:40
  40c32e:	c6 03 55                    	(move)  	movb	$0x55,(%rbx)
/home/jgarcia/TFG/source_code/SP/verify.f:41
  40c331:	41 c7 45 00 01 00 00 00     	(move)  	movl	$0x1,(%r13)
/home/jgarcia/TFG/source_code/SP/verify.f:43
  40c339:	b0 01                       	(move)  	mov	$0x1,%al
/home/jgarcia/TFG/source_code/SP/verify.f:44
  40c33b:	48 b9 00 00 00 00 00 00 f0 3f	(move)  	mov	$0x3ff0000000000000,%rcx
; ------- Loop 235 entry
1042 (loop 235):	
  40c345:	48 63 d0                    	(move)  	movsxd	%eax,%rdx
  40c348:	48 83 ea 01                 	(arith) 	sub	$0x1,%rdx
  40c34c:	48 89 0c d4                 	(move)  	mov	%rcx,(%rsp,%rdx,8)
/home/jgarcia/TFG/source_code/SP/verify.f:45
  40c350:	48 89 8c d4 90 00 00 00     	(move)  	mov	%rcx,0x90(%rsp,%rdx,8)
  40c358:	83 c0 01                    	(arith) 	add	$0x1,%eax
/home/jgarcia/TFG/source_code/SP/verify.f:43
  40c35b:	83 f8 06                    	(arith) 	cmp	$0x6,%eax
  40c35e:	75 e5                       	(control)	jne	40c345 <verify_+0xa9>	; ↰ label 1042 (loop 235)
; ------- Loop 235 exit
1043:	
/home/jgarcia/TFG/source_code/SP/verify.f:54
  40c360:	8b 05 9a 37 20 00           	(move)  	mov	0x20379a(%rip),%eax
  40c366:	83 f8 0c                    	(arith) 	cmp	$0xc,%eax
  40c369:	0f 85 ff 00 00 00           	(control)	jne	40c46e <verify_+0x1d2>	; ↲ label 1044
1045:	
  40c36f:	83 3d 8e 37 20 00 0c        	(arith) 	cmpl	$0xc,0x20378e(%rip)
  40c376:	0f 85 f2 00 00 00           	(control)	jne	40c46e <verify_+0x1d2>	; ↲ label 1044
1046:	
  40c37c:	83 3d 85 37 20 00 0c        	(arith) 	cmpl	$0xc,0x203785(%rip)
  40c383:	0f 85 fb 02 00 00           	(control)	jne	40c684 <verify_+0x3e8>	; ↲ label 1047
1048:	
  40c389:	83 7d 00 64                 	(arith) 	cmpl	$0x64,(%rbp)
  40c38d:	0f 85 f1 02 00 00           	(control)	jne	40c684 <verify_+0x3e8>	; ↲ label 1047
1049:	
/home/jgarcia/TFG/source_code/SP/verify.f:56
  40c393:	c6 03 53                    	(move)  	movb	$0x53,(%rbx)
/home/jgarcia/TFG/source_code/SP/verify.f:57
  40c396:	c7 84 24 28 01 00 00 b8 1e 85 eb	(move)  	movl	$-0x147ae148,0x128(%rsp)
  40c3a1:	c7 84 24 2c 01 00 00 51 b8 8e 3f	(move)  	movl	$0x3f8eb851,0x12c(%rsp)
/home/jgarcia/TFG/source_code/SP/verify.f:62
  40c3ac:	c7 04 24 9d b0 e5 a9        	(move)  	movl	$-0x561a4f63,(%rsp)
  40c3b3:	c7 44 24 04 2d 21 9c 3f     	(move)  	movl	$0x3f9c212d,0x4(%rsp)
/home/jgarcia/TFG/source_code/SP/verify.f:63
  40c3bb:	c7 44 24 08 c0 39 17 e2     	(move)  	movl	$-0x1de8c640,0x8(%rsp)
  40c3c3:	c7 44 24 0c 03 38 85 3f     	(move)  	movl	$0x3f853803,0xc(%rsp)
/home/jgarcia/TFG/source_code/SP/verify.f:64
  40c3cb:	c7 44 24 10 a7 b7 52 68     	(move)  	movl	$0x6852b7a7,0x10(%rsp)
  40c3d3:	c7 44 24 14 1a a0 90 3f     	(move)  	movl	$0x3f90a01a,0x14(%rsp)
/home/jgarcia/TFG/source_code/SP/verify.f:65
  40c3db:	c7 44 24 18 d5 f5 ea cc     	(move)  	movl	$-0x33150a2b,0x18(%rsp)
  40c3e3:	c7 44 24 1c 81 38 90 3f     	(move)  	movl	$0x3f903881,0x1c(%rsp)
/home/jgarcia/TFG/source_code/SP/verify.f:66
  40c3eb:	c7 44 24 20 02 aa 6d c3     	(move)  	movl	$-0x3c9255fe,0x20(%rsp)
  40c3f3:	c7 44 24 24 bb d7 a1 3f     	(move)  	movl	$0x3fa1d7bb,0x24(%rsp)
/home/jgarcia/TFG/source_code/SP/verify.f:71
  40c3fb:	c7 84 24 90 00 00 00 a0 38 8e 91	(move)  	movl	$-0x6e71c760,0x90(%rsp)
  40c406:	c7 84 24 94 00 00 00 67 9d fc 3e	(move)  	movl	$0x3efc9d67,0x94(%rsp)
/home/jgarcia/TFG/source_code/SP/verify.f:72
  40c411:	c7 84 24 98 00 00 00 02 27 1b b3	(move)  	movl	$-0x4ce4d8fe,0x98(%rsp)
  40c41c:	c7 84 24 9c 00 00 00 5e bc e5 3e	(move)  	movl	$0x3ee5bc5e,0x9c(%rsp)
/home/jgarcia/TFG/source_code/SP/verify.f:73
  40c427:	c7 84 24 a0 00 00 00 15 54 fa 48	(move)  	movl	$0x48fa5415,0xa0(%rsp)
  40c432:	c7 84 24 a4 00 00 00 85 f0 f0 3e	(move)  	movl	$0x3ef0f085,0xa4(%rsp)
/home/jgarcia/TFG/source_code/SP/verify.f:74
  40c43d:	c7 84 24 a8 00 00 00 94 f6 97 34	(move)  	movl	$0x3497f694,0xa8(%rsp)
  40c448:	c7 84 24 ac 00 00 00 0c 84 f0 3e	(move)  	movl	$0x3ef0840c,0xac(%rsp)
/home/jgarcia/TFG/source_code/SP/verify.f:75
  40c453:	c7 84 24 b0 00 00 00 95 f4 07 ab	(move)  	movl	$-0x54f80b6b,0xb0(%rsp)
  40c45e:	c7 84 24 b4 00 00 00 3f eb 01 3f	(move)  	movl	$0x3f01eb3f,0xb4(%rsp)
/home/jgarcia/TFG/source_code/SP/verify.f:54
  40c469:	e9 5f 06 00 00              	(control)	jmp	40cacd <verify_+0x831>	; ↲ label 1050
1044:	
  40c46e:	83 f8 24                    	(arith) 	cmp	$0x24,%eax
  40c471:	0f 85 02 01 00 00           	(control)	jne	40c579 <verify_+0x2dd>	; ↲ label 1051
1052:	
  40c477:	83 3d 86 36 20 00 24        	(arith) 	cmpl	$0x24,0x203686(%rip)
  40c47e:	0f 85 f5 00 00 00           	(control)	jne	40c579 <verify_+0x2dd>	; ↲ label 1051
1053:	
  40c484:	83 3d 7d 36 20 00 24        	(arith) 	cmpl	$0x24,0x20367d(%rip)
  40c48b:	0f 85 fe 02 00 00           	(control)	jne	40c78f <verify_+0x4f3>	; ↲ label 1054
1055:	
  40c491:	81 7d 00 90 01 00 00        	(arith) 	cmpl	$0x190,(%rbp)
  40c498:	0f 85 f1 02 00 00           	(control)	jne	40c78f <verify_+0x4f3>	; ↲ label 1054
1056:	
/home/jgarcia/TFG/source_code/SP/verify.f:86
  40c49e:	c6 03 57                    	(move)  	movb	$0x57,(%rbx)
/home/jgarcia/TFG/source_code/SP/verify.f:87
  40c4a1:	c7 84 24 28 01 00 00 fa 7e 6a bc	(move)  	movl	$-0x43958106,0x128(%rsp)
  40c4ac:	c7 84 24 2c 01 00 00 74 93 58 3f	(move)  	movl	$0x3f589374,0x12c(%rsp)
/home/jgarcia/TFG/source_code/SP/verify.f:92
  40c4b7:	c7 04 24 d0 fa 99 b7        	(move)  	movl	$-0x48660530,(%rsp)
  40c4be:	c7 44 24 04 e1 04 5f 3f     	(move)  	movl	$0x3f5f04e1,0x4(%rsp)
/home/jgarcia/TFG/source_code/SP/verify.f:93
  40c4c6:	c7 44 24 08 db 94 1e 94     	(move)  	movl	$-0x6be16b25,0x8(%rsp)
  40c4ce:	c7 44 24 0c 8c 81 26 3f     	(move)  	movl	$0x3f26818c,0xc(%rsp)
/home/jgarcia/TFG/source_code/SP/verify.f:94
  40c4d6:	c7 44 24 10 8b 55 4f c7     	(move)  	movl	$-0x38b0aa75,0x10(%rsp)
  40c4de:	c7 44 24 14 f7 34 32 3f     	(move)  	movl	$0x3f3234f7,0x14(%rsp)
/home/jgarcia/TFG/source_code/SP/verify.f:95
  40c4e6:	c7 44 24 18 a9 c8 d1 3e     	(move)  	movl	$0x3ed1c8a9,0x18(%rsp)
  40c4ee:	c7 44 24 1c 61 ec 32 3f     	(move)  	movl	$0x3f32ec61,0x1c(%rsp)
/home/jgarcia/TFG/source_code/SP/verify.f:96
  40c4f6:	c7 44 24 20 68 be 1f 64     	(move)  	movl	$0x641fbe68,0x20(%rsp)
  40c4fe:	c7 44 24 24 a1 c0 69 3f     	(move)  	movl	$0x3f69c0a1,0x24(%rsp)
/home/jgarcia/TFG/source_code/SP/verify.f:101
  40c506:	c7 84 24 90 00 00 00 37 24 84 f4	(move)  	movl	$-0xb7bdbc9,0x90(%rsp)
  40c511:	c7 84 24 94 00 00 00 68 c5 13 3f	(move)  	movl	$0x3f13c568,0x94(%rsp)
/home/jgarcia/TFG/source_code/SP/verify.f:102
  40c51c:	c7 84 24 98 00 00 00 05 78 10 32	(move)  	movl	$0x32107805,0x98(%rsp)
  40c527:	c7 84 24 9c 00 00 00 1f 51 db 3e	(move)  	movl	$0x3edb511f,0x9c(%rsp)
/home/jgarcia/TFG/source_code/SP/verify.f:103
  40c532:	c7 84 24 a0 00 00 00 e7 08 5a 75	(move)  	movl	$0x755a08e7,0xa0(%rsp)
  40c53d:	c7 84 24 a4 00 00 00 45 00 e6 3e	(move)  	movl	$0x3ee60045,0xa4(%rsp)
/home/jgarcia/TFG/source_code/SP/verify.f:104
  40c548:	c7 84 24 a8 00 00 00 88 ba 79 0e	(move)  	movl	$0xe79ba88,0xa8(%rsp)
  40c553:	c7 84 24 ac 00 00 00 68 ac e7 3e	(move)  	movl	$0x3ee7ac68,0xac(%rsp)
/home/jgarcia/TFG/source_code/SP/verify.f:105
  40c55e:	c7 84 24 b0 00 00 00 87 7d 73 f1	(move)  	movl	$-0xe8c8279,0xb0(%rsp)
  40c569:	c7 84 24 b4 00 00 00 44 cb 1f 3f	(move)  	movl	$0x3f1fcb44,0xb4(%rsp)
/home/jgarcia/TFG/source_code/SP/verify.f:54
  40c574:	e9 54 05 00 00              	(control)	jmp	40cacd <verify_+0x831>	; ↲ label 1050
1051:	
  40c579:	83 f8 40                    	(arith) 	cmp	$0x40,%eax
  40c57c:	0f 85 02 01 00 00           	(control)	jne	40c684 <verify_+0x3e8>	; ↲ label 1047
1057:	
  40c582:	83 3d 7b 35 20 00 40        	(arith) 	cmpl	$0x40,0x20357b(%rip)
  40c589:	0f 85 f5 00 00 00           	(control)	jne	40c684 <verify_+0x3e8>	; ↲ label 1047
1058:	
  40c58f:	83 3d 72 35 20 00 40        	(arith) 	cmpl	$0x40,0x203572(%rip)
  40c596:	0f 85 06 03 00 00           	(control)	jne	40c8a2 <verify_+0x606>	; ↲ label 1059
1060:	
  40c59c:	81 7d 00 90 01 00 00        	(arith) 	cmpl	$0x190,(%rbp)
  40c5a3:	0f 85 f9 02 00 00           	(control)	jne	40c8a2 <verify_+0x606>	; ↲ label 1059
1061:	
/home/jgarcia/TFG/source_code/SP/verify.f:115
  40c5a9:	c6 03 41                    	(move)  	movb	$0x41,(%rbx)
/home/jgarcia/TFG/source_code/SP/verify.f:116
  40c5ac:	c7 84 24 28 01 00 00 fa 7e 6a bc	(move)  	movl	$-0x43958106,0x128(%rsp)
  40c5b7:	c7 84 24 2c 01 00 00 74 93 58 3f	(move)  	movl	$0x3f589374,0x12c(%rsp)
/home/jgarcia/TFG/source_code/SP/verify.f:121
  40c5c2:	c7 04 24 36 48 b9 ed        	(move)  	movl	$-0x1246b7ca,(%rsp)
  40c5c9:	c7 44 24 04 00 d7 03 40     	(move)  	movl	$0x4003d700,0x4(%rsp)
/home/jgarcia/TFG/source_code/SP/verify.f:122
  40c5d1:	c7 44 24 08 c5 f8 58 bc     	(move)  	movl	$-0x43a7073b,0x8(%rsp)
  40c5d9:	c7 44 24 0c c9 0a f2 3f     	(move)  	movl	$0x3ff20ac9,0xc(%rsp)
/home/jgarcia/TFG/source_code/SP/verify.f:123
  40c5e1:	c7 44 24 10 7d 52 47 8d     	(move)  	movl	$-0x72b8ad83,0x10(%rsp)
  40c5e9:	c7 44 24 14 de 0b f8 3f     	(move)  	movl	$0x3ff80bde,0x14(%rsp)
/home/jgarcia/TFG/source_code/SP/verify.f:124
  40c5f1:	c7 44 24 18 8d a1 cf 15     	(move)  	movl	$0x15cfa18d,0x18(%rsp)
  40c5f9:	c7 44 24 1c 9e bf f6 3f     	(move)  	movl	$0x3ff6bf9e,0x1c(%rsp)
/home/jgarcia/TFG/source_code/SP/verify.f:125
  40c601:	c7 44 24 20 62 ec 96 ef     	(move)  	movl	$-0x1069139e,0x20(%rsp)
  40c609:	c7 44 24 24 9f 08 01 40     	(move)  	movl	$0x4001089f,0x24(%rsp)
/home/jgarcia/TFG/source_code/SP/verify.f:130
  40c611:	c7 84 24 90 00 00 00 7c e0 12 d8	(move)  	movl	$-0x27ed1f84,0x90(%rsp)
  40c61c:	c7 84 24 94 00 00 00 f5 92 1c 3f	(move)  	movl	$0x3f1c92f5,0x94(%rsp)
/home/jgarcia/TFG/source_code/SP/verify.f:131
  40c627:	c7 84 24 98 00 00 00 1e 57 94 69	(move)  	movl	$0x6994571e,0x98(%rsp)
  40c632:	c7 84 24 9c 00 00 00 38 94 03 3f	(move)  	movl	$0x3f039438,0x9c(%rsp)
/home/jgarcia/TFG/source_code/SP/verify.f:132
  40c63d:	c7 84 24 a0 00 00 00 f1 6c 2d 00	(move)  	movl	$0x2d6cf1,0xa0(%rsp)
  40c648:	c7 84 24 a4 00 00 00 57 43 0a 3f	(move)  	movl	$0x3f0a4357,0xa4(%rsp)
/home/jgarcia/TFG/source_code/SP/verify.f:133
  40c653:	c7 84 24 a8 00 00 00 a1 33 c3 50	(move)  	movl	$0x50c333a1,0xa8(%rsp)
  40c65e:	c7 84 24 ac 00 00 00 4e fe 08 3f	(move)  	movl	$0x3f08fe4e,0xac(%rsp)
/home/jgarcia/TFG/source_code/SP/verify.f:134
  40c669:	c7 84 24 b0 00 00 00 cd 19 6e ae	(move)  	movl	$-0x5191e633,0xb0(%rsp)
  40c674:	c7 84 24 b4 00 00 00 a7 da 21 3f	(move)  	movl	$0x3f21daa7,0xb4(%rsp)
/home/jgarcia/TFG/source_code/SP/verify.f:54
  40c67f:	e9 49 04 00 00              	(control)	jmp	40cacd <verify_+0x831>	; ↲ label 1050
1047:	
  40c684:	83 f8 66                    	(arith) 	cmp	$0x66,%eax
  40c687:	0f 85 02 01 00 00           	(control)	jne	40c78f <verify_+0x4f3>	; ↲ label 1054
1062:	
  40c68d:	83 3d 70 34 20 00 66        	(arith) 	cmpl	$0x66,0x203470(%rip)
  40c694:	0f 85 f5 00 00 00           	(control)	jne	40c78f <verify_+0x4f3>	; ↲ label 1054
1063:	
  40c69a:	83 3d 67 34 20 00 66        	(arith) 	cmpl	$0x66,0x203467(%rip)
  40c6a1:	0f 85 0e 03 00 00           	(control)	jne	40c9b5 <verify_+0x719>	; ↲ label 1064
1065:	
  40c6a7:	81 7d 00 90 01 00 00        	(arith) 	cmpl	$0x190,(%rbp)
  40c6ae:	0f 85 01 03 00 00           	(control)	jne	40c9b5 <verify_+0x719>	; ↲ label 1064
1066:	
/home/jgarcia/TFG/source_code/SP/verify.f:145
  40c6b4:	c6 03 42                    	(move)  	movb	$0x42,(%rbx)
/home/jgarcia/TFG/source_code/SP/verify.f:146
  40c6b7:	c7 84 24 28 01 00 00 fc a9 f1 d2	(move)  	movl	$-0x2d0e5604,0x128(%rsp)
  40c6c2:	c7 84 24 2c 01 00 00 4d 62 50 3f	(move)  	movl	$0x3f50624d,0x12c(%rsp)
/home/jgarcia/TFG/source_code/SP/verify.f:151
  40c6cd:	c7 04 24 07 f2 c1 9e        	(move)  	movl	$-0x613e0df9,(%rsp)
  40c6d4:	c7 44 24 04 1b 42 51 40     	(move)  	movl	$0x4051421b,0x4(%rsp)
/home/jgarcia/TFG/source_code/SP/verify.f:152
  40c6dc:	c7 44 24 08 c1 6c 8e 56     	(move)  	movl	$0x568e6cc1,0x8(%rsp)
  40c6e4:	c7 44 24 0c 8b f3 3e 40     	(move)  	movl	$0x403ef38b,0xc(%rsp)
/home/jgarcia/TFG/source_code/SP/verify.f:153
  40c6ec:	c7 44 24 10 e1 14 3d 5a     	(move)  	movl	$0x5a3d14e1,0x10(%rsp)
  40c6f4:	c7 44 24 14 45 84 44 40     	(move)  	movl	$0x40448445,0x14(%rsp)
/home/jgarcia/TFG/source_code/SP/verify.f:154
  40c6fc:	c7 44 24 18 ab 37 52 82     	(move)  	movl	$-0x7dadc855,0x18(%rsp)
  40c704:	c7 44 24 1c e7 52 43 40     	(move)  	movl	$0x404352e7,0x1c(%rsp)
/home/jgarcia/TFG/source_code/SP/verify.f:155
  40c70c:	c7 44 24 20 23 c7 65 45     	(move)  	movl	$0x4565c723,0x20(%rsp)
  40c714:	c7 44 24 24 a8 37 4c 40     	(move)  	movl	$0x404c37a8,0x24(%rsp)
/home/jgarcia/TFG/source_code/SP/verify.f:160
  40c71c:	c7 84 24 90 00 00 00 78 54 15 be	(move)  	movl	$-0x41eaab88,0x90(%rsp)
  40c727:	c7 84 24 94 00 00 00 44 17 84 3f	(move)  	movl	$0x3f841744,0x94(%rsp)
/home/jgarcia/TFG/source_code/SP/verify.f:161
  40c732:	c7 84 24 98 00 00 00 3a de df 19	(move)  	movl	$0x19dfde3a,0x98(%rsp)
  40c73d:	c7 84 24 9c 00 00 00 0d c2 50 3f	(move)  	movl	$0x3f50c20d,0x9c(%rsp)
/home/jgarcia/TFG/source_code/SP/verify.f:162
  40c748:	c7 84 24 a0 00 00 00 2e 7a a8 f0	(move)  	movl	$-0xf5785d2,0xa0(%rsp)
  40c753:	c7 84 24 a4 00 00 00 b5 30 5c 3f	(move)  	movl	$0x3f5c30b5,0xa4(%rsp)
/home/jgarcia/TFG/source_code/SP/verify.f:163
  40c75e:	c7 84 24 a8 00 00 00 69 80 97 6e	(move)  	movl	$0x6e978069,0xa8(%rsp)
  40c769:	c7 84 24 ac 00 00 00 29 c3 5b 3f	(move)  	movl	$0x3f5bc329,0xac(%rsp)
/home/jgarcia/TFG/source_code/SP/verify.f:164
  40c774:	c7 84 24 b0 00 00 00 4d 30 62 e9	(move)  	movl	$-0x169dcfb3,0xb0(%rsp)
  40c77f:	c7 84 24 b4 00 00 00 fe ea 92 3f	(move)  	movl	$0x3f92eafe,0xb4(%rsp)
/home/jgarcia/TFG/source_code/SP/verify.f:54
  40c78a:	e9 3e 03 00 00              	(control)	jmp	40cacd <verify_+0x831>	; ↲ label 1050
1054:	
  40c78f:	3d a2 00 00 00              	(arith) 	cmp	$0xa2,%eax
  40c794:	0f 85 08 01 00 00           	(control)	jne	40c8a2 <verify_+0x606>	; ↲ label 1059
1067:	
  40c79a:	81 3d 60 33 20 00 a2 00 00 00	(arith) 	cmpl	$0xa2,0x203360(%rip)
  40c7a4:	0f 85 f8 00 00 00           	(control)	jne	40c8a2 <verify_+0x606>	; ↲ label 1059
1068:	
  40c7aa:	81 3d 54 33 20 00 a2 00 00 00	(arith) 	cmpl	$0xa2,0x203354(%rip)
  40c7b4:	0f 85 0b 03 00 00           	(control)	jne	40cac5 <verify_+0x829>	; ↲ label 1069
1070:	
  40c7ba:	81 7d 00 90 01 00 00        	(arith) 	cmpl	$0x190,(%rbp)
  40c7c1:	0f 85 fe 02 00 00           	(control)	jne	40cac5 <verify_+0x829>	; ↲ label 1069
1071:	
/home/jgarcia/TFG/source_code/SP/verify.f:175
  40c7c7:	c6 03 43                    	(move)  	movb	$0x43,(%rbx)
/home/jgarcia/TFG/source_code/SP/verify.f:176
  40c7ca:	c7 84 24 28 01 00 00 dc 11 4e 0b	(move)  	movl	$0xb4e11dc,0x128(%rsp)
  40c7d5:	c7 84 24 2c 01 00 00 5e f4 45 3f	(move)  	movl	$0x3f45f45e,0x12c(%rsp)
/home/jgarcia/TFG/source_code/SP/verify.f:181
  40c7e0:	c7 04 24 40 fb 9a 6f        	(move)  	movl	$0x6f9afb40,(%rsp)
  40c7e7:	c7 44 24 04 5a 61 82 40     	(move)  	movl	$0x4082615a,0x4(%rsp)
/home/jgarcia/TFG/source_code/SP/verify.f:182
  40c7ef:	c7 44 24 08 c1 b1 9d e6     	(move)  	movl	$-0x19624e3f,0x8(%rsp)
  40c7f7:	c7 44 24 0c 22 ae 6e 40     	(move)  	movl	$0x406eae22,0xc(%rsp)
/home/jgarcia/TFG/source_code/SP/verify.f:183
  40c7ff:	c7 44 24 10 3f 10 de 6f     	(move)  	movl	$0x6fde103f,0x10(%rsp)
  40c807:	c7 44 24 14 20 96 74 40     	(move)  	movl	$0x40749620,0x14(%rsp)
/home/jgarcia/TFG/source_code/SP/verify.f:184
  40c80f:	c7 44 24 18 1a bc ee 77     	(move)  	movl	$0x77eebc1a,0x18(%rsp)
  40c817:	c7 44 24 1c 14 43 73 40     	(move)  	movl	$0x40734314,0x1c(%rsp)
/home/jgarcia/TFG/source_code/SP/verify.f:185
  40c81f:	c7 44 24 20 11 96 3e de     	(move)  	movl	$-0x21c169ef,0x20(%rsp)
  40c827:	c7 44 24 24 8e bb 7c 40     	(move)  	movl	$0x407cbb8e,0x24(%rsp)
/home/jgarcia/TFG/source_code/SP/verify.f:190
  40c82f:	c7 84 24 90 00 00 00 32 dc 7b b8	(move)  	movl	$-0x478423ce,0x90(%rsp)
  40c83a:	c7 84 24 94 00 00 00 c2 a0 d0 3f	(move)  	movl	$0x3fd0a0c2,0x94(%rsp)
/home/jgarcia/TFG/source_code/SP/verify.f:191
  40c845:	c7 84 24 98 00 00 00 73 74 8e 1f	(move)  	movl	$0x1f8e7473,0x98(%rsp)
  40c850:	c7 84 24 9c 00 00 00 dc 87 9a 3f	(move)  	movl	$0x3f9a87dc,0x9c(%rsp)
/home/jgarcia/TFG/source_code/SP/verify.f:192
  40c85b:	c7 84 24 a0 00 00 00 4a f2 d7 e1	(move)  	movl	$-0x1e280db6,0xa0(%rsp)
  40c866:	c7 84 24 a4 00 00 00 c6 47 aa 3f	(move)  	movl	$0x3faa47c6,0xa4(%rsp)
/home/jgarcia/TFG/source_code/SP/verify.f:193
  40c871:	c7 84 24 a8 00 00 00 5a b2 2c a3	(move)  	movl	$-0x5cd34da6,0xa8(%rsp)
  40c87c:	c7 84 24 ac 00 00 00 6a 9b a8 3f	(move)  	movl	$0x3fa89b6a,0xac(%rsp)
/home/jgarcia/TFG/source_code/SP/verify.f:194
  40c887:	c7 84 24 b0 00 00 00 0e a2 75 9b	(move)  	movl	$-0x648a5df2,0xb0(%rsp)
  40c892:	c7 84 24 b4 00 00 00 fb 8b e1 3f	(move)  	movl	$0x3fe18bfb,0xb4(%rsp)
/home/jgarcia/TFG/source_code/SP/verify.f:54
  40c89d:	e9 2b 02 00 00              	(control)	jmp	40cacd <verify_+0x831>	; ↲ label 1050
1059:	
  40c8a2:	3d 98 01 00 00              	(arith) 	cmp	$0x198,%eax
  40c8a7:	0f 85 08 01 00 00           	(control)	jne	40c9b5 <verify_+0x719>	; ↲ label 1064
1072:	
  40c8ad:	81 3d 4d 32 20 00 98 01 00 00	(arith) 	cmpl	$0x198,0x20324d(%rip)
  40c8b7:	0f 85 08 02 00 00           	(control)	jne	40cac5 <verify_+0x829>	; ↲ label 1069
1073:	
  40c8bd:	81 3d 41 32 20 00 98 01 00 00	(arith) 	cmpl	$0x198,0x203241(%rip)
  40c8c7:	0f 85 f8 01 00 00           	(control)	jne	40cac5 <verify_+0x829>	; ↲ label 1069
1074:	
  40c8cd:	81 7d 00 f4 01 00 00        	(arith) 	cmpl	$0x1f4,(%rbp)
  40c8d4:	0f 85 eb 01 00 00           	(control)	jne	40cac5 <verify_+0x829>	; ↲ label 1069
1075:	
/home/jgarcia/TFG/source_code/SP/verify.f:205
  40c8da:	c6 03 44                    	(move)  	movb	$0x44,(%rbx)
/home/jgarcia/TFG/source_code/SP/verify.f:206
  40c8dd:	c7 84 24 28 01 00 00 61 32 55 30	(move)  	movl	$0x30553261,0x128(%rsp)
  40c8e8:	c7 84 24 2c 01 00 00 2a a9 33 3f	(move)  	movl	$0x3f33a92a,0x12c(%rsp)
/home/jgarcia/TFG/source_code/SP/verify.f:211
  40c8f3:	c7 04 24 f1 7a 59 28        	(move)  	movl	$0x28597af1,(%rsp)
  40c8fa:	c7 44 24 04 7b 67 c4 40     	(move)  	movl	$0x40c4677b,0x4(%rsp)
/home/jgarcia/TFG/source_code/SP/verify.f:212
  40c902:	c7 44 24 08 ed 55 b2 03     	(move)  	movl	$0x3b255ed,0x8(%rsp)
  40c90a:	c7 44 24 0c db 08 a9 40     	(move)  	movl	$0x40a908db,0xc(%rsp)
/home/jgarcia/TFG/source_code/SP/verify.f:213
  40c912:	c7 44 24 10 bf 1d 85 44     	(move)  	movl	$0x44851dbf,0x10(%rsp)
  40c91a:	c7 44 24 14 ae 28 b2 40     	(move)  	movl	$0x40b228ae,0x14(%rsp)
/home/jgarcia/TFG/source_code/SP/verify.f:214
  40c922:	c7 44 24 18 8c 03 52 5c     	(move)  	movl	$0x5c52038c,0x18(%rsp)
  40c92a:	c7 44 24 1c ec 8e b0 40     	(move)  	movl	$0x40b08eec,0x1c(%rsp)
/home/jgarcia/TFG/source_code/SP/verify.f:215
  40c932:	c7 44 24 20 e4 40 33 7b     	(move)  	movl	$0x7b3340e4,0x20(%rsp)
  40c93a:	c7 44 24 24 69 a4 bd 40     	(move)  	movl	$0x40bda469,0x24(%rsp)
/home/jgarcia/TFG/source_code/SP/verify.f:220
  40c942:	c7 84 24 90 00 00 00 f4 56 9a 65	(move)  	movl	$0x659a56f4,0x90(%rsp)
  40c94d:	c7 84 24 94 00 00 00 9e 5b 14 40	(move)  	movl	$0x40145b9e,0x94(%rsp)
/home/jgarcia/TFG/source_code/SP/verify.f:221
  40c958:	c7 84 24 98 00 00 00 f0 ab 92 fb	(move)  	movl	$-0x46d5410,0x98(%rsp)
  40c963:	c7 84 24 9c 00 00 00 05 09 e1 3f	(move)  	movl	$0x3fe10905,0x9c(%rsp)
/home/jgarcia/TFG/source_code/SP/verify.f:222
  40c96e:	c7 84 24 a0 00 00 00 8f 6d e3 32	(move)  	movl	$0x32e36d8f,0xa0(%rsp)
  40c979:	c7 84 24 a4 00 00 00 29 fe f2 3f	(move)  	movl	$0x3ff2fe29,0xa4(%rsp)
/home/jgarcia/TFG/source_code/SP/verify.f:223
  40c984:	c7 84 24 a8 00 00 00 87 b1 01 76	(move)  	movl	$0x7601b187,0xa8(%rsp)
  40c98f:	c7 84 24 ac 00 00 00 fa 56 f1 3f	(move)  	movl	$0x3ff156fa,0xac(%rsp)
/home/jgarcia/TFG/source_code/SP/verify.f:224
  40c99a:	c7 84 24 b0 00 00 00 55 02 df 14	(move)  	movl	$0x14df0255,0xb0(%rsp)
  40c9a5:	c7 84 24 b4 00 00 00 3c 48 27 40	(move)  	movl	$0x4027483c,0xb4(%rsp)
/home/jgarcia/TFG/source_code/SP/verify.f:54
  40c9b0:	e9 18 01 00 00              	(control)	jmp	40cacd <verify_+0x831>	; ↲ label 1050
1064:	
  40c9b5:	3d fc 03 00 00              	(arith) 	cmp	$0x3fc,%eax
  40c9ba:	0f 85 05 01 00 00           	(control)	jne	40cac5 <verify_+0x829>	; ↲ label 1069
1076:	
  40c9c0:	81 3d 3a 31 20 00 fc 03 00 00	(arith) 	cmpl	$0x3fc,0x20313a(%rip)
  40c9ca:	0f 85 f5 00 00 00           	(control)	jne	40cac5 <verify_+0x829>	; ↲ label 1069
1077:	
  40c9d0:	81 3d 2e 31 20 00 fc 03 00 00	(arith) 	cmpl	$0x3fc,0x20312e(%rip)
  40c9da:	0f 85 e5 00 00 00           	(control)	jne	40cac5 <verify_+0x829>	; ↲ label 1069
1078:	
  40c9e0:	81 7d 00 f4 01 00 00        	(arith) 	cmpl	$0x1f4,(%rbp)
  40c9e7:	0f 85 d8 00 00 00           	(control)	jne	40cac5 <verify_+0x829>	; ↲ label 1069
1079:	
/home/jgarcia/TFG/source_code/SP/verify.f:235
  40c9ed:	c6 03 45                    	(move)  	movb	$0x45,(%rbx)
/home/jgarcia/TFG/source_code/SP/verify.f:236
  40c9f0:	c7 84 24 28 01 00 00 2d 43 1c eb	(move)  	movl	$-0x14e3bcd3,0x128(%rsp)
  40c9fb:	c7 84 24 2c 01 00 00 e2 36 1a 3f	(move)  	movl	$0x3f1a36e2,0x12c(%rsp)
/home/jgarcia/TFG/source_code/SP/verify.f:241
  40ca06:	c7 04 24 3c fe a8 f9        	(move)  	movl	$-0x65701c4,(%rsp)
  40ca0d:	c7 44 24 04 3b 8b ee 40     	(move)  	movl	$0x40ee8b3b,0x4(%rsp)
/home/jgarcia/TFG/source_code/SP/verify.f:242
  40ca15:	c7 44 24 08 96 16 1e c9     	(move)  	movl	$-0x36e1e96a,0x8(%rsp)
  40ca1d:	c7 44 24 0c 95 34 cd 40     	(move)  	movl	$0x40cd3495,0xc(%rsp)
/home/jgarcia/TFG/source_code/SP/verify.f:243
  40ca25:	c7 44 24 10 9b a8 c6 47     	(move)  	movl	$0x47c6a89b,0x10(%rsp)
  40ca2d:	c7 44 24 14 fd ec d6 40     	(move)  	movl	$0x40d6ecfd,0x14(%rsp)
/home/jgarcia/TFG/source_code/SP/verify.f:244
  40ca35:	c7 44 24 18 06 c2 88 dc     	(move)  	movl	$-0x23773dfa,0x18(%rsp)
  40ca3d:	c7 44 24 1c bf 6b d4 40     	(move)  	movl	$0x40d46bbf,0x1c(%rsp)
/home/jgarcia/TFG/source_code/SP/verify.f:245
  40ca45:	c7 44 24 20 30 dc f3 1b     	(move)  	movl	$0x1bf3dc30,0x20(%rsp)
  40ca4d:	c7 44 24 24 04 4b e7 40     	(move)  	movl	$0x40e74b04,0x24(%rsp)
/home/jgarcia/TFG/source_code/SP/verify.f:250
  40ca55:	c7 84 24 90 00 00 00 ed 2e bb ba	(move)  	movl	$-0x4544d113,0x90(%rsp)
  40ca60:	c7 84 24 94 00 00 00 59 db 50 40	(move)  	movl	$0x4050db59,0x94(%rsp)
/home/jgarcia/TFG/source_code/SP/verify.f:251
  40ca6b:	c7 84 24 98 00 00 00 e3 88 da 22	(move)  	movl	$0x22da88e3,0x98(%rsp)
  40ca76:	c7 84 24 9c 00 00 00 08 90 15 40	(move)  	movl	$0x40159008,0x9c(%rsp)
/home/jgarcia/TFG/source_code/SP/verify.f:252
  40ca81:	c7 84 24 a0 00 00 00 f9 d3 59 f2	(move)  	movl	$-0xda62c07,0xa0(%rsp)
  40ca8c:	c7 84 24 a4 00 00 00 74 ce 30 40	(move)  	movl	$0x4030ce74,0xa4(%rsp)
/home/jgarcia/TFG/source_code/SP/verify.f:253
  40ca97:	c7 84 24 a8 00 00 00 86 d0 21 4f	(move)  	movl	$0x4f21d086,0xa8(%rsp)
  40caa2:	c7 84 24 ac 00 00 00 40 bd 2e 40	(move)  	movl	$0x402ebd40,0xac(%rsp)
/home/jgarcia/TFG/source_code/SP/verify.f:254
  40caad:	c7 84 24 b0 00 00 00 58 c9 aa 74	(move)  	movl	$0x74aac958,0xb0(%rsp)
  40cab8:	c7 84 24 b4 00 00 00 0e b1 63 40	(move)  	movl	$0x4063b10e,0xb4(%rsp)
/home/jgarcia/TFG/source_code/SP/verify.f:54
  40cac3:	eb 08                       	(control)	jmp	40cacd <verify_+0x831>	; ↲ label 1050
1069:	
/home/jgarcia/TFG/source_code/SP/verify.f:258
  40cac5:	41 c7 45 00 00 00 00 00     	(move)  	movl	$0,(%r13)
1050:	
/home/jgarcia/TFG/source_code/SP/verify.f:269
  40cacd:	c7 84 24 1c 01 00 00 01 00 00 00	(move)  	movl	$0x1,0x11c(%rsp)
  40cad8:	ba 01 00 00 00              	(move)  	mov	$0x1,%edx
/home/jgarcia/TFG/source_code/SP/verify.f:271
  40cadd:	f2 0f 10 0d db 1c 00 00     	(move)  	movsd	0x1cdb(%rip),%xmm1
; ------- Loop 236 entry
1080 (loop 236):	
  40cae5:	48 63 c2                    	(move)  	movsxd	%edx,%rax
  40cae8:	48 83 e8 01                 	(arith) 	sub	$0x1,%rax
  40caec:	f2 0f 10 04 c4              	(move)  	movsd	(%rsp,%rax,8),%xmm0
  40caf1:	f2 0f 10 54 c4 60           	(move)  	movsd	0x60(%rsp,%rax,8),%xmm2
  40caf7:	f2 0f 5c d0                 	(arith) 	subsd	%xmm0,%xmm2
  40cafb:	f2 0f 5e d0                 	(arith) 	divsd	%xmm0,%xmm2
  40caff:	66 0f 28 c2                 	(move)  	movapd	%xmm2,%xmm0
  40cb03:	66 0f 54 c1                 	(logic) 	andpd	%xmm1,%xmm0
  40cb07:	f2 0f 11 44 c4 30           	(move)  	movsd	%xmm0,0x30(%rsp,%rax,8)
/home/jgarcia/TFG/source_code/SP/verify.f:272
  40cb0d:	f2 0f 10 84 c4 90 00 00 00  	(move)  	movsd	0x90(%rsp,%rax,8),%xmm0
  40cb16:	f2 0f 10 94 c4 f0 00 00 00  	(move)  	movsd	0xf0(%rsp,%rax,8),%xmm2
  40cb1f:	f2 0f 5c d0                 	(arith) 	subsd	%xmm0,%xmm2
  40cb23:	f2 0f 5e d0                 	(arith) 	divsd	%xmm0,%xmm2
  40cb27:	66 0f 28 c2                 	(move)  	movapd	%xmm2,%xmm0
  40cb2b:	66 0f 54 c1                 	(logic) 	andpd	%xmm1,%xmm0
  40cb2f:	f2 0f 11 84 c4 c0 00 00 00  	(move)  	movsd	%xmm0,0xc0(%rsp,%rax,8)
  40cb38:	83 c2 01                    	(arith) 	add	$0x1,%edx
/home/jgarcia/TFG/source_code/SP/verify.f:269
  40cb3b:	83 fa 06                    	(arith) 	cmp	$0x6,%edx
  40cb3e:	75 a5                       	(control)	jne	40cae5 <verify_+0x849>	; ↰ label 1080 (loop 236)
; ------- Loop 236 exit
1081:	
  40cb40:	c7 84 24 1c 01 00 00 06 00 00 00	(move)  	movl	$0x6,0x11c(%rsp)
/home/jgarcia/TFG/source_code/SP/verify.f:280
  40cb4b:	80 3b 55                    	(arith) 	cmpb	$0x55,(%rbx)
  40cb4e:	0f 84 8f 01 00 00           	(control)	je	40cce3 <verify_+0xa47>	; ↲ label 1082
1083:	
/home/jgarcia/TFG/source_code/SP/verify.f:281
  40cb54:	48 c7 84 24 38 01 00 00 60 e5 40 00	(move)  	movq	$0x40e560,0x138(%rsp)
  40cb60:	c7 84 24 40 01 00 00 19 01 00 00	(move)  	movl	$0x119,0x140(%rsp)
  40cb6b:	48 c7 84 24 78 01 00 00 70 e5 40 00	(move)  	movq	$0x40e570,0x178(%rsp)
  40cb77:	c7 84 24 80 01 00 00 2f 00 00 00	(move)  	movl	$0x2f,0x180(%rsp)
  40cb82:	c7 84 24 30 01 00 00 00 10 00 00	(move)  	movl	$0x1000,0x130(%rsp)
  40cb8d:	c7 84 24 34 01 00 00 06 00 00 00	(move)  	movl	$0x6,0x134(%rsp)
  40cb98:	48 8d ac 24 30 01 00 00     	(arith) 	lea	0x130(%rsp),%rbp
  40cba0:	48 89 ef                    	(move)  	mov	%rbp,%rdi
  40cba3:	e8 60 3d ff ff              	(control)	call	400908 <_gfortran_st_write@plt>	; ⇄ _gfortran_st_write
1084:	
  40cba8:	ba 01 00 00 00              	(move)  	mov	$0x1,%edx
  40cbad:	48 89 de                    	(move)  	mov	%rbx,%rsi
  40cbb0:	48 89 ef                    	(move)  	mov	%rbp,%rdi
  40cbb3:	e8 30 3d ff ff              	(control)	call	4008e8 <_gfortran_transfer_character@plt>	; ⇄ _gfortran_transfer_character
1085:	
  40cbb8:	48 89 ef                    	(move)  	mov	%rbp,%rdi
  40cbbb:	e8 a8 3c ff ff              	(control)	call	400868 <_gfortran_st_write_done@plt>	; ⇄ _gfortran_st_write_done
1086:	
/home/jgarcia/TFG/source_code/SP/verify.f:283
  40cbc0:	48 c7 84 24 18 03 00 00 60 e5 40 00	(move)  	movq	$0x40e560,0x318(%rsp)
  40cbcc:	c7 84 24 20 03 00 00 1b 01 00 00	(move)  	movl	$0x11b,0x320(%rsp)
  40cbd7:	48 c7 84 24 58 03 00 00 a0 e5 40 00	(move)  	movq	$0x40e5a0,0x358(%rsp)
  40cbe3:	c7 84 24 60 03 00 00 2c 00 00 00	(move)  	movl	$0x2c,0x360(%rsp)
  40cbee:	c7 84 24 10 03 00 00 00 10 00 00	(move)  	movl	$0x1000,0x310(%rsp)
  40cbf9:	c7 84 24 14 03 00 00 06 00 00 00	(move)  	movl	$0x6,0x314(%rsp)
  40cc04:	48 8d ac 24 10 03 00 00     	(arith) 	lea	0x310(%rsp),%rbp
  40cc0c:	48 89 ef                    	(move)  	mov	%rbp,%rdi
  40cc0f:	e8 f4 3c ff ff              	(control)	call	400908 <_gfortran_st_write@plt>	; ⇄ _gfortran_st_write
1087:	
  40cc14:	48 8d b4 24 20 01 00 00     	(arith) 	lea	0x120(%rsp),%rsi
  40cc1c:	ba 08 00 00 00              	(move)  	mov	$0x8,%edx
  40cc21:	48 89 ef                    	(move)  	mov	%rbp,%rdi
  40cc24:	e8 ff 3c ff ff              	(control)	call	400928 <_gfortran_transfer_real@plt>	; ⇄ _gfortran_transfer_real
1088:	
  40cc29:	48 89 ef                    	(move)  	mov	%rbp,%rdi
  40cc2c:	e8 37 3c ff ff              	(control)	call	400868 <_gfortran_st_write_done@plt>	; ⇄ _gfortran_st_write_done
1089:	
/home/jgarcia/TFG/source_code/SP/verify.f:285
  40cc31:	f2 0f 10 05 8f 2a 20 00     	(move)  	movsd	0x202a8f(%rip),%xmm0
  40cc39:	f2 0f 5c 84 24 28 01 00 00  	(arith) 	subsd	0x128(%rsp),%xmm0
  40cc42:	f2 0f 10 0d 76 1b 00 00     	(move)  	movsd	0x1b76(%rip),%xmm1
  40cc4a:	66 0f 54 c1                 	(logic) 	andpd	%xmm1,%xmm0
  40cc4e:	f2 0f 10 8c 24 20 01 00 00  	(move)  	movsd	0x120(%rsp),%xmm1
  40cc57:	66 0f 2e c8                 	(arith) 	ucomisd	%xmm0,%xmm1
  40cc5b:	0f 93 c0                    	(move)  	setae	%al
  40cc5e:	0f b6 c0                    	(move)  	movzx	%al,%eax
  40cc61:	41 89 45 00                 	(move)  	mov	%eax,(%r13)
/home/jgarcia/TFG/source_code/SP/verify.f:286
  40cc65:	85 c0                       	(arith) 	test	%eax,%eax
  40cc67:	0f 85 d2 00 00 00           	(control)	jne	40cd3f <verify_+0xaa3>	; ↲ label 1090
1091:	
/home/jgarcia/TFG/source_code/SP/verify.f:287
  40cc6d:	c6 03 55                    	(move)  	movb	$0x55,(%rbx)
/home/jgarcia/TFG/source_code/SP/verify.f:288
  40cc70:	48 c7 84 24 f8 04 00 00 60 e5 40 00	(move)  	movq	$0x40e560,0x4f8(%rsp)
  40cc7c:	c7 84 24 00 05 00 00 20 01 00 00	(move)  	movl	$0x120,0x500(%rsp)
  40cc87:	48 c7 84 24 38 05 00 00 d0 e5 40 00	(move)  	movq	$0x40e5d0,0x538(%rsp)
  40cc93:	c7 84 24 40 05 00 00 4b 00 00 00	(move)  	movl	$0x4b,0x540(%rsp)
  40cc9e:	c7 84 24 f0 04 00 00 00 10 00 00	(move)  	movl	$0x1000,0x4f0(%rsp)
  40cca9:	c7 84 24 f4 04 00 00 06 00 00 00	(move)  	movl	$0x6,0x4f4(%rsp)
  40ccb4:	48 8d ac 24 f0 04 00 00     	(arith) 	lea	0x4f0(%rsp),%rbp
  40ccbc:	48 89 ef                    	(move)  	mov	%rbp,%rdi
  40ccbf:	e8 44 3c ff ff              	(control)	call	400908 <_gfortran_st_write@plt>	; ⇄ _gfortran_st_write
1092:	
  40ccc4:	48 8d b4 24 28 01 00 00     	(arith) 	lea	0x128(%rsp),%rsi
  40cccc:	ba 08 00 00 00              	(move)  	mov	$0x8,%edx
  40ccd1:	48 89 ef                    	(move)  	mov	%rbp,%rdi
  40ccd4:	e8 4f 3c ff ff              	(control)	call	400928 <_gfortran_transfer_real@plt>	; ⇄ _gfortran_transfer_real
1093:	
  40ccd9:	48 89 ef                    	(move)  	mov	%rbp,%rdi
  40ccdc:	e8 87 3b ff ff              	(control)	call	400868 <_gfortran_st_write_done@plt>	; ⇄ _gfortran_st_write_done
1094:	
  40cce1:	eb 5c                       	(control)	jmp	40cd3f <verify_+0xaa3>	; ↲ label 1090
1082:	
/home/jgarcia/TFG/source_code/SP/verify.f:293
  40cce3:	48 c7 84 24 d8 06 00 00 60 e5 40 00	(move)  	movq	$0x40e560,0x6d8(%rsp)
  40ccef:	c7 84 24 e0 06 00 00 25 01 00 00	(move)  	movl	$0x125,0x6e0(%rsp)
  40ccfa:	48 c7 84 24 18 07 00 00 1b e6 40 00	(move)  	movq	$0x40e61b,0x718(%rsp)
  40cd06:	c7 84 24 20 07 00 00 12 00 00 00	(move)  	movl	$0x12,0x720(%rsp)
  40cd11:	c7 84 24 d0 06 00 00 00 10 00 00	(move)  	movl	$0x1000,0x6d0(%rsp)
  40cd1c:	c7 84 24 d4 06 00 00 06 00 00 00	(move)  	movl	$0x6,0x6d4(%rsp)
  40cd27:	48 8d ac 24 d0 06 00 00     	(arith) 	lea	0x6d0(%rsp),%rbp
  40cd2f:	48 89 ef                    	(move)  	mov	%rbp,%rdi
  40cd32:	e8 d1 3b ff ff              	(control)	call	400908 <_gfortran_st_write@plt>	; ⇄ _gfortran_st_write
1095:	
  40cd37:	48 89 ef                    	(move)  	mov	%rbp,%rdi
  40cd3a:	e8 29 3b ff ff              	(control)	call	400868 <_gfortran_st_write_done@plt>	; ⇄ _gfortran_st_write_done
1090:	
/home/jgarcia/TFG/source_code/SP/verify.f:298
  40cd3f:	80 3b 55                    	(arith) 	cmpb	$0x55,(%rbx)
  40cd42:	74 5e                       	(control)	je	40cda2 <verify_+0xb06>	; ↲ label 1096
1097:	
/home/jgarcia/TFG/source_code/SP/verify.f:299
  40cd44:	48 c7 84 24 b8 08 00 00 60 e5 40 00	(move)  	movq	$0x40e560,0x8b8(%rsp)
  40cd50:	c7 84 24 c0 08 00 00 2b 01 00 00	(move)  	movl	$0x12b,0x8c0(%rsp)
  40cd5b:	48 c7 84 24 f8 08 00 00 30 e6 40 00	(move)  	movq	$0x40e630,0x8f8(%rsp)
  40cd67:	c7 84 24 00 09 00 00 28 00 00 00	(move)  	movl	$0x28,0x900(%rsp)
  40cd72:	c7 84 24 b0 08 00 00 00 10 00 00	(move)  	movl	$0x1000,0x8b0(%rsp)
  40cd7d:	c7 84 24 b4 08 00 00 06 00 00 00	(move)  	movl	$0x6,0x8b4(%rsp)
  40cd88:	48 8d ac 24 b0 08 00 00     	(arith) 	lea	0x8b0(%rsp),%rbp
  40cd90:	48 89 ef                    	(move)  	mov	%rbp,%rdi
  40cd93:	e8 70 3b ff ff              	(control)	call	400908 <_gfortran_st_write@plt>	; ⇄ _gfortran_st_write
1098:	
  40cd98:	48 89 ef                    	(move)  	mov	%rbp,%rdi
  40cd9b:	e8 c8 3a ff ff              	(control)	call	400868 <_gfortran_st_write_done@plt>	; ⇄ _gfortran_st_write_done
1099:	
  40cda0:	eb 5c                       	(control)	jmp	40cdfe <verify_+0xb62>	; ↲ label 1100
1096:	
/home/jgarcia/TFG/source_code/SP/verify.f:301
  40cda2:	48 c7 84 24 98 0a 00 00 60 e5 40 00	(move)  	movq	$0x40e560,0xa98(%rsp)
  40cdae:	c7 84 24 a0 0a 00 00 2d 01 00 00	(move)  	movl	$0x12d,0xaa0(%rsp)
  40cdb9:	48 c7 84 24 d8 0a 00 00 58 e6 40 00	(move)  	movq	$0x40e658,0xad8(%rsp)
  40cdc5:	c7 84 24 e0 0a 00 00 1a 00 00 00	(move)  	movl	$0x1a,0xae0(%rsp)
  40cdd0:	c7 84 24 90 0a 00 00 00 10 00 00	(move)  	movl	$0x1000,0xa90(%rsp)
  40cddb:	c7 84 24 94 0a 00 00 06 00 00 00	(move)  	movl	$0x6,0xa94(%rsp)
  40cde6:	48 8d ac 24 90 0a 00 00     	(arith) 	lea	0xa90(%rsp),%rbp
  40cdee:	48 89 ef                    	(move)  	mov	%rbp,%rdi
  40cdf1:	e8 12 3b ff ff              	(control)	call	400908 <_gfortran_st_write@plt>	; ⇄ _gfortran_st_write
1101:	
  40cdf6:	48 89 ef                    	(move)  	mov	%rbp,%rdi
  40cdf9:	e8 6a 3a ff ff              	(control)	call	400868 <_gfortran_st_write_done@plt>	; ⇄ _gfortran_st_write_done
1100:	
/home/jgarcia/TFG/source_code/SP/verify.f:306
  40cdfe:	c7 84 24 1c 01 00 00 01 00 00 00	(move)  	movl	$0x1,0x11c(%rsp)
/home/jgarcia/TFG/source_code/SP/verify.f:313
  40ce09:	48 8d ac 24 30 10 00 00     	(arith) 	lea	0x1030(%rsp),%rbp
  40ce11:	4c 8d 74 24 60              	(arith) 	lea	0x60(%rsp),%r14
  40ce16:	49 89 e7                    	(move)  	mov	%rsp,%r15
/home/jgarcia/TFG/source_code/SP/verify.f:310
  40ce19:	4c 8d a4 24 50 0e 00 00     	(arith) 	lea	0xe50(%rsp),%r12
; ------- Loop 237 entry
1102 (loop 237):	
/home/jgarcia/TFG/source_code/SP/verify.f:307
  40ce21:	80 3b 55                    	(arith) 	cmpb	$0x55,(%rbx)
  40ce24:	0f 85 9c 00 00 00           	(control)	jne	40cec6 <verify_+0xc2a>	; ↲ label 1103
1104:	
/home/jgarcia/TFG/source_code/SP/verify.f:308
  40ce2a:	48 c7 84 24 78 0c 00 00 60 e5 40 00	(move)  	movq	$0x40e560,0xc78(%rsp)
  40ce36:	c7 84 24 80 0c 00 00 34 01 00 00	(move)  	movl	$0x134,0xc80(%rsp)
  40ce41:	48 c7 84 24 b8 0c 00 00 72 e6 40 00	(move)  	movq	$0x40e672,0xcb8(%rsp)
  40ce4d:	c7 84 24 c0 0c 00 00 1a 00 00 00	(move)  	movl	$0x1a,0xcc0(%rsp)
  40ce58:	c7 84 24 70 0c 00 00 00 10 00 00	(move)  	movl	$0x1000,0xc70(%rsp)
  40ce63:	c7 84 24 74 0c 00 00 06 00 00 00	(move)  	movl	$0x6,0xc74(%rsp)
  40ce6e:	48 8d bc 24 70 0c 00 00     	(arith) 	lea	0xc70(%rsp),%rdi
  40ce76:	e8 8d 3a ff ff              	(control)	call	400908 <_gfortran_st_write@plt>	; ⇄ _gfortran_st_write
1105:	
  40ce7b:	ba 04 00 00 00              	(move)  	mov	$0x4,%edx
  40ce80:	48 8d b4 24 1c 01 00 00     	(arith) 	lea	0x11c(%rsp),%rsi
  40ce88:	48 8d bc 24 70 0c 00 00     	(arith) 	lea	0xc70(%rsp),%rdi
  40ce90:	e8 33 3a ff ff              	(control)	call	4008c8 <_gfortran_transfer_integer@plt>	; ⇄ _gfortran_transfer_integer
1106:	
  40ce95:	48 63 84 24 1c 01 00 00     	(move)  	movsxd	0x11c(%rsp),%rax
  40ce9d:	49 8d 74 c6 f8              	(arith) 	lea	-0x8(%r14,%rax,8),%rsi
  40cea2:	ba 08 00 00 00              	(move)  	mov	$0x8,%edx
  40cea7:	48 8d bc 24 70 0c 00 00     	(arith) 	lea	0xc70(%rsp),%rdi
  40ceaf:	e8 74 3a ff ff              	(control)	call	400928 <_gfortran_transfer_real@plt>	; ⇄ _gfortran_transfer_real
1107:	
  40ceb4:	48 8d bc 24 70 0c 00 00     	(arith) 	lea	0xc70(%rsp),%rdi
  40cebc:	e8 a7 39 ff ff              	(control)	call	400868 <_gfortran_st_write_done@plt>	; ⇄ _gfortran_st_write_done
1108:	
  40cec1:	e9 98 01 00 00              	(control)	jmp	40d05e <verify_+0xdc2>	; ↲ label 1109
1103:	
/home/jgarcia/TFG/source_code/SP/verify.f:307
  40cec6:	48 63 84 24 1c 01 00 00     	(move)  	movsxd	0x11c(%rsp),%rax
  40cece:	f2 0f 10 84 24 20 01 00 00  	(move)  	movsd	0x120(%rsp),%xmm0
  40ced7:	66 0f 2e 44 c4 28           	(arith) 	ucomisd	0x28(%rsp,%rax,8),%xmm0
  40cedd:	0f 82 bc 00 00 00           	(control)	jb	40cf9f <verify_+0xd03>	; ↲ label 1110
1111:	
/home/jgarcia/TFG/source_code/SP/verify.f:310
  40cee3:	48 c7 84 24 58 0e 00 00 60 e5 40 00	(move)  	movq	$0x40e560,0xe58(%rsp)
  40ceef:	c7 84 24 60 0e 00 00 36 01 00 00	(move)  	movl	$0x136,0xe60(%rsp)
  40cefa:	48 c7 84 24 98 0e 00 00 90 e6 40 00	(move)  	movq	$0x40e690,0xe98(%rsp)
  40cf06:	c7 84 24 a0 0e 00 00 2a 00 00 00	(move)  	movl	$0x2a,0xea0(%rsp)
  40cf11:	c7 84 24 50 0e 00 00 00 10 00 00	(move)  	movl	$0x1000,0xe50(%rsp)
  40cf1c:	c7 84 24 54 0e 00 00 06 00 00 00	(move)  	movl	$0x6,0xe54(%rsp)
  40cf27:	4c 89 e7                    	(move)  	mov	%r12,%rdi
  40cf2a:	e8 d9 39 ff ff              	(control)	call	400908 <_gfortran_st_write@plt>	; ⇄ _gfortran_st_write
1112:	
  40cf2f:	ba 04 00 00 00              	(move)  	mov	$0x4,%edx
  40cf34:	48 8d b4 24 1c 01 00 00     	(arith) 	lea	0x11c(%rsp),%rsi
  40cf3c:	4c 89 e7                    	(move)  	mov	%r12,%rdi
  40cf3f:	e8 84 39 ff ff              	(control)	call	4008c8 <_gfortran_transfer_integer@plt>	; ⇄ _gfortran_transfer_integer
1113:	
  40cf44:	48 63 84 24 1c 01 00 00     	(move)  	movsxd	0x11c(%rsp),%rax
  40cf4c:	49 8d 74 c6 f8              	(arith) 	lea	-0x8(%r14,%rax,8),%rsi
  40cf51:	ba 08 00 00 00              	(move)  	mov	$0x8,%edx
  40cf56:	4c 89 e7                    	(move)  	mov	%r12,%rdi
  40cf59:	e8 ca 39 ff ff              	(control)	call	400928 <_gfortran_transfer_real@plt>	; ⇄ _gfortran_transfer_real
1114:	
  40cf5e:	48 63 84 24 1c 01 00 00     	(move)  	movsxd	0x11c(%rsp),%rax
  40cf66:	49 8d 74 c7 f8              	(arith) 	lea	-0x8(%r15,%rax,8),%rsi
  40cf6b:	ba 08 00 00 00              	(move)  	mov	$0x8,%edx
  40cf70:	4c 89 e7                    	(move)  	mov	%r12,%rdi
  40cf73:	e8 b0 39 ff ff              	(control)	call	400928 <_gfortran_transfer_real@plt>	; ⇄ _gfortran_transfer_real
1115:	
  40cf78:	48 63 84 24 1c 01 00 00     	(move)  	movsxd	0x11c(%rsp),%rax
  40cf80:	48 8d 74 c4 28              	(arith) 	lea	0x28(%rsp,%rax,8),%rsi
  40cf85:	ba 08 00 00 00              	(move)  	mov	$0x8,%edx
  40cf8a:	4c 89 e7                    	(move)  	mov	%r12,%rdi
  40cf8d:	e8 96 39 ff ff              	(control)	call	400928 <_gfortran_transfer_real@plt>	; ⇄ _gfortran_transfer_real
1116:	
  40cf92:	4c 89 e7                    	(move)  	mov	%r12,%rdi
  40cf95:	e8 ce 38 ff ff              	(control)	call	400868 <_gfortran_st_write_done@plt>	; ⇄ _gfortran_st_write_done
1117:	
  40cf9a:	e9 bf 00 00 00              	(control)	jmp	40d05e <verify_+0xdc2>	; ↲ label 1109
1110:	
/home/jgarcia/TFG/source_code/SP/verify.f:312
  40cf9f:	41 c7 45 00 00 00 00 00     	(move)  	movl	$0,(%r13)
/home/jgarcia/TFG/source_code/SP/verify.f:313
  40cfa7:	48 c7 84 24 38 10 00 00 60 e5 40 00	(move)  	movq	$0x40e560,0x1038(%rsp)
  40cfb3:	c7 84 24 40 10 00 00 39 01 00 00	(move)  	movl	$0x139,0x1040(%rsp)
  40cfbe:	48 c7 84 24 78 10 00 00 c0 e6 40 00	(move)  	movq	$0x40e6c0,0x1078(%rsp)
  40cfca:	c7 84 24 80 10 00 00 2a 00 00 00	(move)  	movl	$0x2a,0x1080(%rsp)
  40cfd5:	c7 84 24 30 10 00 00 00 10 00 00	(move)  	movl	$0x1000,0x1030(%rsp)
  40cfe0:	c7 84 24 34 10 00 00 06 00 00 00	(move)  	movl	$0x6,0x1034(%rsp)
  40cfeb:	48 89 ef                    	(move)  	mov	%rbp,%rdi
  40cfee:	e8 15 39 ff ff              	(control)	call	400908 <_gfortran_st_write@plt>	; ⇄ _gfortran_st_write
1118:	
  40cff3:	ba 04 00 00 00              	(move)  	mov	$0x4,%edx
  40cff8:	48 8d b4 24 1c 01 00 00     	(arith) 	lea	0x11c(%rsp),%rsi
  40d000:	48 89 ef                    	(move)  	mov	%rbp,%rdi
  40d003:	e8 c0 38 ff ff              	(control)	call	4008c8 <_gfortran_transfer_integer@plt>	; ⇄ _gfortran_transfer_integer
1119:	
  40d008:	48 63 84 24 1c 01 00 00     	(move)  	movsxd	0x11c(%rsp),%rax
  40d010:	49 8d 74 c6 f8              	(arith) 	lea	-0x8(%r14,%rax,8),%rsi
  40d015:	ba 08 00 00 00              	(move)  	mov	$0x8,%edx
  40d01a:	48 89 ef                    	(move)  	mov	%rbp,%rdi
  40d01d:	e8 06 39 ff ff              	(control)	call	400928 <_gfortran_transfer_real@plt>	; ⇄ _gfortran_transfer_real
1120:	
  40d022:	48 63 84 24 1c 01 00 00     	(move)  	movsxd	0x11c(%rsp),%rax
  40d02a:	49 8d 74 c7 f8              	(arith) 	lea	-0x8(%r15,%rax,8),%rsi
  40d02f:	ba 08 00 00 00              	(move)  	mov	$0x8,%edx
  40d034:	48 89 ef                    	(move)  	mov	%rbp,%rdi
  40d037:	e8 ec 38 ff ff              	(control)	call	400928 <_gfortran_transfer_real@plt>	; ⇄ _gfortran_transfer_real
1121:	
  40d03c:	48 63 84 24 1c 01 00 00     	(move)  	movsxd	0x11c(%rsp),%rax
  40d044:	48 8d 74 c4 28              	(arith) 	lea	0x28(%rsp,%rax,8),%rsi
  40d049:	ba 08 00 00 00              	(move)  	mov	$0x8,%edx
  40d04e:	48 89 ef                    	(move)  	mov	%rbp,%rdi
  40d051:	e8 d2 38 ff ff              	(control)	call	400928 <_gfortran_transfer_real@plt>	; ⇄ _gfortran_transfer_real
1122:	
  40d056:	48 89 ef                    	(move)  	mov	%rbp,%rdi
  40d059:	e8 0a 38 ff ff              	(control)	call	400868 <_gfortran_st_write_done@plt>	; ⇄ _gfortran_st_write_done
1109:	
/home/jgarcia/TFG/source_code/SP/verify.f:306
  40d05e:	8b 84 24 1c 01 00 00        	(move)  	mov	0x11c(%rsp),%eax
  40d065:	8d 50 01                    	(arith) 	lea	0x1(%rax),%edx
  40d068:	89 94 24 1c 01 00 00        	(move)  	mov	%edx,0x11c(%rsp)
  40d06f:	83 f8 05                    	(arith) 	cmp	$0x5,%eax
  40d072:	0f 85 a9 fd ff ff           	(control)	jne	40ce21 <verify_+0xb85>	; ↰ label 1102 (loop 237)
; ------- Loop 237 exit
1123:	
/home/jgarcia/TFG/source_code/SP/verify.f:317
  40d078:	80 3b 55                    	(arith) 	cmpb	$0x55,(%rbx)
  40d07b:	74 5e                       	(control)	je	40d0db <verify_+0xe3f>	; ↲ label 1124
1125:	
/home/jgarcia/TFG/source_code/SP/verify.f:318
  40d07d:	48 c7 84 24 18 12 00 00 60 e5 40 00	(move)  	movq	$0x40e560,0x1218(%rsp)
  40d089:	c7 84 24 20 12 00 00 3e 01 00 00	(move)  	movl	$0x13e,0x1220(%rsp)
  40d094:	48 c7 84 24 58 12 00 00 f0 e6 40 00	(move)  	movq	$0x40e6f0,0x1258(%rsp)
  40d0a0:	c7 84 24 60 12 00 00 2e 00 00 00	(move)  	movl	$0x2e,0x1260(%rsp)
  40d0ab:	c7 84 24 10 12 00 00 00 10 00 00	(move)  	movl	$0x1000,0x1210(%rsp)
  40d0b6:	c7 84 24 14 12 00 00 06 00 00 00	(move)  	movl	$0x6,0x1214(%rsp)
  40d0c1:	48 8d ac 24 10 12 00 00     	(arith) 	lea	0x1210(%rsp),%rbp
  40d0c9:	48 89 ef                    	(move)  	mov	%rbp,%rdi
  40d0cc:	e8 37 38 ff ff              	(control)	call	400908 <_gfortran_st_write@plt>	; ⇄ _gfortran_st_write
1126:	
  40d0d1:	48 89 ef                    	(move)  	mov	%rbp,%rdi
  40d0d4:	e8 8f 37 ff ff              	(control)	call	400868 <_gfortran_st_write_done@plt>	; ⇄ _gfortran_st_write_done
1127:	
  40d0d9:	eb 5c                       	(control)	jmp	40d137 <verify_+0xe9b>	; ↲ label 1128
1124:	
/home/jgarcia/TFG/source_code/SP/verify.f:320
  40d0db:	48 c7 84 24 f8 13 00 00 60 e5 40 00	(move)  	movq	$0x40e560,0x13f8(%rsp)
  40d0e7:	c7 84 24 00 14 00 00 40 01 00 00	(move)  	movl	$0x140,0x1400(%rsp)
  40d0f2:	48 c7 84 24 38 14 00 00 20 e7 40 00	(move)  	movq	$0x40e720,0x1438(%rsp)
  40d0fe:	c7 84 24 40 14 00 00 20 00 00 00	(move)  	movl	$0x20,0x1440(%rsp)
  40d109:	c7 84 24 f0 13 00 00 00 10 00 00	(move)  	movl	$0x1000,0x13f0(%rsp)
  40d114:	c7 84 24 f4 13 00 00 06 00 00 00	(move)  	movl	$0x6,0x13f4(%rsp)
  40d11f:	48 8d ac 24 f0 13 00 00     	(arith) 	lea	0x13f0(%rsp),%rbp
  40d127:	48 89 ef                    	(move)  	mov	%rbp,%rdi
  40d12a:	e8 d9 37 ff ff              	(control)	call	400908 <_gfortran_st_write@plt>	; ⇄ _gfortran_st_write
1129:	
  40d12f:	48 89 ef                    	(move)  	mov	%rbp,%rdi
  40d132:	e8 31 37 ff ff              	(control)	call	400868 <_gfortran_st_write_done@plt>	; ⇄ _gfortran_st_write_done
1128:	
/home/jgarcia/TFG/source_code/SP/verify.f:325
  40d137:	c7 84 24 1c 01 00 00 01 00 00 00	(move)  	movl	$0x1,0x11c(%rsp)
/home/jgarcia/TFG/source_code/SP/verify.f:332
  40d142:	48 8d ac 24 90 19 00 00     	(arith) 	lea	0x1990(%rsp),%rbp
  40d14a:	4c 8d b4 24 f0 00 00 00     	(arith) 	lea	0xf0(%rsp),%r14
  40d152:	4c 8d bc 24 90 00 00 00     	(arith) 	lea	0x90(%rsp),%r15
/home/jgarcia/TFG/source_code/SP/verify.f:329
  40d15a:	4c 8d a4 24 b0 17 00 00     	(arith) 	lea	0x17b0(%rsp),%r12
; ------- Loop 238 entry
1130 (loop 238):	
/home/jgarcia/TFG/source_code/SP/verify.f:326
  40d162:	80 3b 55                    	(arith) 	cmpb	$0x55,(%rbx)
  40d165:	0f 85 9c 00 00 00           	(control)	jne	40d207 <verify_+0xf6b>	; ↲ label 1131
1132:	
/home/jgarcia/TFG/source_code/SP/verify.f:327
  40d16b:	48 c7 84 24 d8 15 00 00 60 e5 40 00	(move)  	movq	$0x40e560,0x15d8(%rsp)
  40d177:	c7 84 24 e0 15 00 00 47 01 00 00	(move)  	movl	$0x147,0x15e0(%rsp)
  40d182:	48 c7 84 24 18 16 00 00 72 e6 40 00	(move)  	movq	$0x40e672,0x1618(%rsp)
  40d18e:	c7 84 24 20 16 00 00 1a 00 00 00	(move)  	movl	$0x1a,0x1620(%rsp)
  40d199:	c7 84 24 d0 15 00 00 00 10 00 00	(move)  	movl	$0x1000,0x15d0(%rsp)
  40d1a4:	c7 84 24 d4 15 00 00 06 00 00 00	(move)  	movl	$0x6,0x15d4(%rsp)
  40d1af:	48 8d bc 24 d0 15 00 00     	(arith) 	lea	0x15d0(%rsp),%rdi
  40d1b7:	e8 4c 37 ff ff              	(control)	call	400908 <_gfortran_st_write@plt>	; ⇄ _gfortran_st_write
1133:	
  40d1bc:	ba 04 00 00 00              	(move)  	mov	$0x4,%edx
  40d1c1:	48 8d b4 24 1c 01 00 00     	(arith) 	lea	0x11c(%rsp),%rsi
  40d1c9:	48 8d bc 24 d0 15 00 00     	(arith) 	lea	0x15d0(%rsp),%rdi
  40d1d1:	e8 f2 36 ff ff              	(control)	call	4008c8 <_gfortran_transfer_integer@plt>	; ⇄ _gfortran_transfer_integer
1134:	
  40d1d6:	48 63 84 24 1c 01 00 00     	(move)  	movsxd	0x11c(%rsp),%rax
  40d1de:	49 8d 74 c6 f8              	(arith) 	lea	-0x8(%r14,%rax,8),%rsi
  40d1e3:	ba 08 00 00 00              	(move)  	mov	$0x8,%edx
  40d1e8:	48 8d bc 24 d0 15 00 00     	(arith) 	lea	0x15d0(%rsp),%rdi
  40d1f0:	e8 33 37 ff ff              	(control)	call	400928 <_gfortran_transfer_real@plt>	; ⇄ _gfortran_transfer_real
1135:	
  40d1f5:	48 8d bc 24 d0 15 00 00     	(arith) 	lea	0x15d0(%rsp),%rdi
  40d1fd:	e8 66 36 ff ff              	(control)	call	400868 <_gfortran_st_write_done@plt>	; ⇄ _gfortran_st_write_done
1136:	
  40d202:	e9 a1 01 00 00              	(control)	jmp	40d3a8 <verify_+0x110c>	; ↲ label 1137
1131:	
/home/jgarcia/TFG/source_code/SP/verify.f:326
  40d207:	48 63 84 24 1c 01 00 00     	(move)  	movsxd	0x11c(%rsp),%rax
  40d20f:	f2 0f 10 84 24 20 01 00 00  	(move)  	movsd	0x120(%rsp),%xmm0
  40d218:	66 0f 2e 84 c4 b8 00 00 00  	(arith) 	ucomisd	0xb8(%rsp,%rax,8),%xmm0
  40d221:	0f 82 bf 00 00 00           	(control)	jb	40d2e6 <verify_+0x104a>	; ↲ label 1138
1139:	
/home/jgarcia/TFG/source_code/SP/verify.f:329
  40d227:	48 c7 84 24 b8 17 00 00 60 e5 40 00	(move)  	movq	$0x40e560,0x17b8(%rsp)
  40d233:	c7 84 24 c0 17 00 00 49 01 00 00	(move)  	movl	$0x149,0x17c0(%rsp)
  40d23e:	48 c7 84 24 f8 17 00 00 90 e6 40 00	(move)  	movq	$0x40e690,0x17f8(%rsp)
  40d24a:	c7 84 24 00 18 00 00 2a 00 00 00	(move)  	movl	$0x2a,0x1800(%rsp)
  40d255:	c7 84 24 b0 17 00 00 00 10 00 00	(move)  	movl	$0x1000,0x17b0(%rsp)
  40d260:	c7 84 24 b4 17 00 00 06 00 00 00	(move)  	movl	$0x6,0x17b4(%rsp)
  40d26b:	4c 89 e7                    	(move)  	mov	%r12,%rdi
  40d26e:	e8 95 36 ff ff              	(control)	call	400908 <_gfortran_st_write@plt>	; ⇄ _gfortran_st_write
1140:	
  40d273:	ba 04 00 00 00              	(move)  	mov	$0x4,%edx
  40d278:	48 8d b4 24 1c 01 00 00     	(arith) 	lea	0x11c(%rsp),%rsi
  40d280:	4c 89 e7                    	(move)  	mov	%r12,%rdi
  40d283:	e8 40 36 ff ff              	(control)	call	4008c8 <_gfortran_transfer_integer@plt>	; ⇄ _gfortran_transfer_integer
1141:	
  40d288:	48 63 84 24 1c 01 00 00     	(move)  	movsxd	0x11c(%rsp),%rax
  40d290:	49 8d 74 c6 f8              	(arith) 	lea	-0x8(%r14,%rax,8),%rsi
  40d295:	ba 08 00 00 00              	(move)  	mov	$0x8,%edx
  40d29a:	4c 89 e7                    	(move)  	mov	%r12,%rdi
  40d29d:	e8 86 36 ff ff              	(control)	call	400928 <_gfortran_transfer_real@plt>	; ⇄ _gfortran_transfer_real
1142:	
  40d2a2:	48 63 84 24 1c 01 00 00     	(move)  	movsxd	0x11c(%rsp),%rax
  40d2aa:	49 8d 74 c7 f8              	(arith) 	lea	-0x8(%r15,%rax,8),%rsi
  40d2af:	ba 08 00 00 00              	(move)  	mov	$0x8,%edx
  40d2b4:	4c 89 e7                    	(move)  	mov	%r12,%rdi
  40d2b7:	e8 6c 36 ff ff              	(control)	call	400928 <_gfortran_transfer_real@plt>	; ⇄ _gfortran_transfer_real
1143:	
  40d2bc:	48 63 84 24 1c 01 00 00     	(move)  	movsxd	0x11c(%rsp),%rax
  40d2c4:	48 8d b4 c4 b8 00 00 00     	(arith) 	lea	0xb8(%rsp,%rax,8),%rsi
  40d2cc:	ba 08 00 00 00              	(move)  	mov	$0x8,%edx
  40d2d1:	4c 89 e7                    	(move)  	mov	%r12,%rdi
  40d2d4:	e8 4f 36 ff ff              	(control)	call	400928 <_gfortran_transfer_real@plt>	; ⇄ _gfortran_transfer_real
1144:	
  40d2d9:	4c 89 e7                    	(move)  	mov	%r12,%rdi
  40d2dc:	e8 87 35 ff ff              	(control)	call	400868 <_gfortran_st_write_done@plt>	; ⇄ _gfortran_st_write_done
1145:	
  40d2e1:	e9 c2 00 00 00              	(control)	jmp	40d3a8 <verify_+0x110c>	; ↲ label 1137
1138:	
/home/jgarcia/TFG/source_code/SP/verify.f:331
  40d2e6:	41 c7 45 00 00 00 00 00     	(move)  	movl	$0,(%r13)
/home/jgarcia/TFG/source_code/SP/verify.f:332
  40d2ee:	48 c7 84 24 98 19 00 00 60 e5 40 00	(move)  	movq	$0x40e560,0x1998(%rsp)
  40d2fa:	c7 84 24 a0 19 00 00 4c 01 00 00	(move)  	movl	$0x14c,0x19a0(%rsp)
  40d305:	48 c7 84 24 d8 19 00 00 c0 e6 40 00	(move)  	movq	$0x40e6c0,0x19d8(%rsp)
  40d311:	c7 84 24 e0 19 00 00 2a 00 00 00	(move)  	movl	$0x2a,0x19e0(%rsp)
  40d31c:	c7 84 24 90 19 00 00 00 10 00 00	(move)  	movl	$0x1000,0x1990(%rsp)
  40d327:	c7 84 24 94 19 00 00 06 00 00 00	(move)  	movl	$0x6,0x1994(%rsp)
  40d332:	48 89 ef                    	(move)  	mov	%rbp,%rdi
  40d335:	e8 ce 35 ff ff              	(control)	call	400908 <_gfortran_st_write@plt>	; ⇄ _gfortran_st_write
1146:	
  40d33a:	ba 04 00 00 00              	(move)  	mov	$0x4,%edx
  40d33f:	48 8d b4 24 1c 01 00 00     	(arith) 	lea	0x11c(%rsp),%rsi
  40d347:	48 89 ef                    	(move)  	mov	%rbp,%rdi
  40d34a:	e8 79 35 ff ff              	(control)	call	4008c8 <_gfortran_transfer_integer@plt>	; ⇄ _gfortran_transfer_integer
1147:	
  40d34f:	48 63 84 24 1c 01 00 00     	(move)  	movsxd	0x11c(%rsp),%rax
  40d357:	49 8d 74 c6 f8              	(arith) 	lea	-0x8(%r14,%rax,8),%rsi
  40d35c:	ba 08 00 00 00              	(move)  	mov	$0x8,%edx
  40d361:	48 89 ef                    	(move)  	mov	%rbp,%rdi
  40d364:	e8 bf 35 ff ff              	(control)	call	400928 <_gfortran_transfer_real@plt>	; ⇄ _gfortran_transfer_real
1148:	
  40d369:	48 63 84 24 1c 01 00 00     	(move)  	movsxd	0x11c(%rsp),%rax
  40d371:	49 8d 74 c7 f8              	(arith) 	lea	-0x8(%r15,%rax,8),%rsi
  40d376:	ba 08 00 00 00              	(move)  	mov	$0x8,%edx
  40d37b:	48 89 ef                    	(move)  	mov	%rbp,%rdi
  40d37e:	e8 a5 35 ff ff              	(control)	call	400928 <_gfortran_transfer_real@plt>	; ⇄ _gfortran_transfer_real
1149:	
  40d383:	48 63 84 24 1c 01 00 00     	(move)  	movsxd	0x11c(%rsp),%rax
  40d38b:	48 8d b4 c4 b8 00 00 00     	(arith) 	lea	0xb8(%rsp,%rax,8),%rsi
  40d393:	ba 08 00 00 00              	(move)  	mov	$0x8,%edx
  40d398:	48 89 ef                    	(move)  	mov	%rbp,%rdi
  40d39b:	e8 88 35 ff ff              	(control)	call	400928 <_gfortran_transfer_real@plt>	; ⇄ _gfortran_transfer_real
1150:	
  40d3a0:	48 89 ef                    	(move)  	mov	%rbp,%rdi
  40d3a3:	e8 c0 34 ff ff              	(control)	call	400868 <_gfortran_st_write_done@plt>	; ⇄ _gfortran_st_write_done
1137:	
/home/jgarcia/TFG/source_code/SP/verify.f:325
  40d3a8:	8b 84 24 1c 01 00 00        	(move)  	mov	0x11c(%rsp),%eax
  40d3af:	8d 50 01                    	(arith) 	lea	0x1(%rax),%edx
  40d3b2:	89 94 24 1c 01 00 00        	(move)  	mov	%edx,0x11c(%rsp)
  40d3b9:	83 f8 05                    	(arith) 	cmp	$0x5,%eax
  40d3bc:	0f 85 a0 fd ff ff           	(control)	jne	40d162 <verify_+0xec6>	; ↰ label 1130 (loop 238)
; ------- Loop 238 exit
1151:	
/home/jgarcia/TFG/source_code/SP/verify.f:340
  40d3c2:	80 3b 55                    	(arith) 	cmpb	$0x55,(%rbx)
  40d3c5:	0f 85 bd 00 00 00           	(control)	jne	40d488 <verify_+0x11ec>	; ↲ label 1152
1153:	
/home/jgarcia/TFG/source_code/SP/verify.f:341
  40d3cb:	48 c7 84 24 78 1b 00 00 60 e5 40 00	(move)  	movq	$0x40e560,0x1b78(%rsp)
  40d3d7:	c7 84 24 80 1b 00 00 55 01 00 00	(move)  	movl	$0x155,0x1b80(%rsp)
  40d3e2:	48 c7 84 24 b8 1b 00 00 40 e7 40 00	(move)  	movq	$0x40e740,0x1bb8(%rsp)
  40d3ee:	c7 84 24 c0 1b 00 00 21 00 00 00	(move)  	movl	$0x21,0x1bc0(%rsp)
  40d3f9:	c7 84 24 70 1b 00 00 00 10 00 00	(move)  	movl	$0x1000,0x1b70(%rsp)
  40d404:	c7 84 24 74 1b 00 00 06 00 00 00	(move)  	movl	$0x6,0x1b74(%rsp)
  40d40f:	48 8d 9c 24 70 1b 00 00     	(arith) 	lea	0x1b70(%rsp),%rbx
  40d417:	48 89 df                    	(move)  	mov	%rbx,%rdi
  40d41a:	e8 e9 34 ff ff              	(control)	call	400908 <_gfortran_st_write@plt>	; ⇄ _gfortran_st_write
1154:	
  40d41f:	48 89 df                    	(move)  	mov	%rbx,%rdi
  40d422:	e8 41 34 ff ff              	(control)	call	400868 <_gfortran_st_write_done@plt>	; ⇄ _gfortran_st_write_done
1155:	
/home/jgarcia/TFG/source_code/SP/verify.f:342
  40d427:	48 c7 84 24 58 1d 00 00 60 e5 40 00	(move)  	movq	$0x40e560,0x1d58(%rsp)
  40d433:	c7 84 24 60 1d 00 00 56 01 00 00	(move)  	movl	$0x156,0x1d60(%rsp)
  40d43e:	48 c7 84 24 98 1d 00 00 61 e7 40 00	(move)  	movq	$0x40e761,0x1d98(%rsp)
  40d44a:	c7 84 24 a0 1d 00 00 1e 00 00 00	(move)  	movl	$0x1e,0x1da0(%rsp)
  40d455:	c7 84 24 50 1d 00 00 00 10 00 00	(move)  	movl	$0x1000,0x1d50(%rsp)
  40d460:	c7 84 24 54 1d 00 00 06 00 00 00	(move)  	movl	$0x6,0x1d54(%rsp)
  40d46b:	48 8d 9c 24 50 1d 00 00     	(arith) 	lea	0x1d50(%rsp),%rbx
  40d473:	48 89 df                    	(move)  	mov	%rbx,%rdi
  40d476:	e8 8d 34 ff ff              	(control)	call	400908 <_gfortran_st_write@plt>	; ⇄ _gfortran_st_write
1156:	
  40d47b:	48 89 df                    	(move)  	mov	%rbx,%rdi
  40d47e:	e8 e5 33 ff ff              	(control)	call	400868 <_gfortran_st_write_done@plt>	; ⇄ _gfortran_st_write_done
1157:	
  40d483:	e9 c1 00 00 00              	(control)	jmp	40d549 <verify_+0x12ad>	; ↲ label 1158
1152:	
/home/jgarcia/TFG/source_code/SP/verify.f:340
  40d488:	41 83 7d 00 00              	(arith) 	cmpl	$0,(%r13)
  40d48d:	74 5e                       	(control)	je	40d4ed <verify_+0x1251>	; ↲ label 1159
1160:	
/home/jgarcia/TFG/source_code/SP/verify.f:346
  40d48f:	48 c7 84 24 38 1f 00 00 60 e5 40 00	(move)  	movq	$0x40e560,0x1f38(%rsp)
  40d49b:	c7 84 24 40 1f 00 00 5a 01 00 00	(move)  	movl	$0x15a,0x1f40(%rsp)
  40d4a6:	48 c7 84 24 78 1f 00 00 7f e7 40 00	(move)  	movq	$0x40e77f,0x1f78(%rsp)
  40d4b2:	c7 84 24 80 1f 00 00 1c 00 00 00	(move)  	movl	$0x1c,0x1f80(%rsp)
  40d4bd:	c7 84 24 30 1f 00 00 00 10 00 00	(move)  	movl	$0x1000,0x1f30(%rsp)
  40d4c8:	c7 84 24 34 1f 00 00 06 00 00 00	(move)  	movl	$0x6,0x1f34(%rsp)
  40d4d3:	48 8d 9c 24 30 1f 00 00     	(arith) 	lea	0x1f30(%rsp),%rbx
  40d4db:	48 89 df                    	(move)  	mov	%rbx,%rdi
  40d4de:	e8 25 34 ff ff              	(control)	call	400908 <_gfortran_st_write@plt>	; ⇄ _gfortran_st_write
1161:	
  40d4e3:	48 89 df                    	(move)  	mov	%rbx,%rdi
  40d4e6:	e8 7d 33 ff ff              	(control)	call	400868 <_gfortran_st_write_done@plt>	; ⇄ _gfortran_st_write_done
1162:	
  40d4eb:	eb 5c                       	(control)	jmp	40d549 <verify_+0x12ad>	; ↲ label 1158
1159:	
/home/jgarcia/TFG/source_code/SP/verify.f:349
  40d4ed:	48 c7 84 24 18 21 00 00 60 e5 40 00	(move)  	movq	$0x40e560,0x2118(%rsp)
  40d4f9:	c7 84 24 20 21 00 00 5d 01 00 00	(move)  	movl	$0x15d,0x2120(%rsp)
  40d504:	48 c7 84 24 58 21 00 00 9b e7 40 00	(move)  	movq	$0x40e79b,0x2158(%rsp)
  40d510:	c7 84 24 60 21 00 00 18 00 00 00	(move)  	movl	$0x18,0x2160(%rsp)
  40d51b:	c7 84 24 10 21 00 00 00 10 00 00	(move)  	movl	$0x1000,0x2110(%rsp)
  40d526:	c7 84 24 14 21 00 00 06 00 00 00	(move)  	movl	$0x6,0x2114(%rsp)
  40d531:	48 8d 9c 24 10 21 00 00     	(arith) 	lea	0x2110(%rsp),%rbx
  40d539:	48 89 df                    	(move)  	mov	%rbx,%rdi
  40d53c:	e8 c7 33 ff ff              	(control)	call	400908 <_gfortran_st_write@plt>	; ⇄ _gfortran_st_write
1163:	
  40d541:	48 89 df                    	(move)  	mov	%rbx,%rdi
  40d544:	e8 1f 33 ff ff              	(control)	call	400868 <_gfortran_st_write_done@plt>	; ⇄ _gfortran_st_write_done
1158:	
/home/jgarcia/TFG/source_code/SP/verify.f:356
  40d549:	48 81 c4 f8 22 00 00        	(arith) 	add	$0x22f8,%rsp
  40d550:	5b                          	(move)  	pop	%rbx
  40d551:	5d                          	(move)  	pop	%rbp
  40d552:	41 5c                       	(move)  	pop	%r12
  40d554:	41 5d                       	(move)  	pop	%r13
  40d556:	41 5e                       	(move)  	pop	%r14
  40d558:	41 5f                       	(move)  	pop	%r15
  40d55a:	c3                          	(control)	ret
1164:	
/home/jgarcia/TFG/source_code/common/print_results.f:2
  40d55b:	90                          	(other) 	nop


000000000040d55c <print_results>:
125 (function print_results_):	
/home/jgarcia/TFG/source_code/common/print_results.f:2
  40d55c:	41 57                       	(move)  	push	%r15
  40d55e:	41 56                       	(move)  	push	%r14
  40d560:	41 55                       	(move)  	push	%r13
  40d562:	41 54                       	(move)  	push	%r12
  40d564:	55                          	(move)  	push	%rbp
  40d565:	53                          	(move)  	push	%rbx
  40d566:	48 81 ec 78 29 00 00        	(arith) 	sub	$0x2978,%rsp
  40d56d:	49 89 fd                    	(move)  	mov	%rdi,%r13
  40d570:	49 89 f6                    	(move)  	mov	%rsi,%r14
  40d573:	49 89 d7                    	(move)  	mov	%rdx,%r15
  40d576:	48 89 cd                    	(move)  	mov	%rcx,%rbp
  40d579:	4d 89 c4                    	(move)  	mov	%r8,%r12
  40d57c:	4c 89 4c 24 08              	(move)  	mov	%r9,0x8(%rsp)
/home/jgarcia/TFG/source_code/common/print_results.f:16
  40d581:	48 c7 44 24 28 d0 e7 40 00  	(move)  	movq	$0x40e7d0,0x28(%rsp)
  40d58a:	c7 44 24 30 10 00 00 00     	(move)  	movl	$0x10,0x30(%rsp)
  40d592:	48 c7 44 24 68 e0 e7 40 00  	(move)  	movq	$0x40e7e0,0x68(%rsp)
  40d59b:	c7 44 24 70 25 00 00 00     	(move)  	movl	$0x25,0x70(%rsp)
  40d5a3:	c7 44 24 20 00 10 00 00     	(move)  	movl	$0x1000,0x20(%rsp)
  40d5ab:	c7 44 24 24 06 00 00 00     	(move)  	movl	$0x6,0x24(%rsp)
  40d5b3:	48 8d 5c 24 20              	(arith) 	lea	0x20(%rsp),%rbx
  40d5b8:	48 89 df                    	(move)  	mov	%rbx,%rdi
  40d5bb:	e8 48 33 ff ff              	(control)	call	400908 <_gfortran_st_write@plt>	; ⇄ _gfortran_st_write
1165:	
  40d5c0:	8b 94 24 18 2a 00 00        	(move)  	mov	0x2a18(%rsp),%edx
  40d5c7:	4c 89 ee                    	(move)  	mov	%r13,%rsi
  40d5ca:	48 89 df                    	(move)  	mov	%rbx,%rdi
  40d5cd:	e8 16 33 ff ff              	(control)	call	4008e8 <_gfortran_transfer_character@plt>	; ⇄ _gfortran_transfer_character
1166:	
  40d5d2:	48 89 df                    	(move)  	mov	%rbx,%rdi
  40d5d5:	e8 8e 32 ff ff              	(control)	call	400868 <_gfortran_st_write_done@plt>	; ⇄ _gfortran_st_write_done
1167:	
/home/jgarcia/TFG/source_code/common/print_results.f:19
  40d5da:	48 c7 84 24 08 02 00 00 d0 e7 40 00	(move)  	movq	$0x40e7d0,0x208(%rsp)
  40d5e6:	c7 84 24 10 02 00 00 13 00 00 00	(move)  	movl	$0x13,0x210(%rsp)
  40d5f1:	48 c7 84 24 48 02 00 00 08 e8 40 00	(move)  	movq	$0x40e808,0x248(%rsp)
  40d5fd:	c7 84 24 50 02 00 00 21 00 00 00	(move)  	movl	$0x21,0x250(%rsp)
  40d608:	c7 84 24 00 02 00 00 00 10 00 00	(move)  	movl	$0x1000,0x200(%rsp)
  40d613:	c7 84 24 04 02 00 00 06 00 00 00	(move)  	movl	$0x6,0x204(%rsp)
  40d61e:	48 8d 9c 24 00 02 00 00     	(arith) 	lea	0x200(%rsp),%rbx
  40d626:	48 89 df                    	(move)  	mov	%rbx,%rdi
  40d629:	e8 da 32 ff ff              	(control)	call	400908 <_gfortran_st_write@plt>	; ⇄ _gfortran_st_write
1168:	
  40d62e:	ba 01 00 00 00              	(move)  	mov	$0x1,%edx
  40d633:	4c 89 f6                    	(move)  	mov	%r14,%rsi
  40d636:	48 89 df                    	(move)  	mov	%rbx,%rdi
  40d639:	e8 aa 32 ff ff              	(control)	call	4008e8 <_gfortran_transfer_character@plt>	; ⇄ _gfortran_transfer_character
1169:	
  40d63e:	48 89 df                    	(move)  	mov	%rbx,%rdi
  40d641:	e8 22 32 ff ff              	(control)	call	400868 <_gfortran_st_write_done@plt>	; ⇄ _gfortran_st_write_done
1170:	
/home/jgarcia/TFG/source_code/common/print_results.f:27
  40d646:	83 7d 00 00                 	(arith) 	cmpl	$0,(%rbp)
  40d64a:	0f 85 cd 01 00 00           	(control)	jne	40d81d <print_results_+0x2c1>	; ↲ label 1171
1172:	
  40d650:	41 83 3c 24 00              	(arith) 	cmpl	$0,(%r12)
  40d655:	0f 85 c2 01 00 00           	(control)	jne	40d81d <print_results_+0x2c1>	; ↲ label 1171
1173:	
/home/jgarcia/TFG/source_code/common/print_results.f:28
  40d65b:	b9 29 e8 40 00              	(move)  	mov	$0x40e829,%ecx
  40d660:	ba 02 00 00 00              	(move)  	mov	$0x2,%edx
  40d665:	4c 89 ee                    	(move)  	mov	%r13,%rsi
  40d668:	bf 02 00 00 00              	(move)  	mov	$0x2,%edi
  40d66d:	e8 c6 32 ff ff              	(control)	call	400938 <_gfortran_compare_string@plt>	; ⇄ _gfortran_compare_string
1175:	
  40d672:	85 c0                       	(arith) 	test	%eax,%eax
  40d674:	0f 85 32 01 00 00           	(control)	jne	40d7ac <print_results_+0x250>	; ↲ label 1176
1177:	
/home/jgarcia/TFG/source_code/common/print_results.f:29
  40d67a:	48 c7 84 24 e8 03 00 00 d0 e7 40 00	(move)  	movq	$0x40e7d0,0x3e8(%rsp)
  40d686:	c7 84 24 f0 03 00 00 1d 00 00 00	(move)  	movl	$0x1d,0x3f0(%rsp)
  40d691:	48 8d 44 24 10              	(arith) 	lea	0x10(%rsp),%rax
  40d696:	48 89 84 24 40 04 00 00     	(move)  	mov	%rax,0x440(%rsp)
  40d69e:	c7 84 24 48 04 00 00 0f 00 00 00	(move)  	movl	$0xf,0x448(%rsp)
  40d6a9:	48 c7 84 24 20 04 00 00 00 00 00 00	(move)  	movq	$0,0x420(%rsp)
  40d6b5:	c7 84 24 e4 03 00 00 00 00 00 00	(move)  	movl	$0,0x3e4(%rsp)
  40d6c0:	48 c7 84 24 28 04 00 00 2b e8 40 00	(move)  	movq	$0x40e82b,0x428(%rsp)
  40d6cc:	c7 84 24 30 04 00 00 07 00 00 00	(move)  	movl	$0x7,0x430(%rsp)
  40d6d7:	c7 84 24 e0 03 00 00 00 50 00 00	(move)  	movl	$0x5000,0x3e0(%rsp)
  40d6e2:	48 8d 9c 24 e0 03 00 00     	(arith) 	lea	0x3e0(%rsp),%rbx
  40d6ea:	48 89 df                    	(move)  	mov	%rbx,%rdi
  40d6ed:	e8 16 32 ff ff              	(control)	call	400908 <_gfortran_st_write@plt>	; ⇄ _gfortran_st_write
1178:	
  40d6f2:	41 8b 3f                    	(move)  	mov	(%r15),%edi
  40d6f5:	f2 0f 10 05 5b 14 00 00     	(move)  	movsd	0x145b(%rip),%xmm0
  40d6fd:	e8 f6 31 ff ff              	(control)	call	4008f8 <__powidf2@plt>	; ⇄ __powidf2
1180:	
  40d702:	f2 0f 11 84 24 c8 05 00 00  	(move)  	movsd	%xmm0,0x5c8(%rsp)
  40d70b:	48 8d b4 24 c8 05 00 00     	(arith) 	lea	0x5c8(%rsp),%rsi
  40d713:	ba 08 00 00 00              	(move)  	mov	$0x8,%edx
  40d718:	48 89 df                    	(move)  	mov	%rbx,%rdi
  40d71b:	e8 08 32 ff ff              	(control)	call	400928 <_gfortran_transfer_real@plt>	; ⇄ _gfortran_transfer_real
1181:	
  40d720:	48 89 df                    	(move)  	mov	%rbx,%rdi
  40d723:	e8 40 31 ff ff              	(control)	call	400868 <_gfortran_st_write_done@plt>	; ⇄ _gfortran_st_write_done
1182:	
/home/jgarcia/TFG/source_code/common/print_results.f:31
  40d728:	bd 0f 00 00 00              	(move)  	mov	$0xf,%ebp
  40d72d:	80 7c 24 1e 2e              	(arith) 	cmpb	$0x2e,0x1e(%rsp)
  40d732:	75 08                       	(control)	jne	40d73c <print_results_+0x1e0>	; ↲ label 1183
1184:	
/home/jgarcia/TFG/source_code/common/print_results.f:32
  40d734:	c6 44 24 1e 20              	(move)  	movb	$0x20,0x1e(%rsp)
  40d739:	40 b5 0e                    	(move)  	mov	$0xe,%bpl
1183:	
/home/jgarcia/TFG/source_code/common/print_results.f:35
  40d73c:	48 c7 84 24 d8 05 00 00 d0 e7 40 00	(move)  	movq	$0x40e7d0,0x5d8(%rsp)
  40d748:	c7 84 24 e0 05 00 00 23 00 00 00	(move)  	movl	$0x23,0x5e0(%rsp)
  40d753:	48 c7 84 24 18 06 00 00 38 e8 40 00	(move)  	movq	$0x40e838,0x618(%rsp)
  40d75f:	c7 84 24 20 06 00 00 1f 00 00 00	(move)  	movl	$0x1f,0x620(%rsp)
  40d76a:	c7 84 24 d0 05 00 00 00 10 00 00	(move)  	movl	$0x1000,0x5d0(%rsp)
  40d775:	c7 84 24 d4 05 00 00 06 00 00 00	(move)  	movl	$0x6,0x5d4(%rsp)
  40d780:	48 8d 9c 24 d0 05 00 00     	(arith) 	lea	0x5d0(%rsp),%rbx
  40d788:	48 89 df                    	(move)  	mov	%rbx,%rdi
  40d78b:	e8 78 31 ff ff              	(control)	call	400908 <_gfortran_st_write@plt>	; ⇄ _gfortran_st_write
1185:	
  40d790:	89 ea                       	(move)  	mov	%ebp,%edx
  40d792:	48 8d 74 24 10              	(arith) 	lea	0x10(%rsp),%rsi
  40d797:	48 89 df                    	(move)  	mov	%rbx,%rdi
  40d79a:	e8 49 31 ff ff              	(control)	call	4008e8 <_gfortran_transfer_character@plt>	; ⇄ _gfortran_transfer_character
1186:	
  40d79f:	48 89 df                    	(move)  	mov	%rbx,%rdi
  40d7a2:	e8 c1 30 ff ff              	(control)	call	400868 <_gfortran_st_write_done@plt>	; ⇄ _gfortran_st_write_done
1187:	
  40d7a7:	e9 fd 00 00 00              	(control)	jmp	40d8a9 <print_results_+0x34d>	; ↲ label 1188
1176:	
/home/jgarcia/TFG/source_code/common/print_results.f:38
  40d7ac:	48 c7 84 24 b8 07 00 00 d0 e7 40 00	(move)  	movq	$0x40e7d0,0x7b8(%rsp)
  40d7b8:	c7 84 24 c0 07 00 00 26 00 00 00	(move)  	movl	$0x26,0x7c0(%rsp)
  40d7c3:	48 c7 84 24 f8 07 00 00 58 e8 40 00	(move)  	movq	$0x40e858,0x7f8(%rsp)
  40d7cf:	c7 84 24 00 08 00 00 20 00 00 00	(move)  	movl	$0x20,0x800(%rsp)
  40d7da:	c7 84 24 b0 07 00 00 00 10 00 00	(move)  	movl	$0x1000,0x7b0(%rsp)
  40d7e5:	c7 84 24 b4 07 00 00 06 00 00 00	(move)  	movl	$0x6,0x7b4(%rsp)
  40d7f0:	48 8d 9c 24 b0 07 00 00     	(arith) 	lea	0x7b0(%rsp),%rbx
  40d7f8:	48 89 df                    	(move)  	mov	%rbx,%rdi
  40d7fb:	e8 08 31 ff ff              	(control)	call	400908 <_gfortran_st_write@plt>	; ⇄ _gfortran_st_write
1189:	
  40d800:	ba 04 00 00 00              	(move)  	mov	$0x4,%edx
  40d805:	4c 89 fe                    	(move)  	mov	%r15,%rsi
  40d808:	48 89 df                    	(move)  	mov	%rbx,%rdi
  40d80b:	e8 b8 30 ff ff              	(control)	call	4008c8 <_gfortran_transfer_integer@plt>	; ⇄ _gfortran_transfer_integer
1190:	
  40d810:	48 89 df                    	(move)  	mov	%rbx,%rdi
  40d813:	e8 50 30 ff ff              	(control)	call	400868 <_gfortran_st_write_done@plt>	; ⇄ _gfortran_st_write_done
1191:	
  40d818:	e9 8c 00 00 00              	(control)	jmp	40d8a9 <print_results_+0x34d>	; ↲ label 1188
1171:	
/home/jgarcia/TFG/source_code/common/print_results.f:42
  40d81d:	48 c7 84 24 98 09 00 00 d0 e7 40 00	(move)  	movq	$0x40e7d0,0x998(%rsp)
  40d829:	c7 84 24 a0 09 00 00 2a 00 00 00	(move)  	movl	$0x2a,0x9a0(%rsp)
  40d834:	48 c7 84 24 d8 09 00 00 78 e8 40 00	(move)  	movq	$0x40e878,0x9d8(%rsp)
  40d840:	c7 84 24 e0 09 00 00 2d 00 00 00	(move)  	movl	$0x2d,0x9e0(%rsp)
  40d84b:	c7 84 24 90 09 00 00 00 10 00 00	(move)  	movl	$0x1000,0x990(%rsp)
  40d856:	c7 84 24 94 09 00 00 06 00 00 00	(move)  	movl	$0x6,0x994(%rsp)
  40d861:	48 8d 9c 24 90 09 00 00     	(arith) 	lea	0x990(%rsp),%rbx
  40d869:	48 89 df                    	(move)  	mov	%rbx,%rdi
  40d86c:	e8 97 30 ff ff              	(control)	call	400908 <_gfortran_st_write@plt>	; ⇄ _gfortran_st_write
1192:	
  40d871:	ba 04 00 00 00              	(move)  	mov	$0x4,%edx
  40d876:	4c 89 fe                    	(move)  	mov	%r15,%rsi
  40d879:	48 89 df                    	(move)  	mov	%rbx,%rdi
  40d87c:	e8 47 30 ff ff              	(control)	call	4008c8 <_gfortran_transfer_integer@plt>	; ⇄ _gfortran_transfer_integer
1193:	
  40d881:	ba 04 00 00 00              	(move)  	mov	$0x4,%edx
  40d886:	48 89 ee                    	(move)  	mov	%rbp,%rsi
  40d889:	48 89 df                    	(move)  	mov	%rbx,%rdi
  40d88c:	e8 37 30 ff ff              	(control)	call	4008c8 <_gfortran_transfer_integer@plt>	; ⇄ _gfortran_transfer_integer
1194:	
  40d891:	ba 04 00 00 00              	(move)  	mov	$0x4,%edx
  40d896:	4c 89 e6                    	(move)  	mov	%r12,%rsi
  40d899:	48 89 df                    	(move)  	mov	%rbx,%rdi
  40d89c:	e8 27 30 ff ff              	(control)	call	4008c8 <_gfortran_transfer_integer@plt>	; ⇄ _gfortran_transfer_integer
1195:	
  40d8a1:	48 89 df                    	(move)  	mov	%rbx,%rdi
  40d8a4:	e8 bf 2f ff ff              	(control)	call	400868 <_gfortran_st_write_done@plt>	; ⇄ _gfortran_st_write_done
1188:	
/home/jgarcia/TFG/source_code/common/print_results.f:46
  40d8a9:	48 c7 84 24 78 0b 00 00 d0 e7 40 00	(move)  	movq	$0x40e7d0,0xb78(%rsp)
  40d8b5:	c7 84 24 80 0b 00 00 2e 00 00 00	(move)  	movl	$0x2e,0xb80(%rsp)
  40d8c0:	48 c7 84 24 b8 0b 00 00 a8 e8 40 00	(move)  	movq	$0x40e8a8,0xbb8(%rsp)
  40d8cc:	c7 84 24 c0 0b 00 00 21 00 00 00	(move)  	movl	$0x21,0xbc0(%rsp)
  40d8d7:	c7 84 24 70 0b 00 00 00 10 00 00	(move)  	movl	$0x1000,0xb70(%rsp)
  40d8e2:	c7 84 24 74 0b 00 00 06 00 00 00	(move)  	movl	$0x6,0xb74(%rsp)
  40d8ed:	48 8d 9c 24 70 0b 00 00     	(arith) 	lea	0xb70(%rsp),%rbx
  40d8f5:	48 89 df                    	(move)  	mov	%rbx,%rdi
  40d8f8:	e8 0b 30 ff ff              	(control)	call	400908 <_gfortran_st_write@plt>	; ⇄ _gfortran_st_write
1196:	
  40d8fd:	ba 04 00 00 00              	(move)  	mov	$0x4,%edx
  40d902:	48 8b 74 24 08              	(move)  	mov	0x8(%rsp),%rsi
  40d907:	48 89 df                    	(move)  	mov	%rbx,%rdi
  40d90a:	e8 b9 2f ff ff              	(control)	call	4008c8 <_gfortran_transfer_integer@plt>	; ⇄ _gfortran_transfer_integer
1197:	
  40d90f:	48 89 df                    	(move)  	mov	%rbx,%rdi
  40d912:	e8 51 2f ff ff              	(control)	call	400868 <_gfortran_st_write_done@plt>	; ⇄ _gfortran_st_write_done
1198:	
/home/jgarcia/TFG/source_code/common/print_results.f:49
  40d917:	48 c7 84 24 58 0d 00 00 d0 e7 40 00	(move)  	movq	$0x40e7d0,0xd58(%rsp)
  40d923:	c7 84 24 60 0d 00 00 31 00 00 00	(move)  	movl	$0x31,0xd60(%rsp)
  40d92e:	48 c7 84 24 98 0d 00 00 d0 e8 40 00	(move)  	movq	$0x40e8d0,0xd98(%rsp)
  40d93a:	c7 84 24 a0 0d 00 00 22 00 00 00	(move)  	movl	$0x22,0xda0(%rsp)
  40d945:	c7 84 24 50 0d 00 00 00 10 00 00	(move)  	movl	$0x1000,0xd50(%rsp)
  40d950:	c7 84 24 54 0d 00 00 06 00 00 00	(move)  	movl	$0x6,0xd54(%rsp)
  40d95b:	48 8d 9c 24 50 0d 00 00     	(arith) 	lea	0xd50(%rsp),%rbx
  40d963:	48 89 df                    	(move)  	mov	%rbx,%rdi
  40d966:	e8 9d 2f ff ff              	(control)	call	400908 <_gfortran_st_write@plt>	; ⇄ _gfortran_st_write
1199:	
  40d96b:	ba 08 00 00 00              	(move)  	mov	$0x8,%edx
  40d970:	48 8b b4 24 b0 29 00 00     	(move)  	mov	0x29b0(%rsp),%rsi
  40d978:	48 89 df                    	(move)  	mov	%rbx,%rdi
  40d97b:	e8 a8 2f ff ff              	(control)	call	400928 <_gfortran_transfer_real@plt>	; ⇄ _gfortran_transfer_real
1200:	
  40d980:	48 89 df                    	(move)  	mov	%rbx,%rdi
  40d983:	e8 e0 2e ff ff              	(control)	call	400868 <_gfortran_st_write_done@plt>	; ⇄ _gfortran_st_write_done
1201:	
/home/jgarcia/TFG/source_code/common/print_results.f:52
  40d988:	48 c7 84 24 38 0f 00 00 d0 e7 40 00	(move)  	movq	$0x40e7d0,0xf38(%rsp)
  40d994:	c7 84 24 40 0f 00 00 34 00 00 00	(move)  	movl	$0x34,0xf40(%rsp)
  40d99f:	48 c7 84 24 78 0f 00 00 f8 e8 40 00	(move)  	movq	$0x40e8f8,0xf78(%rsp)
  40d9ab:	c7 84 24 80 0f 00 00 22 00 00 00	(move)  	movl	$0x22,0xf80(%rsp)
  40d9b6:	c7 84 24 30 0f 00 00 00 10 00 00	(move)  	movl	$0x1000,0xf30(%rsp)
  40d9c1:	c7 84 24 34 0f 00 00 06 00 00 00	(move)  	movl	$0x6,0xf34(%rsp)
  40d9cc:	48 8d 9c 24 30 0f 00 00     	(arith) 	lea	0xf30(%rsp),%rbx
  40d9d4:	48 89 df                    	(move)  	mov	%rbx,%rdi
  40d9d7:	e8 2c 2f ff ff              	(control)	call	400908 <_gfortran_st_write@plt>	; ⇄ _gfortran_st_write
1202:	
  40d9dc:	ba 08 00 00 00              	(move)  	mov	$0x8,%edx
  40d9e1:	48 8b b4 24 b8 29 00 00     	(move)  	mov	0x29b8(%rsp),%rsi
  40d9e9:	48 89 df                    	(move)  	mov	%rbx,%rdi
  40d9ec:	e8 37 2f ff ff              	(control)	call	400928 <_gfortran_transfer_real@plt>	; ⇄ _gfortran_transfer_real
1203:	
  40d9f1:	48 89 df                    	(move)  	mov	%rbx,%rdi
  40d9f4:	e8 6f 2e ff ff              	(control)	call	400868 <_gfortran_st_write_done@plt>	; ⇄ _gfortran_st_write_done
1204:	
/home/jgarcia/TFG/source_code/common/print_results.f:55
  40d9f9:	48 c7 84 24 18 11 00 00 d0 e7 40 00	(move)  	movq	$0x40e7d0,0x1118(%rsp)
  40da05:	c7 84 24 20 11 00 00 37 00 00 00	(move)  	movl	$0x37,0x1120(%rsp)
  40da10:	48 c7 84 24 58 11 00 00 1a e9 40 00	(move)  	movq	$0x40e91a,0x1158(%rsp)
  40da1c:	c7 84 24 60 11 00 00 1c 00 00 00	(move)  	movl	$0x1c,0x1160(%rsp)
  40da27:	c7 84 24 10 11 00 00 00 10 00 00	(move)  	movl	$0x1000,0x1110(%rsp)
  40da32:	c7 84 24 14 11 00 00 06 00 00 00	(move)  	movl	$0x6,0x1114(%rsp)
  40da3d:	48 8d 9c 24 10 11 00 00     	(arith) 	lea	0x1110(%rsp),%rbx
  40da45:	48 89 df                    	(move)  	mov	%rbx,%rdi
  40da48:	e8 bb 2e ff ff              	(control)	call	400908 <_gfortran_st_write@plt>	; ⇄ _gfortran_st_write
1205:	
  40da4d:	ba 18 00 00 00              	(move)  	mov	$0x18,%edx
  40da52:	48 8b b4 24 c0 29 00 00     	(move)  	mov	0x29c0(%rsp),%rsi
  40da5a:	48 89 df                    	(move)  	mov	%rbx,%rdi
  40da5d:	e8 86 2e ff ff              	(control)	call	4008e8 <_gfortran_transfer_character@plt>	; ⇄ _gfortran_transfer_character
1206:	
  40da62:	48 89 df                    	(move)  	mov	%rbx,%rdi
  40da65:	e8 fe 2d ff ff              	(control)	call	400868 <_gfortran_st_write_done@plt>	; ⇄ _gfortran_st_write_done
1207:	
/home/jgarcia/TFG/source_code/common/print_results.f:58
  40da6a:	48 8b 84 24 c8 29 00 00     	(move)  	mov	0x29c8(%rsp),%rax
  40da72:	83 38 00                    	(arith) 	cmpl	$0,(%rax)
  40da75:	74 70                       	(control)	je	40dae7 <print_results_+0x58b>	; ↲ label 1208
1209:	
/home/jgarcia/TFG/source_code/common/print_results.f:59
  40da77:	48 c7 84 24 f8 12 00 00 d0 e7 40 00	(move)  	movq	$0x40e7d0,0x12f8(%rsp)
  40da83:	c7 84 24 00 13 00 00 3b 00 00 00	(move)  	movl	$0x3b,0x1300(%rsp)
  40da8e:	48 c7 84 24 38 13 00 00 38 e9 40 00	(move)  	movq	$0x40e938,0x1338(%rsp)
  40da9a:	c7 84 24 40 13 00 00 1f 00 00 00	(move)  	movl	$0x1f,0x1340(%rsp)
  40daa5:	c7 84 24 f0 12 00 00 00 10 00 00	(move)  	movl	$0x1000,0x12f0(%rsp)
  40dab0:	c7 84 24 f4 12 00 00 06 00 00 00	(move)  	movl	$0x6,0x12f4(%rsp)
  40dabb:	48 8d 9c 24 f0 12 00 00     	(arith) 	lea	0x12f0(%rsp),%rbx
  40dac3:	48 89 df                    	(move)  	mov	%rbx,%rdi
  40dac6:	e8 3d 2e ff ff              	(control)	call	400908 <_gfortran_st_write@plt>	; ⇄ _gfortran_st_write
1210:	
  40dacb:	ba 0c 00 00 00              	(move)  	mov	$0xc,%edx
  40dad0:	be 57 e9 40 00              	(move)  	mov	$0x40e957,%esi
  40dad5:	48 89 df                    	(move)  	mov	%rbx,%rdi
  40dad8:	e8 0b 2e ff ff              	(control)	call	4008e8 <_gfortran_transfer_character@plt>	; ⇄ _gfortran_transfer_character
1211:	
  40dadd:	48 89 df                    	(move)  	mov	%rbx,%rdi
  40dae0:	e8 83 2d ff ff              	(control)	call	400868 <_gfortran_st_write_done@plt>	; ⇄ _gfortran_st_write_done
1212:	
  40dae5:	eb 6e                       	(control)	jmp	40db55 <print_results_+0x5f9>	; ↲ label 1213
1208:	
/home/jgarcia/TFG/source_code/common/print_results.f:61
  40dae7:	48 c7 84 24 d8 14 00 00 d0 e7 40 00	(move)  	movq	$0x40e7d0,0x14d8(%rsp)
  40daf3:	c7 84 24 e0 14 00 00 3d 00 00 00	(move)  	movl	$0x3d,0x14e0(%rsp)
  40dafe:	48 c7 84 24 18 15 00 00 38 e9 40 00	(move)  	movq	$0x40e938,0x1518(%rsp)
  40db0a:	c7 84 24 20 15 00 00 1f 00 00 00	(move)  	movl	$0x1f,0x1520(%rsp)
  40db15:	c7 84 24 d0 14 00 00 00 10 00 00	(move)  	movl	$0x1000,0x14d0(%rsp)
  40db20:	c7 84 24 d4 14 00 00 06 00 00 00	(move)  	movl	$0x6,0x14d4(%rsp)
  40db2b:	48 8d 9c 24 d0 14 00 00     	(arith) 	lea	0x14d0(%rsp),%rbx
  40db33:	48 89 df                    	(move)  	mov	%rbx,%rdi
  40db36:	e8 cd 2d ff ff              	(control)	call	400908 <_gfortran_st_write@plt>	; ⇄ _gfortran_st_write
1214:	
  40db3b:	ba 0c 00 00 00              	(move)  	mov	$0xc,%edx
  40db40:	be 63 e9 40 00              	(move)  	mov	$0x40e963,%esi
  40db45:	48 89 df                    	(move)  	mov	%rbx,%rdi
  40db48:	e8 9b 2d ff ff              	(control)	call	4008e8 <_gfortran_transfer_character@plt>	; ⇄ _gfortran_transfer_character
1215:	
  40db4d:	48 89 df                    	(move)  	mov	%rbx,%rdi
  40db50:	e8 13 2d ff ff              	(control)	call	400868 <_gfortran_st_write_done@plt>	; ⇄ _gfortran_st_write_done
1213:	
/home/jgarcia/TFG/source_code/common/print_results.f:65
  40db55:	48 c7 84 24 b8 16 00 00 d0 e7 40 00	(move)  	movq	$0x40e7d0,0x16b8(%rsp)
  40db61:	c7 84 24 c0 16 00 00 41 00 00 00	(move)  	movl	$0x41,0x16c0(%rsp)
  40db6c:	48 c7 84 24 f8 16 00 00 70 e9 40 00	(move)  	movq	$0x40e970,0x16f8(%rsp)
  40db78:	c7 84 24 00 17 00 00 21 00 00 00	(move)  	movl	$0x21,0x1700(%rsp)
  40db83:	c7 84 24 b0 16 00 00 00 10 00 00	(move)  	movl	$0x1000,0x16b0(%rsp)
  40db8e:	c7 84 24 b4 16 00 00 06 00 00 00	(move)  	movl	$0x6,0x16b4(%rsp)
  40db99:	48 8d 9c 24 b0 16 00 00     	(arith) 	lea	0x16b0(%rsp),%rbx
  40dba1:	48 89 df                    	(move)  	mov	%rbx,%rdi
  40dba4:	e8 5f 2d ff ff              	(control)	call	400908 <_gfortran_st_write@plt>	; ⇄ _gfortran_st_write
1216:	
  40dba9:	8b 94 24 30 2a 00 00        	(move)  	mov	0x2a30(%rsp),%edx
  40dbb0:	48 8b b4 24 d0 29 00 00     	(move)  	mov	0x29d0(%rsp),%rsi
  40dbb8:	48 89 df                    	(move)  	mov	%rbx,%rdi
  40dbbb:	e8 28 2d ff ff              	(control)	call	4008e8 <_gfortran_transfer_character@plt>	; ⇄ _gfortran_transfer_character
1217:	
  40dbc0:	48 89 df                    	(move)  	mov	%rbx,%rdi
  40dbc3:	e8 a0 2c ff ff              	(control)	call	400868 <_gfortran_st_write_done@plt>	; ⇄ _gfortran_st_write_done
1218:	
/home/jgarcia/TFG/source_code/common/print_results.f:68
  40dbc8:	48 c7 84 24 98 18 00 00 d0 e7 40 00	(move)  	movq	$0x40e7d0,0x1898(%rsp)
  40dbd4:	c7 84 24 a0 18 00 00 44 00 00 00	(move)  	movl	$0x44,0x18a0(%rsp)
  40dbdf:	48 c7 84 24 d8 18 00 00 98 e9 40 00	(move)  	movq	$0x40e998,0x18d8(%rsp)
  40dbeb:	c7 84 24 e0 18 00 00 21 00 00 00	(move)  	movl	$0x21,0x18e0(%rsp)
  40dbf6:	c7 84 24 90 18 00 00 00 10 00 00	(move)  	movl	$0x1000,0x1890(%rsp)
  40dc01:	c7 84 24 94 18 00 00 06 00 00 00	(move)  	movl	$0x6,0x1894(%rsp)
  40dc0c:	48 8d 9c 24 90 18 00 00     	(arith) 	lea	0x1890(%rsp),%rbx
  40dc14:	48 89 df                    	(move)  	mov	%rbx,%rdi
  40dc17:	e8 ec 2c ff ff              	(control)	call	400908 <_gfortran_st_write@plt>	; ⇄ _gfortran_st_write
1219:	
  40dc1c:	8b 94 24 38 2a 00 00        	(move)  	mov	0x2a38(%rsp),%edx
  40dc23:	48 8b b4 24 d8 29 00 00     	(move)  	mov	0x29d8(%rsp),%rsi
  40dc2b:	48 89 df                    	(move)  	mov	%rbx,%rdi
  40dc2e:	e8 b5 2c ff ff              	(control)	call	4008e8 <_gfortran_transfer_character@plt>	; ⇄ _gfortran_transfer_character
1220:	
  40dc33:	48 89 df                    	(move)  	mov	%rbx,%rdi
  40dc36:	e8 2d 2c ff ff              	(control)	call	400868 <_gfortran_st_write_done@plt>	; ⇄ _gfortran_st_write_done
1221:	
/home/jgarcia/TFG/source_code/common/print_results.f:72
  40dc3b:	48 c7 84 24 78 1a 00 00 d0 e7 40 00	(move)  	movq	$0x40e7d0,0x1a78(%rsp)
  40dc47:	c7 84 24 80 1a 00 00 48 00 00 00	(move)  	movl	$0x48,0x1a80(%rsp)
  40dc52:	48 c7 84 24 b8 1a 00 00 c0 e9 40 00	(move)  	movq	$0x40e9c0,0x1ab8(%rsp)
  40dc5e:	c7 84 24 c0 1a 00 00 5c 00 00 00	(move)  	movl	$0x5c,0x1ac0(%rsp)
  40dc69:	c7 84 24 70 1a 00 00 00 10 00 00	(move)  	movl	$0x1000,0x1a70(%rsp)
  40dc74:	c7 84 24 74 1a 00 00 06 00 00 00	(move)  	movl	$0x6,0x1a74(%rsp)
  40dc7f:	48 8d 9c 24 70 1a 00 00     	(arith) 	lea	0x1a70(%rsp),%rbx
  40dc87:	48 89 df                    	(move)  	mov	%rbx,%rdi
  40dc8a:	e8 79 2c ff ff              	(control)	call	400908 <_gfortran_st_write@plt>	; ⇄ _gfortran_st_write
1222:	
  40dc8f:	8b 94 24 40 2a 00 00        	(move)  	mov	0x2a40(%rsp),%edx
  40dc96:	48 8b b4 24 e0 29 00 00     	(move)  	mov	0x29e0(%rsp),%rsi
  40dc9e:	48 89 df                    	(move)  	mov	%rbx,%rdi
  40dca1:	e8 42 2c ff ff              	(control)	call	4008e8 <_gfortran_transfer_character@plt>	; ⇄ _gfortran_transfer_character
1223:	
  40dca6:	48 89 df                    	(move)  	mov	%rbx,%rdi
  40dca9:	e8 ba 2b ff ff              	(control)	call	400868 <_gfortran_st_write_done@plt>	; ⇄ _gfortran_st_write_done
1224:	
/home/jgarcia/TFG/source_code/common/print_results.f:76
  40dcae:	48 c7 84 24 58 1c 00 00 d0 e7 40 00	(move)  	movq	$0x40e7d0,0x1c58(%rsp)
  40dcba:	c7 84 24 60 1c 00 00 4c 00 00 00	(move)  	movl	$0x4c,0x1c60(%rsp)
  40dcc5:	48 c7 84 24 98 1c 00 00 1c ea 40 00	(move)  	movq	$0x40ea1c,0x1c98(%rsp)
  40dcd1:	c7 84 24 a0 1c 00 00 1a 00 00 00	(move)  	movl	$0x1a,0x1ca0(%rsp)
  40dcdc:	c7 84 24 50 1c 00 00 00 10 00 00	(move)  	movl	$0x1000,0x1c50(%rsp)
  40dce7:	c7 84 24 54 1c 00 00 06 00 00 00	(move)  	movl	$0x6,0x1c54(%rsp)
  40dcf2:	48 8d 9c 24 50 1c 00 00     	(arith) 	lea	0x1c50(%rsp),%rbx
  40dcfa:	48 89 df                    	(move)  	mov	%rbx,%rdi
  40dcfd:	e8 06 2c ff ff              	(control)	call	400908 <_gfortran_st_write@plt>	; ⇄ _gfortran_st_write
1225:	
  40dd02:	8b 94 24 48 2a 00 00        	(move)  	mov	0x2a48(%rsp),%edx
  40dd09:	48 8b b4 24 e8 29 00 00     	(move)  	mov	0x29e8(%rsp),%rsi
  40dd11:	48 89 df                    	(move)  	mov	%rbx,%rdi
  40dd14:	e8 cf 2b ff ff              	(control)	call	4008e8 <_gfortran_transfer_character@plt>	; ⇄ _gfortran_transfer_character
1226:	
  40dd19:	48 89 df                    	(move)  	mov	%rbx,%rdi
  40dd1c:	e8 47 2b ff ff              	(control)	call	400868 <_gfortran_st_write_done@plt>	; ⇄ _gfortran_st_write_done
1227:	
/home/jgarcia/TFG/source_code/common/print_results.f:79
  40dd21:	48 c7 84 24 38 1e 00 00 d0 e7 40 00	(move)  	movq	$0x40e7d0,0x1e38(%rsp)
  40dd2d:	c7 84 24 40 1e 00 00 4f 00 00 00	(move)  	movl	$0x4f,0x1e40(%rsp)
  40dd38:	48 c7 84 24 78 1e 00 00 36 ea 40 00	(move)  	movq	$0x40ea36,0x1e78(%rsp)
  40dd44:	c7 84 24 80 1e 00 00 1a 00 00 00	(move)  	movl	$0x1a,0x1e80(%rsp)
  40dd4f:	c7 84 24 30 1e 00 00 00 10 00 00	(move)  	movl	$0x1000,0x1e30(%rsp)
  40dd5a:	c7 84 24 34 1e 00 00 06 00 00 00	(move)  	movl	$0x6,0x1e34(%rsp)
  40dd65:	48 8d 9c 24 30 1e 00 00     	(arith) 	lea	0x1e30(%rsp),%rbx
  40dd6d:	48 89 df                    	(move)  	mov	%rbx,%rdi
  40dd70:	e8 93 2b ff ff              	(control)	call	400908 <_gfortran_st_write@plt>	; ⇄ _gfortran_st_write
1228:	
  40dd75:	8b 94 24 50 2a 00 00        	(move)  	mov	0x2a50(%rsp),%edx
  40dd7c:	48 8b b4 24 f0 29 00 00     	(move)  	mov	0x29f0(%rsp),%rsi
  40dd84:	48 89 df                    	(move)  	mov	%rbx,%rdi
  40dd87:	e8 5c 2b ff ff              	(control)	call	4008e8 <_gfortran_transfer_character@plt>	; ⇄ _gfortran_transfer_character
1229:	
  40dd8c:	48 89 df                    	(move)  	mov	%rbx,%rdi
  40dd8f:	e8 d4 2a ff ff              	(control)	call	400868 <_gfortran_st_write_done@plt>	; ⇄ _gfortran_st_write_done
1230:	
/home/jgarcia/TFG/source_code/common/print_results.f:82
  40dd94:	48 c7 84 24 18 20 00 00 d0 e7 40 00	(move)  	movq	$0x40e7d0,0x2018(%rsp)
  40dda0:	c7 84 24 20 20 00 00 52 00 00 00	(move)  	movl	$0x52,0x2020(%rsp)
  40ddab:	48 c7 84 24 58 20 00 00 50 ea 40 00	(move)  	movq	$0x40ea50,0x2058(%rsp)
  40ddb7:	c7 84 24 60 20 00 00 1a 00 00 00	(move)  	movl	$0x1a,0x2060(%rsp)
  40ddc2:	c7 84 24 10 20 00 00 00 10 00 00	(move)  	movl	$0x1000,0x2010(%rsp)
  40ddcd:	c7 84 24 14 20 00 00 06 00 00 00	(move)  	movl	$0x6,0x2014(%rsp)
  40ddd8:	48 8d 9c 24 10 20 00 00     	(arith) 	lea	0x2010(%rsp),%rbx
  40dde0:	48 89 df                    	(move)  	mov	%rbx,%rdi
  40dde3:	e8 20 2b ff ff              	(control)	call	400908 <_gfortran_st_write@plt>	; ⇄ _gfortran_st_write
1231:	
  40dde8:	8b 94 24 58 2a 00 00        	(move)  	mov	0x2a58(%rsp),%edx
  40ddef:	48 8b b4 24 f8 29 00 00     	(move)  	mov	0x29f8(%rsp),%rsi
  40ddf7:	48 89 df                    	(move)  	mov	%rbx,%rdi
  40ddfa:	e8 e9 2a ff ff              	(control)	call	4008e8 <_gfortran_transfer_character@plt>	; ⇄ _gfortran_transfer_character
1232:	
  40ddff:	48 89 df                    	(move)  	mov	%rbx,%rdi
  40de02:	e8 61 2a ff ff              	(control)	call	400868 <_gfortran_st_write_done@plt>	; ⇄ _gfortran_st_write_done
1233:	
/home/jgarcia/TFG/source_code/common/print_results.f:85
  40de07:	48 c7 84 24 f8 21 00 00 d0 e7 40 00	(move)  	movq	$0x40e7d0,0x21f8(%rsp)
  40de13:	c7 84 24 00 22 00 00 55 00 00 00	(move)  	movl	$0x55,0x2200(%rsp)
  40de1e:	48 c7 84 24 38 22 00 00 6a ea 40 00	(move)  	movq	$0x40ea6a,0x2238(%rsp)
  40de2a:	c7 84 24 40 22 00 00 1a 00 00 00	(move)  	movl	$0x1a,0x2240(%rsp)
  40de35:	c7 84 24 f0 21 00 00 00 10 00 00	(move)  	movl	$0x1000,0x21f0(%rsp)
  40de40:	c7 84 24 f4 21 00 00 06 00 00 00	(move)  	movl	$0x6,0x21f4(%rsp)
  40de4b:	48 8d 9c 24 f0 21 00 00     	(arith) 	lea	0x21f0(%rsp),%rbx
  40de53:	48 89 df                    	(move)  	mov	%rbx,%rdi
  40de56:	e8 ad 2a ff ff              	(control)	call	400908 <_gfortran_st_write@plt>	; ⇄ _gfortran_st_write
1234:	
  40de5b:	8b 94 24 60 2a 00 00        	(move)  	mov	0x2a60(%rsp),%edx
  40de62:	48 8b b4 24 00 2a 00 00     	(move)  	mov	0x2a00(%rsp),%rsi
  40de6a:	48 89 df                    	(move)  	mov	%rbx,%rdi
  40de6d:	e8 76 2a ff ff              	(control)	call	4008e8 <_gfortran_transfer_character@plt>	; ⇄ _gfortran_transfer_character
1235:	
  40de72:	48 89 df                    	(move)  	mov	%rbx,%rdi
  40de75:	e8 ee 29 ff ff              	(control)	call	400868 <_gfortran_st_write_done@plt>	; ⇄ _gfortran_st_write_done
1236:	
/home/jgarcia/TFG/source_code/common/print_results.f:88
  40de7a:	48 c7 84 24 d8 23 00 00 d0 e7 40 00	(move)  	movq	$0x40e7d0,0x23d8(%rsp)
  40de86:	c7 84 24 e0 23 00 00 58 00 00 00	(move)  	movl	$0x58,0x23e0(%rsp)
  40de91:	48 c7 84 24 18 24 00 00 84 ea 40 00	(move)  	movq	$0x40ea84,0x2418(%rsp)
  40de9d:	c7 84 24 20 24 00 00 1a 00 00 00	(move)  	movl	$0x1a,0x2420(%rsp)
  40dea8:	c7 84 24 d0 23 00 00 00 10 00 00	(move)  	movl	$0x1000,0x23d0(%rsp)
  40deb3:	c7 84 24 d4 23 00 00 06 00 00 00	(move)  	movl	$0x6,0x23d4(%rsp)
  40debe:	48 8d 9c 24 d0 23 00 00     	(arith) 	lea	0x23d0(%rsp),%rbx
  40dec6:	48 89 df                    	(move)  	mov	%rbx,%rdi
  40dec9:	e8 3a 2a ff ff              	(control)	call	400908 <_gfortran_st_write@plt>	; ⇄ _gfortran_st_write
1237:	
  40dece:	8b 94 24 68 2a 00 00        	(move)  	mov	0x2a68(%rsp),%edx
  40ded5:	48 8b b4 24 08 2a 00 00     	(move)  	mov	0x2a08(%rsp),%rsi
  40dedd:	48 89 df                    	(move)  	mov	%rbx,%rdi
  40dee0:	e8 03 2a ff ff              	(control)	call	4008e8 <_gfortran_transfer_character@plt>	; ⇄ _gfortran_transfer_character
1238:	
  40dee5:	48 89 df                    	(move)  	mov	%rbx,%rdi
  40dee8:	e8 7b 29 ff ff              	(control)	call	400868 <_gfortran_st_write_done@plt>	; ⇄ _gfortran_st_write_done
1239:	
/home/jgarcia/TFG/source_code/common/print_results.f:91
  40deed:	48 c7 84 24 b8 25 00 00 d0 e7 40 00	(move)  	movq	$0x40e7d0,0x25b8(%rsp)
  40def9:	c7 84 24 c0 25 00 00 5b 00 00 00	(move)  	movl	$0x5b,0x25c0(%rsp)
  40df04:	48 c7 84 24 f8 25 00 00 9e ea 40 00	(move)  	movq	$0x40ea9e,0x25f8(%rsp)
  40df10:	c7 84 24 00 26 00 00 1a 00 00 00	(move)  	movl	$0x1a,0x2600(%rsp)
  40df1b:	c7 84 24 b0 25 00 00 00 10 00 00	(move)  	movl	$0x1000,0x25b0(%rsp)
  40df26:	c7 84 24 b4 25 00 00 06 00 00 00	(move)  	movl	$0x6,0x25b4(%rsp)
  40df31:	48 8d 9c 24 b0 25 00 00     	(arith) 	lea	0x25b0(%rsp),%rbx
  40df39:	48 89 df                    	(move)  	mov	%rbx,%rdi
  40df3c:	e8 c7 29 ff ff              	(control)	call	400908 <_gfortran_st_write@plt>	; ⇄ _gfortran_st_write
1240:	
  40df41:	8b 94 24 70 2a 00 00        	(move)  	mov	0x2a70(%rsp),%edx
  40df48:	48 8b b4 24 10 2a 00 00     	(move)  	mov	0x2a10(%rsp),%rsi
  40df50:	48 89 df                    	(move)  	mov	%rbx,%rdi
  40df53:	e8 90 29 ff ff              	(control)	call	4008e8 <_gfortran_transfer_character@plt>	; ⇄ _gfortran_transfer_character
1241:	
  40df58:	48 89 df                    	(move)  	mov	%rbx,%rdi
  40df5b:	e8 08 29 ff ff              	(control)	call	400868 <_gfortran_st_write_done@plt>	; ⇄ _gfortran_st_write_done
1242:	
/home/jgarcia/TFG/source_code/common/print_results.f:94
  40df60:	48 c7 84 24 98 27 00 00 d0 e7 40 00	(move)  	movq	$0x40e7d0,0x2798(%rsp)
  40df6c:	c7 84 24 a0 27 00 00 5e 00 00 00	(move)  	movl	$0x5e,0x27a0(%rsp)
  40df77:	48 c7 84 24 d8 27 00 00 b8 ea 40 00	(move)  	movq	$0x40eab8,0x27d8(%rsp)
  40df83:	c7 84 24 e0 27 00 00 9d 00 00 00	(move)  	movl	$0x9d,0x27e0(%rsp)
  40df8e:	c7 84 24 90 27 00 00 00 10 00 00	(move)  	movl	$0x1000,0x2790(%rsp)
  40df99:	c7 84 24 94 27 00 00 06 00 00 00	(move)  	movl	$0x6,0x2794(%rsp)
  40dfa4:	48 8d 9c 24 90 27 00 00     	(arith) 	lea	0x2790(%rsp),%rbx
  40dfac:	48 89 df                    	(move)  	mov	%rbx,%rdi
  40dfaf:	e8 54 29 ff ff              	(control)	call	400908 <_gfortran_st_write@plt>	; ⇄ _gfortran_st_write
1243:	
  40dfb4:	48 89 df                    	(move)  	mov	%rbx,%rdi
  40dfb7:	e8 ac 28 ff ff              	(control)	call	400868 <_gfortran_st_write_done@plt>	; ⇄ _gfortran_st_write_done
1244:	
/home/jgarcia/TFG/source_code/common/print_results.f:110
  40dfbc:	48 81 c4 78 29 00 00        	(arith) 	add	$0x2978,%rsp
  40dfc3:	5b                          	(move)  	pop	%rbx
  40dfc4:	5d                          	(move)  	pop	%rbp
  40dfc5:	41 5c                       	(move)  	pop	%r12
  40dfc7:	41 5d                       	(move)  	pop	%r13
  40dfc9:	41 5e                       	(move)  	pop	%r14
  40dfcb:	41 5f                       	(move)  	pop	%r15
  40dfcd:	c3                          	(control)	ret
1245:	
/home/jgarcia/TFG/source_code/common/timers.f:4
  40dfce:	90                          	(other) 	nop
  40dfcf:	90                          	(other) 	nop


000000000040dfd0 <timer_clear>:
91 (function timer_clear_):	
/home/jgarcia/TFG/source_code/common/timers.f:15
  40dfd0:	48 63 07                    	(move)  	movsxd	(%rdi),%rax
  40dfd3:	48 c7 04 c5 18 c9 61 00 00 00 00 00	(move)  	movq	$0,0x61c918(,%rax,8)
/home/jgarcia/TFG/source_code/common/timers.f:17
  40dfdf:	c3                          	(control)	ret


000000000040dfe0 <timer_read>:
117 (function timer_read_):	
/home/jgarcia/TFG/source_code/common/timers.f:67
  40dfe0:	48 63 07                    	(move)  	movsxd	(%rdi),%rax
/home/jgarcia/TFG/source_code/common/timers.f:79
  40dfe3:	f2 0f 10 04 c5 18 c9 61 00  	(move)  	movsd	0x61c918(,%rax,8),%xmm0
  40dfec:	c3                          	(control)	ret


000000000040dfed <elapsed_time>:
1246 (function elapsed_time_):	
/home/jgarcia/TFG/source_code/common/timers.f:85
  40dfed:	48 83 ec 18                 	(arith) 	sub	$0x18,%rsp
/home/jgarcia/TFG/source_code/common/timers.f:98
  40dff1:	48 8d 7c 24 08              	(arith) 	lea	0x8(%rsp),%rdi
  40dff6:	b8 00 00 00 00              	(move)  	mov	$0,%eax
  40dffb:	e8 54 00 00 00              	(control)	call	40e054 <wtime_>	; ⇄ wtime_
1248:	
/home/jgarcia/TFG/source_code/common/timers.f:107
  40e000:	f2 0f 10 44 24 08           	(move)  	movsd	0x8(%rsp),%xmm0
  40e006:	48 83 c4 18                 	(arith) 	add	$0x18,%rsp
  40e00a:	c3                          	(control)	ret


000000000040e00b <timer_stop>:
115 (function timer_stop_):	
/home/jgarcia/TFG/source_code/common/timers.f:44
  40e00b:	53                          	(move)  	push	%rbx
  40e00c:	48 89 fb                    	(move)  	mov	%rdi,%rbx
/home/jgarcia/TFG/source_code/common/timers.f:56
  40e00f:	b8 00 00 00 00              	(move)  	mov	$0,%eax
  40e014:	e8 d4 ff ff ff              	(control)	call	40dfed <elapsed_time_>	; ⇄ elapsed_time
1249:	
/home/jgarcia/TFG/source_code/common/timers.f:57
  40e019:	48 63 0b                    	(move)  	movsxd	(%rbx),%rcx
/home/jgarcia/TFG/source_code/common/timers.f:58
  40e01c:	48 8d 51 3f                 	(arith) 	lea	0x3f(%rcx),%rdx
  40e020:	b8 20 c7 61 00              	(move)  	mov	$0x61c720,%eax
  40e025:	f2 0f 5c 44 c8 f8           	(arith) 	subsd	-0x8(%rax,%rcx,8),%xmm0
  40e02b:	f2 0f 58 04 d0              	(arith) 	addsd	(%rax,%rdx,8),%xmm0
  40e030:	f2 0f 11 04 d0              	(move)  	movsd	%xmm0,(%rax,%rdx,8)
/home/jgarcia/TFG/source_code/common/timers.f:61
  40e035:	5b                          	(move)  	pop	%rbx
  40e036:	c3                          	(control)	ret


000000000040e037 <timer_start>:
104 (function timer_start_):	
/home/jgarcia/TFG/source_code/common/timers.f:23
  40e037:	53                          	(move)  	push	%rbx
/home/jgarcia/TFG/source_code/common/timers.f:35
  40e038:	48 63 1f                    	(move)  	movsxd	(%rdi),%rbx
  40e03b:	48 83 eb 01                 	(arith) 	sub	$0x1,%rbx
  40e03f:	b8 00 00 00 00              	(move)  	mov	$0,%eax
  40e044:	e8 a4 ff ff ff              	(control)	call	40dfed <elapsed_time_>	; ⇄ elapsed_time
1250:	
  40e049:	f2 0f 11 04 dd 20 c7 61 00  	(move)  	movsd	%xmm0,0x61c720(,%rbx,8)
/home/jgarcia/TFG/source_code/common/timers.f:38
  40e052:	5b                          	(move)  	pop	%rbx
  40e053:	c3                          	(control)	ret


000000000040e054 <wtime_>:
1247 (function wtime_):	
  40e054:	53                          	(move)  	push	%rbx
  40e055:	48 83 ec 10                 	(arith) 	sub	$0x10,%rsp
  40e059:	48 89 fb                    	(move)  	mov	%rdi,%rbx
  40e05c:	48 89 e7                    	(move)  	mov	%rsp,%rdi
  40e05f:	be 00 00 00 00              	(move)  	mov	$0,%esi
  40e064:	e8 0f 28 ff ff              	(control)	call	400878 <gettimeofday@plt>	; ⇄ gettimeofday
1252:	
  40e069:	83 3d 5c 15 20 00 00        	(arith) 	cmpl	$0,0x20155c(%rip)
  40e070:	79 0a                       	(control)	jns	40e07c <wtime_+0x28>	; ↲ label 1253
1254:	
  40e072:	48 8b 04 24                 	(move)  	mov	(%rsp),%rax
  40e076:	89 05 50 15 20 00           	(move)  	mov	%eax,0x201550(%rip)
1253:	
  40e07c:	48 63 15 49 15 20 00        	(move)  	movsxd	0x201549(%rip),%rdx
  40e083:	48 8b 04 24                 	(move)  	mov	(%rsp),%rax
  40e087:	48 29 d0                    	(arith) 	sub	%rdx,%rax
  40e08a:	f2 48 0f 2a c8              	(conv)  	cvtsi2sd	%rax,%xmm1
  40e08f:	f2 48 0f 2a 44 24 08        	(conv)  	cvtsi2sdq	0x8(%rsp),%xmm0
  40e096:	f2 0f 59 05 c2 0a 00 00     	(arith) 	mulsd	0xac2(%rip),%xmm0
  40e09e:	f2 0f 58 c1                 	(arith) 	addsd	%xmm1,%xmm0
  40e0a2:	f2 0f 11 03                 	(move)  	movsd	%xmm0,(%rbx)
  40e0a6:	48 83 c4 10                 	(arith) 	add	$0x10,%rsp
  40e0aa:	5b                          	(move)  	pop	%rbx
  40e0ab:	c3                          	(control)	ret
1255:	
  40e0ac:	90                          	(other) 	nop
  40e0ad:	90                          	(other) 	nop
  40e0ae:	90                          	(other) 	nop
  40e0af:	90                          	(other) 	nop


000000000040e0b0 <main>:
1256 (function main):	
  40e0b0:	48 89 5c 24 f0              	(move)  	mov	%rbx,-0x10(%rsp)
  40e0b5:	48 89 6c 24 f8              	(move)  	mov	%rbp,-0x8(%rsp)
  40e0ba:	89 fb                       	(move)  	mov	%edi,%ebx
  40e0bc:	48 83 ec 18                 	(arith) 	sub	$0x18,%rsp
  40e0c0:	48 8b 3e                    	(move)  	mov	(%rsi),%rdi
  40e0c3:	48 89 f5                    	(move)  	mov	%rsi,%rbp
  40e0c6:	e8 7d 28 ff ff              	(control)	call	400948 <_gfortran_store_exe_path@plt>	; ⇄ _gfortran_store_exe_path
1258:	
  40e0cb:	48 89 ee                    	(move)  	mov	%rbp,%rsi
  40e0ce:	89 df                       	(move)  	mov	%ebx,%edi
  40e0d0:	e8 e3 27 ff ff              	(control)	call	4008b8 <_gfortran_set_args@plt>	; ⇄ _gfortran_set_args
1260:	
  40e0d5:	e8 76 29 ff ff              	(control)	call	400a50 <main__>	; ⇄ sp
1261:	
  40e0da:	31 c0                       	(logic) 	xor	%eax,%eax
  40e0dc:	48 8b 5c 24 08              	(move)  	mov	0x8(%rsp),%rbx
  40e0e1:	48 8b 6c 24 10              	(move)  	mov	0x10(%rsp),%rbp
  40e0e6:	48 83 c4 18                 	(arith) 	add	$0x18,%rsp
  40e0ea:	c3                          	(control)	ret
1262:	
  40e0eb:	90                          	(other) 	nop
  40e0ec:	90                          	(other) 	nop
  40e0ed:	90                          	(other) 	nop
  40e0ee:	90                          	(other) 	nop
  40e0ef:	90                          	(other) 	nop


000000000040e0f0 <__libc_csu_fini>:
1263 (function __libc_csu_fini):	
  40e0f0:	f3 c3                       	(control)	ret
1264:	
  40e0f2:	66 66 66 66 66 2e 0f 1f 84 00 00 00 00 00	(other) 	nopw	%cs:(%rax,%rax,1)


000000000040e100 <__libc_csu_init>:
1265 (function __libc_csu_init):	
  40e100:	48 89 6c 24 d8              	(move)  	mov	%rbp,-0x28(%rsp)
  40e105:	4c 89 64 24 e0              	(move)  	mov	%r12,-0x20(%rsp)
  40e10a:	48 8d 2d 2b 12 20 00        	(arith) 	lea	0x20122b(%rip),%rbp
  40e111:	4c 8d 25 24 12 20 00        	(arith) 	lea	0x201224(%rip),%r12
  40e118:	4c 89 6c 24 e8              	(move)  	mov	%r13,-0x18(%rsp)
  40e11d:	4c 89 74 24 f0              	(move)  	mov	%r14,-0x10(%rsp)
  40e122:	4c 89 7c 24 f8              	(move)  	mov	%r15,-0x8(%rsp)
  40e127:	48 89 5c 24 d0              	(move)  	mov	%rbx,-0x30(%rsp)
  40e12c:	48 83 ec 38                 	(arith) 	sub	$0x38,%rsp
  40e130:	4c 29 e5                    	(arith) 	sub	%r12,%rbp
  40e133:	41 89 fd                    	(move)  	mov	%edi,%r13d
  40e136:	49 89 f6                    	(move)  	mov	%rsi,%r14
  40e139:	48 c1 fd 03                 	(logic) 	sar	$0x3,%rbp
  40e13d:	49 89 d7                    	(move)  	mov	%rdx,%r15
  40e140:	e8 eb 26 ff ff              	(control)	call	400830 <_init>	; ⇄ _init
1266:	
  40e145:	48 85 ed                    	(arith) 	test	%rbp,%rbp
  40e148:	74 1c                       	(control)	je	40e166 <__libc_csu_init+0x66>	; ↲ label 1267
1268:	
  40e14a:	31 db                       	(logic) 	xor	%ebx,%ebx
  40e14c:	0f 1f 40 00                 	(other) 	nopl	(%rax)
; ------- Loop 239 entry
1269 (loop 239):	
  40e150:	4c 89 fa                    	(move)  	mov	%r15,%rdx
  40e153:	4c 89 f6                    	(move)  	mov	%r14,%rsi
  40e156:	44 89 ef                    	(move)  	mov	%r13d,%edi
  40e159:	41 ff 14 dc                 	(control)	callq	(%r12,%rbx,8)
1270:	
  40e15d:	48 83 c3 01                 	(arith) 	add	$0x1,%rbx
  40e161:	48 39 eb                    	(arith) 	cmp	%rbp,%rbx
  40e164:	72 ea                       	(control)	jb	40e150 <__libc_csu_init+0x50>	; ↰ label 1269 (loop 239)
; ------- Loop 239 exit
1267:	
  40e166:	48 8b 5c 24 08              	(move)  	mov	0x8(%rsp),%rbx
  40e16b:	48 8b 6c 24 10              	(move)  	mov	0x10(%rsp),%rbp
  40e170:	4c 8b 64 24 18              	(move)  	mov	0x18(%rsp),%r12
  40e175:	4c 8b 6c 24 20              	(move)  	mov	0x20(%rsp),%r13
  40e17a:	4c 8b 74 24 28              	(move)  	mov	0x28(%rsp),%r14
  40e17f:	4c 8b 7c 24 30              	(move)  	mov	0x30(%rsp),%r15
  40e184:	48 83 c4 38                 	(arith) 	add	$0x38,%rsp
  40e188:	c3                          	(control)	ret
1271:	
  40e189:	90                          	(other) 	nop
  40e18a:	90                          	(other) 	nop
  40e18b:	90                          	(other) 	nop
  40e18c:	90                          	(other) 	nop
  40e18d:	90                          	(other) 	nop
  40e18e:	90                          	(other) 	nop
  40e18f:	90                          	(other) 	nop


000000000040e190 <__do_global_ctors_aux>:
5 (function __do_global_ctors_aux):	
  40e190:	55                          	(move)  	push	%rbp
  40e191:	48 89 e5                    	(move)  	mov	%rsp,%rbp
  40e194:	53                          	(move)  	push	%rbx
  40e195:	48 83 ec 08                 	(arith) 	sub	$0x8,%rsp
  40e199:	48 8b 05 a0 11 20 00        	(move)  	mov	0x2011a0(%rip),%rax
  40e1a0:	48 83 f8 ff                 	(arith) 	cmp	$-0x1,%rax
  40e1a4:	74 19                       	(control)	je	40e1bf <__do_global_ctors_aux+0x2f>	; ↲ label 1272
1273:	
  40e1a6:	bb 40 f3 60 00              	(move)  	mov	$0x60f340,%ebx
  40e1ab:	0f 1f 44 00 00              	(other) 	nopl	(%rax,%rax,1)
; ------- Loop 240 entry
1274 (loop 240):	
  40e1b0:	48 83 eb 08                 	(arith) 	sub	$0x8,%rbx
  40e1b4:	ff d0                       	(control)	call	%rax
1275:	
  40e1b6:	48 8b 03                    	(move)  	mov	(%rbx),%rax
  40e1b9:	48 83 f8 ff                 	(arith) 	cmp	$-0x1,%rax
  40e1bd:	75 f1                       	(control)	jne	40e1b0 <__do_global_ctors_aux+0x20>	; ↰ label 1274 (loop 240)
; ------- Loop 240 exit
1272:	
  40e1bf:	48 83 c4 08                 	(arith) 	add	$0x8,%rsp
  40e1c3:	5b                          	(move)  	pop	%rbx
  40e1c4:	c9                          	(control)	leave
  40e1c5:	c3                          	(control)	ret
1276:	
  40e1c6:	90                          	(other) 	nop
  40e1c7:	90                          	(other) 	nop


000000000040e1c8 <_fini>:
1277 (function _fini):	
  40e1c8:	48 83 ec 08                 	(arith) 	sub	$0x8,%rsp
  40e1cc:	e8 df 27 ff ff              	(control)	call	4009b0 <__do_global_dtors_aux>	; ⇄ __do_global_dtors_aux
1278:	
  40e1d1:	48 83 c4 08                 	(arith) 	add	$0x8,%rsp
  40e1d5:	c3                          	(control)	ret
