0000000000400990 <_init>:
0 (function _init):	
  400990:	48 83 ec 08                 	(arith) 	sub	$0x8,%rsp
  400994:	48 8b 05 5d 06 21 00        	(move)  	mov	0x21065d(%rip),%rax
  40099b:	48 85 c0                    	(arith) 	test	%rax,%rax
  40099e:	74 05                       	(control)	je	4009a5 <_init+0x15>	; ↲ label 1
2:	
  4009a0:	e8 3b 01 00 00              	(control)	call	400ae0 <.plt.got@start>	; ⇄ .plt.got@start
1:	
  4009a5:	48 83 c4 08                 	(arith) 	add	$0x8,%rsp
  4009a9:	c3                          	(control)	ret


0000000000400af0 <_start>:
4 (function _start):	
  400af0:	31 ed                       	(logic) 	xor	%ebp,%ebp
  400af2:	49 89 d1                    	(move)  	mov	%rdx,%r9
  400af5:	5e                          	(move)  	pop	%rsi
  400af6:	48 89 e2                    	(move)  	mov	%rsp,%rdx
  400af9:	48 83 e4 f0                 	(logic) 	and	$-0x10,%rsp
  400afd:	50                          	(move)  	push	%rax
  400afe:	54                          	(move)  	push	%rsp
  400aff:	49 c7 c0 70 eb 40 00        	(move)  	mov	$0x40eb70,%r8
  400b06:	48 c7 c1 00 eb 40 00        	(move)  	mov	$0x40eb00,%rcx
  400b0d:	48 c7 c7 5e 1a 40 00        	(move)  	mov	$0x401a5e,%rdi
  400b14:	e8 e7 fe ff ff              	(control)	call	400a00 <__libc_start_main@plt>	; ⇄ __libc_start_main
6:	
  400b19:	f4                          	(control)	hlt
  400b1a:	66 0f 1f 44 00 00           	(other) 	nopw	(%rax,%rax,1)


0000000000400b20 <deregister_tm_clones>:
7 (function deregister_tm_clones):	
  400b20:	b8 c7 10 61 00              	(move)  	mov	$0x6110c7,%eax
  400b25:	55                          	(move)  	push	%rbp
  400b26:	48 2d c0 10 61 00           	(arith) 	sub	$0x6110c0,%rax
  400b2c:	48 83 f8 0e                 	(arith) 	cmp	$0xe,%rax
  400b30:	48 89 e5                    	(move)  	mov	%rsp,%rbp
  400b33:	76 1b                       	(control)	jbe	400b50 <deregister_tm_clones+0x30>	; ↲ label 8
9:	
  400b35:	b8 00 00 00 00              	(move)  	mov	$0,%eax
  400b3a:	48 85 c0                    	(arith) 	test	%rax,%rax
  400b3d:	74 11                       	(control)	je	400b50 <deregister_tm_clones+0x30>	; ↲ label 8
10:	
  400b3f:	5d                          	(move)  	pop	%rbp
  400b40:	bf c0 10 61 00              	(move)  	mov	$0x6110c0,%edi
  400b45:	ff e0                       	(control)	jmp	%rax
11:	
  400b47:	66 0f 1f 84 00 00 00 00 00  	(other) 	nopw	(%rax,%rax,1)
8:	
  400b50:	5d                          	(move)  	pop	%rbp
  400b51:	c3                          	(control)	ret
12:	
  400b52:	0f 1f 40 00                 	(other) 	nopl	(%rax)
  400b56:	66 2e 0f 1f 84 00 00 00 00 00	(other) 	nopw	%cs:(%rax,%rax,1)


0000000000400b60 <register_tm_clones>:
13 (function register_tm_clones):	
  400b60:	be c0 10 61 00              	(move)  	mov	$0x6110c0,%esi
  400b65:	55                          	(move)  	push	%rbp
  400b66:	48 81 ee c0 10 61 00        	(arith) 	sub	$0x6110c0,%rsi
  400b6d:	48 c1 fe 03                 	(logic) 	sar	$0x3,%rsi
  400b71:	48 89 e5                    	(move)  	mov	%rsp,%rbp
  400b74:	48 89 f0                    	(move)  	mov	%rsi,%rax
  400b77:	48 c1 e8 3f                 	(logic) 	shr	$0x3f,%rax
  400b7b:	48 01 c6                    	(arith) 	add	%rax,%rsi
  400b7e:	48 d1 fe                    	(logic) 	sar	$0x1,%rsi
  400b81:	74 15                       	(control)	je	400b98 <register_tm_clones+0x38>	; ↲ label 14
15:	
  400b83:	b8 00 00 00 00              	(move)  	mov	$0,%eax
  400b88:	48 85 c0                    	(arith) 	test	%rax,%rax
  400b8b:	74 0b                       	(control)	je	400b98 <register_tm_clones+0x38>	; ↲ label 14
16:	
  400b8d:	5d                          	(move)  	pop	%rbp
  400b8e:	bf c0 10 61 00              	(move)  	mov	$0x6110c0,%edi
  400b93:	ff e0                       	(control)	jmp	%rax
17:	
  400b95:	0f 1f 00                    	(other) 	nopl	(%rax)
14:	
  400b98:	5d                          	(move)  	pop	%rbp
  400b99:	c3                          	(control)	ret
18:	
  400b9a:	66 0f 1f 44 00 00           	(other) 	nopw	(%rax,%rax,1)


0000000000400ba0 <__do_global_dtors_aux>:
19 (function __do_global_dtors_aux):	
  400ba0:	80 3d 19 05 21 00 00        	(arith) 	cmpb	$0,0x210519(%rip)
  400ba7:	75 11                       	(control)	jne	400bba <__do_global_dtors_aux+0x1a>	; ↲ label 20
21:	
  400ba9:	55                          	(move)  	push	%rbp
  400baa:	48 89 e5                    	(move)  	mov	%rsp,%rbp
  400bad:	e8 6e ff ff ff              	(control)	call	400b20 <deregister_tm_clones>	; ⇄ deregister_tm_clones
22:	
  400bb2:	5d                          	(move)  	pop	%rbp
  400bb3:	c6 05 06 05 21 00 01        	(move)  	movb	$0x1,0x210506(%rip)
20:	
  400bba:	f3 c3                       	(control)	ret
23:	
  400bbc:	0f 1f 40 00                 	(other) 	nopl	(%rax)


0000000000400bc0 <frame_dummy>:
24 (function frame_dummy):	
  400bc0:	bf 00 0e 61 00              	(move)  	mov	$0x610e00,%edi
  400bc5:	48 83 3f 00                 	(arith) 	cmpq	$0,(%rdi)
  400bc9:	75 05                       	(control)	jne	400bd0 <frame_dummy+0x10>	; ↲ label 25
26:	
  400bcb:	eb 93                       	(control)	jmp	400b60 <register_tm_clones>	; ↰ register_tm_clones
27:	
  400bcd:	0f 1f 00                    	(other) 	nopl	(%rax)
25:	
  400bd0:	b8 00 00 00 00              	(move)  	mov	$0,%eax
  400bd5:	48 85 c0                    	(arith) 	test	%rax,%rax
  400bd8:	74 f1                       	(control)	je	400bcb <frame_dummy+0xb>	; ↰ label 26
28:	
  400bda:	55                          	(move)  	push	%rbp
  400bdb:	48 89 e5                    	(move)  	mov	%rsp,%rbp
  400bde:	ff d0                       	(control)	call	%rax
29:	
  400be0:	5d                          	(move)  	pop	%rbp
  400be1:	e9 7a ff ff ff              	(control)	jmp	400b60 <register_tm_clones>	; ↰ register_tm_clones


0000000000400be6 <bt>:
30 (function MAIN__):	
/home/jcsalinas/Documents/pruebas/inst_estimation_module/BT/bt.f:48
  400be6:	41 54                       	(move)  	push	%r12
  400be8:	55                          	(move)  	push	%rbp
  400be9:	53                          	(move)  	push	%rbx
  400bea:	48 81 ec 10 03 00 00        	(arith) 	sub	$0x310,%rsp
/home/jcsalinas/Documents/pruebas/inst_estimation_module/BT/bt.f:67
  400bf1:	48 c7 44 24 18 84 eb 40 00  	(move)  	movq	$0x40eb84,0x18(%rsp)
  400bfa:	c7 44 24 20 43 00 00 00     	(move)  	movl	$0x43,0x20(%rsp)
  400c02:	c7 84 24 e0 02 00 00 00 00 00 00	(move)  	movl	$0,0x2e0(%rsp)
  400c0d:	48 8d 84 24 e0 02 00 00     	(arith) 	lea	0x2e0(%rsp),%rax
  400c15:	48 89 44 24 30              	(move)  	mov	%rax,0x30(%rsp)
  400c1a:	48 c7 44 24 40 a0 eb 40 00  	(move)  	movq	$0x40eba0,0x40(%rsp)
  400c23:	c7 44 24 3c 0a 00 00 00     	(move)  	movl	$0xa,0x3c(%rsp)
  400c2b:	48 c7 44 24 48 aa eb 40 00  	(move)  	movq	$0x40ebaa,0x48(%rsp)
  400c34:	c7 44 24 50 03 00 00 00     	(move)  	movl	$0x3,0x50(%rsp)
  400c3c:	c7 44 24 10 20 03 00 00     	(move)  	movl	$0x320,0x10(%rsp)
  400c44:	c7 44 24 14 02 00 00 00     	(move)  	movl	$0x2,0x14(%rsp)
  400c4c:	48 8d 7c 24 10              	(arith) 	lea	0x10(%rsp),%rdi
  400c51:	e8 7a fd ff ff              	(control)	call	4009d0 <_gfortran_st_open@plt>	; ⇄ _gfortran_st_open
32:	
/home/jcsalinas/Documents/pruebas/inst_estimation_module/BT/bt.f:68
  400c56:	83 bc 24 e0 02 00 00 00     	(arith) 	cmpl	$0,0x2e0(%rsp)
  400c5e:	0f 85 fd 00 00 00           	(control)	jne	400d61 <main__+0x17b>	; ↲ label 33
34:	
/home/jcsalinas/Documents/pruebas/inst_estimation_module/BT/bt.f:69
  400c64:	c7 05 86 09 21 00 01 00 00 00	(move)  	movl	$0x1,0x210986(%rip)
/home/jcsalinas/Documents/pruebas/inst_estimation_module/BT/bt.f:70
  400c6e:	48 b8 74 6f 74 61 6c 20 20 20	(move)  	mov	$0x2020206c61746f74,%rax
  400c78:	48 89 84 24 60 02 00 00     	(move)  	mov	%rax,0x260(%rsp)
/home/jcsalinas/Documents/pruebas/inst_estimation_module/BT/bt.f:71
  400c80:	48 b8 72 68 73 78 20 20 20 20	(move)  	mov	$0x2020202078736872,%rax
  400c8a:	48 89 84 24 68 02 00 00     	(move)  	mov	%rax,0x268(%rsp)
/home/jcsalinas/Documents/pruebas/inst_estimation_module/BT/bt.f:72
  400c92:	48 b8 72 68 73 79 20 20 20 20	(move)  	mov	$0x2020202079736872,%rax
  400c9c:	48 89 84 24 70 02 00 00     	(move)  	mov	%rax,0x270(%rsp)
/home/jcsalinas/Documents/pruebas/inst_estimation_module/BT/bt.f:73
  400ca4:	48 b8 72 68 73 7a 20 20 20 20	(move)  	mov	$0x202020207a736872,%rax
  400cae:	48 89 84 24 78 02 00 00     	(move)  	mov	%rax,0x278(%rsp)
/home/jcsalinas/Documents/pruebas/inst_estimation_module/BT/bt.f:74
  400cb6:	48 b8 72 68 73 20 20 20 20 20	(move)  	mov	$0x2020202020736872,%rax
  400cc0:	48 89 84 24 80 02 00 00     	(move)  	mov	%rax,0x280(%rsp)
/home/jcsalinas/Documents/pruebas/inst_estimation_module/BT/bt.f:75
  400cc8:	48 b8 78 73 6f 6c 76 65 20 20	(move)  	mov	$0x202065766c6f7378,%rax
  400cd2:	48 89 84 24 88 02 00 00     	(move)  	mov	%rax,0x288(%rsp)
/home/jcsalinas/Documents/pruebas/inst_estimation_module/BT/bt.f:76
  400cda:	48 b8 79 73 6f 6c 76 65 20 20	(move)  	mov	$0x202065766c6f7379,%rax
  400ce4:	48 89 84 24 90 02 00 00     	(move)  	mov	%rax,0x290(%rsp)
/home/jcsalinas/Documents/pruebas/inst_estimation_module/BT/bt.f:77
  400cec:	48 b8 7a 73 6f 6c 76 65 20 20	(move)  	mov	$0x202065766c6f737a,%rax
  400cf6:	48 89 84 24 98 02 00 00     	(move)  	mov	%rax,0x298(%rsp)
/home/jcsalinas/Documents/pruebas/inst_estimation_module/BT/bt.f:78
  400cfe:	48 b8 72 65 64 69 73 74 31 20	(move)  	mov	$0x2031747369646572,%rax
  400d08:	48 89 84 24 a0 02 00 00     	(move)  	mov	%rax,0x2a0(%rsp)
/home/jcsalinas/Documents/pruebas/inst_estimation_module/BT/bt.f:79
  400d10:	48 b8 72 65 64 69 73 74 32 20	(move)  	mov	$0x2032747369646572,%rax
  400d1a:	48 89 84 24 a8 02 00 00     	(move)  	mov	%rax,0x2a8(%rsp)
/home/jcsalinas/Documents/pruebas/inst_estimation_module/BT/bt.f:80
  400d22:	48 b8 61 64 64 20 20 20 20 20	(move)  	mov	$0x2020202020646461,%rax
  400d2c:	48 89 84 24 b0 02 00 00     	(move)  	mov	%rax,0x2b0(%rsp)
/home/jcsalinas/Documents/pruebas/inst_estimation_module/BT/bt.f:81
  400d34:	48 c7 44 24 18 84 eb 40 00  	(move)  	movq	$0x40eb84,0x18(%rsp)
  400d3d:	c7 44 24 20 51 00 00 00     	(move)  	movl	$0x51,0x20(%rsp)
  400d45:	c7 44 24 10 00 00 00 00     	(move)  	movl	$0,0x10(%rsp)
  400d4d:	c7 44 24 14 02 00 00 00     	(move)  	movl	$0x2,0x14(%rsp)
  400d55:	48 8d 7c 24 10              	(arith) 	lea	0x10(%rsp),%rdi
  400d5a:	e8 f1 fc ff ff              	(control)	call	400a50 <_gfortran_st_close@plt>	; ⇄ _gfortran_st_close
36:	
  400d5f:	eb 0a                       	(control)	jmp	400d6b <main__+0x185>	; ↲ label 37
33:	
/home/jcsalinas/Documents/pruebas/inst_estimation_module/BT/bt.f:83
  400d61:	c7 05 89 08 21 00 00 00 00 00	(move)  	movl	$0,0x210889(%rip)
37:	
/home/jcsalinas/Documents/pruebas/inst_estimation_module/BT/bt.f:86
  400d6b:	48 c7 44 24 18 84 eb 40 00  	(move)  	movq	$0x40eb84,0x18(%rsp)
  400d74:	c7 44 24 20 56 00 00 00     	(move)  	movl	$0x56,0x20(%rsp)
  400d7c:	48 c7 44 24 58 b0 eb 40 00  	(move)  	movq	$0x40ebb0,0x58(%rsp)
  400d85:	c7 44 24 60 5b 00 00 00     	(move)  	movl	$0x5b,0x60(%rsp)
  400d8d:	c7 44 24 10 00 10 00 00     	(move)  	movl	$0x1000,0x10(%rsp)
  400d95:	c7 44 24 14 06 00 00 00     	(move)  	movl	$0x6,0x14(%rsp)
  400d9d:	48 8d 7c 24 10              	(arith) 	lea	0x10(%rsp),%rdi
  400da2:	e8 e9 fc ff ff              	(control)	call	400a90 <_gfortran_st_write@plt>	; ⇄ _gfortran_st_write
39:	
  400da7:	48 8d 7c 24 10              	(arith) 	lea	0x10(%rsp),%rdi
  400dac:	e8 2f fc ff ff              	(control)	call	4009e0 <_gfortran_st_write_done@plt>	; ⇄ _gfortran_st_write_done
41:	
/home/jcsalinas/Documents/pruebas/inst_estimation_module/BT/bt.f:87
  400db1:	48 c7 44 24 18 84 eb 40 00  	(move)  	movq	$0x40eb84,0x18(%rsp)
  400dba:	c7 44 24 20 57 00 00 00     	(move)  	movl	$0x57,0x20(%rsp)
  400dc2:	c7 84 24 e0 02 00 00 00 00 00 00	(move)  	movl	$0,0x2e0(%rsp)
  400dcd:	48 8d 84 24 e0 02 00 00     	(arith) 	lea	0x2e0(%rsp),%rax
  400dd5:	48 89 44 24 30              	(move)  	mov	%rax,0x30(%rsp)
  400dda:	48 c7 44 24 40 0b ec 40 00  	(move)  	movq	$0x40ec0b,0x40(%rsp)
  400de3:	c7 44 24 3c 0c 00 00 00     	(move)  	movl	$0xc,0x3c(%rsp)
  400deb:	48 c7 44 24 48 aa eb 40 00  	(move)  	movq	$0x40ebaa,0x48(%rsp)
  400df4:	c7 44 24 50 03 00 00 00     	(move)  	movl	$0x3,0x50(%rsp)
  400dfc:	c7 44 24 10 20 03 00 00     	(move)  	movl	$0x320,0x10(%rsp)
  400e04:	c7 44 24 14 02 00 00 00     	(move)  	movl	$0x2,0x14(%rsp)
  400e0c:	48 8d 7c 24 10              	(arith) 	lea	0x10(%rsp),%rdi
  400e11:	e8 ba fb ff ff              	(control)	call	4009d0 <_gfortran_st_open@plt>	; ⇄ _gfortran_st_open
42:	
/home/jcsalinas/Documents/pruebas/inst_estimation_module/BT/bt.f:89
  400e16:	83 bc 24 e0 02 00 00 00     	(arith) 	cmpl	$0,0x2e0(%rsp)
  400e1e:	0f 85 79 01 00 00           	(control)	jne	400f9d <main__+0x3b7>	; ↲ label 43
44:	
/home/jcsalinas/Documents/pruebas/inst_estimation_module/BT/bt.f:90
  400e24:	48 c7 44 24 18 84 eb 40 00  	(move)  	movq	$0x40eb84,0x18(%rsp)
  400e2d:	c7 44 24 20 5a 00 00 00     	(move)  	movl	$0x5a,0x20(%rsp)
  400e35:	48 c7 44 24 58 18 ec 40 00  	(move)  	movq	$0x40ec18,0x58(%rsp)
  400e3e:	c7 44 24 60 29 00 00 00     	(move)  	movl	$0x29,0x60(%rsp)
  400e46:	c7 44 24 10 00 10 00 00     	(move)  	movl	$0x1000,0x10(%rsp)
  400e4e:	c7 44 24 14 06 00 00 00     	(move)  	movl	$0x6,0x14(%rsp)
  400e56:	48 8d 7c 24 10              	(arith) 	lea	0x10(%rsp),%rdi
  400e5b:	e8 30 fc ff ff              	(control)	call	400a90 <_gfortran_st_write@plt>	; ⇄ _gfortran_st_write
45:	
  400e60:	48 8d 7c 24 10              	(arith) 	lea	0x10(%rsp),%rdi
  400e65:	e8 76 fb ff ff              	(control)	call	4009e0 <_gfortran_st_write_done@plt>	; ⇄ _gfortran_st_write_done
46:	
/home/jcsalinas/Documents/pruebas/inst_estimation_module/BT/bt.f:92
  400e6a:	48 c7 44 24 18 84 eb 40 00  	(move)  	movq	$0x40eb84,0x18(%rsp)
  400e73:	c7 44 24 20 5c 00 00 00     	(move)  	movl	$0x5c,0x20(%rsp)
  400e7b:	c7 44 24 10 80 00 00 00     	(move)  	movl	$0x80,0x10(%rsp)
  400e83:	c7 44 24 14 02 00 00 00     	(move)  	movl	$0x2,0x14(%rsp)
  400e8b:	48 8d 7c 24 10              	(arith) 	lea	0x10(%rsp),%rdi
  400e90:	e8 2b fc ff ff              	(control)	call	400ac0 <_gfortran_st_read@plt>	; ⇄ _gfortran_st_read
48:	
  400e95:	ba 04 00 00 00              	(move)  	mov	$0x4,%edx
  400e9a:	48 8d b4 24 cc 02 00 00     	(arith) 	lea	0x2cc(%rsp),%rsi
  400ea2:	48 8d 7c 24 10              	(arith) 	lea	0x10(%rsp),%rdi
  400ea7:	e8 94 fb ff ff              	(control)	call	400a40 <_gfortran_transfer_integer@plt>	; ⇄ _gfortran_transfer_integer
50:	
  400eac:	48 8d 7c 24 10              	(arith) 	lea	0x10(%rsp),%rdi
  400eb1:	e8 5a fb ff ff              	(control)	call	400a10 <_gfortran_st_read_done@plt>	; ⇄ _gfortran_st_read_done
52:	
/home/jcsalinas/Documents/pruebas/inst_estimation_module/BT/bt.f:93
  400eb6:	48 c7 44 24 18 84 eb 40 00  	(move)  	movq	$0x40eb84,0x18(%rsp)
  400ebf:	c7 44 24 20 5d 00 00 00     	(move)  	movl	$0x5d,0x20(%rsp)
  400ec7:	c7 44 24 10 80 00 00 00     	(move)  	movl	$0x80,0x10(%rsp)
  400ecf:	c7 44 24 14 02 00 00 00     	(move)  	movl	$0x2,0x14(%rsp)
  400ed7:	48 8d 7c 24 10              	(arith) 	lea	0x10(%rsp),%rdi
  400edc:	e8 df fb ff ff              	(control)	call	400ac0 <_gfortran_st_read@plt>	; ⇄ _gfortran_st_read
53:	
  400ee1:	ba 08 00 00 00              	(move)  	mov	$0x8,%edx
  400ee6:	be a8 11 61 00              	(move)  	mov	$0x6111a8,%esi
  400eeb:	48 8d 7c 24 10              	(arith) 	lea	0x10(%rsp),%rdi
  400ef0:	e8 db fb ff ff              	(control)	call	400ad0 <_gfortran_transfer_real@plt>	; ⇄ _gfortran_transfer_real
55:	
  400ef5:	48 8d 7c 24 10              	(arith) 	lea	0x10(%rsp),%rdi
  400efa:	e8 11 fb ff ff              	(control)	call	400a10 <_gfortran_st_read_done@plt>	; ⇄ _gfortran_st_read_done
56:	
/home/jcsalinas/Documents/pruebas/inst_estimation_module/BT/bt.f:94
  400eff:	48 c7 44 24 18 84 eb 40 00  	(move)  	movq	$0x40eb84,0x18(%rsp)
  400f08:	c7 44 24 20 5e 00 00 00     	(move)  	movl	$0x5e,0x20(%rsp)
  400f10:	c7 44 24 10 80 00 00 00     	(move)  	movl	$0x80,0x10(%rsp)
  400f18:	c7 44 24 14 02 00 00 00     	(move)  	movl	$0x2,0x14(%rsp)
  400f20:	48 8d 7c 24 10              	(arith) 	lea	0x10(%rsp),%rdi
  400f25:	e8 96 fb ff ff              	(control)	call	400ac0 <_gfortran_st_read@plt>	; ⇄ _gfortran_st_read
57:	
  400f2a:	ba 04 00 00 00              	(move)  	mov	$0x4,%edx
  400f2f:	be e8 15 61 00              	(move)  	mov	$0x6115e8,%esi
  400f34:	48 8d 7c 24 10              	(arith) 	lea	0x10(%rsp),%rdi
  400f39:	e8 02 fb ff ff              	(control)	call	400a40 <_gfortran_transfer_integer@plt>	; ⇄ _gfortran_transfer_integer
58:	
  400f3e:	ba 04 00 00 00              	(move)  	mov	$0x4,%edx
  400f43:	be ec 15 61 00              	(move)  	mov	$0x6115ec,%esi
  400f48:	48 8d 7c 24 10              	(arith) 	lea	0x10(%rsp),%rdi
  400f4d:	e8 ee fa ff ff              	(control)	call	400a40 <_gfortran_transfer_integer@plt>	; ⇄ _gfortran_transfer_integer
59:	
  400f52:	ba 04 00 00 00              	(move)  	mov	$0x4,%edx
  400f57:	be f0 15 61 00              	(move)  	mov	$0x6115f0,%esi
  400f5c:	48 8d 7c 24 10              	(arith) 	lea	0x10(%rsp),%rdi
  400f61:	e8 da fa ff ff              	(control)	call	400a40 <_gfortran_transfer_integer@plt>	; ⇄ _gfortran_transfer_integer
60:	
  400f66:	48 8d 7c 24 10              	(arith) 	lea	0x10(%rsp),%rdi
  400f6b:	e8 a0 fa ff ff              	(control)	call	400a10 <_gfortran_st_read_done@plt>	; ⇄ _gfortran_st_read_done
61:	
/home/jcsalinas/Documents/pruebas/inst_estimation_module/BT/bt.f:95
  400f70:	48 c7 44 24 18 84 eb 40 00  	(move)  	movq	$0x40eb84,0x18(%rsp)
  400f79:	c7 44 24 20 5f 00 00 00     	(move)  	movl	$0x5f,0x20(%rsp)
  400f81:	c7 44 24 10 00 00 00 00     	(move)  	movl	$0,0x10(%rsp)
  400f89:	c7 44 24 14 02 00 00 00     	(move)  	movl	$0x2,0x14(%rsp)
  400f91:	48 8d 7c 24 10              	(arith) 	lea	0x10(%rsp),%rdi
  400f96:	e8 b5 fa ff ff              	(control)	call	400a50 <_gfortran_st_close@plt>	; ⇄ _gfortran_st_close
62:	
  400f9b:	eb 7f                       	(control)	jmp	40101c <main__+0x436>	; ↲ label 63
43:	
/home/jcsalinas/Documents/pruebas/inst_estimation_module/BT/bt.f:97
  400f9d:	48 c7 44 24 18 84 eb 40 00  	(move)  	movq	$0x40eb84,0x18(%rsp)
  400fa6:	c7 44 24 20 61 00 00 00     	(move)  	movl	$0x61,0x20(%rsp)
  400fae:	48 c7 44 24 58 48 ec 40 00  	(move)  	movq	$0x40ec48,0x58(%rsp)
  400fb7:	c7 44 24 60 38 00 00 00     	(move)  	movl	$0x38,0x60(%rsp)
  400fbf:	c7 44 24 10 00 10 00 00     	(move)  	movl	$0x1000,0x10(%rsp)
  400fc7:	c7 44 24 14 06 00 00 00     	(move)  	movl	$0x6,0x14(%rsp)
  400fcf:	48 8d 7c 24 10              	(arith) 	lea	0x10(%rsp),%rdi
  400fd4:	e8 b7 fa ff ff              	(control)	call	400a90 <_gfortran_st_write@plt>	; ⇄ _gfortran_st_write
64:	
  400fd9:	48 8d 7c 24 10              	(arith) 	lea	0x10(%rsp),%rdi
  400fde:	e8 fd f9 ff ff              	(control)	call	4009e0 <_gfortran_st_write_done@plt>	; ⇄ _gfortran_st_write_done
65:	
/home/jcsalinas/Documents/pruebas/inst_estimation_module/BT/bt.f:98
  400fe3:	c7 84 24 cc 02 00 00 c8 00 00 00	(move)  	movl	$0xc8,0x2cc(%rsp)
/home/jcsalinas/Documents/pruebas/inst_estimation_module/BT/bt.f:99
  400fee:	f2 0f 10 25 12 de 00 00     	(move)  	movsd	0xde12(%rip),%xmm4
  400ff6:	f2 0f 11 25 aa 01 21 00     	(move)  	movsd	%xmm4,0x2101aa(%rip)
/home/jcsalinas/Documents/pruebas/inst_estimation_module/BT/bt.f:100
  400ffe:	c7 05 e0 05 21 00 66 00 00 00	(move)  	movl	$0x66,0x2105e0(%rip)
/home/jcsalinas/Documents/pruebas/inst_estimation_module/BT/bt.f:101
  401008:	c7 05 da 05 21 00 66 00 00 00	(move)  	movl	$0x66,0x2105da(%rip)
/home/jcsalinas/Documents/pruebas/inst_estimation_module/BT/bt.f:102
  401012:	c7 05 d4 05 21 00 66 00 00 00	(move)  	movl	$0x66,0x2105d4(%rip)
63:	
/home/jcsalinas/Documents/pruebas/inst_estimation_module/BT/bt.f:106
  40101c:	48 c7 44 24 18 84 eb 40 00  	(move)  	movq	$0x40eb84,0x18(%rsp)
  401025:	c7 44 24 20 6a 00 00 00     	(move)  	movl	$0x6a,0x20(%rsp)
  40102d:	48 c7 44 24 58 80 ec 40 00  	(move)  	movq	$0x40ec80,0x58(%rsp)
  401036:	c7 44 24 60 21 00 00 00     	(move)  	movl	$0x21,0x60(%rsp)
  40103e:	c7 44 24 10 00 10 00 00     	(move)  	movl	$0x1000,0x10(%rsp)
  401046:	c7 44 24 14 06 00 00 00     	(move)  	movl	$0x6,0x14(%rsp)
  40104e:	48 8d 7c 24 10              	(arith) 	lea	0x10(%rsp),%rdi
  401053:	e8 38 fa ff ff              	(control)	call	400a90 <_gfortran_st_write@plt>	; ⇄ _gfortran_st_write
66:	
  401058:	ba 04 00 00 00              	(move)  	mov	$0x4,%edx
  40105d:	be e8 15 61 00              	(move)  	mov	$0x6115e8,%esi
  401062:	48 8d 7c 24 10              	(arith) 	lea	0x10(%rsp),%rdi
  401067:	e8 14 fa ff ff              	(control)	call	400a80 <_gfortran_transfer_integer_write@plt>	; ⇄ _gfortran_transfer_integer_write
68:	
  40106c:	ba 04 00 00 00              	(move)  	mov	$0x4,%edx
  401071:	be ec 15 61 00              	(move)  	mov	$0x6115ec,%esi
  401076:	48 8d 7c 24 10              	(arith) 	lea	0x10(%rsp),%rdi
  40107b:	e8 00 fa ff ff              	(control)	call	400a80 <_gfortran_transfer_integer_write@plt>	; ⇄ _gfortran_transfer_integer_write
69:	
  401080:	ba 04 00 00 00              	(move)  	mov	$0x4,%edx
  401085:	be f0 15 61 00              	(move)  	mov	$0x6115f0,%esi
  40108a:	48 8d 7c 24 10              	(arith) 	lea	0x10(%rsp),%rdi
  40108f:	e8 ec f9 ff ff              	(control)	call	400a80 <_gfortran_transfer_integer_write@plt>	; ⇄ _gfortran_transfer_integer_write
70:	
  401094:	48 8d 7c 24 10              	(arith) 	lea	0x10(%rsp),%rdi
  401099:	e8 42 f9 ff ff              	(control)	call	4009e0 <_gfortran_st_write_done@plt>	; ⇄ _gfortran_st_write_done
71:	
/home/jcsalinas/Documents/pruebas/inst_estimation_module/BT/bt.f:107
  40109e:	48 c7 44 24 18 84 eb 40 00  	(move)  	movq	$0x40eb84,0x18(%rsp)
  4010a7:	c7 44 24 20 6b 00 00 00     	(move)  	movl	$0x6b,0x20(%rsp)
  4010af:	48 c7 44 24 58 a8 ec 40 00  	(move)  	movq	$0x40eca8,0x58(%rsp)
  4010b8:	c7 44 24 60 28 00 00 00     	(move)  	movl	$0x28,0x60(%rsp)
  4010c0:	c7 44 24 10 00 10 00 00     	(move)  	movl	$0x1000,0x10(%rsp)
  4010c8:	c7 44 24 14 06 00 00 00     	(move)  	movl	$0x6,0x14(%rsp)
  4010d0:	48 8d 7c 24 10              	(arith) 	lea	0x10(%rsp),%rdi
  4010d5:	e8 b6 f9 ff ff              	(control)	call	400a90 <_gfortran_st_write@plt>	; ⇄ _gfortran_st_write
72:	
  4010da:	ba 04 00 00 00              	(move)  	mov	$0x4,%edx
  4010df:	48 8d b4 24 cc 02 00 00     	(arith) 	lea	0x2cc(%rsp),%rsi
  4010e7:	48 8d 7c 24 10              	(arith) 	lea	0x10(%rsp),%rdi
  4010ec:	e8 8f f9 ff ff              	(control)	call	400a80 <_gfortran_transfer_integer_write@plt>	; ⇄ _gfortran_transfer_integer_write
73:	
  4010f1:	ba 08 00 00 00              	(move)  	mov	$0x8,%edx
  4010f6:	be a8 11 61 00              	(move)  	mov	$0x6111a8,%esi
  4010fb:	48 8d 7c 24 10              	(arith) 	lea	0x10(%rsp),%rdi
  401100:	e8 6b f9 ff ff              	(control)	call	400a70 <_gfortran_transfer_real_write@plt>	; ⇄ _gfortran_transfer_real_write
75:	
  401105:	48 8d 7c 24 10              	(arith) 	lea	0x10(%rsp),%rdi
  40110a:	e8 d1 f8 ff ff              	(control)	call	4009e0 <_gfortran_st_write_done@plt>	; ⇄ _gfortran_st_write_done
76:	
/home/jcsalinas/Documents/pruebas/inst_estimation_module/BT/bt.f:108
  40110f:	48 c7 44 24 18 84 eb 40 00  	(move)  	movq	$0x40eb84,0x18(%rsp)
  401118:	c7 44 24 20 6c 00 00 00     	(move)  	movl	$0x6c,0x20(%rsp)
  401120:	c7 44 24 10 80 00 00 00     	(move)  	movl	$0x80,0x10(%rsp)
  401128:	c7 44 24 14 06 00 00 00     	(move)  	movl	$0x6,0x14(%rsp)
  401130:	48 8d 7c 24 10              	(arith) 	lea	0x10(%rsp),%rdi
  401135:	e8 56 f9 ff ff              	(control)	call	400a90 <_gfortran_st_write@plt>	; ⇄ _gfortran_st_write
77:	
  40113a:	48 8d 7c 24 10              	(arith) 	lea	0x10(%rsp),%rdi
  40113f:	e8 9c f8 ff ff              	(control)	call	4009e0 <_gfortran_st_write_done@plt>	; ⇄ _gfortran_st_write_done
78:	
/home/jcsalinas/Documents/pruebas/inst_estimation_module/BT/bt.f:116
  401144:	83 3d 9d 04 21 00 66        	(arith) 	cmpl	$0x66,0x21049d(%rip)
  40114b:	7f 16                       	(control)	jg	401163 <main__+0x57d>	; ↲ label 79
80:	
  40114d:	83 3d 98 04 21 00 66        	(arith) 	cmpl	$0x66,0x210498(%rip)
  401154:	7f 0d                       	(control)	jg	401163 <main__+0x57d>	; ↲ label 79
81:	
/home/jcsalinas/Documents/pruebas/inst_estimation_module/BT/bt.f:118
  401156:	83 3d 93 04 21 00 66        	(arith) 	cmpl	$0x66,0x210493(%rip)
  40115d:	0f 8e ca 00 00 00           	(control)	jle	40122d <main__+0x647>	; ↲ label 82
79:	
/home/jcsalinas/Documents/pruebas/inst_estimation_module/BT/bt.f:118
  401163:	48 c7 44 24 18 84 eb 40 00  	(move)  	movq	$0x40eb84,0x18(%rsp)
  40116c:	c7 44 24 20 76 00 00 00     	(move)  	movl	$0x76,0x20(%rsp)
  401174:	c7 44 24 10 80 00 00 00     	(move)  	movl	$0x80,0x10(%rsp)
  40117c:	c7 44 24 14 06 00 00 00     	(move)  	movl	$0x6,0x14(%rsp)
  401184:	48 8d 7c 24 10              	(arith) 	lea	0x10(%rsp),%rdi
  401189:	e8 02 f9 ff ff              	(control)	call	400a90 <_gfortran_st_write@plt>	; ⇄ _gfortran_st_write
83:	
  40118e:	c7 84 24 dc 02 00 00 01 00 00 00	(move)  	movl	$0x1,0x2dc(%rsp)
; ------- Loop 0 entry
84 (loop 0):	
  401199:	48 63 84 24 dc 02 00 00     	(move)  	movsxd	0x2dc(%rsp),%rax
  4011a1:	48 8d 34 85 e4 15 61 00     	(arith) 	lea	0x6115e4(,%rax,4),%rsi
  4011a9:	ba 04 00 00 00              	(move)  	mov	$0x4,%edx
  4011ae:	48 8d 7c 24 10              	(arith) 	lea	0x10(%rsp),%rdi
  4011b3:	e8 c8 f8 ff ff              	(control)	call	400a80 <_gfortran_transfer_integer_write@plt>	; ⇄ _gfortran_transfer_integer_write
85:	
  4011b8:	f6 44 24 10 01              	(arith) 	testb	$0x1,0x10(%rsp)
  4011bd:	75 16                       	(control)	jne	4011d5 <main__+0x5ef>	; ↲ label 86
87:	
/home/jcsalinas/Documents/pruebas/inst_estimation_module/BT/bt.f:118
  4011bf:	8b 84 24 dc 02 00 00        	(move)  	mov	0x2dc(%rsp),%eax
  4011c6:	8d 50 01                    	(arith) 	lea	0x1(%rax),%edx
  4011c9:	89 94 24 dc 02 00 00        	(move)  	mov	%edx,0x2dc(%rsp)
  4011d0:	83 f8 03                    	(arith) 	cmp	$0x3,%eax
  4011d3:	75 c4                       	(control)	jne	401199 <main__+0x5b3>	; ↰ label 84 (loop 0)
; ------- Loop 0 exit
86:	
/home/jcsalinas/Documents/pruebas/inst_estimation_module/BT/bt.f:119
  4011d5:	48 8d 7c 24 10              	(arith) 	lea	0x10(%rsp),%rdi
  4011da:	e8 01 f8 ff ff              	(control)	call	4009e0 <_gfortran_st_write_done@plt>	; ⇄ _gfortran_st_write_done
88:	
/home/jcsalinas/Documents/pruebas/inst_estimation_module/BT/bt.f:119
  4011df:	48 c7 44 24 18 84 eb 40 00  	(move)  	movq	$0x40eb84,0x18(%rsp)
  4011e8:	c7 44 24 20 77 00 00 00     	(move)  	movl	$0x77,0x20(%rsp)
  4011f0:	c7 44 24 10 80 00 00 00     	(move)  	movl	$0x80,0x10(%rsp)
  4011f8:	c7 44 24 14 06 00 00 00     	(move)  	movl	$0x6,0x14(%rsp)
  401200:	48 8d 7c 24 10              	(arith) 	lea	0x10(%rsp),%rdi
  401205:	e8 86 f8 ff ff              	(control)	call	400a90 <_gfortran_st_write@plt>	; ⇄ _gfortran_st_write
89:	
  40120a:	ba 2e 00 00 00              	(move)  	mov	$0x2e,%edx
  40120f:	be d0 ec 40 00              	(move)  	mov	$0x40ecd0,%esi
  401214:	48 8d 7c 24 10              	(arith) 	lea	0x10(%rsp),%rdi
  401219:	e8 a2 f7 ff ff              	(control)	call	4009c0 <_gfortran_transfer_character_write@plt>	; ⇄ _gfortran_transfer_character_write
91:	
  40121e:	48 8d 7c 24 10              	(arith) 	lea	0x10(%rsp),%rdi
  401223:	e8 b8 f7 ff ff              	(control)	call	4009e0 <_gfortran_st_write_done@plt>	; ⇄ _gfortran_st_write_done
92:	
/home/jcsalinas/Documents/pruebas/inst_estimation_module/BT/bt.f:120
  401228:	e9 25 08 00 00              	(control)	jmp	401a52 <main__+0xe6c>	; ↲ label 93
82:	
/home/jcsalinas/Documents/pruebas/inst_estimation_module/BT/bt.f:124
  40122d:	b8 00 00 00 00              	(move)  	mov	$0,%eax
  401232:	e8 ad 2f 00 00              	(control)	call	4041e4 <set_constants_>	; ⇄ set_constants
95:	
/home/jcsalinas/Documents/pruebas/inst_estimation_module/BT/bt.f:126
  401237:	c7 84 24 dc 02 00 00 01 00 00 00	(move)  	movl	$0x1,0x2dc(%rsp)
; ------- Loop 1 entry
96 (loop 1):	
/home/jcsalinas/Documents/pruebas/inst_estimation_module/BT/bt.f:127
  401242:	48 8d bc 24 dc 02 00 00     	(arith) 	lea	0x2dc(%rsp),%rdi
  40124a:	b8 00 00 00 00              	(move)  	mov	$0,%eax
  40124f:	e8 bf d7 00 00              	(control)	call	40ea13 <timer_clear_>	; ⇄ timer_clear
98:	
/home/jcsalinas/Documents/pruebas/inst_estimation_module/BT/bt.f:126
  401254:	8b 84 24 dc 02 00 00        	(move)  	mov	0x2dc(%rsp),%eax
  40125b:	8d 50 01                    	(arith) 	lea	0x1(%rax),%edx
  40125e:	89 94 24 dc 02 00 00        	(move)  	mov	%edx,0x2dc(%rsp)
  401265:	83 f8 0b                    	(arith) 	cmp	$0xb,%eax
  401268:	75 d8                       	(control)	jne	401242 <main__+0x65c>	; ↰ label 96 (loop 1)
; ------- Loop 1 exit
99:	
/home/jcsalinas/Documents/pruebas/inst_estimation_module/BT/bt.f:130
  40126a:	b8 00 00 00 00              	(move)  	mov	$0,%eax
  40126f:	e8 11 08 00 00              	(control)	call	401a85 <initialize_>	; ⇄ initialize
101:	
/home/jcsalinas/Documents/pruebas/inst_estimation_module/BT/bt.f:132
  401274:	b8 00 00 00 00              	(move)  	mov	$0,%eax
  401279:	e8 91 12 00 00              	(control)	call	40250f <exact_rhs_>	; ⇄ exact_rhs
103:	
/home/jcsalinas/Documents/pruebas/inst_estimation_module/BT/bt.f:137
  40127e:	b8 00 00 00 00              	(move)  	mov	$0,%eax
  401283:	e8 55 37 00 00              	(control)	call	4049dd <adi_>	; ⇄ adi
105:	
/home/jcsalinas/Documents/pruebas/inst_estimation_module/BT/bt.f:138
  401288:	b8 00 00 00 00              	(move)  	mov	$0,%eax
  40128d:	e8 f3 07 00 00              	(control)	call	401a85 <initialize_>	; ⇄ initialize
106:	
/home/jcsalinas/Documents/pruebas/inst_estimation_module/BT/bt.f:140
  401292:	c7 84 24 dc 02 00 00 01 00 00 00	(move)  	movl	$0x1,0x2dc(%rsp)
; ------- Loop 2 entry
107 (loop 2):	
/home/jcsalinas/Documents/pruebas/inst_estimation_module/BT/bt.f:141
  40129d:	48 8d bc 24 dc 02 00 00     	(arith) 	lea	0x2dc(%rsp),%rdi
  4012a5:	b8 00 00 00 00              	(move)  	mov	$0,%eax
  4012aa:	e8 64 d7 00 00              	(control)	call	40ea13 <timer_clear_>	; ⇄ timer_clear
108:	
/home/jcsalinas/Documents/pruebas/inst_estimation_module/BT/bt.f:140
  4012af:	8b 84 24 dc 02 00 00        	(move)  	mov	0x2dc(%rsp),%eax
  4012b6:	8d 50 01                    	(arith) 	lea	0x1(%rax),%edx
  4012b9:	89 94 24 dc 02 00 00        	(move)  	mov	%edx,0x2dc(%rsp)
  4012c0:	83 f8 0b                    	(arith) 	cmp	$0xb,%eax
  4012c3:	75 d8                       	(control)	jne	40129d <main__+0x6b7>	; ↰ label 107 (loop 2)
; ------- Loop 2 exit
109:	
/home/jcsalinas/Documents/pruebas/inst_estimation_module/BT/bt.f:143
  4012c5:	bf 00 ed 40 00              	(move)  	mov	$0x40ed00,%edi
  4012ca:	b8 00 00 00 00              	(move)  	mov	$0,%eax
  4012cf:	e8 4f d7 00 00              	(control)	call	40ea23 <timer_start_>	; ⇄ timer_start
111:	
/home/jcsalinas/Documents/pruebas/inst_estimation_module/BT/bt.f:145
  4012d4:	8b ac 24 cc 02 00 00        	(move)  	mov	0x2cc(%rsp),%ebp
  4012db:	c7 84 24 c8 02 00 00 01 00 00 00	(move)  	movl	$0x1,0x2c8(%rsp)
  4012e6:	85 ed                       	(arith) 	test	%ebp,%ebp
  4012e8:	0f 8e a4 00 00 00           	(control)	jle	401392 <main__+0x7ac>	; ↲ label 112
113:	
/home/jcsalinas/Documents/pruebas/inst_estimation_module/BT/bt.f:147
  4012ee:	41 bc 67 66 66 66           	(move)  	mov	$0x66666667,%r12d
; ------- Loop 5 entry
114 (loop 5):	
  4012f4:	8b 9c 24 c8 02 00 00        	(move)  	mov	0x2c8(%rsp),%ebx
  4012fb:	89 d8                       	(move)  	mov	%ebx,%eax
  4012fd:	41 f7 ec                    	(arith) 	imul	%r12d
  401300:	c1 fa 03                    	(logic) 	sar	$0x3,%edx
  401303:	89 d8                       	(move)  	mov	%ebx,%eax
  401305:	c1 f8 1f                    	(logic) 	sar	$0x1f,%eax
  401308:	29 c2                       	(arith) 	sub	%eax,%edx
  40130a:	8d 04 92                    	(arith) 	lea	(%rdx,%rdx,4),%eax
  40130d:	c1 e0 02                    	(logic) 	sal	$0x2,%eax
  401310:	39 c3                       	(arith) 	cmp	%eax,%ebx
  401312:	74 05                       	(control)	je	401319 <main__+0x733>	; ↲ label 115
116:	
  401314:	83 fb 01                    	(arith) 	cmp	$0x1,%ebx
  401317:	75 5d                       	(control)	jne	401376 <main__+0x790>	; ↲ label 117
115:	
/home/jcsalinas/Documents/pruebas/inst_estimation_module/BT/bt.f:149
  401319:	48 c7 44 24 18 84 eb 40 00  	(move)  	movq	$0x40eb84,0x18(%rsp)
  401322:	c7 44 24 20 95 00 00 00     	(move)  	movl	$0x95,0x20(%rsp)
  40132a:	48 c7 44 24 58 04 ed 40 00  	(move)  	movq	$0x40ed04,0x58(%rsp)
  401333:	c7 44 24 60 13 00 00 00     	(move)  	movl	$0x13,0x60(%rsp)
  40133b:	c7 44 24 10 00 10 00 00     	(move)  	movl	$0x1000,0x10(%rsp)
  401343:	c7 44 24 14 06 00 00 00     	(move)  	movl	$0x6,0x14(%rsp)
  40134b:	48 8d 7c 24 10              	(arith) 	lea	0x10(%rsp),%rdi
  401350:	e8 3b f7 ff ff              	(control)	call	400a90 <_gfortran_st_write@plt>	; ⇄ _gfortran_st_write
118:	
  401355:	ba 04 00 00 00              	(move)  	mov	$0x4,%edx
  40135a:	48 8d b4 24 c8 02 00 00     	(arith) 	lea	0x2c8(%rsp),%rsi
  401362:	48 8d 7c 24 10              	(arith) 	lea	0x10(%rsp),%rdi
  401367:	e8 14 f7 ff ff              	(control)	call	400a80 <_gfortran_transfer_integer_write@plt>	; ⇄ _gfortran_transfer_integer_write
119:	
  40136c:	48 8d 7c 24 10              	(arith) 	lea	0x10(%rsp),%rdi
  401371:	e8 6a f6 ff ff              	(control)	call	4009e0 <_gfortran_st_write_done@plt>	; ⇄ _gfortran_st_write_done
117:	
/home/jcsalinas/Documents/pruebas/inst_estimation_module/BT/bt.f:153
  401376:	b8 00 00 00 00              	(move)  	mov	$0,%eax
  40137b:	e8 5d 36 00 00              	(control)	call	4049dd <adi_>	; ⇄ adi
120:	
/home/jcsalinas/Documents/pruebas/inst_estimation_module/BT/bt.f:145
  401380:	8d 43 01                    	(arith) 	lea	0x1(%rbx),%eax
  401383:	89 84 24 c8 02 00 00        	(move)  	mov	%eax,0x2c8(%rsp)
  40138a:	39 dd                       	(arith) 	cmp	%ebx,%ebp
  40138c:	0f 85 62 ff ff ff           	(control)	jne	4012f4 <main__+0x70e>	; ↰ label 114 (loop 5)
; ------- Loop 5 exit
112:	
/home/jcsalinas/Documents/pruebas/inst_estimation_module/BT/bt.f:157
  401392:	bf 00 ed 40 00              	(move)  	mov	$0x40ed00,%edi
  401397:	b8 00 00 00 00              	(move)  	mov	$0,%eax
  40139c:	e8 9a d6 00 00              	(control)	call	40ea3b <timer_stop_>	; ⇄ timer_stop
122:	
/home/jcsalinas/Documents/pruebas/inst_estimation_module/BT/bt.f:158
  4013a1:	bf 00 ed 40 00              	(move)  	mov	$0x40ed00,%edi
  4013a6:	b8 00 00 00 00              	(move)  	mov	$0,%eax
  4013ab:	e8 b8 d6 00 00              	(control)	call	40ea68 <timer_read_>	; ⇄ timer_read
124:	
  4013b0:	f2 0f 11 84 24 58 02 00 00  	(move)  	movsd	%xmm0,0x258(%rsp)
/home/jcsalinas/Documents/pruebas/inst_estimation_module/BT/bt.f:160
  4013b9:	b9 01 00 00 00              	(move)  	mov	$0x1,%ecx
  4013be:	48 8d 94 24 fc 01 00 00     	(arith) 	lea	0x1fc(%rsp),%rdx
  4013c6:	48 8d b4 24 e7 02 00 00     	(arith) 	lea	0x2e7(%rsp),%rsi
  4013ce:	48 8d bc 24 cc 02 00 00     	(arith) 	lea	0x2cc(%rsp),%rdi
  4013d6:	b8 00 00 00 00              	(move)  	mov	$0,%eax
  4013db:	e8 ef bd 00 00              	(control)	call	40d1cf <verify_>	; ⇄ verify
126:	
/home/jcsalinas/Documents/pruebas/inst_estimation_module/BT/bt.f:164
  4013e0:	f2 0f 10 94 24 58 02 00 00  	(move)  	movsd	0x258(%rsp),%xmm2
  4013e9:	66 0f 2e 15 1f da 00 00     	(arith) 	ucomisd	0xda1f(%rip),%xmm2
  4013f1:	7a 06                       	(control)	jp	4013f9 <main__+0x813>	; ↲ label 127
128:	
  4013f3:	0f 84 9f 00 00 00           	(control)	je	401498 <main__+0x8b2>	; ↲ label 129
127:	
/home/jcsalinas/Documents/pruebas/inst_estimation_module/BT/bt.f:162
  4013f9:	8b 35 e9 01 21 00           	(move)  	mov	0x2101e9(%rip),%esi
  4013ff:	8b 0d e7 01 21 00           	(move)  	mov	0x2101e7(%rip),%ecx
  401405:	8b 15 e5 01 21 00           	(move)  	mov	0x2101e5(%rip),%edx
/home/jcsalinas/Documents/pruebas/inst_estimation_module/BT/bt.f:163
  40140b:	8d 04 0e                    	(arith) 	lea	(%rsi,%rcx,1),%eax
  40140e:	01 d0                       	(arith) 	add	%edx,%eax
  401410:	66 0f ef c0                 	(logic) 	pxor	%xmm0,%xmm0
  401414:	f3 0f 2a c0                 	(conv)  	cvtsi2ss	%eax,%xmm0
  401418:	f3 0f 5e 05 20 da 00 00     	(arith) 	divss	0xda20(%rip),%xmm0
  401420:	f3 0f 5a c0                 	(conv)  	cvtss2sd	%xmm0,%xmm0
/home/jcsalinas/Documents/pruebas/inst_estimation_module/BT/bt.f:167
  401424:	66 0f ef db                 	(logic) 	pxor	%xmm3,%xmm3
  401428:	f2 0f 2a de                 	(conv)  	cvtsi2sd	%esi,%xmm3
  40142c:	66 0f ef c9                 	(logic) 	pxor	%xmm1,%xmm1
  401430:	f2 0f 2a c9                 	(conv)  	cvtsi2sd	%ecx,%xmm1
  401434:	f2 0f 59 d9                 	(arith) 	mulsd	%xmm1,%xmm3
  401438:	66 0f ef c9                 	(logic) 	pxor	%xmm1,%xmm1
  40143c:	f2 0f 2a ca                 	(conv)  	cvtsi2sd	%edx,%xmm1
  401440:	f2 0f 59 cb                 	(arith) 	mulsd	%xmm3,%xmm1
  401444:	f2 0f 59 0d cc d9 00 00     	(arith) 	mulsd	0xd9cc(%rip),%xmm1
  40144c:	66 0f 28 d8                 	(move)  	movapd	%xmm0,%xmm3
  401450:	f2 0f 59 d8                 	(arith) 	mulsd	%xmm0,%xmm3
  401454:	f2 0f 59 1d c4 d9 00 00     	(arith) 	mulsd	0xd9c4(%rip),%xmm3
  40145c:	f2 0f 5c cb                 	(arith) 	subsd	%xmm3,%xmm1
  401460:	f2 0f 59 05 c0 d9 00 00     	(arith) 	mulsd	0xd9c0(%rip),%xmm0
  401468:	f2 0f 58 c1                 	(arith) 	addsd	%xmm1,%xmm0
  40146c:	66 0f ef c9                 	(logic) 	pxor	%xmm1,%xmm1
  401470:	f3 0f 2a 8c 24 cc 02 00 00  	(conv)  	cvtsi2ssl	0x2cc(%rsp),%xmm1
  401479:	f3 0f 59 0d c3 d9 00 00     	(arith) 	mulss	0xd9c3(%rip),%xmm1
  401481:	f3 0f 5a c9                 	(conv)  	cvtss2sd	%xmm1,%xmm1
  401485:	f2 0f 59 c1                 	(arith) 	mulsd	%xmm1,%xmm0
  401489:	f2 0f 5e c2                 	(arith) 	divsd	%xmm2,%xmm0
  40148d:	f2 0f 11 84 24 d0 02 00 00  	(move)  	movsd	%xmm0,0x2d0(%rsp)
  401496:	eb 0c                       	(control)	jmp	4014a4 <main__+0x8be>	; ↲ label 130
129:	
/home/jcsalinas/Documents/pruebas/inst_estimation_module/BT/bt.f:169
  401498:	48 c7 84 24 d0 02 00 00 00 00 00 00	(move)  	movq	$0,0x2d0(%rsp)
130:	
/home/jcsalinas/Documents/pruebas/inst_estimation_module/BT/bt.f:175
  4014a4:	48 83 ec 08                 	(arith) 	sub	$0x8,%rsp
  4014a8:	6a 06                       	(move)  	push	$0x6
  4014aa:	6a 06                       	(move)  	push	$0x6
  4014ac:	6a 06                       	(move)  	push	$0x6
  4014ae:	6a 06                       	(move)  	push	$0x6
  4014b0:	6a 06                       	(move)  	push	$0x6
  4014b2:	6a 06                       	(move)  	push	$0x6
  4014b4:	6a 08                       	(move)  	push	$0x8
  4014b6:	6a 0b                       	(move)  	push	$0xb
  4014b8:	6a 05                       	(move)  	push	$0x5
  4014ba:	6a 18                       	(move)  	push	$0x18
  4014bc:	6a 01                       	(move)  	push	$0x1
  4014be:	6a 02                       	(move)  	push	$0x2
  4014c0:	68 19 ed 40 00              	(move)  	push	$0x40ed19
  4014c5:	68 1f ed 40 00              	(move)  	push	$0x40ed1f
  4014ca:	68 1f ed 40 00              	(move)  	push	$0x40ed1f
  4014cf:	68 19 ed 40 00              	(move)  	push	$0x40ed19
  4014d4:	68 19 ed 40 00              	(move)  	push	$0x40ed19
  4014d9:	68 25 ed 40 00              	(move)  	push	$0x40ed25
  4014de:	68 2b ed 40 00              	(move)  	push	$0x40ed2b
  4014e3:	68 33 ed 40 00              	(move)  	push	$0x40ed33
  4014e8:	68 3e ed 40 00              	(move)  	push	$0x40ed3e
  4014ed:	48 8d 84 24 ac 02 00 00     	(arith) 	lea	0x2ac(%rsp),%rax
  4014f5:	50                          	(move)  	push	%rax
  4014f6:	68 43 ed 40 00              	(move)  	push	$0x40ed43
  4014fb:	48 8d 84 24 90 03 00 00     	(arith) 	lea	0x390(%rsp),%rax
  401503:	50                          	(move)  	push	%rax
  401504:	48 8d 84 24 20 03 00 00     	(arith) 	lea	0x320(%rsp),%rax
  40150c:	50                          	(move)  	push	%rax
  40150d:	4c 8d 8c 24 9c 03 00 00     	(arith) 	lea	0x39c(%rsp),%r9
  401515:	41 b8 f0 15 61 00           	(move)  	mov	$0x6115f0,%r8d
  40151b:	b9 ec 15 61 00              	(move)  	mov	$0x6115ec,%ecx
  401520:	ba e8 15 61 00              	(move)  	mov	$0x6115e8,%edx
  401525:	48 8d b4 24 b7 03 00 00     	(arith) 	lea	0x3b7(%rsp),%rsi
  40152d:	bf 17 ed 40 00              	(move)  	mov	$0x40ed17,%edi
  401532:	b8 00 00 00 00              	(move)  	mov	$0,%eax
  401537:	e8 8d cc 00 00              	(control)	call	40e1c9 <print_results_>	; ⇄ print_results
132:	
/home/jcsalinas/Documents/pruebas/inst_estimation_module/BT/bt.f:180
  40153c:	48 81 c4 d0 00 00 00        	(arith) 	add	$0xd0,%rsp
  401543:	83 3d aa 00 21 00 00        	(arith) 	cmpl	$0,0x2100aa(%rip)
  40154a:	0f 84 02 05 00 00           	(control)	je	401a52 <main__+0xe6c>	; ↲ label 93
133:	
/home/jcsalinas/Documents/pruebas/inst_estimation_module/BT/bt.f:182
  401550:	c7 84 24 dc 02 00 00 01 00 00 00	(move)  	movl	$0x1,0x2dc(%rsp)
; ------- Loop 3 entry
134 (loop 3):	
/home/jcsalinas/Documents/pruebas/inst_estimation_module/BT/bt.f:183
  40155b:	48 63 9c 24 dc 02 00 00     	(move)  	movsxd	0x2dc(%rsp),%rbx
  401563:	48 83 eb 01                 	(arith) 	sub	$0x1,%rbx
  401567:	48 8d bc 24 dc 02 00 00     	(arith) 	lea	0x2dc(%rsp),%rdi
  40156f:	b8 00 00 00 00              	(move)  	mov	$0,%eax
  401574:	e8 ef d4 00 00              	(control)	call	40ea68 <timer_read_>	; ⇄ timer_read
135:	
  401579:	f2 0f 11 84 dc 00 02 00 00  	(move)  	movsd	%xmm0,0x200(%rsp,%rbx,8)
/home/jcsalinas/Documents/pruebas/inst_estimation_module/BT/bt.f:182
  401582:	8b 84 24 dc 02 00 00        	(move)  	mov	0x2dc(%rsp),%eax
  401589:	8d 50 01                    	(arith) 	lea	0x1(%rax),%edx
  40158c:	89 94 24 dc 02 00 00        	(move)  	mov	%edx,0x2dc(%rsp)
  401593:	83 f8 0b                    	(arith) 	cmp	$0xb,%eax
  401596:	75 c3                       	(control)	jne	40155b <main__+0x975>	; ↰ label 134 (loop 3)
; ------- Loop 3 exit
136:	
/home/jcsalinas/Documents/pruebas/inst_estimation_module/BT/bt.f:186
  401598:	66 0f ef c0                 	(logic) 	pxor	%xmm0,%xmm0
  40159c:	66 0f 2e 84 24 58 02 00 00  	(arith) 	ucomisd	0x258(%rsp),%xmm0
  4015a5:	7a 13                       	(control)	jp	4015ba <main__+0x9d4>	; ↲ label 137
138:	
  4015a7:	75 11                       	(control)	jne	4015ba <main__+0x9d4>	; ↲ label 137
139:	
/home/jcsalinas/Documents/pruebas/inst_estimation_module/BT/bt.f:187
  4015a9:	f2 0f 10 3d 7f d8 00 00     	(move)  	movsd	0xd87f(%rip),%xmm7
  4015b1:	f2 0f 11 bc 24 58 02 00 00  	(move)  	movsd	%xmm7,0x258(%rsp)
137:	
/home/jcsalinas/Documents/pruebas/inst_estimation_module/BT/bt.f:187
  4015ba:	48 c7 44 24 18 84 eb 40 00  	(move)  	movq	$0x40eb84,0x18(%rsp)
  4015c3:	c7 44 24 20 bb 00 00 00     	(move)  	movl	$0xbb,0x20(%rsp)
  4015cb:	48 c7 44 24 58 5b ed 40 00  	(move)  	movq	$0x40ed5b,0x58(%rsp)
  4015d4:	c7 44 24 60 1b 00 00 00     	(move)  	movl	$0x1b,0x60(%rsp)
  4015dc:	c7 44 24 10 00 10 00 00     	(move)  	movl	$0x1000,0x10(%rsp)
  4015e4:	c7 44 24 14 06 00 00 00     	(move)  	movl	$0x6,0x14(%rsp)
  4015ec:	48 8d 7c 24 10              	(arith) 	lea	0x10(%rsp),%rdi
  4015f1:	e8 9a f4 ff ff              	(control)	call	400a90 <_gfortran_st_write@plt>	; ⇄ _gfortran_st_write
140:	
  4015f6:	48 8d 7c 24 10              	(arith) 	lea	0x10(%rsp),%rdi
  4015fb:	e8 e0 f3 ff ff              	(control)	call	4009e0 <_gfortran_st_write_done@plt>	; ⇄ _gfortran_st_write_done
141:	
/home/jcsalinas/Documents/pruebas/inst_estimation_module/BT/bt.f:189
  401600:	c7 84 24 dc 02 00 00 01 00 00 00	(move)  	movl	$0x1,0x2dc(%rsp)
; ------- Loop 4 entry
142 (loop 4):	
/home/jcsalinas/Documents/pruebas/inst_estimation_module/BT/bt.f:190
  40160b:	48 c7 44 24 18 84 eb 40 00  	(move)  	movq	$0x40eb84,0x18(%rsp)
  401614:	c7 44 24 20 be 00 00 00     	(move)  	movl	$0xbe,0x20(%rsp)
  40161c:	48 c7 44 24 58 78 ed 40 00  	(move)  	movq	$0x40ed78,0x58(%rsp)
  401625:	c7 44 24 60 20 00 00 00     	(move)  	movl	$0x20,0x60(%rsp)
  40162d:	c7 44 24 10 00 10 00 00     	(move)  	movl	$0x1000,0x10(%rsp)
  401635:	c7 44 24 14 06 00 00 00     	(move)  	movl	$0x6,0x14(%rsp)
  40163d:	48 8d 7c 24 10              	(arith) 	lea	0x10(%rsp),%rdi
  401642:	e8 49 f4 ff ff              	(control)	call	400a90 <_gfortran_st_write@plt>	; ⇄ _gfortran_st_write
143:	
  401647:	48 63 84 24 dc 02 00 00     	(move)  	movsxd	0x2dc(%rsp),%rax
  40164f:	48 8d b4 c4 58 02 00 00     	(arith) 	lea	0x258(%rsp,%rax,8),%rsi
  401657:	ba 08 00 00 00              	(move)  	mov	$0x8,%edx
  40165c:	48 8d 7c 24 10              	(arith) 	lea	0x10(%rsp),%rdi
  401661:	e8 5a f3 ff ff              	(control)	call	4009c0 <_gfortran_transfer_character_write@plt>	; ⇄ _gfortran_transfer_character_write
144:	
  401666:	48 63 84 24 dc 02 00 00     	(move)  	movsxd	0x2dc(%rsp),%rax
  40166e:	48 8d b4 c4 f8 01 00 00     	(arith) 	lea	0x1f8(%rsp,%rax,8),%rsi
  401676:	ba 08 00 00 00              	(move)  	mov	$0x8,%edx
  40167b:	48 8d 7c 24 10              	(arith) 	lea	0x10(%rsp),%rdi
  401680:	e8 eb f3 ff ff              	(control)	call	400a70 <_gfortran_transfer_real_write@plt>	; ⇄ _gfortran_transfer_real_write
145:	
  401685:	48 63 84 24 dc 02 00 00     	(move)  	movsxd	0x2dc(%rsp),%rax
  40168d:	f2 0f 10 05 a3 d7 00 00     	(move)  	movsd	0xd7a3(%rip),%xmm0
  401695:	f2 0f 59 84 c4 f8 01 00 00  	(arith) 	mulsd	0x1f8(%rsp,%rax,8),%xmm0
  40169e:	f2 0f 5e 84 24 58 02 00 00  	(arith) 	divsd	0x258(%rsp),%xmm0
  4016a7:	f2 0f 11 84 24 e8 02 00 00  	(move)  	movsd	%xmm0,0x2e8(%rsp)
  4016b0:	ba 08 00 00 00              	(move)  	mov	$0x8,%edx
  4016b5:	48 8d b4 24 e8 02 00 00     	(arith) 	lea	0x2e8(%rsp),%rsi
  4016bd:	48 8d 7c 24 10              	(arith) 	lea	0x10(%rsp),%rdi
  4016c2:	e8 a9 f3 ff ff              	(control)	call	400a70 <_gfortran_transfer_real_write@plt>	; ⇄ _gfortran_transfer_real_write
146:	
  4016c7:	48 8d 7c 24 10              	(arith) 	lea	0x10(%rsp),%rdi
  4016cc:	e8 0f f3 ff ff              	(control)	call	4009e0 <_gfortran_st_write_done@plt>	; ⇄ _gfortran_st_write_done
147:	
/home/jcsalinas/Documents/pruebas/inst_estimation_module/BT/bt.f:191
  4016d1:	8b 84 24 dc 02 00 00        	(move)  	mov	0x2dc(%rsp),%eax
  4016d8:	83 f8 05                    	(arith) 	cmp	$0x5,%eax
  4016db:	0f 85 a5 01 00 00           	(control)	jne	401886 <main__+0xca0>	; ↲ label 148
149:	
/home/jcsalinas/Documents/pruebas/inst_estimation_module/BT/bt.f:192
  4016e1:	f2 0f 10 84 24 08 02 00 00  	(move)  	movsd	0x208(%rsp),%xmm0
  4016ea:	f2 0f 58 84 24 10 02 00 00  	(arith) 	addsd	0x210(%rsp),%xmm0
  4016f3:	f2 0f 58 84 24 18 02 00 00  	(arith) 	addsd	0x218(%rsp),%xmm0
  4016fc:	f2 0f 11 44 24 08           	(move)  	movsd	%xmm0,0x8(%rsp)
  401702:	f2 0f 11 84 24 c0 02 00 00  	(move)  	movsd	%xmm0,0x2c0(%rsp)
/home/jcsalinas/Documents/pruebas/inst_estimation_module/BT/bt.f:193
  40170b:	48 c7 44 24 18 84 eb 40 00  	(move)  	movq	$0x40eb84,0x18(%rsp)
  401714:	c7 44 24 20 c1 00 00 00     	(move)  	movl	$0xc1,0x20(%rsp)
  40171c:	48 c7 44 24 58 98 ed 40 00  	(move)  	movq	$0x40ed98,0x58(%rsp)
  401725:	c7 44 24 60 28 00 00 00     	(move)  	movl	$0x28,0x60(%rsp)
  40172d:	c7 44 24 10 00 10 00 00     	(move)  	movl	$0x1000,0x10(%rsp)
  401735:	c7 44 24 14 06 00 00 00     	(move)  	movl	$0x6,0x14(%rsp)
  40173d:	48 8d 7c 24 10              	(arith) 	lea	0x10(%rsp),%rdi
  401742:	e8 49 f3 ff ff              	(control)	call	400a90 <_gfortran_st_write@plt>	; ⇄ _gfortran_st_write
150:	
  401747:	ba 07 00 00 00              	(move)  	mov	$0x7,%edx
  40174c:	be c0 ed 40 00              	(move)  	mov	$0x40edc0,%esi
  401751:	48 8d 7c 24 10              	(arith) 	lea	0x10(%rsp),%rdi
  401756:	e8 65 f2 ff ff              	(control)	call	4009c0 <_gfortran_transfer_character_write@plt>	; ⇄ _gfortran_transfer_character_write
151:	
  40175b:	ba 08 00 00 00              	(move)  	mov	$0x8,%edx
  401760:	48 8d b4 24 c0 02 00 00     	(arith) 	lea	0x2c0(%rsp),%rsi
  401768:	48 8d 7c 24 10              	(arith) 	lea	0x10(%rsp),%rdi
  40176d:	e8 fe f2 ff ff              	(control)	call	400a70 <_gfortran_transfer_real_write@plt>	; ⇄ _gfortran_transfer_real_write
152:	
  401772:	f2 0f 10 3d be d6 00 00     	(move)  	movsd	0xd6be(%rip),%xmm7
  40177a:	f2 0f 59 7c 24 08           	(arith) 	mulsd	0x8(%rsp),%xmm7
  401780:	66 0f 28 c7                 	(move)  	movapd	%xmm7,%xmm0
  401784:	f2 0f 5e 84 24 58 02 00 00  	(arith) 	divsd	0x258(%rsp),%xmm0
  40178d:	f2 0f 11 84 24 f0 02 00 00  	(move)  	movsd	%xmm0,0x2f0(%rsp)
  401796:	ba 08 00 00 00              	(move)  	mov	$0x8,%edx
  40179b:	48 8d b4 24 f0 02 00 00     	(arith) 	lea	0x2f0(%rsp),%rsi
  4017a3:	48 8d 7c 24 10              	(arith) 	lea	0x10(%rsp),%rdi
  4017a8:	e8 c3 f2 ff ff              	(control)	call	400a70 <_gfortran_transfer_real_write@plt>	; ⇄ _gfortran_transfer_real_write
153:	
  4017ad:	48 8d 7c 24 10              	(arith) 	lea	0x10(%rsp),%rdi
  4017b2:	e8 29 f2 ff ff              	(control)	call	4009e0 <_gfortran_st_write_done@plt>	; ⇄ _gfortran_st_write_done
154:	
/home/jcsalinas/Documents/pruebas/inst_estimation_module/BT/bt.f:194
  4017b7:	f2 0f 10 84 24 20 02 00 00  	(move)  	movsd	0x220(%rsp),%xmm0
  4017c0:	66 0f 28 f0                 	(move)  	movapd	%xmm0,%xmm6
  4017c4:	f2 0f 5c 74 24 08           	(arith) 	subsd	0x8(%rsp),%xmm6
  4017ca:	f2 0f 11 74 24 08           	(move)  	movsd	%xmm6,0x8(%rsp)
  4017d0:	f2 0f 11 b4 24 c0 02 00 00  	(move)  	movsd	%xmm6,0x2c0(%rsp)
/home/jcsalinas/Documents/pruebas/inst_estimation_module/BT/bt.f:195
  4017d9:	48 c7 44 24 18 84 eb 40 00  	(move)  	movq	$0x40eb84,0x18(%rsp)
  4017e2:	c7 44 24 20 c3 00 00 00     	(move)  	movl	$0xc3,0x20(%rsp)
  4017ea:	48 c7 44 24 58 98 ed 40 00  	(move)  	movq	$0x40ed98,0x58(%rsp)
  4017f3:	c7 44 24 60 28 00 00 00     	(move)  	movl	$0x28,0x60(%rsp)
  4017fb:	c7 44 24 10 00 10 00 00     	(move)  	movl	$0x1000,0x10(%rsp)
  401803:	c7 44 24 14 06 00 00 00     	(move)  	movl	$0x6,0x14(%rsp)
  40180b:	48 8d 7c 24 10              	(arith) 	lea	0x10(%rsp),%rdi
  401810:	e8 7b f2 ff ff              	(control)	call	400a90 <_gfortran_st_write@plt>	; ⇄ _gfortran_st_write
155:	
  401815:	ba 08 00 00 00              	(move)  	mov	$0x8,%edx
  40181a:	be c7 ed 40 00              	(move)  	mov	$0x40edc7,%esi
  40181f:	48 8d 7c 24 10              	(arith) 	lea	0x10(%rsp),%rdi
  401824:	e8 97 f1 ff ff              	(control)	call	4009c0 <_gfortran_transfer_character_write@plt>	; ⇄ _gfortran_transfer_character_write
156:	
  401829:	ba 08 00 00 00              	(move)  	mov	$0x8,%edx
  40182e:	48 8d b4 24 c0 02 00 00     	(arith) 	lea	0x2c0(%rsp),%rsi
  401836:	48 8d 7c 24 10              	(arith) 	lea	0x10(%rsp),%rdi
  40183b:	e8 30 f2 ff ff              	(control)	call	400a70 <_gfortran_transfer_real_write@plt>	; ⇄ _gfortran_transfer_real_write
157:	
  401840:	f2 0f 10 05 f0 d5 00 00     	(move)  	movsd	0xd5f0(%rip),%xmm0
  401848:	f2 0f 59 44 24 08           	(arith) 	mulsd	0x8(%rsp),%xmm0
  40184e:	f2 0f 5e 84 24 58 02 00 00  	(arith) 	divsd	0x258(%rsp),%xmm0
  401857:	f2 0f 11 84 24 f8 02 00 00  	(move)  	movsd	%xmm0,0x2f8(%rsp)
  401860:	ba 08 00 00 00              	(move)  	mov	$0x8,%edx
  401865:	48 8d b4 24 f8 02 00 00     	(arith) 	lea	0x2f8(%rsp),%rsi
  40186d:	48 8d 7c 24 10              	(arith) 	lea	0x10(%rsp),%rdi
  401872:	e8 f9 f1 ff ff              	(control)	call	400a70 <_gfortran_transfer_real_write@plt>	; ⇄ _gfortran_transfer_real_write
158:	
  401877:	48 8d 7c 24 10              	(arith) 	lea	0x10(%rsp),%rdi
  40187c:	e8 5f f1 ff ff              	(control)	call	4009e0 <_gfortran_st_write_done@plt>	; ⇄ _gfortran_st_write_done
159:	
  401881:	e9 b2 01 00 00              	(control)	jmp	401a38 <main__+0xe52>	; ↲ label 160
148:	
/home/jcsalinas/Documents/pruebas/inst_estimation_module/BT/bt.f:196
  401886:	83 f8 08                    	(arith) 	cmp	$0x8,%eax
  401889:	0f 85 d7 00 00 00           	(control)	jne	401966 <main__+0xd80>	; ↲ label 161
162:	
/home/jcsalinas/Documents/pruebas/inst_estimation_module/BT/bt.f:197
  40188f:	f2 0f 10 84 24 38 02 00 00  	(move)  	movsd	0x238(%rsp),%xmm0
  401898:	f2 0f 5c 84 24 40 02 00 00  	(arith) 	subsd	0x240(%rsp),%xmm0
  4018a1:	f2 0f 5c 84 24 48 02 00 00  	(arith) 	subsd	0x248(%rsp),%xmm0
  4018aa:	f2 0f 11 44 24 08           	(move)  	movsd	%xmm0,0x8(%rsp)
  4018b0:	f2 0f 11 84 24 c0 02 00 00  	(move)  	movsd	%xmm0,0x2c0(%rsp)
/home/jcsalinas/Documents/pruebas/inst_estimation_module/BT/bt.f:198
  4018b9:	48 c7 44 24 18 84 eb 40 00  	(move)  	movq	$0x40eb84,0x18(%rsp)
  4018c2:	c7 44 24 20 c6 00 00 00     	(move)  	movl	$0xc6,0x20(%rsp)
  4018ca:	48 c7 44 24 58 98 ed 40 00  	(move)  	movq	$0x40ed98,0x58(%rsp)
  4018d3:	c7 44 24 60 28 00 00 00     	(move)  	movl	$0x28,0x60(%rsp)
  4018db:	c7 44 24 10 00 10 00 00     	(move)  	movl	$0x1000,0x10(%rsp)
  4018e3:	c7 44 24 14 06 00 00 00     	(move)  	movl	$0x6,0x14(%rsp)
  4018eb:	48 8d 7c 24 10              	(arith) 	lea	0x10(%rsp),%rdi
  4018f0:	e8 9b f1 ff ff              	(control)	call	400a90 <_gfortran_st_write@plt>	; ⇄ _gfortran_st_write
163:	
  4018f5:	ba 08 00 00 00              	(move)  	mov	$0x8,%edx
  4018fa:	be cf ed 40 00              	(move)  	mov	$0x40edcf,%esi
  4018ff:	48 8d 7c 24 10              	(arith) 	lea	0x10(%rsp),%rdi
  401904:	e8 b7 f0 ff ff              	(control)	call	4009c0 <_gfortran_transfer_character_write@plt>	; ⇄ _gfortran_transfer_character_write
164:	
  401909:	ba 08 00 00 00              	(move)  	mov	$0x8,%edx
  40190e:	48 8d b4 24 c0 02 00 00     	(arith) 	lea	0x2c0(%rsp),%rsi
  401916:	48 8d 7c 24 10              	(arith) 	lea	0x10(%rsp),%rdi
  40191b:	e8 50 f1 ff ff              	(control)	call	400a70 <_gfortran_transfer_real_write@plt>	; ⇄ _gfortran_transfer_real_write
165:	
  401920:	f2 0f 10 44 24 08           	(move)  	movsd	0x8(%rsp),%xmm0
  401926:	f2 0f 59 05 0a d5 00 00     	(arith) 	mulsd	0xd50a(%rip),%xmm0
  40192e:	f2 0f 5e 84 24 58 02 00 00  	(arith) 	divsd	0x258(%rsp),%xmm0
  401937:	f2 0f 11 84 24 00 03 00 00  	(move)  	movsd	%xmm0,0x300(%rsp)
  401940:	ba 08 00 00 00              	(move)  	mov	$0x8,%edx
  401945:	48 8d b4 24 00 03 00 00     	(arith) 	lea	0x300(%rsp),%rsi
  40194d:	48 8d 7c 24 10              	(arith) 	lea	0x10(%rsp),%rdi
  401952:	e8 19 f1 ff ff              	(control)	call	400a70 <_gfortran_transfer_real_write@plt>	; ⇄ _gfortran_transfer_real_write
166:	
  401957:	48 8d 7c 24 10              	(arith) 	lea	0x10(%rsp),%rdi
  40195c:	e8 7f f0 ff ff              	(control)	call	4009e0 <_gfortran_st_write_done@plt>	; ⇄ _gfortran_st_write_done
167:	
  401961:	e9 d2 00 00 00              	(control)	jmp	401a38 <main__+0xe52>	; ↲ label 160
161:	
/home/jcsalinas/Documents/pruebas/inst_estimation_module/BT/bt.f:199
  401966:	83 f8 0a                    	(arith) 	cmp	$0xa,%eax
  401969:	0f 85 c9 00 00 00           	(control)	jne	401a38 <main__+0xe52>	; ↲ label 160
168:	
/home/jcsalinas/Documents/pruebas/inst_estimation_module/BT/bt.f:200
  40196f:	f2 0f 10 84 24 40 02 00 00  	(move)  	movsd	0x240(%rsp),%xmm0
  401978:	f2 0f 58 84 24 48 02 00 00  	(arith) 	addsd	0x248(%rsp),%xmm0
  401981:	f2 0f 11 44 24 08           	(move)  	movsd	%xmm0,0x8(%rsp)
  401987:	f2 0f 11 84 24 c0 02 00 00  	(move)  	movsd	%xmm0,0x2c0(%rsp)
/home/jcsalinas/Documents/pruebas/inst_estimation_module/BT/bt.f:201
  401990:	48 c7 44 24 18 84 eb 40 00  	(move)  	movq	$0x40eb84,0x18(%rsp)
  401999:	c7 44 24 20 c9 00 00 00     	(move)  	movl	$0xc9,0x20(%rsp)
  4019a1:	48 c7 44 24 58 98 ed 40 00  	(move)  	movq	$0x40ed98,0x58(%rsp)
  4019aa:	c7 44 24 60 28 00 00 00     	(move)  	movl	$0x28,0x60(%rsp)
  4019b2:	c7 44 24 10 00 10 00 00     	(move)  	movl	$0x1000,0x10(%rsp)
  4019ba:	c7 44 24 14 06 00 00 00     	(move)  	movl	$0x6,0x14(%rsp)
  4019c2:	48 8d 7c 24 10              	(arith) 	lea	0x10(%rsp),%rdi
  4019c7:	e8 c4 f0 ff ff              	(control)	call	400a90 <_gfortran_st_write@plt>	; ⇄ _gfortran_st_write
169:	
  4019cc:	ba 06 00 00 00              	(move)  	mov	$0x6,%edx
  4019d1:	be d7 ed 40 00              	(move)  	mov	$0x40edd7,%esi
  4019d6:	48 8d 7c 24 10              	(arith) 	lea	0x10(%rsp),%rdi
  4019db:	e8 e0 ef ff ff              	(control)	call	4009c0 <_gfortran_transfer_character_write@plt>	; ⇄ _gfortran_transfer_character_write
170:	
  4019e0:	ba 08 00 00 00              	(move)  	mov	$0x8,%edx
  4019e5:	48 8d b4 24 c0 02 00 00     	(arith) 	lea	0x2c0(%rsp),%rsi
  4019ed:	48 8d 7c 24 10              	(arith) 	lea	0x10(%rsp),%rdi
  4019f2:	e8 79 f0 ff ff              	(control)	call	400a70 <_gfortran_transfer_real_write@plt>	; ⇄ _gfortran_transfer_real_write
171:	
  4019f7:	f2 0f 10 44 24 08           	(move)  	movsd	0x8(%rsp),%xmm0
  4019fd:	f2 0f 59 05 33 d4 00 00     	(arith) 	mulsd	0xd433(%rip),%xmm0
  401a05:	f2 0f 5e 84 24 58 02 00 00  	(arith) 	divsd	0x258(%rsp),%xmm0
  401a0e:	f2 0f 11 84 24 08 03 00 00  	(move)  	movsd	%xmm0,0x308(%rsp)
  401a17:	ba 08 00 00 00              	(move)  	mov	$0x8,%edx
  401a1c:	48 8d b4 24 08 03 00 00     	(arith) 	lea	0x308(%rsp),%rsi
  401a24:	48 8d 7c 24 10              	(arith) 	lea	0x10(%rsp),%rdi
  401a29:	e8 42 f0 ff ff              	(control)	call	400a70 <_gfortran_transfer_real_write@plt>	; ⇄ _gfortran_transfer_real_write
172:	
  401a2e:	48 8d 7c 24 10              	(arith) 	lea	0x10(%rsp),%rdi
  401a33:	e8 a8 ef ff ff              	(control)	call	4009e0 <_gfortran_st_write_done@plt>	; ⇄ _gfortran_st_write_done
160:	
/home/jcsalinas/Documents/pruebas/inst_estimation_module/BT/bt.f:189
  401a38:	8b 84 24 dc 02 00 00        	(move)  	mov	0x2dc(%rsp),%eax
  401a3f:	8d 50 01                    	(arith) 	lea	0x1(%rax),%edx
  401a42:	89 94 24 dc 02 00 00        	(move)  	mov	%edx,0x2dc(%rsp)
  401a49:	83 f8 0b                    	(arith) 	cmp	$0xb,%eax
  401a4c:	0f 85 b9 fb ff ff           	(control)	jne	40160b <main__+0xa25>	; ↰ label 142 (loop 4)
; ------- Loop 4 exit
93:	
/home/jcsalinas/Documents/pruebas/inst_estimation_module/BT/bt.f:209
  401a52:	48 81 c4 10 03 00 00        	(arith) 	add	$0x310,%rsp
  401a59:	5b                          	(move)  	pop	%rbx
  401a5a:	5d                          	(move)  	pop	%rbp
  401a5b:	41 5c                       	(move)  	pop	%r12
  401a5d:	c3                          	(control)	ret


0000000000401a5e <main>:
173 (function main):	
/home/jcsalinas/Documents/pruebas/inst_estimation_module/BT/bt.f:209
  401a5e:	48 83 ec 08                 	(arith) 	sub	$0x8,%rsp
  401a62:	e8 c9 ef ff ff              	(control)	call	400a30 <_gfortran_set_args@plt>	; ⇄ _gfortran_set_args
175:	
  401a67:	be e0 ed 40 00              	(move)  	mov	$0x40ede0,%esi
  401a6c:	bf 09 00 00 00              	(move)  	mov	$0x9,%edi
  401a71:	e8 aa ef ff ff              	(control)	call	400a20 <_gfortran_set_options@plt>	; ⇄ _gfortran_set_options
177:	
  401a76:	e8 6b f1 ff ff              	(control)	call	400be6 <main__>	; ⇄ bt
178:	
  401a7b:	b8 00 00 00 00              	(move)  	mov	$0,%eax
  401a80:	48 83 c4 08                 	(arith) 	add	$0x8,%rsp
  401a84:	c3                          	(control)	ret


0000000000401a85 <initialize>:
100 (function initialize_):	
/home/jcsalinas/Documents/pruebas/inst_estimation_module/BT/initialize.f:4
  401a85:	41 57                       	(move)  	push	%r15
  401a87:	41 56                       	(move)  	push	%r14
  401a89:	41 55                       	(move)  	push	%r13
  401a8b:	41 54                       	(move)  	push	%r12
  401a8d:	55                          	(move)  	push	%rbp
  401a8e:	53                          	(move)  	push	%rbx
  401a8f:	48 81 ec 78 01 00 00        	(arith) 	sub	$0x178,%rsp
/home/jcsalinas/Documents/pruebas/inst_estimation_module/BT/initialize.f:26
  401a96:	8b 05 54 fb 20 00           	(move)  	mov	0x20fb54(%rip),%eax
  401a9c:	41 89 c4                    	(move)  	mov	%eax,%r12d
  401a9f:	89 44 24 1c                 	(move)  	mov	%eax,0x1c(%rsp)
  401aa3:	83 e8 01                    	(arith) 	sub	$0x1,%eax
  401aa6:	0f 88 8e 03 00 00           	(control)	js	401e3a <initialize_+0x3b5>	; ↲ label 179
180:	
/home/jcsalinas/Documents/pruebas/inst_estimation_module/BT/initialize.f:27
  401aac:	44 8b 0d 39 fb 20 00        	(move)  	mov	0x20fb39(%rip),%r9d
  401ab3:	41 8d 69 ff                 	(arith) 	lea	-0x1(%r9),%ebp
/home/jcsalinas/Documents/pruebas/inst_estimation_module/BT/initialize.f:28
  401ab7:	8b 3d 2b fb 20 00           	(move)  	mov	0x20fb2b(%rip),%edi
  401abd:	44 8d 57 ff                 	(arith) 	lea	-0x1(%rdi),%r10d
  401ac1:	bb 00 00 00 00              	(move)  	mov	$0,%ebx
/home/jcsalinas/Documents/pruebas/inst_estimation_module/BT/initialize.f:30
  401ac6:	f2 0f 10 05 62 d3 00 00     	(move)  	movsd	0xd362(%rip),%xmm0
; ------- Loop 24 entry
181 (loop 24):	
/home/jcsalinas/Documents/pruebas/inst_estimation_module/BT/initialize.f:27
  401ace:	85 ed                       	(arith) 	test	%ebp,%ebp
  401ad0:	78 60                       	(control)	js	401b32 <initialize_+0xad>	; ↲ label 182
183:	
/home/jcsalinas/Documents/pruebas/inst_estimation_module/BT/initialize.f:30
  401ad2:	4c 63 db                    	(move)  	movsxd	%ebx,%r11
  401ad5:	4d 69 db 35 cf 00 00        	(arith) 	imul	$0xcf35,%r11,%r11
  401adc:	41 b8 00 00 00 00           	(move)  	mov	$0,%r8d
; ------- Loop 29 entry
184 (loop 29):	
/home/jcsalinas/Documents/pruebas/inst_estimation_module/BT/initialize.f:28
  401ae2:	45 85 d2                    	(arith) 	test	%r10d,%r10d
  401ae5:	78 42                       	(control)	js	401b29 <initialize_+0xa4>	; ↲ label 185
186:	
/home/jcsalinas/Documents/pruebas/inst_estimation_module/BT/initialize.f:30
  401ae7:	49 63 c0                    	(move)  	movsxd	%r8d,%rax
  401aea:	48 89 c2                    	(move)  	mov	%rax,%rdx
  401aed:	48 c1 e2 08                 	(logic) 	sal	$0x8,%rdx
  401af1:	48 01 c2                    	(arith) 	add	%rax,%rdx
  401af4:	48 8d 34 50                 	(arith) 	lea	(%rax,%rdx,2),%rsi
  401af8:	4c 01 de                    	(arith) 	add	%r11,%rsi
  401afb:	b9 00 00 00 00              	(move)  	mov	$0,%ecx
; ------- Loop 31 entry
187 (loop 31):	
  401b00:	48 63 c1                    	(move)  	movsxd	%ecx,%rax
  401b03:	48 8d 14 80                 	(arith) 	lea	(%rax,%rax,4),%rdx
  401b07:	48 01 f2                    	(arith) 	add	%rsi,%rdx
  401b0a:	b8 00 00 00 00              	(move)  	mov	$0,%eax
; ------- Loop 30 entry
188 (loop 30):	
  401b0f:	f2 0f 11 84 d0 00 16 61 00  	(move)  	movsd	%xmm0,0x611600(%rax,%rdx,8)
  401b18:	48 83 c0 08                 	(arith) 	add	$0x8,%rax
/home/jcsalinas/Documents/pruebas/inst_estimation_module/BT/initialize.f:29
  401b1c:	48 83 f8 28                 	(arith) 	cmp	$0x28,%rax
  401b20:	75 ed                       	(control)	jne	401b0f <initialize_+0x8a>	; ↰ label 188 (loop 30)
; ------- Loop 30 exit
189:	
/home/jcsalinas/Documents/pruebas/inst_estimation_module/BT/initialize.f:28
  401b22:	83 c1 01                    	(arith) 	add	$0x1,%ecx
  401b25:	39 cf                       	(arith) 	cmp	%ecx,%edi
  401b27:	75 d7                       	(control)	jne	401b00 <initialize_+0x7b>	; ↰ label 187 (loop 31)
; ------- Loop 31 exit
185:	
/home/jcsalinas/Documents/pruebas/inst_estimation_module/BT/initialize.f:27
  401b29:	41 83 c0 01                 	(arith) 	add	$0x1,%r8d
  401b2d:	45 39 c1                    	(arith) 	cmp	%r8d,%r9d
  401b30:	75 b0                       	(control)	jne	401ae2 <initialize_+0x5d>	; ↰ label 184 (loop 29)
; ------- Loop 29 exit
182:	
/home/jcsalinas/Documents/pruebas/inst_estimation_module/BT/initialize.f:26
  401b32:	83 c3 01                    	(arith) 	add	$0x1,%ebx
  401b35:	41 39 dc                    	(arith) 	cmp	%ebx,%r12d
  401b38:	75 94                       	(control)	jne	401ace <initialize_+0x49>	; ↰ label 181 (loop 24)
; ------- Loop 24 exit
190:	
  401b3a:	c7 44 24 18 00 00 00 00     	(move)  	movl	$0,0x18(%rsp)
/home/jcsalinas/Documents/pruebas/inst_estimation_module/BT/initialize.f:52
  401b42:	4c 8d bc 24 d8 00 00 00     	(arith) 	lea	0xd8(%rsp),%r15
; ------- Loop 25 entry
191 (loop 25):	
/home/jcsalinas/Documents/pruebas/inst_estimation_module/BT/initialize.f:44
  401b4a:	8b 5c 24 18                 	(move)  	mov	0x18(%rsp),%ebx
  401b4e:	66 0f ef c0                 	(logic) 	pxor	%xmm0,%xmm0
  401b52:	f2 0f 2a c3                 	(conv)  	cvtsi2sd	%ebx,%xmm0
  401b56:	f2 0f 59 05 72 f9 20 00     	(arith) 	mulsd	0x20f972(%rip),%xmm0
  401b5e:	f2 0f 11 44 24 20           	(move)  	movsd	%xmm0,0x20(%rsp)
/home/jcsalinas/Documents/pruebas/inst_estimation_module/BT/initialize.f:45
  401b64:	8b 05 82 fa 20 00           	(move)  	mov	0x20fa82(%rip),%eax
  401b6a:	89 44 24 0c                 	(move)  	mov	%eax,0xc(%rsp)
  401b6e:	83 e8 01                    	(arith) 	sub	$0x1,%eax
  401b71:	0f 88 b0 02 00 00           	(control)	js	401e27 <initialize_+0x3a2>	; ↲ label 192
193:	
/home/jcsalinas/Documents/pruebas/inst_estimation_module/BT/initialize.f:75
  401b77:	89 d8                       	(move)  	mov	%ebx,%eax
  401b79:	48 98                       	(conv)  	cltq
  401b7b:	48 69 c0 35 cf 00 00        	(arith) 	imul	$0xcf35,%rax,%rax
  401b82:	48 89 44 24 10              	(move)  	mov	%rax,0x10(%rsp)
  401b87:	c7 44 24 08 00 00 00 00     	(move)  	movl	$0,0x8(%rsp)
; ------- Loop 26 entry
194 (loop 26):	
/home/jcsalinas/Documents/pruebas/inst_estimation_module/BT/initialize.f:46
  401b8f:	8b 44 24 08                 	(move)  	mov	0x8(%rsp),%eax
  401b93:	66 0f ef c0                 	(logic) 	pxor	%xmm0,%xmm0
  401b97:	f2 0f 2a c0                 	(conv)  	cvtsi2sd	%eax,%xmm0
  401b9b:	f2 0f 59 05 25 f9 20 00     	(arith) 	mulsd	0x20f925(%rip),%xmm0
  401ba3:	f2 0f 11 84 24 50 01 00 00  	(move)  	movsd	%xmm0,0x150(%rsp)
/home/jcsalinas/Documents/pruebas/inst_estimation_module/BT/initialize.f:47
  401bac:	44 8b 35 35 fa 20 00        	(move)  	mov	0x20fa35(%rip),%r14d
  401bb3:	44 89 f3                    	(move)  	mov	%r14d,%ebx
  401bb6:	83 eb 01                    	(arith) 	sub	$0x1,%ebx
  401bb9:	0f 88 55 02 00 00           	(control)	js	401e14 <initialize_+0x38f>	; ↲ label 195
196:	
/home/jcsalinas/Documents/pruebas/inst_estimation_module/BT/initialize.f:75
  401bbf:	48 98                       	(conv)  	cltq
  401bc1:	48 89 c2                    	(move)  	mov	%rax,%rdx
  401bc4:	48 c1 e2 08                 	(logic) 	sal	$0x8,%rdx
  401bc8:	48 01 c2                    	(arith) 	add	%rax,%rdx
  401bcb:	4c 8d 2c 50                 	(arith) 	lea	(%rax,%rdx,2),%r13
  401bcf:	4c 03 6c 24 10              	(arith) 	add	0x10(%rsp),%r13
  401bd4:	bd 00 00 00 00              	(move)  	mov	$0,%ebp
; ------- Loop 28 entry
197 (loop 28):	
/home/jcsalinas/Documents/pruebas/inst_estimation_module/BT/initialize.f:48
  401bd9:	66 0f ef c0                 	(logic) 	pxor	%xmm0,%xmm0
  401bdd:	f2 0f 2a c5                 	(conv)  	cvtsi2sd	%ebp,%xmm0
  401be1:	f2 0f 59 05 d7 f8 20 00     	(arith) 	mulsd	0x20f8d7(%rip),%xmm0
  401be9:	f2 0f 11 44 24 28           	(move)  	movsd	%xmm0,0x28(%rsp)
/home/jcsalinas/Documents/pruebas/inst_estimation_module/BT/initialize.f:52
  401bef:	41 bc 00 00 00 00           	(move)  	mov	$0,%r12d
  401bf5:	4c 89 a4 24 58 01 00 00     	(move)  	mov	%r12,0x158(%rsp)
  401bfd:	48 8d 4c 24 60              	(arith) 	lea	0x60(%rsp),%rcx
  401c02:	48 8d 54 24 20              	(arith) 	lea	0x20(%rsp),%rdx
  401c07:	48 8d b4 24 50 01 00 00     	(arith) 	lea	0x150(%rsp),%rsi
  401c0f:	48 8d bc 24 58 01 00 00     	(arith) 	lea	0x158(%rsp),%rdi
  401c17:	b8 00 00 00 00              	(move)  	mov	$0,%eax
  401c1c:	e8 11 08 00 00              	(control)	call	402432 <exact_solution_>	; ⇄ exact_solution
199:	
  401c21:	f2 0f 10 2d 07 d2 00 00     	(move)  	movsd	0xd207(%rip),%xmm5
  401c29:	f2 0f 11 ac 24 58 01 00 00  	(move)  	movsd	%xmm5,0x158(%rsp)
  401c32:	4c 89 f9                    	(move)  	mov	%r15,%rcx
  401c35:	48 8d 54 24 20              	(arith) 	lea	0x20(%rsp),%rdx
  401c3a:	48 8d b4 24 50 01 00 00     	(arith) 	lea	0x150(%rsp),%rsi
  401c42:	48 8d bc 24 58 01 00 00     	(arith) 	lea	0x158(%rsp),%rdi
  401c4a:	b8 00 00 00 00              	(move)  	mov	$0,%eax
  401c4f:	e8 de 07 00 00              	(control)	call	402432 <exact_solution_>	; ⇄ exact_solution
200:	
/home/jcsalinas/Documents/pruebas/inst_estimation_module/BT/initialize.f:57
  401c54:	4c 89 a4 24 60 01 00 00     	(move)  	mov	%r12,0x160(%rsp)
  401c5c:	48 8d 9c 24 88 00 00 00     	(arith) 	lea	0x88(%rsp),%rbx
  401c64:	48 89 d9                    	(move)  	mov	%rbx,%rcx
  401c67:	48 8d 54 24 20              	(arith) 	lea	0x20(%rsp),%rdx
  401c6c:	48 8d b4 24 60 01 00 00     	(arith) 	lea	0x160(%rsp),%rsi
  401c74:	48 8d 7c 24 28              	(arith) 	lea	0x28(%rsp),%rdi
  401c79:	b8 00 00 00 00              	(move)  	mov	$0,%eax
  401c7e:	e8 af 07 00 00              	(control)	call	402432 <exact_solution_>	; ⇄ exact_solution
201:	
  401c83:	f2 0f 10 35 a5 d1 00 00     	(move)  	movsd	0xd1a5(%rip),%xmm6
  401c8b:	f2 0f 11 b4 24 60 01 00 00  	(move)  	movsd	%xmm6,0x160(%rsp)
  401c94:	48 8d 8c 24 00 01 00 00     	(arith) 	lea	0x100(%rsp),%rcx
  401c9c:	48 8d 54 24 20              	(arith) 	lea	0x20(%rsp),%rdx
  401ca1:	48 8d b4 24 60 01 00 00     	(arith) 	lea	0x160(%rsp),%rsi
  401ca9:	48 8d 7c 24 28              	(arith) 	lea	0x28(%rsp),%rdi
  401cae:	b8 00 00 00 00              	(move)  	mov	$0,%eax
  401cb3:	e8 7a 07 00 00              	(control)	call	402432 <exact_solution_>	; ⇄ exact_solution
202:	
/home/jcsalinas/Documents/pruebas/inst_estimation_module/BT/initialize.f:62
  401cb8:	4c 89 a4 24 68 01 00 00     	(move)  	mov	%r12,0x168(%rsp)
  401cc0:	48 8d 8c 24 b0 00 00 00     	(arith) 	lea	0xb0(%rsp),%rcx
  401cc8:	48 8d 94 24 68 01 00 00     	(arith) 	lea	0x168(%rsp),%rdx
  401cd0:	48 8d b4 24 50 01 00 00     	(arith) 	lea	0x150(%rsp),%rsi
  401cd8:	48 8d 7c 24 28              	(arith) 	lea	0x28(%rsp),%rdi
  401cdd:	b8 00 00 00 00              	(move)  	mov	$0,%eax
  401ce2:	e8 4b 07 00 00              	(control)	call	402432 <exact_solution_>	; ⇄ exact_solution
203:	
  401ce7:	f2 0f 10 3d 41 d1 00 00     	(move)  	movsd	0xd141(%rip),%xmm7
  401cef:	f2 0f 11 bc 24 68 01 00 00  	(move)  	movsd	%xmm7,0x168(%rsp)
  401cf8:	48 8d 8c 24 28 01 00 00     	(arith) 	lea	0x128(%rsp),%rcx
  401d00:	48 8d 94 24 68 01 00 00     	(arith) 	lea	0x168(%rsp),%rdx
  401d08:	48 8d b4 24 50 01 00 00     	(arith) 	lea	0x150(%rsp),%rsi
  401d10:	48 8d 7c 24 28              	(arith) 	lea	0x28(%rsp),%rdi
  401d15:	b8 00 00 00 00              	(move)  	mov	$0,%eax
  401d1a:	e8 13 07 00 00              	(control)	call	402432 <exact_solution_>	; ⇄ exact_solution
204:	
/home/jcsalinas/Documents/pruebas/inst_estimation_module/BT/initialize.f:67
  401d1f:	f2 0f 10 7c 24 28           	(move)  	movsd	0x28(%rsp),%xmm7
  401d25:	f2 44 0f 10 0d 02 d1 00 00  	(move)  	movsd	0xd102(%rip),%xmm9
  401d2e:	f2 44 0f 5c cf              	(arith) 	subsd	%xmm7,%xmm9
/home/jcsalinas/Documents/pruebas/inst_estimation_module/BT/initialize.f:69
  401d33:	f2 0f 10 b4 24 50 01 00 00  	(move)  	movsd	0x150(%rsp),%xmm6
  401d3c:	f2 44 0f 10 05 eb d0 00 00  	(move)  	movsd	0xd0eb(%rip),%xmm8
  401d45:	f2 44 0f 5c c6              	(arith) 	subsd	%xmm6,%xmm8
/home/jcsalinas/Documents/pruebas/inst_estimation_module/BT/initialize.f:71
  401d4a:	f2 0f 10 6c 24 20           	(move)  	movsd	0x20(%rsp),%xmm5
  401d50:	f2 0f 10 25 d8 d0 00 00     	(move)  	movsd	0xd0d8(%rip),%xmm4
  401d58:	f2 0f 5c e5                 	(arith) 	subsd	%xmm5,%xmm4
  401d5c:	48 8d 44 24 60              	(arith) 	lea	0x60(%rsp),%rax
  401d61:	48 63 d5                    	(move)  	movsxd	%ebp,%rdx
  401d64:	48 8d 14 92                 	(arith) 	lea	(%rdx,%rdx,4),%rdx
  401d68:	4c 01 ea                    	(arith) 	add	%r13,%rdx
  401d6b:	48 8d 14 d5 00 16 61 00     	(arith) 	lea	0x611600(,%rdx,8),%rdx
; ------- Loop 27 entry
205 (loop 27):	
/home/jcsalinas/Documents/pruebas/inst_estimation_module/BT/initialize.f:67
  401d73:	66 44 0f 28 d7              	(move)  	movapd	%xmm7,%xmm10
  401d78:	f2 44 0f 59 50 78           	(arith) 	mulsd	0x78(%rax),%xmm10
  401d7e:	66 41 0f 28 c1              	(move)  	movapd	%xmm9,%xmm0
  401d83:	f2 0f 59 00                 	(arith) 	mulsd	(%rax),%xmm0
  401d87:	f2 44 0f 58 d0              	(arith) 	addsd	%xmm0,%xmm10
/home/jcsalinas/Documents/pruebas/inst_estimation_module/BT/initialize.f:69
  401d8c:	66 0f 28 de                 	(move)  	movapd	%xmm6,%xmm3
  401d90:	f2 0f 59 98 a0 00 00 00     	(arith) 	mulsd	0xa0(%rax),%xmm3
  401d98:	66 41 0f 28 c0              	(move)  	movapd	%xmm8,%xmm0
  401d9d:	f2 0f 59 40 28              	(arith) 	mulsd	0x28(%rax),%xmm0
  401da2:	f2 0f 58 d8                 	(arith) 	addsd	%xmm0,%xmm3
/home/jcsalinas/Documents/pruebas/inst_estimation_module/BT/initialize.f:71
  401da6:	66 0f 28 cd                 	(move)  	movapd	%xmm5,%xmm1
  401daa:	f2 0f 59 88 c8 00 00 00     	(arith) 	mulsd	0xc8(%rax),%xmm1
  401db2:	66 0f 28 c4                 	(move)  	movapd	%xmm4,%xmm0
  401db6:	f2 0f 59 40 50              	(arith) 	mulsd	0x50(%rax),%xmm0
  401dbb:	f2 0f 58 c1                 	(arith) 	addsd	%xmm1,%xmm0
/home/jcsalinas/Documents/pruebas/inst_estimation_module/BT/initialize.f:75
  401dbf:	66 41 0f 28 ca              	(move)  	movapd	%xmm10,%xmm1
  401dc4:	f2 0f 59 cb                 	(arith) 	mulsd	%xmm3,%xmm1
  401dc8:	66 41 0f 28 d2              	(move)  	movapd	%xmm10,%xmm2
  401dcd:	f2 0f 58 d3                 	(arith) 	addsd	%xmm3,%xmm2
  401dd1:	f2 0f 58 d0                 	(arith) 	addsd	%xmm0,%xmm2
  401dd5:	f2 0f 5c d1                 	(arith) 	subsd	%xmm1,%xmm2
  401dd9:	f2 44 0f 59 d0              	(arith) 	mulsd	%xmm0,%xmm10
  401dde:	f2 41 0f 5c d2              	(arith) 	subsd	%xmm10,%xmm2
  401de3:	f2 0f 59 d8                 	(arith) 	mulsd	%xmm0,%xmm3
  401de7:	f2 0f 5c d3                 	(arith) 	subsd	%xmm3,%xmm2
  401deb:	f2 0f 59 c1                 	(arith) 	mulsd	%xmm1,%xmm0
  401def:	f2 0f 58 c2                 	(arith) 	addsd	%xmm2,%xmm0
  401df3:	f2 0f 11 02                 	(move)  	movsd	%xmm0,(%rdx)
  401df7:	48 83 c0 08                 	(arith) 	add	$0x8,%rax
  401dfb:	48 83 c2 08                 	(arith) 	add	$0x8,%rdx
/home/jcsalinas/Documents/pruebas/inst_estimation_module/BT/initialize.f:65
  401dff:	48 39 c3                    	(arith) 	cmp	%rax,%rbx
  401e02:	0f 85 6b ff ff ff           	(control)	jne	401d73 <initialize_+0x2ee>	; ↰ label 205 (loop 27)
; ------- Loop 27 exit
206:	
/home/jcsalinas/Documents/pruebas/inst_estimation_module/BT/initialize.f:47
  401e08:	83 c5 01                    	(arith) 	add	$0x1,%ebp
  401e0b:	41 39 ee                    	(arith) 	cmp	%ebp,%r14d
  401e0e:	0f 85 c5 fd ff ff           	(control)	jne	401bd9 <initialize_+0x154>	; ↰ label 197 (loop 28)
; ------- Loop 28 exit
195:	
/home/jcsalinas/Documents/pruebas/inst_estimation_module/BT/initialize.f:45
  401e14:	83 44 24 08 01              	(arith) 	addl	$0x1,0x8(%rsp)
  401e19:	8b 44 24 08                 	(move)  	mov	0x8(%rsp),%eax
  401e1d:	39 44 24 0c                 	(arith) 	cmp	%eax,0xc(%rsp)
  401e21:	0f 85 68 fd ff ff           	(control)	jne	401b8f <initialize_+0x10a>	; ↰ label 194 (loop 26)
; ------- Loop 26 exit
192:	
/home/jcsalinas/Documents/pruebas/inst_estimation_module/BT/initialize.f:43
  401e27:	83 44 24 18 01              	(arith) 	addl	$0x1,0x18(%rsp)
  401e2c:	8b 44 24 18                 	(move)  	mov	0x18(%rsp),%eax
  401e30:	39 44 24 1c                 	(arith) 	cmp	%eax,0x1c(%rsp)
  401e34:	0f 85 10 fd ff ff           	(control)	jne	401b4a <initialize_+0xc5>	; ↰ label 191 (loop 25)
; ------- Loop 25 exit
179:	
/home/jcsalinas/Documents/pruebas/inst_estimation_module/BT/initialize.f:90
  401e3a:	48 c7 44 24 28 00 00 00 00  	(move)  	movq	$0,0x28(%rsp)
/home/jcsalinas/Documents/pruebas/inst_estimation_module/BT/initialize.f:91
  401e43:	44 8b 35 a6 f7 20 00        	(move)  	mov	0x20f7a6(%rip),%r14d
  401e4a:	44 89 f0                    	(move)  	mov	%r14d,%eax
  401e4d:	83 e8 01                    	(arith) 	sub	$0x1,%eax
  401e50:	0f 88 c0 00 00 00           	(control)	js	401f16 <initialize_+0x491>	; ↲ label 207
208:	
  401e56:	41 bd 00 00 00 00           	(move)  	mov	$0,%r13d
; ------- Loop 21 entry
209 (loop 21):	
/home/jcsalinas/Documents/pruebas/inst_estimation_module/BT/initialize.f:92
  401e5c:	66 0f ef c0                 	(logic) 	pxor	%xmm0,%xmm0
  401e60:	f2 41 0f 2a c5              	(conv)  	cvtsi2sd	%r13d,%xmm0
  401e65:	f2 0f 59 05 63 f6 20 00     	(arith) 	mulsd	0x20f663(%rip),%xmm0
  401e6d:	f2 0f 11 44 24 20           	(move)  	movsd	%xmm0,0x20(%rsp)
/home/jcsalinas/Documents/pruebas/inst_estimation_module/BT/initialize.f:93
  401e73:	44 8b 25 72 f7 20 00        	(move)  	mov	0x20f772(%rip),%r12d
  401e7a:	44 89 e0                    	(move)  	mov	%r12d,%eax
  401e7d:	83 e8 01                    	(arith) 	sub	$0x1,%eax
  401e80:	0f 88 83 00 00 00           	(control)	js	401f09 <initialize_+0x484>	; ↲ label 210
211:	
/home/jcsalinas/Documents/pruebas/inst_estimation_module/BT/initialize.f:97
  401e86:	49 63 ed                    	(move)  	movsxd	%r13d,%rbp
  401e89:	48 69 ed 35 cf 00 00        	(arith) 	imul	$0xcf35,%rbp,%rbp
  401e90:	bb 00 00 00 00              	(move)  	mov	$0,%ebx
; ------- Loop 23 entry
212 (loop 23):	
/home/jcsalinas/Documents/pruebas/inst_estimation_module/BT/initialize.f:94
  401e95:	66 0f ef c0                 	(logic) 	pxor	%xmm0,%xmm0
  401e99:	f2 0f 2a c3                 	(conv)  	cvtsi2sd	%ebx,%xmm0
  401e9d:	f2 0f 59 05 23 f6 20 00     	(arith) 	mulsd	0x20f623(%rip),%xmm0
  401ea5:	f2 0f 11 84 24 50 01 00 00  	(move)  	movsd	%xmm0,0x150(%rsp)
/home/jcsalinas/Documents/pruebas/inst_estimation_module/BT/initialize.f:95
  401eae:	48 8d 4c 24 30              	(arith) 	lea	0x30(%rsp),%rcx
  401eb3:	48 8d 54 24 20              	(arith) 	lea	0x20(%rsp),%rdx
  401eb8:	48 8d b4 24 50 01 00 00     	(arith) 	lea	0x150(%rsp),%rsi
  401ec0:	48 8d 7c 24 28              	(arith) 	lea	0x28(%rsp),%rdi
  401ec5:	b8 00 00 00 00              	(move)  	mov	$0,%eax
  401eca:	e8 63 05 00 00              	(control)	call	402432 <exact_solution_>	; ⇄ exact_solution
213:	
/home/jcsalinas/Documents/pruebas/inst_estimation_module/BT/initialize.f:97
  401ecf:	48 63 c3                    	(move)  	movsxd	%ebx,%rax
  401ed2:	48 89 c2                    	(move)  	mov	%rax,%rdx
  401ed5:	48 c1 e2 08                 	(logic) 	sal	$0x8,%rdx
  401ed9:	48 01 c2                    	(arith) 	add	%rax,%rdx
  401edc:	48 8d 14 50                 	(arith) 	lea	(%rax,%rdx,2),%rdx
  401ee0:	48 01 ea                    	(arith) 	add	%rbp,%rdx
  401ee3:	b8 00 00 00 00              	(move)  	mov	$0,%eax
; ------- Loop 22 entry
214 (loop 22):	
  401ee8:	f2 0f 10 44 04 30           	(move)  	movsd	0x30(%rsp,%rax,1),%xmm0
  401eee:	f2 0f 11 84 d0 00 16 61 00  	(move)  	movsd	%xmm0,0x611600(%rax,%rdx,8)
  401ef7:	48 83 c0 08                 	(arith) 	add	$0x8,%rax
/home/jcsalinas/Documents/pruebas/inst_estimation_module/BT/initialize.f:96
  401efb:	48 83 f8 28                 	(arith) 	cmp	$0x28,%rax
  401eff:	75 e7                       	(control)	jne	401ee8 <initialize_+0x463>	; ↰ label 214 (loop 22)
; ------- Loop 22 exit
215:	
/home/jcsalinas/Documents/pruebas/inst_estimation_module/BT/initialize.f:93
  401f01:	83 c3 01                    	(arith) 	add	$0x1,%ebx
  401f04:	41 39 dc                    	(arith) 	cmp	%ebx,%r12d
  401f07:	75 8c                       	(control)	jne	401e95 <initialize_+0x410>	; ↰ label 212 (loop 23)
; ------- Loop 23 exit
210:	
/home/jcsalinas/Documents/pruebas/inst_estimation_module/BT/initialize.f:91
  401f09:	41 83 c5 01                 	(arith) 	add	$0x1,%r13d
  401f0d:	45 39 ee                    	(arith) 	cmp	%r13d,%r14d
  401f10:	0f 85 46 ff ff ff           	(control)	jne	401e5c <initialize_+0x3d7>	; ↰ label 209 (loop 21)
; ------- Loop 21 exit
207:	
/home/jcsalinas/Documents/pruebas/inst_estimation_module/BT/initialize.f:106
  401f16:	8b 05 cc f6 20 00           	(move)  	mov	0x20f6cc(%rip),%eax
  401f1c:	83 e8 01                    	(arith) 	sub	$0x1,%eax
/home/jcsalinas/Documents/pruebas/inst_estimation_module/BT/initialize.f:107
  401f1f:	f2 0f 10 25 09 cf 00 00     	(move)  	movsd	0xcf09(%rip),%xmm4
  401f27:	f2 0f 11 64 24 28           	(move)  	movsd	%xmm4,0x28(%rsp)
/home/jcsalinas/Documents/pruebas/inst_estimation_module/BT/initialize.f:108
  401f2d:	44 8b 3d bc f6 20 00        	(move)  	mov	0x20f6bc(%rip),%r15d
  401f34:	44 89 fb                    	(move)  	mov	%r15d,%ebx
  401f37:	83 eb 01                    	(arith) 	sub	$0x1,%ebx
  401f3a:	0f 88 c9 00 00 00           	(control)	js	402009 <initialize_+0x584>	; ↲ label 216
217:	
/home/jcsalinas/Documents/pruebas/inst_estimation_module/BT/initialize.f:114
  401f40:	48 98                       	(conv)  	cltq
  401f42:	4c 8d 2c 80                 	(arith) 	lea	(%rax,%rax,4),%r13
  401f46:	41 be 00 00 00 00           	(move)  	mov	$0,%r14d
; ------- Loop 18 entry
218 (loop 18):	
/home/jcsalinas/Documents/pruebas/inst_estimation_module/BT/initialize.f:109
  401f4c:	66 0f ef c0                 	(logic) 	pxor	%xmm0,%xmm0
  401f50:	f2 41 0f 2a c6              	(conv)  	cvtsi2sd	%r14d,%xmm0
  401f55:	f2 0f 59 05 73 f5 20 00     	(arith) 	mulsd	0x20f573(%rip),%xmm0
  401f5d:	f2 0f 11 44 24 20           	(move)  	movsd	%xmm0,0x20(%rsp)
/home/jcsalinas/Documents/pruebas/inst_estimation_module/BT/initialize.f:110
  401f63:	44 8b 25 82 f6 20 00        	(move)  	mov	0x20f682(%rip),%r12d
  401f6a:	44 89 e0                    	(move)  	mov	%r12d,%eax
  401f6d:	83 e8 01                    	(arith) 	sub	$0x1,%eax
  401f70:	0f 88 86 00 00 00           	(control)	js	401ffc <initialize_+0x577>	; ↲ label 219
220:	
/home/jcsalinas/Documents/pruebas/inst_estimation_module/BT/initialize.f:114
  401f76:	49 63 ee                    	(move)  	movsxd	%r14d,%rbp
  401f79:	48 69 ed 35 cf 00 00        	(arith) 	imul	$0xcf35,%rbp,%rbp
  401f80:	bb 00 00 00 00              	(move)  	mov	$0,%ebx
; ------- Loop 20 entry
221 (loop 20):	
/home/jcsalinas/Documents/pruebas/inst_estimation_module/BT/initialize.f:111
  401f85:	66 0f ef c0                 	(logic) 	pxor	%xmm0,%xmm0
  401f89:	f2 0f 2a c3                 	(conv)  	cvtsi2sd	%ebx,%xmm0
  401f8d:	f2 0f 59 05 33 f5 20 00     	(arith) 	mulsd	0x20f533(%rip),%xmm0
  401f95:	f2 0f 11 84 24 50 01 00 00  	(move)  	movsd	%xmm0,0x150(%rsp)
/home/jcsalinas/Documents/pruebas/inst_estimation_module/BT/initialize.f:112
  401f9e:	48 8d 4c 24 30              	(arith) 	lea	0x30(%rsp),%rcx
  401fa3:	48 8d 54 24 20              	(arith) 	lea	0x20(%rsp),%rdx
  401fa8:	48 8d b4 24 50 01 00 00     	(arith) 	lea	0x150(%rsp),%rsi
  401fb0:	48 8d 7c 24 28              	(arith) 	lea	0x28(%rsp),%rdi
  401fb5:	b8 00 00 00 00              	(move)  	mov	$0,%eax
  401fba:	e8 73 04 00 00              	(control)	call	402432 <exact_solution_>	; ⇄ exact_solution
222:	
/home/jcsalinas/Documents/pruebas/inst_estimation_module/BT/initialize.f:114
  401fbf:	48 63 c3                    	(move)  	movsxd	%ebx,%rax
  401fc2:	48 89 c2                    	(move)  	mov	%rax,%rdx
  401fc5:	48 c1 e2 08                 	(logic) 	sal	$0x8,%rdx
  401fc9:	48 01 c2                    	(arith) 	add	%rax,%rdx
  401fcc:	48 8d 14 50                 	(arith) 	lea	(%rax,%rdx,2),%rdx
  401fd0:	48 01 ea                    	(arith) 	add	%rbp,%rdx
  401fd3:	4c 01 ea                    	(arith) 	add	%r13,%rdx
  401fd6:	b8 00 00 00 00              	(move)  	mov	$0,%eax
; ------- Loop 19 entry
223 (loop 19):	
  401fdb:	f2 0f 10 44 04 30           	(move)  	movsd	0x30(%rsp,%rax,1),%xmm0
  401fe1:	f2 0f 11 84 d0 00 16 61 00  	(move)  	movsd	%xmm0,0x611600(%rax,%rdx,8)
  401fea:	48 83 c0 08                 	(arith) 	add	$0x8,%rax
/home/jcsalinas/Documents/pruebas/inst_estimation_module/BT/initialize.f:113
  401fee:	48 83 f8 28                 	(arith) 	cmp	$0x28,%rax
  401ff2:	75 e7                       	(control)	jne	401fdb <initialize_+0x556>	; ↰ label 223 (loop 19)
; ------- Loop 19 exit
224:	
/home/jcsalinas/Documents/pruebas/inst_estimation_module/BT/initialize.f:110
  401ff4:	83 c3 01                    	(arith) 	add	$0x1,%ebx
  401ff7:	41 39 dc                    	(arith) 	cmp	%ebx,%r12d
  401ffa:	75 89                       	(control)	jne	401f85 <initialize_+0x500>	; ↰ label 221 (loop 20)
; ------- Loop 20 exit
219:	
/home/jcsalinas/Documents/pruebas/inst_estimation_module/BT/initialize.f:108
  401ffc:	41 83 c6 01                 	(arith) 	add	$0x1,%r14d
  402000:	45 39 f7                    	(arith) 	cmp	%r14d,%r15d
  402003:	0f 85 43 ff ff ff           	(control)	jne	401f4c <initialize_+0x4c7>	; ↰ label 218 (loop 18)
; ------- Loop 18 exit
216:	
/home/jcsalinas/Documents/pruebas/inst_estimation_module/BT/initialize.f:123
  402009:	48 c7 84 24 50 01 00 00 00 00 00 00	(move)  	movq	$0,0x150(%rsp)
/home/jcsalinas/Documents/pruebas/inst_estimation_module/BT/initialize.f:124
  402015:	44 8b 35 d4 f5 20 00        	(move)  	mov	0x20f5d4(%rip),%r14d
  40201c:	44 89 f0                    	(move)  	mov	%r14d,%eax
  40201f:	83 e8 01                    	(arith) 	sub	$0x1,%eax
  402022:	0f 88 af 00 00 00           	(control)	js	4020d7 <initialize_+0x652>	; ↲ label 225
226:	
  402028:	41 bd 00 00 00 00           	(move)  	mov	$0,%r13d
; ------- Loop 15 entry
227 (loop 15):	
/home/jcsalinas/Documents/pruebas/inst_estimation_module/BT/initialize.f:125
  40202e:	66 0f ef c0                 	(logic) 	pxor	%xmm0,%xmm0
  402032:	f2 41 0f 2a c5              	(conv)  	cvtsi2sd	%r13d,%xmm0
  402037:	f2 0f 59 05 91 f4 20 00     	(arith) 	mulsd	0x20f491(%rip),%xmm0
  40203f:	f2 0f 11 44 24 20           	(move)  	movsd	%xmm0,0x20(%rsp)
/home/jcsalinas/Documents/pruebas/inst_estimation_module/BT/initialize.f:126
  402045:	44 8b 25 9c f5 20 00        	(move)  	mov	0x20f59c(%rip),%r12d
  40204c:	44 89 e0                    	(move)  	mov	%r12d,%eax
  40204f:	83 e8 01                    	(arith) 	sub	$0x1,%eax
  402052:	78 76                       	(control)	js	4020ca <initialize_+0x645>	; ↲ label 228
229:	
/home/jcsalinas/Documents/pruebas/inst_estimation_module/BT/initialize.f:130
  402054:	49 63 ed                    	(move)  	movsxd	%r13d,%rbp
  402057:	48 69 ed 35 cf 00 00        	(arith) 	imul	$0xcf35,%rbp,%rbp
  40205e:	bb 00 00 00 00              	(move)  	mov	$0,%ebx
; ------- Loop 17 entry
230 (loop 17):	
/home/jcsalinas/Documents/pruebas/inst_estimation_module/BT/initialize.f:127
  402063:	66 0f ef c0                 	(logic) 	pxor	%xmm0,%xmm0
  402067:	f2 0f 2a c3                 	(conv)  	cvtsi2sd	%ebx,%xmm0
  40206b:	f2 0f 59 05 4d f4 20 00     	(arith) 	mulsd	0x20f44d(%rip),%xmm0
  402073:	f2 0f 11 44 24 28           	(move)  	movsd	%xmm0,0x28(%rsp)
/home/jcsalinas/Documents/pruebas/inst_estimation_module/BT/initialize.f:128
  402079:	48 8d 4c 24 30              	(arith) 	lea	0x30(%rsp),%rcx
  40207e:	48 8d 54 24 20              	(arith) 	lea	0x20(%rsp),%rdx
  402083:	48 8d b4 24 50 01 00 00     	(arith) 	lea	0x150(%rsp),%rsi
  40208b:	48 8d 7c 24 28              	(arith) 	lea	0x28(%rsp),%rdi
  402090:	b8 00 00 00 00              	(move)  	mov	$0,%eax
  402095:	e8 98 03 00 00              	(control)	call	402432 <exact_solution_>	; ⇄ exact_solution
231:	
/home/jcsalinas/Documents/pruebas/inst_estimation_module/BT/initialize.f:130
  40209a:	48 63 c3                    	(move)  	movsxd	%ebx,%rax
  40209d:	48 8d 14 80                 	(arith) 	lea	(%rax,%rax,4),%rdx
  4020a1:	48 01 ea                    	(arith) 	add	%rbp,%rdx
  4020a4:	b8 00 00 00 00              	(move)  	mov	$0,%eax
; ------- Loop 16 entry
232 (loop 16):	
  4020a9:	f2 0f 10 44 04 30           	(move)  	movsd	0x30(%rsp,%rax,1),%xmm0
  4020af:	f2 0f 11 84 d0 00 16 61 00  	(move)  	movsd	%xmm0,0x611600(%rax,%rdx,8)
  4020b8:	48 83 c0 08                 	(arith) 	add	$0x8,%rax
/home/jcsalinas/Documents/pruebas/inst_estimation_module/BT/initialize.f:129
  4020bc:	48 83 f8 28                 	(arith) 	cmp	$0x28,%rax
  4020c0:	75 e7                       	(control)	jne	4020a9 <initialize_+0x624>	; ↰ label 232 (loop 16)
; ------- Loop 16 exit
233:	
/home/jcsalinas/Documents/pruebas/inst_estimation_module/BT/initialize.f:126
  4020c2:	83 c3 01                    	(arith) 	add	$0x1,%ebx
  4020c5:	41 39 dc                    	(arith) 	cmp	%ebx,%r12d
  4020c8:	75 99                       	(control)	jne	402063 <initialize_+0x5de>	; ↰ label 230 (loop 17)
; ------- Loop 17 exit
228:	
/home/jcsalinas/Documents/pruebas/inst_estimation_module/BT/initialize.f:124
  4020ca:	41 83 c5 01                 	(arith) 	add	$0x1,%r13d
  4020ce:	45 39 ee                    	(arith) 	cmp	%r13d,%r14d
  4020d1:	0f 85 57 ff ff ff           	(control)	jne	40202e <initialize_+0x5a9>	; ↰ label 227 (loop 15)
; ------- Loop 15 exit
225:	
/home/jcsalinas/Documents/pruebas/inst_estimation_module/BT/initialize.f:139
  4020d7:	8b 05 0f f5 20 00           	(move)  	mov	0x20f50f(%rip),%eax
  4020dd:	83 e8 01                    	(arith) 	sub	$0x1,%eax
/home/jcsalinas/Documents/pruebas/inst_estimation_module/BT/initialize.f:140
  4020e0:	f2 0f 10 2d 48 cd 00 00     	(move)  	movsd	0xcd48(%rip),%xmm5
  4020e8:	f2 0f 11 ac 24 50 01 00 00  	(move)  	movsd	%xmm5,0x150(%rsp)
/home/jcsalinas/Documents/pruebas/inst_estimation_module/BT/initialize.f:141
  4020f1:	44 8b 35 f8 f4 20 00        	(move)  	mov	0x20f4f8(%rip),%r14d
  4020f8:	44 89 f3                    	(move)  	mov	%r14d,%ebx
  4020fb:	83 eb 01                    	(arith) 	sub	$0x1,%ebx
  4020fe:	0f 88 c2 00 00 00           	(control)	js	4021c6 <initialize_+0x741>	; ↲ label 234
235:	
/home/jcsalinas/Documents/pruebas/inst_estimation_module/BT/initialize.f:147
  402104:	48 98                       	(conv)  	cltq
  402106:	48 89 c2                    	(move)  	mov	%rax,%rdx
  402109:	48 c1 e2 08                 	(logic) 	sal	$0x8,%rdx
  40210d:	48 01 c2                    	(arith) 	add	%rax,%rdx
  402110:	4c 8d 3c 50                 	(arith) 	lea	(%rax,%rdx,2),%r15
  402114:	41 bd 00 00 00 00           	(move)  	mov	$0,%r13d
; ------- Loop 12 entry
236 (loop 12):	
/home/jcsalinas/Documents/pruebas/inst_estimation_module/BT/initialize.f:142
  40211a:	66 0f ef c0                 	(logic) 	pxor	%xmm0,%xmm0
  40211e:	f2 41 0f 2a c5              	(conv)  	cvtsi2sd	%r13d,%xmm0
  402123:	f2 0f 59 05 a5 f3 20 00     	(arith) 	mulsd	0x20f3a5(%rip),%xmm0
  40212b:	f2 0f 11 44 24 20           	(move)  	movsd	%xmm0,0x20(%rsp)
/home/jcsalinas/Documents/pruebas/inst_estimation_module/BT/initialize.f:143
  402131:	44 8b 25 b0 f4 20 00        	(move)  	mov	0x20f4b0(%rip),%r12d
  402138:	44 89 e0                    	(move)  	mov	%r12d,%eax
  40213b:	83 e8 01                    	(arith) 	sub	$0x1,%eax
  40213e:	78 79                       	(control)	js	4021b9 <initialize_+0x734>	; ↲ label 237
238:	
/home/jcsalinas/Documents/pruebas/inst_estimation_module/BT/initialize.f:147
  402140:	49 63 ed                    	(move)  	movsxd	%r13d,%rbp
  402143:	48 69 ed 35 cf 00 00        	(arith) 	imul	$0xcf35,%rbp,%rbp
  40214a:	4c 01 fd                    	(arith) 	add	%r15,%rbp
  40214d:	bb 00 00 00 00              	(move)  	mov	$0,%ebx
; ------- Loop 14 entry
239 (loop 14):	
/home/jcsalinas/Documents/pruebas/inst_estimation_module/BT/initialize.f:144
  402152:	66 0f ef c0                 	(logic) 	pxor	%xmm0,%xmm0
  402156:	f2 0f 2a c3                 	(conv)  	cvtsi2sd	%ebx,%xmm0
  40215a:	f2 0f 59 05 5e f3 20 00     	(arith) 	mulsd	0x20f35e(%rip),%xmm0
  402162:	f2 0f 11 44 24 28           	(move)  	movsd	%xmm0,0x28(%rsp)
/home/jcsalinas/Documents/pruebas/inst_estimation_module/BT/initialize.f:145
  402168:	48 8d 4c 24 30              	(arith) 	lea	0x30(%rsp),%rcx
  40216d:	48 8d 54 24 20              	(arith) 	lea	0x20(%rsp),%rdx
  402172:	48 8d b4 24 50 01 00 00     	(arith) 	lea	0x150(%rsp),%rsi
  40217a:	48 8d 7c 24 28              	(arith) 	lea	0x28(%rsp),%rdi
  40217f:	b8 00 00 00 00              	(move)  	mov	$0,%eax
  402184:	e8 a9 02 00 00              	(control)	call	402432 <exact_solution_>	; ⇄ exact_solution
240:	
/home/jcsalinas/Documents/pruebas/inst_estimation_module/BT/initialize.f:147
  402189:	48 63 c3                    	(move)  	movsxd	%ebx,%rax
  40218c:	48 8d 14 80                 	(arith) 	lea	(%rax,%rax,4),%rdx
  402190:	48 01 ea                    	(arith) 	add	%rbp,%rdx
  402193:	b8 00 00 00 00              	(move)  	mov	$0,%eax
; ------- Loop 13 entry
241 (loop 13):	
  402198:	f2 0f 10 44 04 30           	(move)  	movsd	0x30(%rsp,%rax,1),%xmm0
  40219e:	f2 0f 11 84 d0 00 16 61 00  	(move)  	movsd	%xmm0,0x611600(%rax,%rdx,8)
  4021a7:	48 83 c0 08                 	(arith) 	add	$0x8,%rax
/home/jcsalinas/Documents/pruebas/inst_estimation_module/BT/initialize.f:146
  4021ab:	48 83 f8 28                 	(arith) 	cmp	$0x28,%rax
  4021af:	75 e7                       	(control)	jne	402198 <initialize_+0x713>	; ↰ label 241 (loop 13)
; ------- Loop 13 exit
242:	
/home/jcsalinas/Documents/pruebas/inst_estimation_module/BT/initialize.f:143
  4021b1:	83 c3 01                    	(arith) 	add	$0x1,%ebx
  4021b4:	41 39 dc                    	(arith) 	cmp	%ebx,%r12d
  4021b7:	75 99                       	(control)	jne	402152 <initialize_+0x6cd>	; ↰ label 239 (loop 14)
; ------- Loop 14 exit
237:	
/home/jcsalinas/Documents/pruebas/inst_estimation_module/BT/initialize.f:141
  4021b9:	41 83 c5 01                 	(arith) 	add	$0x1,%r13d
  4021bd:	45 39 ee                    	(arith) 	cmp	%r13d,%r14d
  4021c0:	0f 85 54 ff ff ff           	(control)	jne	40211a <initialize_+0x695>	; ↰ label 236 (loop 12)
; ------- Loop 12 exit
234:	
/home/jcsalinas/Documents/pruebas/inst_estimation_module/BT/initialize.f:156
  4021c6:	48 c7 44 24 20 00 00 00 00  	(move)  	movq	$0,0x20(%rsp)
/home/jcsalinas/Documents/pruebas/inst_estimation_module/BT/initialize.f:157
  4021cf:	44 8b 35 16 f4 20 00        	(move)  	mov	0x20f416(%rip),%r14d
  4021d6:	44 89 f0                    	(move)  	mov	%r14d,%eax
  4021d9:	83 e8 01                    	(arith) 	sub	$0x1,%eax
  4021dc:	0f 88 b6 00 00 00           	(control)	js	402298 <initialize_+0x813>	; ↲ label 243
244:	
  4021e2:	41 bd 00 00 00 00           	(move)  	mov	$0,%r13d
; ------- Loop 9 entry
245 (loop 9):	
/home/jcsalinas/Documents/pruebas/inst_estimation_module/BT/initialize.f:158
  4021e8:	66 0f ef c0                 	(logic) 	pxor	%xmm0,%xmm0
  4021ec:	f2 41 0f 2a c5              	(conv)  	cvtsi2sd	%r13d,%xmm0
  4021f1:	f2 0f 59 05 cf f2 20 00     	(arith) 	mulsd	0x20f2cf(%rip),%xmm0
  4021f9:	f2 0f 11 84 24 50 01 00 00  	(move)  	movsd	%xmm0,0x150(%rsp)
/home/jcsalinas/Documents/pruebas/inst_estimation_module/BT/initialize.f:159
  402202:	8b 2d e0 f3 20 00           	(move)  	mov	0x20f3e0(%rip),%ebp
  402208:	89 e8                       	(move)  	mov	%ebp,%eax
  40220a:	83 e8 01                    	(arith) 	sub	$0x1,%eax
  40220d:	78 7c                       	(control)	js	40228b <initialize_+0x806>	; ↲ label 246
247:	
/home/jcsalinas/Documents/pruebas/inst_estimation_module/BT/initialize.f:163
  40220f:	49 63 c5                    	(move)  	movsxd	%r13d,%rax
  402212:	48 89 c2                    	(move)  	mov	%rax,%rdx
  402215:	48 c1 e2 08                 	(logic) 	sal	$0x8,%rdx
  402219:	48 01 c2                    	(arith) 	add	%rax,%rdx
  40221c:	4c 8d 24 50                 	(arith) 	lea	(%rax,%rdx,2),%r12
  402220:	bb 00 00 00 00              	(move)  	mov	$0,%ebx
; ------- Loop 11 entry
248 (loop 11):	
/home/jcsalinas/Documents/pruebas/inst_estimation_module/BT/initialize.f:160
  402225:	66 0f ef c0                 	(logic) 	pxor	%xmm0,%xmm0
  402229:	f2 0f 2a c3                 	(conv)  	cvtsi2sd	%ebx,%xmm0
  40222d:	f2 0f 59 05 8b f2 20 00     	(arith) 	mulsd	0x20f28b(%rip),%xmm0
  402235:	f2 0f 11 44 24 28           	(move)  	movsd	%xmm0,0x28(%rsp)
/home/jcsalinas/Documents/pruebas/inst_estimation_module/BT/initialize.f:161
  40223b:	48 8d 4c 24 30              	(arith) 	lea	0x30(%rsp),%rcx
  402240:	48 8d 54 24 20              	(arith) 	lea	0x20(%rsp),%rdx
  402245:	48 8d b4 24 50 01 00 00     	(arith) 	lea	0x150(%rsp),%rsi
  40224d:	48 8d 7c 24 28              	(arith) 	lea	0x28(%rsp),%rdi
  402252:	b8 00 00 00 00              	(move)  	mov	$0,%eax
  402257:	e8 d6 01 00 00              	(control)	call	402432 <exact_solution_>	; ⇄ exact_solution
249:	
/home/jcsalinas/Documents/pruebas/inst_estimation_module/BT/initialize.f:163
  40225c:	48 63 c3                    	(move)  	movsxd	%ebx,%rax
  40225f:	48 8d 14 80                 	(arith) 	lea	(%rax,%rax,4),%rdx
  402263:	4c 01 e2                    	(arith) 	add	%r12,%rdx
  402266:	b8 00 00 00 00              	(move)  	mov	$0,%eax
; ------- Loop 10 entry
250 (loop 10):	
  40226b:	f2 0f 10 44 04 30           	(move)  	movsd	0x30(%rsp,%rax,1),%xmm0
  402271:	f2 0f 11 84 d0 00 16 61 00  	(move)  	movsd	%xmm0,0x611600(%rax,%rdx,8)
  40227a:	48 83 c0 08                 	(arith) 	add	$0x8,%rax
/home/jcsalinas/Documents/pruebas/inst_estimation_module/BT/initialize.f:162
  40227e:	48 83 f8 28                 	(arith) 	cmp	$0x28,%rax
  402282:	75 e7                       	(control)	jne	40226b <initialize_+0x7e6>	; ↰ label 250 (loop 10)
; ------- Loop 10 exit
251:	
/home/jcsalinas/Documents/pruebas/inst_estimation_module/BT/initialize.f:159
  402284:	83 c3 01                    	(arith) 	add	$0x1,%ebx
  402287:	39 dd                       	(arith) 	cmp	%ebx,%ebp
  402289:	75 9a                       	(control)	jne	402225 <initialize_+0x7a0>	; ↰ label 248 (loop 11)
; ------- Loop 11 exit
246:	
/home/jcsalinas/Documents/pruebas/inst_estimation_module/BT/initialize.f:157
  40228b:	41 83 c5 01                 	(arith) 	add	$0x1,%r13d
  40228f:	45 39 ee                    	(arith) 	cmp	%r13d,%r14d
  402292:	0f 85 50 ff ff ff           	(control)	jne	4021e8 <initialize_+0x763>	; ↰ label 245 (loop 9)
; ------- Loop 9 exit
243:	
/home/jcsalinas/Documents/pruebas/inst_estimation_module/BT/initialize.f:171
  402298:	8b 05 52 f3 20 00           	(move)  	mov	0x20f352(%rip),%eax
  40229e:	44 8d 70 ff                 	(arith) 	lea	-0x1(%rax),%r14d
/home/jcsalinas/Documents/pruebas/inst_estimation_module/BT/initialize.f:172
  4022a2:	f2 0f 10 35 86 cb 00 00     	(move)  	movsd	0xcb86(%rip),%xmm6
  4022aa:	f2 0f 11 74 24 20           	(move)  	movsd	%xmm6,0x20(%rsp)
/home/jcsalinas/Documents/pruebas/inst_estimation_module/BT/initialize.f:173
  4022b0:	44 8b 3d 35 f3 20 00        	(move)  	mov	0x20f335(%rip),%r15d
  4022b7:	44 89 f8                    	(move)  	mov	%r15d,%eax
  4022ba:	83 e8 01                    	(arith) 	sub	$0x1,%eax
  4022bd:	0f 88 ca 00 00 00           	(control)	js	40238d <initialize_+0x908>	; ↲ label 252
253:	
/home/jcsalinas/Documents/pruebas/inst_estimation_module/BT/initialize.f:179
  4022c3:	4d 63 f6                    	(move)  	movsxd	%r14d,%r14
  4022c6:	4d 69 f6 35 cf 00 00        	(arith) 	imul	$0xcf35,%r14,%r14
  4022cd:	41 bd 00 00 00 00           	(move)  	mov	$0,%r13d
; ------- Loop 6 entry
254 (loop 6):	
/home/jcsalinas/Documents/pruebas/inst_estimation_module/BT/initialize.f:174
  4022d3:	66 0f ef c0                 	(logic) 	pxor	%xmm0,%xmm0
  4022d7:	f2 41 0f 2a c5              	(conv)  	cvtsi2sd	%r13d,%xmm0
  4022dc:	f2 0f 59 05 e4 f1 20 00     	(arith) 	mulsd	0x20f1e4(%rip),%xmm0
  4022e4:	f2 0f 11 84 24 50 01 00 00  	(move)  	movsd	%xmm0,0x150(%rsp)
/home/jcsalinas/Documents/pruebas/inst_estimation_module/BT/initialize.f:175
  4022ed:	44 8b 25 f4 f2 20 00        	(move)  	mov	0x20f2f4(%rip),%r12d
  4022f4:	44 89 e0                    	(move)  	mov	%r12d,%eax
  4022f7:	83 e8 01                    	(arith) 	sub	$0x1,%eax
  4022fa:	0f 88 80 00 00 00           	(control)	js	402380 <initialize_+0x8fb>	; ↲ label 255
256:	
/home/jcsalinas/Documents/pruebas/inst_estimation_module/BT/initialize.f:179
  402300:	49 63 c5                    	(move)  	movsxd	%r13d,%rax
  402303:	48 89 c2                    	(move)  	mov	%rax,%rdx
  402306:	48 c1 e2 08                 	(logic) 	sal	$0x8,%rdx
  40230a:	48 01 c2                    	(arith) 	add	%rax,%rdx
  40230d:	48 8d 2c 50                 	(arith) 	lea	(%rax,%rdx,2),%rbp
  402311:	4c 01 f5                    	(arith) 	add	%r14,%rbp
  402314:	bb 00 00 00 00              	(move)  	mov	$0,%ebx
; ------- Loop 8 entry
257 (loop 8):	
/home/jcsalinas/Documents/pruebas/inst_estimation_module/BT/initialize.f:176
  402319:	66 0f ef c0                 	(logic) 	pxor	%xmm0,%xmm0
  40231d:	f2 0f 2a c3                 	(conv)  	cvtsi2sd	%ebx,%xmm0
  402321:	f2 0f 59 05 97 f1 20 00     	(arith) 	mulsd	0x20f197(%rip),%xmm0
  402329:	f2 0f 11 44 24 28           	(move)  	movsd	%xmm0,0x28(%rsp)
/home/jcsalinas/Documents/pruebas/inst_estimation_module/BT/initialize.f:177
  40232f:	48 8d 4c 24 30              	(arith) 	lea	0x30(%rsp),%rcx
  402334:	48 8d 54 24 20              	(arith) 	lea	0x20(%rsp),%rdx
  402339:	48 8d b4 24 50 01 00 00     	(arith) 	lea	0x150(%rsp),%rsi
  402341:	48 8d 7c 24 28              	(arith) 	lea	0x28(%rsp),%rdi
  402346:	b8 00 00 00 00              	(move)  	mov	$0,%eax
  40234b:	e8 e2 00 00 00              	(control)	call	402432 <exact_solution_>	; ⇄ exact_solution
258:	
/home/jcsalinas/Documents/pruebas/inst_estimation_module/BT/initialize.f:179
  402350:	48 63 c3                    	(move)  	movsxd	%ebx,%rax
  402353:	48 8d 14 80                 	(arith) 	lea	(%rax,%rax,4),%rdx
  402357:	48 01 ea                    	(arith) 	add	%rbp,%rdx
  40235a:	b8 00 00 00 00              	(move)  	mov	$0,%eax
; ------- Loop 7 entry
259 (loop 7):	
  40235f:	f2 0f 10 44 04 30           	(move)  	movsd	0x30(%rsp,%rax,1),%xmm0
  402365:	f2 0f 11 84 d0 00 16 61 00  	(move)  	movsd	%xmm0,0x611600(%rax,%rdx,8)
  40236e:	48 83 c0 08                 	(arith) 	add	$0x8,%rax
/home/jcsalinas/Documents/pruebas/inst_estimation_module/BT/initialize.f:178
  402372:	48 83 f8 28                 	(arith) 	cmp	$0x28,%rax
  402376:	75 e7                       	(control)	jne	40235f <initialize_+0x8da>	; ↰ label 259 (loop 7)
; ------- Loop 7 exit
260:	
/home/jcsalinas/Documents/pruebas/inst_estimation_module/BT/initialize.f:175
  402378:	83 c3 01                    	(arith) 	add	$0x1,%ebx
  40237b:	41 39 dc                    	(arith) 	cmp	%ebx,%r12d
  40237e:	75 99                       	(control)	jne	402319 <initialize_+0x894>	; ↰ label 257 (loop 8)
; ------- Loop 8 exit
255:	
/home/jcsalinas/Documents/pruebas/inst_estimation_module/BT/initialize.f:173
  402380:	41 83 c5 01                 	(arith) 	add	$0x1,%r13d
  402384:	45 39 ef                    	(arith) 	cmp	%r13d,%r15d
  402387:	0f 85 46 ff ff ff           	(control)	jne	4022d3 <initialize_+0x84e>	; ↰ label 254 (loop 6)
; ------- Loop 6 exit
252:	
/home/jcsalinas/Documents/pruebas/inst_estimation_module/BT/initialize.f:185
  40238d:	48 81 c4 78 01 00 00        	(arith) 	add	$0x178,%rsp
  402394:	5b                          	(move)  	pop	%rbx
  402395:	5d                          	(move)  	pop	%rbp
  402396:	41 5c                       	(move)  	pop	%r12
  402398:	41 5d                       	(move)  	pop	%r13
  40239a:	41 5e                       	(move)  	pop	%r14
  40239c:	41 5f                       	(move)  	pop	%r15
  40239e:	c3                          	(control)	ret


000000000040239f <lhsinit>:
261 (function lhsinit_):	
/home/jcsalinas/Documents/pruebas/inst_estimation_module/BT/initialize.f:191
  40239f:	48 63 06                    	(move)  	movsxd	(%rsi),%rax
/home/jcsalinas/Documents/pruebas/inst_estimation_module/BT/initialize.f:210
  4023a2:	48 8d 04 80                 	(arith) 	lea	(%rax,%rax,4),%rax
  4023a6:	48 89 c2                    	(move)  	mov	%rax,%rdx
  4023a9:	48 c1 e2 04                 	(logic) 	sal	$0x4,%rdx
  4023ad:	48 29 c2                    	(arith) 	sub	%rax,%rdx
  4023b0:	4c 8d 47 08                 	(arith) 	lea	0x8(%rdi),%r8
  4023b4:	4c 8d 4f 30                 	(arith) 	lea	0x30(%rdi),%r9
/home/jcsalinas/Documents/pruebas/inst_estimation_module/BT/initialize.f:207
  4023b8:	66 0f ef c0                 	(logic) 	pxor	%xmm0,%xmm0
; ------- Loop 33 entry
262 (loop 33):	
  4023bc:	49 8d b0 c8 00 00 00        	(arith) 	lea	0xc8(%r8),%rsi
  4023c3:	4c 89 c0                    	(move)  	mov	%r8,%rax
; ------- Loop 32 entry
263 (loop 32):	
  4023c6:	f2 0f 11 40 f8              	(move)  	movsd	%xmm0,-0x8(%rax)
/home/jcsalinas/Documents/pruebas/inst_estimation_module/BT/initialize.f:208
  4023cb:	f2 0f 11 80 c0 00 00 00     	(move)  	movsd	%xmm0,0xc0(%rax)
/home/jcsalinas/Documents/pruebas/inst_estimation_module/BT/initialize.f:209
  4023d3:	f2 0f 11 80 88 01 00 00     	(move)  	movsd	%xmm0,0x188(%rax)
  4023db:	48 89 d1                    	(move)  	mov	%rdx,%rcx
/home/jcsalinas/Documents/pruebas/inst_estimation_module/BT/initialize.f:210
  4023de:	f2 0f 11 44 d0 f8           	(move)  	movsd	%xmm0,-0x8(%rax,%rdx,8)
/home/jcsalinas/Documents/pruebas/inst_estimation_module/BT/initialize.f:211
  4023e4:	f2 0f 11 84 d0 c0 00 00 00  	(move)  	movsd	%xmm0,0xc0(%rax,%rdx,8)
/home/jcsalinas/Documents/pruebas/inst_estimation_module/BT/initialize.f:212
  4023ed:	f2 0f 11 84 d0 88 01 00 00  	(move)  	movsd	%xmm0,0x188(%rax,%rdx,8)
  4023f6:	48 83 c0 28                 	(arith) 	add	$0x28,%rax
/home/jcsalinas/Documents/pruebas/inst_estimation_module/BT/initialize.f:206
  4023fa:	48 39 c6                    	(arith) 	cmp	%rax,%rsi
  4023fd:	75 c7                       	(control)	jne	4023c6 <lhsinit_+0x27>	; ↰ label 263 (loop 32)
; ------- Loop 32 exit
264:	
  4023ff:	49 83 c0 08                 	(arith) 	add	$0x8,%r8
/home/jcsalinas/Documents/pruebas/inst_estimation_module/BT/initialize.f:205
  402403:	4d 39 c8                    	(arith) 	cmp	%r9,%r8
  402406:	75 b4                       	(control)	jne	4023bc <lhsinit_+0x1d>	; ↰ label 262 (loop 33)
; ------- Loop 33 exit
265:	
  402408:	48 8d 87 c8 00 00 00        	(arith) 	lea	0xc8(%rdi),%rax
  40240f:	48 81 c7 b8 01 00 00        	(arith) 	add	$0x1b8,%rdi
/home/jcsalinas/Documents/pruebas/inst_estimation_module/BT/initialize.f:220
  402416:	f2 0f 10 05 12 ca 00 00     	(move)  	movsd	0xca12(%rip),%xmm0
; ------- Loop 34 entry
266 (loop 34):	
  40241e:	f2 0f 11 00                 	(move)  	movsd	%xmm0,(%rax)
/home/jcsalinas/Documents/pruebas/inst_estimation_module/BT/initialize.f:221
  402422:	f2 0f 11 04 c8              	(move)  	movsd	%xmm0,(%rax,%rcx,8)
  402427:	48 83 c0 30                 	(arith) 	add	$0x30,%rax
/home/jcsalinas/Documents/pruebas/inst_estimation_module/BT/initialize.f:219
  40242b:	48 39 f8                    	(arith) 	cmp	%rdi,%rax
  40242e:	75 ee                       	(control)	jne	40241e <lhsinit_+0x7f>	; ↰ label 266 (loop 34)
; ------- Loop 34 exit
267:	
/home/jcsalinas/Documents/pruebas/inst_estimation_module/BT/initialize.f:225
  402430:	f3 c3                       	(control)	ret


0000000000402432 <exact_solution>:
198 (function exact_solution_):	
/home/jcsalinas/Documents/pruebas/inst_estimation_module/BT/exact_solution.f:4
  402432:	f2 0f 10 2f                 	(move)  	movsd	(%rdi),%xmm5
/home/jcsalinas/Documents/pruebas/inst_estimation_module/BT/exact_solution.f:23
  402436:	f2 0f 10 26                 	(move)  	movsd	(%rsi),%xmm4
  40243a:	f2 0f 10 1a                 	(move)  	movsd	(%rdx),%xmm3
  40243e:	b8 e0 10 61 00              	(move)  	mov	$0x6110e0,%eax
  402443:	ba 08 11 61 00              	(move)  	mov	$0x611108,%edx
; ------- Loop 35 entry
268 (loop 35):	
  402448:	66 0f 28 d5                 	(move)  	movapd	%xmm5,%xmm2
  40244c:	f2 0f 59 90 60 02 00 00     	(arith) 	mulsd	0x260(%rax),%xmm2
  402454:	f2 0f 58 90 e8 01 00 00     	(arith) 	addsd	0x1e8(%rax),%xmm2
  40245c:	f2 0f 59 d5                 	(arith) 	mulsd	%xmm5,%xmm2
  402460:	f2 0f 58 90 70 01 00 00     	(arith) 	addsd	0x170(%rax),%xmm2
  402468:	f2 0f 59 d5                 	(arith) 	mulsd	%xmm5,%xmm2
  40246c:	f2 0f 58 90 f8 00 00 00     	(arith) 	addsd	0xf8(%rax),%xmm2
  402474:	f2 0f 59 d5                 	(arith) 	mulsd	%xmm5,%xmm2
  402478:	66 0f 28 ca                 	(move)  	movapd	%xmm2,%xmm1
  40247c:	f2 0f 58 88 d0 00 00 00     	(arith) 	addsd	0xd0(%rax),%xmm1
  402484:	66 0f 28 d4                 	(move)  	movapd	%xmm4,%xmm2
  402488:	f2 0f 59 90 88 02 00 00     	(arith) 	mulsd	0x288(%rax),%xmm2
  402490:	f2 0f 58 90 10 02 00 00     	(arith) 	addsd	0x210(%rax),%xmm2
  402498:	f2 0f 59 d4                 	(arith) 	mulsd	%xmm4,%xmm2
  40249c:	f2 0f 58 90 98 01 00 00     	(arith) 	addsd	0x198(%rax),%xmm2
  4024a4:	f2 0f 59 d4                 	(arith) 	mulsd	%xmm4,%xmm2
  4024a8:	f2 0f 58 90 20 01 00 00     	(arith) 	addsd	0x120(%rax),%xmm2
  4024b0:	66 0f 28 c2                 	(move)  	movapd	%xmm2,%xmm0
  4024b4:	f2 0f 59 c4                 	(arith) 	mulsd	%xmm4,%xmm0
  4024b8:	f2 0f 58 c8                 	(arith) 	addsd	%xmm0,%xmm1
  4024bc:	66 0f 28 d1                 	(move)  	movapd	%xmm1,%xmm2
  4024c0:	66 0f 28 cb                 	(move)  	movapd	%xmm3,%xmm1
  4024c4:	f2 0f 59 88 b0 02 00 00     	(arith) 	mulsd	0x2b0(%rax),%xmm1
  4024cc:	f2 0f 58 88 38 02 00 00     	(arith) 	addsd	0x238(%rax),%xmm1
  4024d4:	f2 0f 59 cb                 	(arith) 	mulsd	%xmm3,%xmm1
  4024d8:	f2 0f 58 88 c0 01 00 00     	(arith) 	addsd	0x1c0(%rax),%xmm1
  4024e0:	f2 0f 59 cb                 	(arith) 	mulsd	%xmm3,%xmm1
  4024e4:	f2 0f 58 88 48 01 00 00     	(arith) 	addsd	0x148(%rax),%xmm1
  4024ec:	66 0f 28 c1                 	(move)  	movapd	%xmm1,%xmm0
  4024f0:	f2 0f 59 c3                 	(arith) 	mulsd	%xmm3,%xmm0
  4024f4:	f2 0f 58 c2                 	(arith) 	addsd	%xmm2,%xmm0
  4024f8:	f2 0f 11 01                 	(move)  	movsd	%xmm0,(%rcx)
  4024fc:	48 83 c0 08                 	(arith) 	add	$0x8,%rax
  402500:	48 83 c1 08                 	(arith) 	add	$0x8,%rcx
/home/jcsalinas/Documents/pruebas/inst_estimation_module/BT/exact_solution.f:18
  402504:	48 39 d0                    	(arith) 	cmp	%rdx,%rax
  402507:	0f 85 3b ff ff ff           	(control)	jne	402448 <exact_solution_+0x16>	; ↰ label 268 (loop 35)
; ------- Loop 35 exit
269:	
/home/jcsalinas/Documents/pruebas/inst_estimation_module/BT/exact_solution.f:27
  40250d:	f3 c3                       	(control)	ret


000000000040250f <exact_rhs>:
102 (function exact_rhs_):	
/home/jcsalinas/Documents/pruebas/inst_estimation_module/BT/exact_rhs.f:5
  40250f:	41 57                       	(move)  	push	%r15
  402511:	41 56                       	(move)  	push	%r14
  402513:	41 55                       	(move)  	push	%r13
  402515:	41 54                       	(move)  	push	%r12
  402517:	55                          	(move)  	push	%rbp
  402518:	53                          	(move)  	push	%rbx
  402519:	48 81 ec b8 00 00 00        	(arith) 	sub	$0xb8,%rsp
/home/jcsalinas/Documents/pruebas/inst_estimation_module/BT/exact_rhs.f:22
  402520:	44 8b 1d c9 f0 20 00        	(move)  	mov	0x20f0c9(%rip),%r11d
  402527:	44 89 d8                    	(move)  	mov	%r11d,%eax
  40252a:	83 e8 01                    	(arith) 	sub	$0x1,%eax
  40252d:	0f 88 97 00 00 00           	(control)	js	4025ca <exact_rhs_+0xbb>	; ↲ label 270
271:	
/home/jcsalinas/Documents/pruebas/inst_estimation_module/BT/exact_rhs.f:23
  402533:	44 8b 15 b2 f0 20 00        	(move)  	mov	0x20f0b2(%rip),%r10d
  40253a:	45 8d 6a ff                 	(arith) 	lea	-0x1(%r10),%r13d
/home/jcsalinas/Documents/pruebas/inst_estimation_module/BT/exact_rhs.f:24
  40253e:	44 8b 05 a3 f0 20 00        	(move)  	mov	0x20f0a3(%rip),%r8d
  402545:	41 8d 68 ff                 	(arith) 	lea	-0x1(%r8),%ebp
  402549:	bb 00 00 00 00              	(move)  	mov	$0,%ebx
/home/jcsalinas/Documents/pruebas/inst_estimation_module/BT/exact_rhs.f:26
  40254e:	66 0f ef c0                 	(logic) 	pxor	%xmm0,%xmm0
; ------- Loop 70 entry
272 (loop 70):	
/home/jcsalinas/Documents/pruebas/inst_estimation_module/BT/exact_rhs.f:23
  402552:	45 85 ed                    	(arith) 	test	%r13d,%r13d
  402555:	78 6b                       	(control)	js	4025c2 <exact_rhs_+0xb3>	; ↲ label 273
274:	
/home/jcsalinas/Documents/pruebas/inst_estimation_module/BT/exact_rhs.f:26
  402557:	4c 63 e3                    	(move)  	movsxd	%ebx,%r12
  40255a:	4d 69 e4 35 cf 00 00        	(arith) 	imul	$0xcf35,%r12,%r12
  402561:	41 b9 00 00 00 00           	(move)  	mov	$0,%r9d
; ------- Loop 71 entry
275 (loop 71):	
/home/jcsalinas/Documents/pruebas/inst_estimation_module/BT/exact_rhs.f:24
  402567:	85 ed                       	(arith) 	test	%ebp,%ebp
  402569:	78 4e                       	(control)	js	4025b9 <exact_rhs_+0xaa>	; ↲ label 276
277:	
/home/jcsalinas/Documents/pruebas/inst_estimation_module/BT/exact_rhs.f:26
  40256b:	49 63 c1                    	(move)  	movsxd	%r9d,%rax
  40256e:	48 89 c2                    	(move)  	mov	%rax,%rdx
  402571:	48 c1 e2 08                 	(logic) 	sal	$0x8,%rdx
  402575:	48 01 c2                    	(arith) 	add	%rax,%rdx
  402578:	48 8d 3c 50                 	(arith) 	lea	(%rax,%rdx,2),%rdi
  40257c:	4c 01 e7                    	(arith) 	add	%r12,%rdi
  40257f:	be 00 00 00 00              	(move)  	mov	$0,%esi
; ------- Loop 73 entry
278 (loop 73):	
  402584:	48 63 c6                    	(move)  	movsxd	%esi,%rax
  402587:	48 8d 0c 80                 	(arith) 	lea	(%rax,%rax,4),%rcx
  40258b:	48 01 f9                    	(arith) 	add	%rdi,%rcx
  40258e:	48 c1 e1 03                 	(logic) 	sal	$0x3,%rcx
  402592:	b8 00 00 00 00              	(move)  	mov	$0,%eax
; ------- Loop 72 entry
279 (loop 72):	
  402597:	48 8d 90 00 16 61 00        	(arith) 	lea	0x611600(%rax),%rdx
  40259e:	f2 0f 11 84 0a 00 83 41 08  	(move)  	movsd	%xmm0,0x8418300(%rdx,%rcx,1)
  4025a7:	48 83 c0 08                 	(arith) 	add	$0x8,%rax
/home/jcsalinas/Documents/pruebas/inst_estimation_module/BT/exact_rhs.f:25
  4025ab:	48 83 f8 28                 	(arith) 	cmp	$0x28,%rax
  4025af:	75 e6                       	(control)	jne	402597 <exact_rhs_+0x88>	; ↰ label 279 (loop 72)
; ------- Loop 72 exit
280:	
/home/jcsalinas/Documents/pruebas/inst_estimation_module/BT/exact_rhs.f:24
  4025b1:	83 c6 01                    	(arith) 	add	$0x1,%esi
  4025b4:	41 39 f0                    	(arith) 	cmp	%esi,%r8d
  4025b7:	75 cb                       	(control)	jne	402584 <exact_rhs_+0x75>	; ↰ label 278 (loop 73)
; ------- Loop 73 exit
276:	
/home/jcsalinas/Documents/pruebas/inst_estimation_module/BT/exact_rhs.f:23
  4025b9:	41 83 c1 01                 	(arith) 	add	$0x1,%r9d
  4025bd:	45 39 ca                    	(arith) 	cmp	%r9d,%r10d
  4025c0:	75 a5                       	(control)	jne	402567 <exact_rhs_+0x58>	; ↰ label 275 (loop 71)
; ------- Loop 71 exit
273:	
/home/jcsalinas/Documents/pruebas/inst_estimation_module/BT/exact_rhs.f:22
  4025c2:	83 c3 01                    	(arith) 	add	$0x1,%ebx
  4025c5:	41 39 db                    	(arith) 	cmp	%ebx,%r11d
  4025c8:	75 88                       	(control)	jne	402552 <exact_rhs_+0x43>	; ↰ label 272 (loop 70)
; ------- Loop 70 exit
270:	
/home/jcsalinas/Documents/pruebas/inst_estimation_module/BT/exact_rhs.f:35
  4025ca:	41 8d 43 fe                 	(arith) 	lea	-0x2(%r11),%eax
  4025ce:	85 c0                       	(arith) 	test	%eax,%eax
  4025d0:	0f 8e e7 1b 00 00           	(control)	jle	4041bd <exact_rhs_+0x1cae>	; ↲ label 281
282:	
  4025d6:	41 8d 43 ff                 	(arith) 	lea	-0x1(%r11),%eax
  4025da:	89 44 24 48                 	(move)  	mov	%eax,0x48(%rsp)
  4025de:	c7 44 24 44 01 00 00 00     	(move)  	movl	$0x1,0x44(%rsp)
  4025e6:	4c 8d a4 24 a0 00 00 00     	(arith) 	lea	0xa0(%rsp),%r12
; ------- Loop 50 entry
283 (loop 50):	
/home/jcsalinas/Documents/pruebas/inst_estimation_module/BT/exact_rhs.f:36
  4025ee:	8b 5c 24 44                 	(move)  	mov	0x44(%rsp),%ebx
  4025f2:	66 0f ef c0                 	(logic) 	pxor	%xmm0,%xmm0
  4025f6:	f2 0f 2a c3                 	(conv)  	cvtsi2sd	%ebx,%xmm0
  4025fa:	f2 0f 59 05 ce ee 20 00     	(arith) 	mulsd	0x20eece(%rip),%xmm0
  402602:	f2 0f 11 44 24 68           	(move)  	movsd	%xmm0,0x68(%rsp)
/home/jcsalinas/Documents/pruebas/inst_estimation_module/BT/exact_rhs.f:37
  402608:	8b 05 de ef 20 00           	(move)  	mov	0x20efde(%rip),%eax
  40260e:	8d 50 fe                    	(arith) 	lea	-0x2(%rax),%edx
  402611:	85 d2                       	(arith) 	test	%edx,%edx
  402613:	0f 8e 8c 08 00 00           	(control)	jle	402ea5 <exact_rhs_+0x996>	; ↲ label 284
285:	
/home/jcsalinas/Documents/pruebas/inst_estimation_module/BT/exact_rhs.f:68
  402619:	48 63 eb                    	(move)  	movsxd	%ebx,%rbp
  40261c:	48 69 ed 35 cf 00 00        	(arith) 	imul	$0xcf35,%rbp,%rbp
  402623:	83 e8 01                    	(arith) 	sub	$0x1,%eax
  402626:	89 44 24 58                 	(move)  	mov	%eax,0x58(%rsp)
  40262a:	bb 01 00 00 00              	(move)  	mov	$0x1,%ebx
; ------- Loop 63 entry
286 (loop 63):	
/home/jcsalinas/Documents/pruebas/inst_estimation_module/BT/exact_rhs.f:38
  40262f:	66 0f ef c0                 	(logic) 	pxor	%xmm0,%xmm0
  402633:	f2 0f 2a c3                 	(conv)  	cvtsi2sd	%ebx,%xmm0
  402637:	f2 0f 59 05 89 ee 20 00     	(arith) 	mulsd	0x20ee89(%rip),%xmm0
  40263f:	f2 0f 11 44 24 78           	(move)  	movsd	%xmm0,0x78(%rsp)
/home/jcsalinas/Documents/pruebas/inst_estimation_module/BT/exact_rhs.f:40
  402645:	44 8b 35 9c ef 20 00        	(move)  	mov	0x20ef9c(%rip),%r14d
  40264c:	44 89 f0                    	(move)  	mov	%r14d,%eax
  40264f:	83 e8 01                    	(arith) 	sub	$0x1,%eax
  402652:	0f 88 65 01 00 00           	(control)	js	4027bd <exact_rhs_+0x2ae>	; ↲ label 287
288:	
  402658:	41 bd 00 00 00 00           	(move)  	mov	$0,%r13d
; ------- Loop 69 entry
289 (loop 69):	
/home/jcsalinas/Documents/pruebas/inst_estimation_module/BT/exact_rhs.f:41
  40265e:	66 0f ef c0                 	(logic) 	pxor	%xmm0,%xmm0
  402662:	f2 41 0f 2a c5              	(conv)  	cvtsi2sd	%r13d,%xmm0
  402667:	f2 0f 59 05 51 ee 20 00     	(arith) 	mulsd	0x20ee51(%rip),%xmm0
  40266f:	f2 0f 11 44 24 70           	(move)  	movsd	%xmm0,0x70(%rsp)
/home/jcsalinas/Documents/pruebas/inst_estimation_module/BT/exact_rhs.f:43
  402675:	48 8d 8c 24 80 00 00 00     	(arith) 	lea	0x80(%rsp),%rcx
  40267d:	48 8d 54 24 68              	(arith) 	lea	0x68(%rsp),%rdx
  402682:	48 8d 74 24 78              	(arith) 	lea	0x78(%rsp),%rsi
  402687:	48 8d 7c 24 70              	(arith) 	lea	0x70(%rsp),%rdi
  40268c:	b8 00 00 00 00              	(move)  	mov	$0,%eax
  402691:	e8 9c fd ff ff              	(control)	call	402432 <exact_solution_>	; ⇄ exact_solution
290:	
  402696:	48 8d 94 24 80 00 00 00     	(arith) 	lea	0x80(%rsp),%rdx
  40269e:	49 63 c5                    	(move)  	movsxd	%r13d,%rax
  4026a1:	48 8d 34 c5 00 12 37 0b     	(arith) 	lea	0xb371200(,%rax,8),%rsi
  4026a9:	48 89 d0                    	(move)  	mov	%rdx,%rax
  4026ac:	4c 8d 4a 28                 	(arith) 	lea	0x28(%rdx),%r9
  4026b0:	48 89 f1                    	(move)  	mov	%rsi,%rcx
/home/jcsalinas/Documents/pruebas/inst_estimation_module/BT/exact_rhs.f:45
  4026b3:	4d 63 c5                    	(move)  	movsxd	%r13d,%r8
; ------- Loop 67 entry
291 (loop 67):	
  4026b6:	4c 89 c7                    	(move)  	mov	%r8,%rdi
  4026b9:	f2 0f 10 00                 	(move)  	movsd	(%rax),%xmm0
  4026bd:	f2 0f 11 81 70 06 00 00     	(move)  	movsd	%xmm0,0x670(%rcx)
  4026c5:	48 83 c0 08                 	(arith) 	add	$0x8,%rax
  4026c9:	48 81 c1 38 03 00 00        	(arith) 	add	$0x338,%rcx
/home/jcsalinas/Documents/pruebas/inst_estimation_module/BT/exact_rhs.f:44
  4026d0:	4c 39 c8                    	(arith) 	cmp	%r9,%rax
  4026d3:	75 e1                       	(control)	jne	4026b6 <exact_rhs_+0x1a7>	; ↰ label 291 (loop 67)
; ------- Loop 67 exit
292:	
/home/jcsalinas/Documents/pruebas/inst_estimation_module/BT/exact_rhs.f:48
  4026d5:	f2 0f 10 0d 53 c7 00 00     	(move)  	movsd	0xc753(%rip),%xmm1
  4026dd:	f2 0f 5e 8c 24 80 00 00 00  	(arith) 	divsd	0x80(%rsp),%xmm1
; ------- Loop 68 entry
293 (loop 68):	
/home/jcsalinas/Documents/pruebas/inst_estimation_module/BT/exact_rhs.f:51
  4026e6:	66 0f 28 c1                 	(move)  	movapd	%xmm1,%xmm0
  4026ea:	f2 0f 59 42 08              	(arith) 	mulsd	0x8(%rdx),%xmm0
  4026ef:	f2 0f 11 86 c0 19 00 00     	(move)  	movsd	%xmm0,0x19c0(%rsi)
  4026f7:	48 83 c2 08                 	(arith) 	add	$0x8,%rdx
  4026fb:	48 81 c6 38 03 00 00        	(arith) 	add	$0x338,%rsi
/home/jcsalinas/Documents/pruebas/inst_estimation_module/BT/exact_rhs.f:50
  402702:	4c 39 e2                    	(arith) 	cmp	%r12,%rdx
  402705:	75 df                       	(control)	jne	4026e6 <exact_rhs_+0x1d7>	; ↰ label 293 (loop 68)
; ------- Loop 68 exit
294:	
/home/jcsalinas/Documents/pruebas/inst_estimation_module/BT/exact_rhs.f:54
  402707:	48 8d 8f 38 03 00 00        	(arith) 	lea	0x338(%rdi),%rcx
  40270e:	f2 0f 10 04 cd 00 12 37 0b  	(move)  	movsd	0xb371200(,%rcx,8),%xmm0
  402717:	f2 0f 59 c0                 	(arith) 	mulsd	%xmm0,%xmm0
  40271b:	f2 0f 11 04 fd 00 12 37 0b  	(move)  	movsd	%xmm0,0xb371200(,%rdi,8)
/home/jcsalinas/Documents/pruebas/inst_estimation_module/BT/exact_rhs.f:56
  402724:	48 8d 97 9f 03 00 00        	(arith) 	lea	0x39f(%rdi),%rdx
  40272b:	f2 0f 10 14 d5 00 12 37 0b  	(move)  	movsd	0xb371200(,%rdx,8),%xmm2
  402734:	48 8d 87 06 04 00 00        	(arith) 	lea	0x406(%rdi),%rax
  40273b:	f2 0f 10 0c c5 00 12 37 0b  	(move)  	movsd	0xb371200(,%rax,8),%xmm1
  402744:	f2 0f 59 d2                 	(arith) 	mulsd	%xmm2,%xmm2
  402748:	f2 0f 58 c2                 	(arith) 	addsd	%xmm2,%xmm0
  40274c:	f2 0f 59 c9                 	(arith) 	mulsd	%xmm1,%xmm1
  402750:	f2 0f 58 c1                 	(arith) 	addsd	%xmm1,%xmm0
  402754:	f2 0f 11 04 fd 88 28 37 0b  	(move)  	movsd	%xmm0,0xb372888(,%rdi,8)
/home/jcsalinas/Documents/pruebas/inst_estimation_module/BT/exact_rhs.f:58
  40275d:	f2 0f 10 04 cd 00 12 37 0b  	(move)  	movsd	0xb371200(,%rcx,8),%xmm0
  402766:	f2 0f 59 04 fd a8 1b 37 0b  	(arith) 	mulsd	0xb371ba8(,%rdi,8),%xmm0
  40276f:	66 0f 28 c8                 	(move)  	movapd	%xmm0,%xmm1
  402773:	f2 0f 10 04 d5 00 12 37 0b  	(move)  	movsd	0xb371200(,%rdx,8),%xmm0
  40277c:	f2 0f 59 04 fd e0 1e 37 0b  	(arith) 	mulsd	0xb371ee0(,%rdi,8),%xmm0
  402785:	f2 0f 58 c1                 	(arith) 	addsd	%xmm1,%xmm0
  402789:	f2 0f 10 0c c5 00 12 37 0b  	(move)  	movsd	0xb371200(,%rax,8),%xmm1
  402792:	f2 0f 59 0c fd 18 22 37 0b  	(arith) 	mulsd	0xb372218(,%rdi,8),%xmm1
  40279b:	f2 0f 58 c1                 	(arith) 	addsd	%xmm1,%xmm0
  40279f:	f2 0f 59 05 a1 c6 00 00     	(arith) 	mulsd	0xc6a1(%rip),%xmm0
  4027a7:	f2 0f 11 04 fd 38 15 37 0b  	(move)  	movsd	%xmm0,0xb371538(,%rdi,8)
/home/jcsalinas/Documents/pruebas/inst_estimation_module/BT/exact_rhs.f:40
  4027b0:	41 83 c5 01                 	(arith) 	add	$0x1,%r13d
  4027b4:	45 39 ee                    	(arith) 	cmp	%r13d,%r14d
  4027b7:	0f 85 a1 fe ff ff           	(control)	jne	40265e <exact_rhs_+0x14f>	; ↰ label 289 (loop 69)
; ------- Loop 69 exit
287:	
/home/jcsalinas/Documents/pruebas/inst_estimation_module/BT/exact_rhs.f:62
  4027bd:	44 8b 1d 24 ee 20 00        	(move)  	mov	0x20ee24(%rip),%r11d
  4027c4:	45 8d 6b fe                 	(arith) 	lea	-0x2(%r11),%r13d
  4027c8:	45 85 ed                    	(arith) 	test	%r13d,%r13d
  4027cb:	0f 8e 31 04 00 00           	(control)	jle	402c02 <exact_rhs_+0x6f3>	; ↲ label 295
296:	
/home/jcsalinas/Documents/pruebas/inst_estimation_module/BT/exact_rhs.f:5
  4027d1:	f2 0f 10 35 0f e9 20 00     	(move)  	movsd	0x20e90f(%rip),%xmm6
  4027d9:	f2 0f 10 2d 17 ec 20 00     	(move)  	movsd	0x20ec17(%rip),%xmm5
  4027e1:	f2 0f 11 2c 24              	(move)  	movsd	%xmm5,(%rsp)
  4027e6:	f2 44 0f 10 0d 19 ed 20 00  	(move)  	movsd	0x20ed19(%rip),%xmm9
  4027ef:	f2 0f 10 2d d9 eb 20 00     	(move)  	movsd	0x20ebd9(%rip),%xmm5
  4027f7:	f2 0f 11 6c 24 08           	(move)  	movsd	%xmm5,0x8(%rsp)
  4027fd:	f2 0f 10 2d fb eb 20 00     	(move)  	movsd	0x20ebfb(%rip),%xmm5
  402805:	f2 0f 11 6c 24 10           	(move)  	movsd	%xmm5,0x10(%rsp)
  40280b:	f2 44 0f 10 1d c4 eb 20 00  	(move)  	movsd	0x20ebc4(%rip),%xmm11
  402814:	f2 0f 10 2d ec eb 20 00     	(move)  	movsd	0x20ebec(%rip),%xmm5
  40281c:	f2 0f 11 6c 24 18           	(move)  	movsd	%xmm5,0x18(%rsp)
  402822:	f2 0f 10 2d e6 eb 20 00     	(move)  	movsd	0x20ebe6(%rip),%xmm5
  40282a:	f2 0f 11 6c 24 20           	(move)  	movsd	%xmm5,0x20(%rsp)
  402830:	f2 44 0f 10 15 c7 ec 20 00  	(move)  	movsd	0x20ecc7(%rip),%xmm10
/home/jcsalinas/Documents/pruebas/inst_estimation_module/BT/exact_rhs.f:93
  402839:	f2 44 0f 10 25 06 c6 00 00  	(move)  	movsd	0xc606(%rip),%xmm12
  402842:	f2 44 0f 59 25 95 eb 20 00  	(arith) 	mulsd	0x20eb95(%rip),%xmm12
/home/jcsalinas/Documents/pruebas/inst_estimation_module/BT/exact_rhs.f:5
  40284b:	f2 0f 10 2d 95 eb 20 00     	(move)  	movsd	0x20eb95(%rip),%xmm5
  402853:	f2 0f 11 6c 24 28           	(move)  	movsd	%xmm5,0x28(%rsp)
  402859:	f2 0f 10 2d 8f eb 20 00     	(move)  	movsd	0x20eb8f(%rip),%xmm5
  402861:	f2 0f 11 6c 24 30           	(move)  	movsd	%xmm5,0x30(%rsp)
  402867:	f2 0f 10 2d a9 eb 20 00     	(move)  	movsd	0x20eba9(%rip),%xmm5
  40286f:	f2 0f 11 6c 24 38           	(move)  	movsd	%xmm5,0x38(%rsp)
  402875:	48 63 c3                    	(move)  	movsxd	%ebx,%rax
  402878:	48 89 c2                    	(move)  	mov	%rax,%rdx
  40287b:	48 c1 e2 08                 	(logic) 	sal	$0x8,%rdx
  40287f:	48 01 c2                    	(arith) 	add	%rax,%rdx
  402882:	48 8d 04 50                 	(arith) 	lea	(%rax,%rdx,2),%rax
  402886:	48 01 e8                    	(arith) 	add	%rbp,%rax
  402889:	48 8d 14 c5 00 16 61 00     	(arith) 	lea	0x611600(,%rax,8),%rdx
  402891:	b8 00 12 37 0b              	(move)  	mov	$0xb371200,%eax
  402896:	41 8d 73 ff                 	(arith) 	lea	-0x1(%r11),%esi
  40289a:	b9 01 00 00 00              	(move)  	mov	$0x1,%ecx
; ------- Loop 66 entry
297 (loop 66):	
/home/jcsalinas/Documents/pruebas/inst_estimation_module/BT/exact_rhs.f:64
  40289f:	83 c1 01                    	(arith) 	add	$0x1,%ecx
/home/jcsalinas/Documents/pruebas/inst_estimation_module/BT/exact_rhs.f:68
  4028a2:	f2 44 0f 10 a8 b8 09 00 00  	(move)  	movsd	0x9b8(%rax),%xmm13
  4028ab:	f2 0f 10 88 a8 09 00 00     	(move)  	movsd	0x9a8(%rax),%xmm1
  4028b3:	f2 0f 10 90 78 06 00 00     	(move)  	movsd	0x678(%rax),%xmm2
  4028bb:	f2 0f 58 d2                 	(arith) 	addsd	%xmm2,%xmm2
  4028bf:	f2 0f 10 80 80 06 00 00     	(move)  	movsd	0x680(%rax),%xmm0
  4028c7:	f2 0f 5c c2                 	(arith) 	subsd	%xmm2,%xmm0
  4028cb:	f2 0f 58 80 70 06 00 00     	(arith) 	addsd	0x670(%rax),%xmm0
  4028d3:	f2 0f 59 04 24              	(arith) 	mulsd	(%rsp),%xmm0
  4028d8:	66 41 0f 28 dd              	(move)  	movapd	%xmm13,%xmm3
  4028dd:	f2 0f 5c d9                 	(arith) 	subsd	%xmm1,%xmm3
  4028e1:	f2 0f 59 de                 	(arith) 	mulsd	%xmm6,%xmm3
  4028e5:	f2 0f 10 92 28 83 41 08     	(move)  	movsd	0x8418328(%rdx),%xmm2
  4028ed:	f2 0f 5c d3                 	(arith) 	subsd	%xmm3,%xmm2
  4028f1:	f2 0f 58 d0                 	(arith) 	addsd	%xmm0,%xmm2
  4028f5:	f2 0f 11 92 28 83 41 08     	(move)  	movsd	%xmm2,0x8418328(%rdx)
/home/jcsalinas/Documents/pruebas/inst_estimation_module/BT/exact_rhs.f:74
  4028fd:	f2 0f 10 a8 d0 19 00 00     	(move)  	movsd	0x19d0(%rax),%xmm5
  402905:	f2 0f 10 a0 60 13 00 00     	(move)  	movsd	0x1360(%rax),%xmm4
  40290d:	f2 44 0f 10 80 48 03 00 00  	(move)  	movsd	0x348(%rax),%xmm8
  402916:	f2 0f 10 90 c0 19 00 00     	(move)  	movsd	0x19c0(%rax),%xmm2
  40291e:	f2 0f 10 80 50 13 00 00     	(move)  	movsd	0x1350(%rax),%xmm0
  402926:	f2 0f 10 b8 38 03 00 00     	(move)  	movsd	0x338(%rax),%xmm7
  40292e:	66 0f 28 dc                 	(move)  	movapd	%xmm4,%xmm3
  402932:	f2 41 0f 5c d8              	(arith) 	subsd	%xmm8,%xmm3
  402937:	f2 41 0f 59 d9              	(arith) 	mulsd	%xmm9,%xmm3
  40293c:	66 45 0f 28 f5              	(move)  	movapd	%xmm13,%xmm14
  402941:	f2 44 0f 59 f5              	(arith) 	mulsd	%xmm5,%xmm14
  402946:	f2 41 0f 58 de              	(arith) 	addsd	%xmm14,%xmm3
  40294b:	66 44 0f 28 f8              	(move)  	movapd	%xmm0,%xmm15
  402950:	f2 44 0f 5c ff              	(arith) 	subsd	%xmm7,%xmm15
  402955:	f2 45 0f 59 f9              	(arith) 	mulsd	%xmm9,%xmm15
  40295a:	66 44 0f 28 f1              	(move)  	movapd	%xmm1,%xmm14
  40295f:	f2 44 0f 59 f2              	(arith) 	mulsd	%xmm2,%xmm14
  402964:	f2 45 0f 58 f7              	(arith) 	addsd	%xmm15,%xmm14
  402969:	f2 41 0f 5c de              	(arith) 	subsd	%xmm14,%xmm3
  40296e:	f2 0f 59 de                 	(arith) 	mulsd	%xmm6,%xmm3
  402972:	66 44 0f 28 fb              	(move)  	movapd	%xmm3,%xmm15
  402977:	f2 0f 10 9a 30 83 41 08     	(move)  	movsd	0x8418330(%rdx),%xmm3
  40297f:	f2 41 0f 5c df              	(arith) 	subsd	%xmm15,%xmm3
  402984:	66 44 0f 28 f3              	(move)  	movapd	%xmm3,%xmm14
  402989:	f2 0f 10 98 c8 19 00 00     	(move)  	movsd	0x19c8(%rax),%xmm3
  402991:	f2 0f 58 db                 	(arith) 	addsd	%xmm3,%xmm3
  402995:	66 44 0f 28 fd              	(move)  	movapd	%xmm5,%xmm15
  40299a:	f2 44 0f 5c fb              	(arith) 	subsd	%xmm3,%xmm15
  40299f:	66 41 0f 28 df              	(move)  	movapd	%xmm15,%xmm3
  4029a4:	f2 0f 58 da                 	(arith) 	addsd	%xmm2,%xmm3
  4029a8:	f2 0f 59 5c 24 08           	(arith) 	mulsd	0x8(%rsp),%xmm3
  4029ae:	f2 41 0f 58 de              	(arith) 	addsd	%xmm14,%xmm3
  4029b3:	f2 44 0f 10 b0 b0 09 00 00  	(move)  	movsd	0x9b0(%rax),%xmm14
  4029bc:	f2 45 0f 58 f6              	(arith) 	addsd	%xmm14,%xmm14
  4029c1:	f2 45 0f 5c ee              	(arith) 	subsd	%xmm14,%xmm13
  4029c6:	f2 44 0f 58 e9              	(arith) 	addsd	%xmm1,%xmm13
  4029cb:	f2 44 0f 59 6c 24 10        	(arith) 	mulsd	0x10(%rsp),%xmm13
  4029d2:	f2 44 0f 58 eb              	(arith) 	addsd	%xmm3,%xmm13
  4029d7:	f2 44 0f 11 aa 30 83 41 08  	(move)  	movsd	%xmm13,0x8418330(%rdx)
/home/jcsalinas/Documents/pruebas/inst_estimation_module/BT/exact_rhs.f:79
  4029e0:	f2 44 0f 10 b8 f0 0c 00 00  	(move)  	movsd	0xcf0(%rax),%xmm15
  4029e9:	f2 0f 10 88 e0 0c 00 00     	(move)  	movsd	0xce0(%rax),%xmm1
  4029f1:	f2 44 0f 10 a8 00 1d 00 00  	(move)  	movsd	0x1d00(%rax),%xmm13
  4029fa:	f2 45 0f 58 ed              	(arith) 	addsd	%xmm13,%xmm13
  4029ff:	f2 0f 10 98 08 1d 00 00     	(move)  	movsd	0x1d08(%rax),%xmm3
  402a07:	f2 41 0f 5c dd              	(arith) 	subsd	%xmm13,%xmm3
  402a0c:	f2 0f 58 98 f8 1c 00 00     	(arith) 	addsd	0x1cf8(%rax),%xmm3
  402a14:	f2 41 0f 59 db              	(arith) 	mulsd	%xmm11,%xmm3
  402a19:	66 44 0f 28 f5              	(move)  	movapd	%xmm5,%xmm14
  402a1e:	f2 45 0f 59 f7              	(arith) 	mulsd	%xmm15,%xmm14
  402a23:	66 44 0f 28 ea              	(move)  	movapd	%xmm2,%xmm13
  402a28:	f2 44 0f 59 e9              	(arith) 	mulsd	%xmm1,%xmm13
  402a2d:	f2 45 0f 5c f5              	(arith) 	subsd	%xmm13,%xmm14
  402a32:	f2 44 0f 59 f6              	(arith) 	mulsd	%xmm6,%xmm14
  402a37:	f2 44 0f 10 aa 38 83 41 08  	(move)  	movsd	0x8418338(%rdx),%xmm13
  402a40:	f2 45 0f 5c ee              	(arith) 	subsd	%xmm14,%xmm13
  402a45:	f2 41 0f 58 dd              	(arith) 	addsd	%xmm13,%xmm3
  402a4a:	f2 44 0f 10 a8 e8 0c 00 00  	(move)  	movsd	0xce8(%rax),%xmm13
  402a53:	f2 45 0f 58 ed              	(arith) 	addsd	%xmm13,%xmm13
  402a58:	f2 45 0f 5c fd              	(arith) 	subsd	%xmm13,%xmm15
  402a5d:	f2 44 0f 58 f9              	(arith) 	addsd	%xmm1,%xmm15
  402a62:	f2 44 0f 59 7c 24 18        	(arith) 	mulsd	0x18(%rsp),%xmm15
  402a69:	f2 41 0f 58 df              	(arith) 	addsd	%xmm15,%xmm3
  402a6e:	f2 0f 11 9a 38 83 41 08     	(move)  	movsd	%xmm3,0x8418338(%rdx)
/home/jcsalinas/Documents/pruebas/inst_estimation_module/BT/exact_rhs.f:84
  402a76:	f2 44 0f 10 b8 28 10 00 00  	(move)  	movsd	0x1028(%rax),%xmm15
  402a7f:	f2 0f 10 88 18 10 00 00     	(move)  	movsd	0x1018(%rax),%xmm1
  402a87:	f2 44 0f 10 a8 38 20 00 00  	(move)  	movsd	0x2038(%rax),%xmm13
  402a90:	f2 45 0f 58 ed              	(arith) 	addsd	%xmm13,%xmm13
  402a95:	f2 0f 10 98 40 20 00 00     	(move)  	movsd	0x2040(%rax),%xmm3
  402a9d:	f2 41 0f 5c dd              	(arith) 	subsd	%xmm13,%xmm3
  402aa2:	f2 0f 58 98 30 20 00 00     	(arith) 	addsd	0x2030(%rax),%xmm3
  402aaa:	f2 41 0f 59 db              	(arith) 	mulsd	%xmm11,%xmm3
  402aaf:	66 44 0f 28 f5              	(move)  	movapd	%xmm5,%xmm14
  402ab4:	f2 45 0f 59 f7              	(arith) 	mulsd	%xmm15,%xmm14
  402ab9:	66 44 0f 28 ea              	(move)  	movapd	%xmm2,%xmm13
  402abe:	f2 44 0f 59 e9              	(arith) 	mulsd	%xmm1,%xmm13
  402ac3:	f2 45 0f 5c f5              	(arith) 	subsd	%xmm13,%xmm14
  402ac8:	f2 44 0f 59 f6              	(arith) 	mulsd	%xmm6,%xmm14
  402acd:	f2 44 0f 10 aa 40 83 41 08  	(move)  	movsd	0x8418340(%rdx),%xmm13
  402ad6:	f2 45 0f 5c ee              	(arith) 	subsd	%xmm14,%xmm13
  402adb:	f2 41 0f 58 dd              	(arith) 	addsd	%xmm13,%xmm3
  402ae0:	f2 44 0f 10 a8 20 10 00 00  	(move)  	movsd	0x1020(%rax),%xmm13
  402ae9:	f2 45 0f 58 ed              	(arith) 	addsd	%xmm13,%xmm13
  402aee:	f2 45 0f 5c fd              	(arith) 	subsd	%xmm13,%xmm15
  402af3:	f2 44 0f 58 f9              	(arith) 	addsd	%xmm1,%xmm15
  402af8:	f2 44 0f 59 7c 24 20        	(arith) 	mulsd	0x20(%rsp),%xmm15
  402aff:	f2 41 0f 58 df              	(arith) 	addsd	%xmm15,%xmm3
  402b04:	f2 0f 11 9a 40 83 41 08     	(move)  	movsd	%xmm3,0x8418340(%rdx)
/home/jcsalinas/Documents/pruebas/inst_estimation_module/BT/exact_rhs.f:93
  402b0c:	66 0f 28 cc                 	(move)  	movapd	%xmm4,%xmm1
  402b10:	f2 41 0f 59 ca              	(arith) 	mulsd	%xmm10,%xmm1
  402b15:	f2 45 0f 59 c1              	(arith) 	mulsd	%xmm9,%xmm8
  402b1a:	f2 41 0f 5c c8              	(arith) 	subsd	%xmm8,%xmm1
  402b1f:	f2 0f 59 e9                 	(arith) 	mulsd	%xmm1,%xmm5
  402b23:	66 0f 28 c8                 	(move)  	movapd	%xmm0,%xmm1
  402b27:	f2 41 0f 59 ca              	(arith) 	mulsd	%xmm10,%xmm1
  402b2c:	f2 41 0f 59 f9              	(arith) 	mulsd	%xmm9,%xmm7
  402b31:	f2 0f 5c cf                 	(arith) 	subsd	%xmm7,%xmm1
  402b35:	f2 0f 59 ca                 	(arith) 	mulsd	%xmm2,%xmm1
  402b39:	f2 0f 5c e9                 	(arith) 	subsd	%xmm1,%xmm5
  402b3d:	f2 0f 59 ee                 	(arith) 	mulsd	%xmm6,%xmm5
  402b41:	f2 0f 10 8a 48 83 41 08     	(move)  	movsd	0x8418348(%rdx),%xmm1
  402b49:	66 0f 28 f9                 	(move)  	movapd	%xmm1,%xmm7
  402b4d:	f2 0f 5c fd                 	(arith) 	subsd	%xmm5,%xmm7
  402b51:	f2 0f 10 a8 90 16 00 00     	(move)  	movsd	0x1690(%rax),%xmm5
  402b59:	f2 0f 58 ed                 	(arith) 	addsd	%xmm5,%xmm5
  402b5d:	f2 0f 10 98 98 16 00 00     	(move)  	movsd	0x1698(%rax),%xmm3
  402b65:	66 0f 28 d3                 	(move)  	movapd	%xmm3,%xmm2
  402b69:	f2 0f 5c d5                 	(arith) 	subsd	%xmm5,%xmm2
  402b6d:	f2 0f 58 90 88 16 00 00     	(arith) 	addsd	0x1688(%rax),%xmm2
  402b75:	f2 41 0f 59 d4              	(arith) 	mulsd	%xmm12,%xmm2
  402b7a:	f2 0f 58 fa                 	(arith) 	addsd	%xmm2,%xmm7
  402b7e:	f2 0f 10 50 08              	(move)  	movsd	0x8(%rax),%xmm2
  402b83:	f2 0f 58 d2                 	(arith) 	addsd	%xmm2,%xmm2
  402b87:	f2 0f 10 58 10              	(move)  	movsd	0x10(%rax),%xmm3
  402b8c:	f2 0f 5c da                 	(arith) 	subsd	%xmm2,%xmm3
  402b90:	66 0f 28 d3                 	(move)  	movapd	%xmm3,%xmm2
  402b94:	f2 0f 58 10                 	(arith) 	addsd	(%rax),%xmm2
  402b98:	f2 0f 59 54 24 28           	(arith) 	mulsd	0x28(%rsp),%xmm2
  402b9e:	f2 0f 58 d7                 	(arith) 	addsd	%xmm7,%xmm2
  402ba2:	f2 0f 10 98 70 23 00 00     	(move)  	movsd	0x2370(%rax),%xmm3
  402baa:	f2 0f 58 db                 	(arith) 	addsd	%xmm3,%xmm3
  402bae:	f2 0f 10 88 78 23 00 00     	(move)  	movsd	0x2378(%rax),%xmm1
  402bb6:	f2 0f 5c cb                 	(arith) 	subsd	%xmm3,%xmm1
  402bba:	f2 0f 58 88 68 23 00 00     	(arith) 	addsd	0x2368(%rax),%xmm1
  402bc2:	f2 0f 59 4c 24 30           	(arith) 	mulsd	0x30(%rsp),%xmm1
  402bc8:	f2 0f 58 d1                 	(arith) 	addsd	%xmm1,%xmm2
  402bcc:	f2 0f 10 88 58 13 00 00     	(move)  	movsd	0x1358(%rax),%xmm1
  402bd4:	f2 0f 58 c9                 	(arith) 	addsd	%xmm1,%xmm1
  402bd8:	f2 0f 5c e1                 	(arith) 	subsd	%xmm1,%xmm4
  402bdc:	f2 0f 58 c4                 	(arith) 	addsd	%xmm4,%xmm0
  402be0:	f2 0f 59 44 24 38           	(arith) 	mulsd	0x38(%rsp),%xmm0
  402be6:	f2 0f 58 d0                 	(arith) 	addsd	%xmm0,%xmm2
  402bea:	f2 0f 11 92 48 83 41 08     	(move)  	movsd	%xmm2,0x8418348(%rdx)
  402bf2:	48 83 c2 28                 	(arith) 	add	$0x28,%rdx
  402bf6:	48 83 c0 08                 	(arith) 	add	$0x8,%rax
/home/jcsalinas/Documents/pruebas/inst_estimation_module/BT/exact_rhs.f:62
  402bfa:	39 f1                       	(arith) 	cmp	%esi,%ecx
  402bfc:	0f 85 9d fc ff ff           	(control)	jne	40289f <exact_rhs_+0x390>	; ↰ label 297 (loop 66)
; ------- Loop 66 exit
295:	
/home/jcsalinas/Documents/pruebas/inst_estimation_module/BT/exact_rhs.f:103
  402c02:	48 63 c3                    	(move)  	movsxd	%ebx,%rax
  402c05:	48 89 c2                    	(move)  	mov	%rax,%rdx
  402c08:	48 c1 e2 08                 	(logic) 	sal	$0x8,%rdx
  402c0c:	48 01 c2                    	(arith) 	add	%rax,%rdx
  402c0f:	4c 8d 3c 50                 	(arith) 	lea	(%rax,%rdx,2),%r15
  402c13:	49 01 ef                    	(arith) 	add	%rbp,%r15
/home/jcsalinas/Documents/pruebas/inst_estimation_module/BT/exact_rhs.f:5
  402c16:	f2 0f 10 1d 82 e5 20 00     	(move)  	movsd	0x20e582(%rip),%xmm3
  402c1e:	4a 8d 14 fd 00 16 61 00     	(arith) 	lea	0x611600(,%r15,8),%rdx
  402c26:	b8 00 12 37 0b              	(move)  	mov	$0xb371200,%eax
  402c2b:	b9 18 22 37 0b              	(move)  	mov	$0xb372218,%ecx
/home/jcsalinas/Documents/pruebas/inst_estimation_module/BT/exact_rhs.f:103
  402c30:	f2 0f 10 35 18 c2 00 00     	(move)  	movsd	0xc218(%rip),%xmm6
  402c38:	f2 0f 10 25 18 c2 00 00     	(move)  	movsd	0xc218(%rip),%xmm4
/home/jcsalinas/Documents/pruebas/inst_estimation_module/BT/exact_rhs.f:107
  402c40:	f2 0f 10 2d 18 c2 00 00     	(move)  	movsd	0xc218(%rip),%xmm5
; ------- Loop 61 entry
298 (loop 61):	
/home/jcsalinas/Documents/pruebas/inst_estimation_module/BT/exact_rhs.f:103
  402c48:	f2 0f 10 b8 78 06 00 00     	(move)  	movsd	0x678(%rax),%xmm7
  402c50:	f2 0f 10 80 80 06 00 00     	(move)  	movsd	0x680(%rax),%xmm0
  402c58:	f2 0f 10 90 88 06 00 00     	(move)  	movsd	0x688(%rax),%xmm2
  402c60:	66 0f 28 cf                 	(move)  	movapd	%xmm7,%xmm1
  402c64:	f2 0f 59 ce                 	(arith) 	mulsd	%xmm6,%xmm1
  402c68:	66 44 0f 28 c0              	(move)  	movapd	%xmm0,%xmm8
  402c6d:	f2 44 0f 59 c4              	(arith) 	mulsd	%xmm4,%xmm8
  402c72:	f2 41 0f 5c c8              	(arith) 	subsd	%xmm8,%xmm1
  402c77:	f2 0f 58 ca                 	(arith) 	addsd	%xmm2,%xmm1
  402c7b:	f2 0f 59 cb                 	(arith) 	mulsd	%xmm3,%xmm1
  402c7f:	f2 44 0f 10 82 28 83 41 08  	(move)  	movsd	0x8418328(%rdx),%xmm8
  402c88:	f2 44 0f 5c c1              	(arith) 	subsd	%xmm1,%xmm8
  402c8d:	f2 44 0f 11 82 28 83 41 08  	(move)  	movsd	%xmm8,0x8418328(%rdx)
/home/jcsalinas/Documents/pruebas/inst_estimation_module/BT/exact_rhs.f:107
  402c96:	f2 0f 59 c5                 	(arith) 	mulsd	%xmm5,%xmm0
  402c9a:	f2 0f 59 fc                 	(arith) 	mulsd	%xmm4,%xmm7
  402c9e:	f2 0f 5c c7                 	(arith) 	subsd	%xmm7,%xmm0
  402ca2:	f2 0f 59 d4                 	(arith) 	mulsd	%xmm4,%xmm2
  402ca6:	f2 0f 5c c2                 	(arith) 	subsd	%xmm2,%xmm0
  402caa:	f2 0f 58 80 90 06 00 00     	(arith) 	addsd	0x690(%rax),%xmm0
  402cb2:	f2 0f 59 c3                 	(arith) 	mulsd	%xmm3,%xmm0
  402cb6:	f2 0f 10 8a 50 83 41 08     	(move)  	movsd	0x8418350(%rdx),%xmm1
  402cbe:	f2 0f 5c c8                 	(arith) 	subsd	%xmm0,%xmm1
  402cc2:	f2 0f 11 8a 50 83 41 08     	(move)  	movsd	%xmm1,0x8418350(%rdx)
  402cca:	48 83 c2 08                 	(arith) 	add	$0x8,%rdx
  402cce:	48 05 38 03 00 00           	(arith) 	add	$0x338,%rax
/home/jcsalinas/Documents/pruebas/inst_estimation_module/BT/exact_rhs.f:100
  402cd4:	48 39 c1                    	(arith) 	cmp	%rax,%rcx
  402cd7:	0f 85 6b ff ff ff           	(control)	jne	402c48 <exact_rhs_+0x739>	; ↰ label 298 (loop 61)
; ------- Loop 61 exit
299:	
/home/jcsalinas/Documents/pruebas/inst_estimation_module/BT/exact_rhs.f:110
  402cdd:	45 8d 73 fc                 	(arith) 	lea	-0x4(%r11),%r14d
  402ce1:	41 83 fe 02                 	(arith) 	cmp	$0x2,%r14d
  402ce5:	0f 8e bb 00 00 00           	(control)	jle	402da6 <exact_rhs_+0x897>	; ↲ label 300
301:	
  402ceb:	4e 8d 0c fd 78 16 61 00     	(arith) 	lea	0x611678(,%r15,8),%r9
  402cf3:	41 b8 18 12 37 0b           	(move)  	mov	$0xb371218,%r8d
  402cf9:	41 8d 43 f9                 	(arith) 	lea	-0x7(%r11),%eax
  402cfd:	4c 8d 14 c5 20 12 37 0b     	(arith) 	lea	0xb371220(,%rax,8),%r10
  402d05:	b9 03 00 00 00              	(move)  	mov	$0x3,%ecx
/home/jcsalinas/Documents/pruebas/inst_estimation_module/BT/exact_rhs.f:114
  402d0a:	f2 0f 10 15 46 c1 00 00     	(move)  	movsd	0xc146(%rip),%xmm2
  402d12:	f2 0f 10 25 46 c1 00 00     	(move)  	movsd	0xc146(%rip),%xmm4
; ------- Loop 65 entry
302 (loop 65):	
  402d1a:	49 8d b8 18 10 00 00        	(arith) 	lea	0x1018(%r8),%rdi
  402d21:	4c 89 c0                    	(move)  	mov	%r8,%rax
  402d24:	4c 89 ca                    	(move)  	mov	%r9,%rdx
; ------- Loop 64 entry
303 (loop 64):	
  402d27:	48 8d 71 01                 	(arith) 	lea	0x1(%rcx),%rsi
  402d2b:	66 0f 28 ca                 	(move)  	movapd	%xmm2,%xmm1
  402d2f:	f2 0f 59 88 68 06 00 00     	(arith) 	mulsd	0x668(%rax),%xmm1
  402d37:	f2 0f 10 80 60 06 00 00     	(move)  	movsd	0x660(%rax),%xmm0
  402d3f:	f2 0f 5c c1                 	(arith) 	subsd	%xmm1,%xmm0
  402d43:	66 0f 28 cc                 	(move)  	movapd	%xmm4,%xmm1
  402d47:	f2 0f 59 88 70 06 00 00     	(arith) 	mulsd	0x670(%rax),%xmm1
  402d4f:	f2 0f 58 c1                 	(arith) 	addsd	%xmm1,%xmm0
  402d53:	66 0f 28 ca                 	(move)  	movapd	%xmm2,%xmm1
  402d57:	f2 0f 59 88 78 06 00 00     	(arith) 	mulsd	0x678(%rax),%xmm1
  402d5f:	f2 0f 5c c1                 	(arith) 	subsd	%xmm1,%xmm0
  402d63:	f2 0f 58 80 80 06 00 00     	(arith) 	addsd	0x680(%rax),%xmm0
  402d6b:	f2 0f 59 c3                 	(arith) 	mulsd	%xmm3,%xmm0
  402d6f:	f2 0f 10 8a 00 83 41 08     	(move)  	movsd	0x8418300(%rdx),%xmm1
  402d77:	f2 0f 5c c8                 	(arith) 	subsd	%xmm0,%xmm1
  402d7b:	f2 0f 11 8a 00 83 41 08     	(move)  	movsd	%xmm1,0x8418300(%rdx)
  402d83:	48 83 c2 08                 	(arith) 	add	$0x8,%rdx
  402d87:	48 05 38 03 00 00           	(arith) 	add	$0x338,%rax
/home/jcsalinas/Documents/pruebas/inst_estimation_module/BT/exact_rhs.f:111
  402d8d:	48 39 f8                    	(arith) 	cmp	%rdi,%rax
  402d90:	75 95                       	(control)	jne	402d27 <exact_rhs_+0x818>	; ↰ label 303 (loop 64)
; ------- Loop 64 exit
304:	
  402d92:	49 83 c1 28                 	(arith) 	add	$0x28,%r9
  402d96:	49 83 c0 08                 	(arith) 	add	$0x8,%r8
  402d9a:	48 89 f1                    	(move)  	mov	%rsi,%rcx
/home/jcsalinas/Documents/pruebas/inst_estimation_module/BT/exact_rhs.f:110
  402d9d:	4d 39 d0                    	(arith) 	cmp	%r10,%r8
  402da0:	0f 85 74 ff ff ff           	(control)	jne	402d1a <exact_rhs_+0x80b>	; ↰ label 302 (loop 65)
; ------- Loop 65 exit
300:	
/home/jcsalinas/Documents/pruebas/inst_estimation_module/BT/exact_rhs.f:119
  402da6:	41 8d 7b fd                 	(arith) 	lea	-0x3(%r11),%edi
/home/jcsalinas/Documents/pruebas/inst_estimation_module/BT/exact_rhs.f:122
  402daa:	48 63 c7                    	(move)  	movsxd	%edi,%rax
  402dad:	48 8d 04 80                 	(arith) 	lea	(%rax,%rax,4),%rax
  402db1:	49 8d 34 07                 	(arith) 	lea	(%r15,%rax,1),%rsi
  402db5:	49 8d 4c 07 05              	(arith) 	lea	0x5(%r15,%rax,1),%rcx
  402dba:	48 8d 14 cd 00 16 61 00     	(arith) 	lea	0x611600(,%rcx,8),%rdx
/home/jcsalinas/Documents/pruebas/inst_estimation_module/BT/exact_rhs.f:125
  402dc2:	b8 00 00 00 00              	(move)  	mov	$0,%eax
  402dc7:	48 29 ce                    	(arith) 	sub	%rcx,%rsi
/home/jcsalinas/Documents/pruebas/inst_estimation_module/BT/exact_rhs.f:122
  402dca:	4d 63 f6                    	(move)  	movsxd	%r14d,%r14
  402dcd:	48 63 ff                    	(move)  	movsxd	%edi,%rdi
  402dd0:	4d 63 ed                    	(move)  	movsxd	%r13d,%r13
  402dd3:	41 8d 4b fb                 	(arith) 	lea	-0x5(%r11),%ecx
  402dd7:	48 63 c9                    	(move)  	movsxd	%ecx,%rcx
  402dda:	f2 0f 10 2d 76 c0 00 00     	(move)  	movsd	0xc076(%rip),%xmm5
  402de2:	f2 0f 10 3d 76 c0 00 00     	(move)  	movsd	0xc076(%rip),%xmm7
/home/jcsalinas/Documents/pruebas/inst_estimation_module/BT/exact_rhs.f:125
  402dea:	f2 0f 10 35 5e c0 00 00     	(move)  	movsd	0xc05e(%rip),%xmm6
; ------- Loop 62 entry
305 (loop 62):	
/home/jcsalinas/Documents/pruebas/inst_estimation_module/BT/exact_rhs.f:122
  402df2:	f2 42 0f 10 a4 f0 70 18 37 0b	(move)  	movsd	0xb371870(%rax,%r14,8),%xmm4
  402dfc:	f2 44 0f 10 84 f8 70 18 37 0b	(move)  	movsd	0xb371870(%rax,%rdi,8),%xmm8
  402e06:	f2 42 0f 10 84 e8 70 18 37 0b	(move)  	movsd	0xb371870(%rax,%r13,8),%xmm0
  402e10:	66 0f 28 d4                 	(move)  	movapd	%xmm4,%xmm2
  402e14:	f2 0f 59 d5                 	(arith) 	mulsd	%xmm5,%xmm2
  402e18:	f2 0f 10 8c c8 70 18 37 0b  	(move)  	movsd	0xb371870(%rax,%rcx,8),%xmm1
  402e21:	f2 0f 5c ca                 	(arith) 	subsd	%xmm2,%xmm1
  402e25:	66 41 0f 28 d0              	(move)  	movapd	%xmm8,%xmm2
  402e2a:	f2 0f 59 d7                 	(arith) 	mulsd	%xmm7,%xmm2
  402e2e:	f2 0f 58 ca                 	(arith) 	addsd	%xmm2,%xmm1
  402e32:	66 0f 28 d0                 	(move)  	movapd	%xmm0,%xmm2
  402e36:	f2 0f 59 d5                 	(arith) 	mulsd	%xmm5,%xmm2
  402e3a:	f2 0f 5c ca                 	(arith) 	subsd	%xmm2,%xmm1
  402e3e:	f2 0f 59 cb                 	(arith) 	mulsd	%xmm3,%xmm1
  402e42:	f2 0f 10 94 f2 00 83 41 08  	(move)  	movsd	0x8418300(%rdx,%rsi,8),%xmm2
  402e4b:	f2 0f 5c d1                 	(arith) 	subsd	%xmm1,%xmm2
  402e4f:	f2 0f 11 94 f2 00 83 41 08  	(move)  	movsd	%xmm2,0x8418300(%rdx,%rsi,8)
/home/jcsalinas/Documents/pruebas/inst_estimation_module/BT/exact_rhs.f:125
  402e58:	f2 44 0f 59 c5              	(arith) 	mulsd	%xmm5,%xmm8
  402e5d:	f2 41 0f 5c e0              	(arith) 	subsd	%xmm8,%xmm4
  402e62:	f2 0f 59 c6                 	(arith) 	mulsd	%xmm6,%xmm0
  402e66:	f2 0f 58 c4                 	(arith) 	addsd	%xmm4,%xmm0
  402e6a:	f2 0f 59 c3                 	(arith) 	mulsd	%xmm3,%xmm0
  402e6e:	f2 0f 10 8a 00 83 41 08     	(move)  	movsd	0x8418300(%rdx),%xmm1
  402e76:	f2 0f 5c c8                 	(arith) 	subsd	%xmm0,%xmm1
  402e7a:	f2 0f 11 8a 00 83 41 08     	(move)  	movsd	%xmm1,0x8418300(%rdx)
  402e82:	48 05 38 03 00 00           	(arith) 	add	$0x338,%rax
  402e88:	48 83 c2 08                 	(arith) 	add	$0x8,%rdx
/home/jcsalinas/Documents/pruebas/inst_estimation_module/BT/exact_rhs.f:118
  402e8c:	48 3d 18 10 00 00           	(arith) 	cmp	$0x1018,%rax
  402e92:	0f 85 5a ff ff ff           	(control)	jne	402df2 <exact_rhs_+0x8e3>	; ↰ label 305 (loop 62)
; ------- Loop 62 exit
306:	
/home/jcsalinas/Documents/pruebas/inst_estimation_module/BT/exact_rhs.f:37
  402e98:	83 c3 01                    	(arith) 	add	$0x1,%ebx
  402e9b:	39 5c 24 58                 	(arith) 	cmp	%ebx,0x58(%rsp)
  402e9f:	0f 85 8a f7 ff ff           	(control)	jne	40262f <exact_rhs_+0x120>	; ↰ label 286 (loop 63)
; ------- Loop 63 exit
284:	
/home/jcsalinas/Documents/pruebas/inst_estimation_module/BT/exact_rhs.f:35
  402ea5:	83 44 24 44 01              	(arith) 	addl	$0x1,0x44(%rsp)
  402eaa:	8b 44 24 44                 	(move)  	mov	0x44(%rsp),%eax
  402eae:	3b 44 24 48                 	(arith) 	cmp	0x48(%rsp),%eax
  402eb2:	0f 85 36 f7 ff ff           	(control)	jne	4025ee <exact_rhs_+0xdf>	; ↰ label 283 (loop 50)
; ------- Loop 50 exit
307:	
/home/jcsalinas/Documents/pruebas/inst_estimation_module/BT/exact_rhs.f:134
  402eb8:	8b 05 32 e7 20 00           	(move)  	mov	0x20e732(%rip),%eax
  402ebe:	8d 50 fe                    	(arith) 	lea	-0x2(%rax),%edx
  402ec1:	85 d2                       	(arith) 	test	%edx,%edx
  402ec3:	0f 8e dd 12 00 00           	(control)	jle	4041a6 <exact_rhs_+0x1c97>	; ↲ label 308
309:	
  402ec9:	83 e8 01                    	(arith) 	sub	$0x1,%eax
  402ecc:	89 44 24 5c                 	(move)  	mov	%eax,0x5c(%rsp)
  402ed0:	c7 44 24 44 01 00 00 00     	(move)  	movl	$0x1,0x44(%rsp)
  402ed8:	4c 8d a4 24 a0 00 00 00     	(arith) 	lea	0xa0(%rsp),%r12
; ------- Loop 51 entry
310 (loop 51):	
/home/jcsalinas/Documents/pruebas/inst_estimation_module/BT/exact_rhs.f:135
  402ee0:	8b 5c 24 44                 	(move)  	mov	0x44(%rsp),%ebx
  402ee4:	66 0f ef c0                 	(logic) 	pxor	%xmm0,%xmm0
  402ee8:	f2 0f 2a c3                 	(conv)  	cvtsi2sd	%ebx,%xmm0
  402eec:	f2 0f 59 05 dc e5 20 00     	(arith) 	mulsd	0x20e5dc(%rip),%xmm0
  402ef4:	f2 0f 11 44 24 68           	(move)  	movsd	%xmm0,0x68(%rsp)
/home/jcsalinas/Documents/pruebas/inst_estimation_module/BT/exact_rhs.f:136
  402efa:	8b 05 e8 e6 20 00           	(move)  	mov	0x20e6e8(%rip),%eax
  402f00:	8d 50 fe                    	(arith) 	lea	-0x2(%rax),%edx
  402f03:	85 d2                       	(arith) 	test	%edx,%edx
  402f05:	0f 8e af 08 00 00           	(control)	jle	4037ba <exact_rhs_+0x12ab>	; ↲ label 311
312:	
/home/jcsalinas/Documents/pruebas/inst_estimation_module/BT/exact_rhs.f:166
  402f0b:	48 63 eb                    	(move)  	movsxd	%ebx,%rbp
  402f0e:	48 69 ed 35 cf 00 00        	(arith) 	imul	$0xcf35,%rbp,%rbp
/home/jcsalinas/Documents/pruebas/inst_estimation_module/BT/exact_rhs.f:200
  402f15:	48 8d 9d 03 02 00 00        	(arith) 	lea	0x203(%rbp),%rbx
  402f1c:	48 89 5c 24 48              	(move)  	mov	%rbx,0x48(%rsp)
/home/jcsalinas/Documents/pruebas/inst_estimation_module/BT/exact_rhs.f:204
  402f21:	48 8d 9d 06 04 00 00        	(arith) 	lea	0x406(%rbp),%rbx
  402f28:	48 89 5c 24 50              	(move)  	mov	%rbx,0x50(%rsp)
  402f2d:	83 e8 01                    	(arith) 	sub	$0x1,%eax
  402f30:	89 44 24 58                 	(move)  	mov	%eax,0x58(%rsp)
  402f34:	bb 01 00 00 00              	(move)  	mov	$0x1,%ebx
; ------- Loop 54 entry
313 (loop 54):	
/home/jcsalinas/Documents/pruebas/inst_estimation_module/BT/exact_rhs.f:137
  402f39:	66 0f ef c0                 	(logic) 	pxor	%xmm0,%xmm0
  402f3d:	f2 0f 2a c3                 	(conv)  	cvtsi2sd	%ebx,%xmm0
  402f41:	f2 0f 59 05 77 e5 20 00     	(arith) 	mulsd	0x20e577(%rip),%xmm0
  402f49:	f2 0f 11 44 24 70           	(move)  	movsd	%xmm0,0x70(%rsp)
/home/jcsalinas/Documents/pruebas/inst_estimation_module/BT/exact_rhs.f:139
  402f4f:	44 8b 35 96 e6 20 00        	(move)  	mov	0x20e696(%rip),%r14d
  402f56:	44 89 f0                    	(move)  	mov	%r14d,%eax
  402f59:	83 e8 01                    	(arith) 	sub	$0x1,%eax
  402f5c:	0f 88 65 01 00 00           	(control)	js	4030c7 <exact_rhs_+0xbb8>	; ↲ label 314
315:	
  402f62:	41 bd 00 00 00 00           	(move)  	mov	$0,%r13d
; ------- Loop 60 entry
316 (loop 60):	
/home/jcsalinas/Documents/pruebas/inst_estimation_module/BT/exact_rhs.f:140
  402f68:	66 0f ef c0                 	(logic) 	pxor	%xmm0,%xmm0
  402f6c:	f2 41 0f 2a c5              	(conv)  	cvtsi2sd	%r13d,%xmm0
  402f71:	f2 0f 59 05 4f e5 20 00     	(arith) 	mulsd	0x20e54f(%rip),%xmm0
  402f79:	f2 0f 11 44 24 78           	(move)  	movsd	%xmm0,0x78(%rsp)
/home/jcsalinas/Documents/pruebas/inst_estimation_module/BT/exact_rhs.f:142
  402f7f:	48 8d 8c 24 80 00 00 00     	(arith) 	lea	0x80(%rsp),%rcx
  402f87:	48 8d 54 24 68              	(arith) 	lea	0x68(%rsp),%rdx
  402f8c:	48 8d 74 24 78              	(arith) 	lea	0x78(%rsp),%rsi
  402f91:	48 8d 7c 24 70              	(arith) 	lea	0x70(%rsp),%rdi
  402f96:	b8 00 00 00 00              	(move)  	mov	$0,%eax
  402f9b:	e8 92 f4 ff ff              	(control)	call	402432 <exact_solution_>	; ⇄ exact_solution
317:	
  402fa0:	48 8d 94 24 80 00 00 00     	(arith) 	lea	0x80(%rsp),%rdx
  402fa8:	49 63 c5                    	(move)  	movsxd	%r13d,%rax
  402fab:	48 8d 34 c5 00 12 37 0b     	(arith) 	lea	0xb371200(,%rax,8),%rsi
  402fb3:	48 89 d0                    	(move)  	mov	%rdx,%rax
  402fb6:	4c 8d 4a 28                 	(arith) 	lea	0x28(%rdx),%r9
  402fba:	48 89 f1                    	(move)  	mov	%rsi,%rcx
/home/jcsalinas/Documents/pruebas/inst_estimation_module/BT/exact_rhs.f:144
  402fbd:	4d 63 c5                    	(move)  	movsxd	%r13d,%r8
; ------- Loop 58 entry
318 (loop 58):	
  402fc0:	4c 89 c7                    	(move)  	mov	%r8,%rdi
  402fc3:	f2 0f 10 00                 	(move)  	movsd	(%rax),%xmm0
  402fc7:	f2 0f 11 81 70 06 00 00     	(move)  	movsd	%xmm0,0x670(%rcx)
  402fcf:	48 83 c0 08                 	(arith) 	add	$0x8,%rax
  402fd3:	48 81 c1 38 03 00 00        	(arith) 	add	$0x338,%rcx
/home/jcsalinas/Documents/pruebas/inst_estimation_module/BT/exact_rhs.f:143
  402fda:	4c 39 c8                    	(arith) 	cmp	%r9,%rax
  402fdd:	75 e1                       	(control)	jne	402fc0 <exact_rhs_+0xab1>	; ↰ label 318 (loop 58)
; ------- Loop 58 exit
319:	
/home/jcsalinas/Documents/pruebas/inst_estimation_module/BT/exact_rhs.f:147
  402fdf:	f2 0f 10 0d 49 be 00 00     	(move)  	movsd	0xbe49(%rip),%xmm1
  402fe7:	f2 0f 5e 8c 24 80 00 00 00  	(arith) 	divsd	0x80(%rsp),%xmm1
; ------- Loop 59 entry
320 (loop 59):	
/home/jcsalinas/Documents/pruebas/inst_estimation_module/BT/exact_rhs.f:150
  402ff0:	66 0f 28 c1                 	(move)  	movapd	%xmm1,%xmm0
  402ff4:	f2 0f 59 42 08              	(arith) 	mulsd	0x8(%rdx),%xmm0
  402ff9:	f2 0f 11 86 c0 19 00 00     	(move)  	movsd	%xmm0,0x19c0(%rsi)
  403001:	48 83 c2 08                 	(arith) 	add	$0x8,%rdx
  403005:	48 81 c6 38 03 00 00        	(arith) 	add	$0x338,%rsi
/home/jcsalinas/Documents/pruebas/inst_estimation_module/BT/exact_rhs.f:149
  40300c:	4c 39 e2                    	(arith) 	cmp	%r12,%rdx
  40300f:	75 df                       	(control)	jne	402ff0 <exact_rhs_+0xae1>	; ↰ label 320 (loop 59)
; ------- Loop 59 exit
321:	
/home/jcsalinas/Documents/pruebas/inst_estimation_module/BT/exact_rhs.f:153
  403011:	48 8d 97 9f 03 00 00        	(arith) 	lea	0x39f(%rdi),%rdx
  403018:	f2 0f 10 04 d5 00 12 37 0b  	(move)  	movsd	0xb371200(,%rdx,8),%xmm0
  403021:	f2 0f 59 c0                 	(arith) 	mulsd	%xmm0,%xmm0
  403025:	f2 0f 11 04 fd 00 12 37 0b  	(move)  	movsd	%xmm0,0xb371200(,%rdi,8)
/home/jcsalinas/Documents/pruebas/inst_estimation_module/BT/exact_rhs.f:155
  40302e:	48 8d 8f 38 03 00 00        	(arith) 	lea	0x338(%rdi),%rcx
  403035:	f2 0f 10 14 cd 00 12 37 0b  	(move)  	movsd	0xb371200(,%rcx,8),%xmm2
  40303e:	48 8d 87 06 04 00 00        	(arith) 	lea	0x406(%rdi),%rax
  403045:	f2 0f 10 0c c5 00 12 37 0b  	(move)  	movsd	0xb371200(,%rax,8),%xmm1
  40304e:	f2 0f 59 d2                 	(arith) 	mulsd	%xmm2,%xmm2
  403052:	f2 0f 58 c2                 	(arith) 	addsd	%xmm2,%xmm0
  403056:	f2 0f 59 c9                 	(arith) 	mulsd	%xmm1,%xmm1
  40305a:	f2 0f 58 c1                 	(arith) 	addsd	%xmm1,%xmm0
  40305e:	f2 0f 11 04 fd 88 28 37 0b  	(move)  	movsd	%xmm0,0xb372888(,%rdi,8)
/home/jcsalinas/Documents/pruebas/inst_estimation_module/BT/exact_rhs.f:157
  403067:	f2 0f 10 04 cd 00 12 37 0b  	(move)  	movsd	0xb371200(,%rcx,8),%xmm0
  403070:	f2 0f 59 04 fd a8 1b 37 0b  	(arith) 	mulsd	0xb371ba8(,%rdi,8),%xmm0
  403079:	66 0f 28 c8                 	(move)  	movapd	%xmm0,%xmm1
  40307d:	f2 0f 10 04 d5 00 12 37 0b  	(move)  	movsd	0xb371200(,%rdx,8),%xmm0
  403086:	f2 0f 59 04 fd e0 1e 37 0b  	(arith) 	mulsd	0xb371ee0(,%rdi,8),%xmm0
  40308f:	f2 0f 58 c1                 	(arith) 	addsd	%xmm1,%xmm0
  403093:	f2 0f 10 0c c5 00 12 37 0b  	(move)  	movsd	0xb371200(,%rax,8),%xmm1
  40309c:	f2 0f 59 0c fd 18 22 37 0b  	(arith) 	mulsd	0xb372218(,%rdi,8),%xmm1
  4030a5:	f2 0f 58 c1                 	(arith) 	addsd	%xmm1,%xmm0
  4030a9:	f2 0f 59 05 97 bd 00 00     	(arith) 	mulsd	0xbd97(%rip),%xmm0
  4030b1:	f2 0f 11 04 fd 38 15 37 0b  	(move)  	movsd	%xmm0,0xb371538(,%rdi,8)
/home/jcsalinas/Documents/pruebas/inst_estimation_module/BT/exact_rhs.f:139
  4030ba:	41 83 c5 01                 	(arith) 	add	$0x1,%r13d
  4030be:	45 39 ee                    	(arith) 	cmp	%r13d,%r14d
  4030c1:	0f 85 a1 fe ff ff           	(control)	jne	402f68 <exact_rhs_+0xa59>	; ↰ label 316 (loop 60)
; ------- Loop 60 exit
314:	
/home/jcsalinas/Documents/pruebas/inst_estimation_module/BT/exact_rhs.f:160
  4030c7:	44 8b 1d 1e e5 20 00        	(move)  	mov	0x20e51e(%rip),%r11d
  4030ce:	45 8d 6b fe                 	(arith) 	lea	-0x2(%r11),%r13d
  4030d2:	45 85 ed                    	(arith) 	test	%r13d,%r13d
  4030d5:	0f 8e 14 04 00 00           	(control)	jle	4034ef <exact_rhs_+0xfe0>	; ↲ label 322
323:	
/home/jcsalinas/Documents/pruebas/inst_estimation_module/BT/exact_rhs.f:5
  4030db:	f2 0f 10 3d 1d e0 20 00     	(move)  	movsd	0x20e01d(%rip),%xmm7
  4030e3:	f2 0f 10 2d 5d e3 20 00     	(move)  	movsd	0x20e35d(%rip),%xmm5
  4030eb:	f2 0f 11 2c 24              	(move)  	movsd	%xmm5,(%rsp)
  4030f0:	f2 44 0f 10 25 2f e3 20 00  	(move)  	movsd	0x20e32f(%rip),%xmm12
  4030f9:	f2 0f 10 2d 4f e3 20 00     	(move)  	movsd	0x20e34f(%rip),%xmm5
  403101:	f2 0f 11 6c 24 08           	(move)  	movsd	%xmm5,0x8(%rsp)
  403107:	f2 44 0f 10 15 f8 e3 20 00  	(move)  	movsd	0x20e3f8(%rip),%xmm10
  403110:	f2 0f 10 2d 08 e3 20 00     	(move)  	movsd	0x20e308(%rip),%xmm5
  403118:	f2 0f 11 6c 24 10           	(move)  	movsd	%xmm5,0x10(%rsp)
  40311e:	f2 0f 10 2d 32 e3 20 00     	(move)  	movsd	0x20e332(%rip),%xmm5
  403126:	f2 0f 11 6c 24 18           	(move)  	movsd	%xmm5,0x18(%rsp)
  40312c:	f2 0f 10 2d 2c e3 20 00     	(move)  	movsd	0x20e32c(%rip),%xmm5
  403134:	f2 0f 11 6c 24 20           	(move)  	movsd	%xmm5,0x20(%rsp)
  40313a:	f2 44 0f 10 1d bd e3 20 00  	(move)  	movsd	0x20e3bd(%rip),%xmm11
/home/jcsalinas/Documents/pruebas/inst_estimation_module/BT/exact_rhs.f:191
  403143:	f2 44 0f 10 2d fc bc 00 00  	(move)  	movsd	0xbcfc(%rip),%xmm13
  40314c:	f2 44 0f 59 2d db e2 20 00  	(arith) 	mulsd	0x20e2db(%rip),%xmm13
/home/jcsalinas/Documents/pruebas/inst_estimation_module/BT/exact_rhs.f:5
  403155:	f2 0f 10 2d db e2 20 00     	(move)  	movsd	0x20e2db(%rip),%xmm5
  40315d:	f2 0f 11 6c 24 28           	(move)  	movsd	%xmm5,0x28(%rsp)
  403163:	f2 0f 10 2d d5 e2 20 00     	(move)  	movsd	0x20e2d5(%rip),%xmm5
  40316b:	f2 0f 11 6c 24 30           	(move)  	movsd	%xmm5,0x30(%rsp)
  403171:	f2 0f 10 2d ef e2 20 00     	(move)  	movsd	0x20e2ef(%rip),%xmm5
  403179:	f2 0f 11 6c 24 38           	(move)  	movsd	%xmm5,0x38(%rsp)
  40317f:	48 63 c3                    	(move)  	movsxd	%ebx,%rax
  403182:	48 8d 04 80                 	(arith) 	lea	(%rax,%rax,4),%rax
  403186:	48 01 e8                    	(arith) 	add	%rbp,%rax
  403189:	48 8d 14 c5 00 16 61 00     	(arith) 	lea	0x611600(,%rax,8),%rdx
  403191:	b8 00 12 37 0b              	(move)  	mov	$0xb371200,%eax
  403196:	41 8d 73 ff                 	(arith) 	lea	-0x1(%r11),%esi
  40319a:	b9 01 00 00 00              	(move)  	mov	$0x1,%ecx
; ------- Loop 57 entry
324 (loop 57):	
/home/jcsalinas/Documents/pruebas/inst_estimation_module/BT/exact_rhs.f:162
  40319f:	83 c1 01                    	(arith) 	add	$0x1,%ecx
/home/jcsalinas/Documents/pruebas/inst_estimation_module/BT/exact_rhs.f:166
  4031a2:	f2 0f 10 b0 f0 0c 00 00     	(move)  	movsd	0xcf0(%rax),%xmm6
  4031aa:	f2 0f 10 88 e0 0c 00 00     	(move)  	movsd	0xce0(%rax),%xmm1
  4031b2:	f2 0f 10 90 78 06 00 00     	(move)  	movsd	0x678(%rax),%xmm2
  4031ba:	f2 0f 58 d2                 	(arith) 	addsd	%xmm2,%xmm2
  4031be:	f2 0f 10 80 80 06 00 00     	(move)  	movsd	0x680(%rax),%xmm0
  4031c6:	f2 0f 5c c2                 	(arith) 	subsd	%xmm2,%xmm0
  4031ca:	f2 0f 58 80 70 06 00 00     	(arith) 	addsd	0x670(%rax),%xmm0
  4031d2:	f2 0f 59 04 24              	(arith) 	mulsd	(%rsp),%xmm0
  4031d7:	66 0f 28 de                 	(move)  	movapd	%xmm6,%xmm3
  4031db:	f2 0f 5c d9                 	(arith) 	subsd	%xmm1,%xmm3
  4031df:	f2 0f 59 df                 	(arith) 	mulsd	%xmm7,%xmm3
  4031e3:	f2 0f 10 92 18 93 41 08     	(move)  	movsd	0x8419318(%rdx),%xmm2
  4031eb:	f2 0f 5c d3                 	(arith) 	subsd	%xmm3,%xmm2
  4031ef:	f2 0f 58 d0                 	(arith) 	addsd	%xmm0,%xmm2
  4031f3:	f2 0f 11 92 18 93 41 08     	(move)  	movsd	%xmm2,0x8419318(%rdx)
/home/jcsalinas/Documents/pruebas/inst_estimation_module/BT/exact_rhs.f:171
  4031fb:	f2 44 0f 10 88 b8 09 00 00  	(move)  	movsd	0x9b8(%rax),%xmm9
  403204:	f2 0f 10 a8 08 1d 00 00     	(move)  	movsd	0x1d08(%rax),%xmm5
  40320c:	f2 0f 10 80 a8 09 00 00     	(move)  	movsd	0x9a8(%rax),%xmm0
  403214:	f2 0f 10 90 f8 1c 00 00     	(move)  	movsd	0x1cf8(%rax),%xmm2
  40321c:	f2 0f 10 a0 c8 19 00 00     	(move)  	movsd	0x19c8(%rax),%xmm4
  403224:	f2 0f 58 e4                 	(arith) 	addsd	%xmm4,%xmm4
  403228:	f2 0f 10 98 d0 19 00 00     	(move)  	movsd	0x19d0(%rax),%xmm3
  403230:	f2 0f 5c dc                 	(arith) 	subsd	%xmm4,%xmm3
  403234:	f2 0f 58 98 c0 19 00 00     	(arith) 	addsd	0x19c0(%rax),%xmm3
  40323c:	f2 41 0f 59 dc              	(arith) 	mulsd	%xmm12,%xmm3
  403241:	66 45 0f 28 c1              	(move)  	movapd	%xmm9,%xmm8
  403246:	f2 44 0f 59 c5              	(arith) 	mulsd	%xmm5,%xmm8
  40324b:	66 0f 28 e0                 	(move)  	movapd	%xmm0,%xmm4
  40324f:	f2 0f 59 e2                 	(arith) 	mulsd	%xmm2,%xmm4
  403253:	f2 44 0f 5c c4              	(arith) 	subsd	%xmm4,%xmm8
  403258:	f2 44 0f 59 c7              	(arith) 	mulsd	%xmm7,%xmm8
  40325d:	f2 0f 10 a2 20 93 41 08     	(move)  	movsd	0x8419320(%rdx),%xmm4
  403265:	f2 41 0f 5c e0              	(arith) 	subsd	%xmm8,%xmm4
  40326a:	f2 0f 58 dc                 	(arith) 	addsd	%xmm4,%xmm3
  40326e:	f2 0f 10 a0 b0 09 00 00     	(move)  	movsd	0x9b0(%rax),%xmm4
  403276:	f2 0f 58 e4                 	(arith) 	addsd	%xmm4,%xmm4
  40327a:	f2 44 0f 5c cc              	(arith) 	subsd	%xmm4,%xmm9
  40327f:	f2 44 0f 58 c8              	(arith) 	addsd	%xmm0,%xmm9
  403284:	f2 44 0f 59 4c 24 08        	(arith) 	mulsd	0x8(%rsp),%xmm9
  40328b:	f2 41 0f 58 d9              	(arith) 	addsd	%xmm9,%xmm3
  403290:	f2 0f 11 9a 20 93 41 08     	(move)  	movsd	%xmm3,0x8419320(%rdx)
/home/jcsalinas/Documents/pruebas/inst_estimation_module/BT/exact_rhs.f:177
  403298:	f2 0f 10 a0 60 13 00 00     	(move)  	movsd	0x1360(%rax),%xmm4
  4032a0:	f2 44 0f 10 88 48 03 00 00  	(move)  	movsd	0x348(%rax),%xmm9
  4032a9:	f2 0f 10 80 50 13 00 00     	(move)  	movsd	0x1350(%rax),%xmm0
  4032b1:	f2 44 0f 10 80 38 03 00 00  	(move)  	movsd	0x338(%rax),%xmm8
  4032ba:	66 0f 28 dc                 	(move)  	movapd	%xmm4,%xmm3
  4032be:	f2 41 0f 5c d9              	(arith) 	subsd	%xmm9,%xmm3
  4032c3:	f2 41 0f 59 da              	(arith) 	mulsd	%xmm10,%xmm3
  4032c8:	66 44 0f 28 f6              	(move)  	movapd	%xmm6,%xmm14
  4032cd:	f2 44 0f 59 f5              	(arith) 	mulsd	%xmm5,%xmm14
  4032d2:	f2 41 0f 58 de              	(arith) 	addsd	%xmm14,%xmm3
  4032d7:	66 44 0f 28 f8              	(move)  	movapd	%xmm0,%xmm15
  4032dc:	f2 45 0f 5c f8              	(arith) 	subsd	%xmm8,%xmm15
  4032e1:	f2 45 0f 59 fa              	(arith) 	mulsd	%xmm10,%xmm15
  4032e6:	66 44 0f 28 f1              	(move)  	movapd	%xmm1,%xmm14
  4032eb:	f2 44 0f 59 f2              	(arith) 	mulsd	%xmm2,%xmm14
  4032f0:	f2 45 0f 58 f7              	(arith) 	addsd	%xmm15,%xmm14
  4032f5:	f2 41 0f 5c de              	(arith) 	subsd	%xmm14,%xmm3
  4032fa:	f2 0f 59 df                 	(arith) 	mulsd	%xmm7,%xmm3
  4032fe:	66 44 0f 28 fb              	(move)  	movapd	%xmm3,%xmm15
  403303:	f2 0f 10 9a 28 93 41 08     	(move)  	movsd	0x8419328(%rdx),%xmm3
  40330b:	f2 41 0f 5c df              	(arith) 	subsd	%xmm15,%xmm3
  403310:	66 44 0f 28 f3              	(move)  	movapd	%xmm3,%xmm14
  403315:	f2 0f 10 98 00 1d 00 00     	(move)  	movsd	0x1d00(%rax),%xmm3
  40331d:	f2 0f 58 db                 	(arith) 	addsd	%xmm3,%xmm3
  403321:	66 44 0f 28 fd              	(move)  	movapd	%xmm5,%xmm15
  403326:	f2 44 0f 5c fb              	(arith) 	subsd	%xmm3,%xmm15
  40332b:	66 41 0f 28 df              	(move)  	movapd	%xmm15,%xmm3
  403330:	f2 0f 58 da                 	(arith) 	addsd	%xmm2,%xmm3
  403334:	f2 0f 59 5c 24 10           	(arith) 	mulsd	0x10(%rsp),%xmm3
  40333a:	f2 41 0f 58 de              	(arith) 	addsd	%xmm14,%xmm3
  40333f:	f2 44 0f 10 b0 e8 0c 00 00  	(move)  	movsd	0xce8(%rax),%xmm14
  403348:	f2 45 0f 58 f6              	(arith) 	addsd	%xmm14,%xmm14
  40334d:	f2 41 0f 5c f6              	(arith) 	subsd	%xmm14,%xmm6
  403352:	f2 0f 58 f1                 	(arith) 	addsd	%xmm1,%xmm6
  403356:	f2 0f 59 74 24 18           	(arith) 	mulsd	0x18(%rsp),%xmm6
  40335c:	f2 0f 58 f3                 	(arith) 	addsd	%xmm3,%xmm6
  403360:	f2 0f 11 b2 28 93 41 08     	(move)  	movsd	%xmm6,0x8419328(%rdx)
/home/jcsalinas/Documents/pruebas/inst_estimation_module/BT/exact_rhs.f:182
  403368:	f2 44 0f 10 b8 28 10 00 00  	(move)  	movsd	0x1028(%rax),%xmm15
  403371:	f2 0f 10 88 18 10 00 00     	(move)  	movsd	0x1018(%rax),%xmm1
  403379:	f2 0f 10 b0 38 20 00 00     	(move)  	movsd	0x2038(%rax),%xmm6
  403381:	f2 0f 58 f6                 	(arith) 	addsd	%xmm6,%xmm6
  403385:	f2 0f 10 98 40 20 00 00     	(move)  	movsd	0x2040(%rax),%xmm3
  40338d:	f2 0f 5c de                 	(arith) 	subsd	%xmm6,%xmm3
  403391:	f2 0f 58 98 30 20 00 00     	(arith) 	addsd	0x2030(%rax),%xmm3
  403399:	f2 41 0f 59 dc              	(arith) 	mulsd	%xmm12,%xmm3
  40339e:	66 44 0f 28 f5              	(move)  	movapd	%xmm5,%xmm14
  4033a3:	f2 45 0f 59 f7              	(arith) 	mulsd	%xmm15,%xmm14
  4033a8:	66 0f 28 f2                 	(move)  	movapd	%xmm2,%xmm6
  4033ac:	f2 0f 59 f1                 	(arith) 	mulsd	%xmm1,%xmm6
  4033b0:	f2 44 0f 5c f6              	(arith) 	subsd	%xmm6,%xmm14
  4033b5:	f2 44 0f 59 f7              	(arith) 	mulsd	%xmm7,%xmm14
  4033ba:	f2 0f 10 b2 30 93 41 08     	(move)  	movsd	0x8419330(%rdx),%xmm6
  4033c2:	f2 41 0f 5c f6              	(arith) 	subsd	%xmm14,%xmm6
  4033c7:	f2 0f 58 de                 	(arith) 	addsd	%xmm6,%xmm3
  4033cb:	f2 0f 10 b0 20 10 00 00     	(move)  	movsd	0x1020(%rax),%xmm6
  4033d3:	f2 0f 58 f6                 	(arith) 	addsd	%xmm6,%xmm6
  4033d7:	f2 44 0f 5c fe              	(arith) 	subsd	%xmm6,%xmm15
  4033dc:	f2 44 0f 58 f9              	(arith) 	addsd	%xmm1,%xmm15
  4033e1:	f2 44 0f 59 7c 24 20        	(arith) 	mulsd	0x20(%rsp),%xmm15
  4033e8:	f2 41 0f 58 df              	(arith) 	addsd	%xmm15,%xmm3
  4033ed:	f2 0f 11 9a 30 93 41 08     	(move)  	movsd	%xmm3,0x8419330(%rdx)
/home/jcsalinas/Documents/pruebas/inst_estimation_module/BT/exact_rhs.f:191
  4033f5:	66 0f 28 cc                 	(move)  	movapd	%xmm4,%xmm1
  4033f9:	f2 41 0f 59 cb              	(arith) 	mulsd	%xmm11,%xmm1
  4033fe:	f2 45 0f 59 ca              	(arith) 	mulsd	%xmm10,%xmm9
  403403:	f2 41 0f 5c c9              	(arith) 	subsd	%xmm9,%xmm1
  403408:	f2 0f 59 e9                 	(arith) 	mulsd	%xmm1,%xmm5
  40340c:	66 0f 28 c8                 	(move)  	movapd	%xmm0,%xmm1
  403410:	f2 41 0f 59 cb              	(arith) 	mulsd	%xmm11,%xmm1
  403415:	f2 45 0f 59 c2              	(arith) 	mulsd	%xmm10,%xmm8
  40341a:	f2 41 0f 5c c8              	(arith) 	subsd	%xmm8,%xmm1
  40341f:	f2 0f 59 ca                 	(arith) 	mulsd	%xmm2,%xmm1
  403423:	f2 0f 5c e9                 	(arith) 	subsd	%xmm1,%xmm5
  403427:	f2 0f 59 ef                 	(arith) 	mulsd	%xmm7,%xmm5
  40342b:	f2 0f 10 8a 38 93 41 08     	(move)  	movsd	0x8419338(%rdx),%xmm1
  403433:	66 0f 28 f1                 	(move)  	movapd	%xmm1,%xmm6
  403437:	f2 0f 5c f5                 	(arith) 	subsd	%xmm5,%xmm6
  40343b:	f2 0f 10 a8 90 16 00 00     	(move)  	movsd	0x1690(%rax),%xmm5
  403443:	f2 0f 58 ed                 	(arith) 	addsd	%xmm5,%xmm5
  403447:	f2 0f 10 98 98 16 00 00     	(move)  	movsd	0x1698(%rax),%xmm3
  40344f:	66 0f 28 d3                 	(move)  	movapd	%xmm3,%xmm2
  403453:	f2 0f 5c d5                 	(arith) 	subsd	%xmm5,%xmm2
  403457:	f2 0f 58 90 88 16 00 00     	(arith) 	addsd	0x1688(%rax),%xmm2
  40345f:	f2 41 0f 59 d5              	(arith) 	mulsd	%xmm13,%xmm2
  403464:	f2 0f 58 f2                 	(arith) 	addsd	%xmm2,%xmm6
  403468:	f2 0f 10 50 08              	(move)  	movsd	0x8(%rax),%xmm2
  40346d:	f2 0f 58 d2                 	(arith) 	addsd	%xmm2,%xmm2
  403471:	f2 0f 10 58 10              	(move)  	movsd	0x10(%rax),%xmm3
  403476:	f2 0f 5c da                 	(arith) 	subsd	%xmm2,%xmm3
  40347a:	66 0f 28 d3                 	(move)  	movapd	%xmm3,%xmm2
  40347e:	f2 0f 58 10                 	(arith) 	addsd	(%rax),%xmm2
  403482:	f2 0f 59 54 24 28           	(arith) 	mulsd	0x28(%rsp),%xmm2
  403488:	f2 0f 58 d6                 	(arith) 	addsd	%xmm6,%xmm2
  40348c:	f2 0f 10 98 70 23 00 00     	(move)  	movsd	0x2370(%rax),%xmm3
  403494:	f2 0f 58 db                 	(arith) 	addsd	%xmm3,%xmm3
  403498:	f2 0f 10 88 78 23 00 00     	(move)  	movsd	0x2378(%rax),%xmm1
  4034a0:	f2 0f 5c cb                 	(arith) 	subsd	%xmm3,%xmm1
  4034a4:	f2 0f 58 88 68 23 00 00     	(arith) 	addsd	0x2368(%rax),%xmm1
  4034ac:	f2 0f 59 4c 24 30           	(arith) 	mulsd	0x30(%rsp),%xmm1
  4034b2:	f2 0f 58 d1                 	(arith) 	addsd	%xmm1,%xmm2
  4034b6:	f2 0f 10 88 58 13 00 00     	(move)  	movsd	0x1358(%rax),%xmm1
  4034be:	f2 0f 58 c9                 	(arith) 	addsd	%xmm1,%xmm1
  4034c2:	f2 0f 5c e1                 	(arith) 	subsd	%xmm1,%xmm4
  4034c6:	f2 0f 58 c4                 	(arith) 	addsd	%xmm4,%xmm0
  4034ca:	f2 0f 59 44 24 38           	(arith) 	mulsd	0x38(%rsp),%xmm0
  4034d0:	f2 0f 58 d0                 	(arith) 	addsd	%xmm0,%xmm2
  4034d4:	f2 0f 11 92 38 93 41 08     	(move)  	movsd	%xmm2,0x8419338(%rdx)
  4034dc:	48 81 c2 18 10 00 00        	(arith) 	add	$0x1018,%rdx
  4034e3:	48 83 c0 08                 	(arith) 	add	$0x8,%rax
/home/jcsalinas/Documents/pruebas/inst_estimation_module/BT/exact_rhs.f:160
  4034e7:	39 f1                       	(arith) 	cmp	%esi,%ecx
  4034e9:	0f 85 b0 fc ff ff           	(control)	jne	40319f <exact_rhs_+0xc90>	; ↰ label 324 (loop 57)
; ------- Loop 57 exit
322:	
/home/jcsalinas/Documents/pruebas/inst_estimation_module/BT/exact_rhs.f:200
  4034ef:	48 63 c3                    	(move)  	movsxd	%ebx,%rax
  4034f2:	4c 8d 3c 80                 	(arith) 	lea	(%rax,%rax,4),%r15
  4034f6:	48 8b 44 24 48              	(move)  	mov	0x48(%rsp),%rax
  4034fb:	4a 8d 0c 38                 	(arith) 	lea	(%rax,%r15,1),%rcx
/home/jcsalinas/Documents/pruebas/inst_estimation_module/BT/exact_rhs.f:5
  4034ff:	f2 0f 10 1d 99 dc 20 00     	(move)  	movsd	0x20dc99(%rip),%xmm3
  403507:	b8 00 12 37 0b              	(move)  	mov	$0xb371200,%eax
  40350c:	48 8b 7c 24 50              	(move)  	mov	0x50(%rsp),%rdi
  403511:	4c 01 ff                    	(arith) 	add	%r15,%rdi
  403514:	48 8d 14 fd 00 16 61 00     	(arith) 	lea	0x611600(,%rdi,8),%rdx
  40351c:	be 18 22 37 0b              	(move)  	mov	$0xb372218,%esi
  403521:	48 29 f9                    	(arith) 	sub	%rdi,%rcx
/home/jcsalinas/Documents/pruebas/inst_estimation_module/BT/exact_rhs.f:200
  403524:	f2 0f 10 35 24 b9 00 00     	(move)  	movsd	0xb924(%rip),%xmm6
  40352c:	f2 0f 10 25 24 b9 00 00     	(move)  	movsd	0xb924(%rip),%xmm4
/home/jcsalinas/Documents/pruebas/inst_estimation_module/BT/exact_rhs.f:204
  403534:	f2 0f 10 2d 24 b9 00 00     	(move)  	movsd	0xb924(%rip),%xmm5
; ------- Loop 52 entry
325 (loop 52):	
/home/jcsalinas/Documents/pruebas/inst_estimation_module/BT/exact_rhs.f:200
  40353c:	f2 0f 10 b8 78 06 00 00     	(move)  	movsd	0x678(%rax),%xmm7
  403544:	f2 0f 10 80 80 06 00 00     	(move)  	movsd	0x680(%rax),%xmm0
  40354c:	f2 0f 10 90 88 06 00 00     	(move)  	movsd	0x688(%rax),%xmm2
  403554:	66 0f 28 cf                 	(move)  	movapd	%xmm7,%xmm1
  403558:	f2 0f 59 ce                 	(arith) 	mulsd	%xmm6,%xmm1
  40355c:	66 44 0f 28 c0              	(move)  	movapd	%xmm0,%xmm8
  403561:	f2 44 0f 59 c4              	(arith) 	mulsd	%xmm4,%xmm8
  403566:	f2 41 0f 5c c8              	(arith) 	subsd	%xmm8,%xmm1
  40356b:	f2 0f 58 ca                 	(arith) 	addsd	%xmm2,%xmm1
  40356f:	f2 0f 59 cb                 	(arith) 	mulsd	%xmm3,%xmm1
  403573:	f2 44 0f 10 84 ca 00 83 41 08	(move)  	movsd	0x8418300(%rdx,%rcx,8),%xmm8
  40357d:	f2 44 0f 5c c1              	(arith) 	subsd	%xmm1,%xmm8
  403582:	f2 44 0f 11 84 ca 00 83 41 08	(move)  	movsd	%xmm8,0x8418300(%rdx,%rcx,8)
/home/jcsalinas/Documents/pruebas/inst_estimation_module/BT/exact_rhs.f:204
  40358c:	f2 0f 59 c5                 	(arith) 	mulsd	%xmm5,%xmm0
  403590:	f2 0f 59 fc                 	(arith) 	mulsd	%xmm4,%xmm7
  403594:	f2 0f 5c c7                 	(arith) 	subsd	%xmm7,%xmm0
  403598:	f2 0f 59 d4                 	(arith) 	mulsd	%xmm4,%xmm2
  40359c:	f2 0f 5c c2                 	(arith) 	subsd	%xmm2,%xmm0
  4035a0:	f2 0f 58 80 90 06 00 00     	(arith) 	addsd	0x690(%rax),%xmm0
  4035a8:	f2 0f 59 c3                 	(arith) 	mulsd	%xmm3,%xmm0
  4035ac:	f2 0f 10 8a 00 83 41 08     	(move)  	movsd	0x8418300(%rdx),%xmm1
  4035b4:	f2 0f 5c c8                 	(arith) 	subsd	%xmm0,%xmm1
  4035b8:	f2 0f 11 8a 00 83 41 08     	(move)  	movsd	%xmm1,0x8418300(%rdx)
  4035c0:	48 05 38 03 00 00           	(arith) 	add	$0x338,%rax
  4035c6:	48 83 c2 08                 	(arith) 	add	$0x8,%rdx
/home/jcsalinas/Documents/pruebas/inst_estimation_module/BT/exact_rhs.f:197
  4035ca:	48 39 c6                    	(arith) 	cmp	%rax,%rsi
  4035cd:	0f 85 69 ff ff ff           	(control)	jne	40353c <exact_rhs_+0x102d>	; ↰ label 325 (loop 52)
; ------- Loop 52 exit
326:	
/home/jcsalinas/Documents/pruebas/inst_estimation_module/BT/exact_rhs.f:207
  4035d3:	45 8d 73 fc                 	(arith) 	lea	-0x4(%r11),%r14d
  4035d7:	41 83 fe 02                 	(arith) 	cmp	$0x2,%r14d
  4035db:	0f 8e c6 00 00 00           	(control)	jle	4036a7 <exact_rhs_+0x1198>	; ↲ label 327
328:	
  4035e1:	4a 8d 84 3d 09 06 00 00     	(arith) 	lea	0x609(%rbp,%r15,1),%rax
  4035e9:	4c 8d 0c c5 00 16 61 00     	(arith) 	lea	0x611600(,%rax,8),%r9
  4035f1:	41 b8 18 12 37 0b           	(move)  	mov	$0xb371218,%r8d
  4035f7:	41 8d 43 f9                 	(arith) 	lea	-0x7(%r11),%eax
  4035fb:	4c 8d 14 c5 20 12 37 0b     	(arith) 	lea	0xb371220(,%rax,8),%r10
  403603:	b9 03 00 00 00              	(move)  	mov	$0x3,%ecx
/home/jcsalinas/Documents/pruebas/inst_estimation_module/BT/exact_rhs.f:211
  403608:	f2 0f 10 15 48 b8 00 00     	(move)  	movsd	0xb848(%rip),%xmm2
  403610:	f2 0f 10 25 48 b8 00 00     	(move)  	movsd	0xb848(%rip),%xmm4
; ------- Loop 56 entry
329 (loop 56):	
  403618:	49 8d b8 18 10 00 00        	(arith) 	lea	0x1018(%r8),%rdi
  40361f:	4c 89 c0                    	(move)  	mov	%r8,%rax
  403622:	4c 89 ca                    	(move)  	mov	%r9,%rdx
; ------- Loop 55 entry
330 (loop 55):	
  403625:	48 8d 71 01                 	(arith) 	lea	0x1(%rcx),%rsi
  403629:	66 0f 28 ca                 	(move)  	movapd	%xmm2,%xmm1
  40362d:	f2 0f 59 88 68 06 00 00     	(arith) 	mulsd	0x668(%rax),%xmm1
  403635:	f2 0f 10 80 60 06 00 00     	(move)  	movsd	0x660(%rax),%xmm0
  40363d:	f2 0f 5c c1                 	(arith) 	subsd	%xmm1,%xmm0
  403641:	66 0f 28 cc                 	(move)  	movapd	%xmm4,%xmm1
  403645:	f2 0f 59 88 70 06 00 00     	(arith) 	mulsd	0x670(%rax),%xmm1
  40364d:	f2 0f 58 c1                 	(arith) 	addsd	%xmm1,%xmm0
  403651:	66 0f 28 ca                 	(move)  	movapd	%xmm2,%xmm1
  403655:	f2 0f 59 88 78 06 00 00     	(arith) 	mulsd	0x678(%rax),%xmm1
  40365d:	f2 0f 5c c1                 	(arith) 	subsd	%xmm1,%xmm0
  403661:	f2 0f 58 80 80 06 00 00     	(arith) 	addsd	0x680(%rax),%xmm0
  403669:	f2 0f 59 c3                 	(arith) 	mulsd	%xmm3,%xmm0
  40366d:	f2 0f 10 8a 00 83 41 08     	(move)  	movsd	0x8418300(%rdx),%xmm1
  403675:	f2 0f 5c c8                 	(arith) 	subsd	%xmm0,%xmm1
  403679:	f2 0f 11 8a 00 83 41 08     	(move)  	movsd	%xmm1,0x8418300(%rdx)
  403681:	48 83 c2 08                 	(arith) 	add	$0x8,%rdx
  403685:	48 05 38 03 00 00           	(arith) 	add	$0x338,%rax
/home/jcsalinas/Documents/pruebas/inst_estimation_module/BT/exact_rhs.f:208
  40368b:	48 39 f8                    	(arith) 	cmp	%rdi,%rax
  40368e:	75 95                       	(control)	jne	403625 <exact_rhs_+0x1116>	; ↰ label 330 (loop 55)
; ------- Loop 55 exit
331:	
  403690:	49 81 c1 18 10 00 00        	(arith) 	add	$0x1018,%r9
  403697:	49 83 c0 08                 	(arith) 	add	$0x8,%r8
  40369b:	48 89 f1                    	(move)  	mov	%rsi,%rcx
/home/jcsalinas/Documents/pruebas/inst_estimation_module/BT/exact_rhs.f:207
  40369e:	4d 39 d0                    	(arith) 	cmp	%r10,%r8
  4036a1:	0f 85 71 ff ff ff           	(control)	jne	403618 <exact_rhs_+0x1109>	; ↰ label 329 (loop 56)
; ------- Loop 56 exit
327:	
/home/jcsalinas/Documents/pruebas/inst_estimation_module/BT/exact_rhs.f:216
  4036a7:	41 8d 73 fd                 	(arith) 	lea	-0x3(%r11),%esi
/home/jcsalinas/Documents/pruebas/inst_estimation_module/BT/exact_rhs.f:219
  4036ab:	48 63 c6                    	(move)  	movsxd	%esi,%rax
  4036ae:	48 89 c2                    	(move)  	mov	%rax,%rdx
  4036b1:	48 c1 e2 08                 	(logic) 	sal	$0x8,%rdx
  4036b5:	48 01 c2                    	(arith) 	add	%rax,%rdx
  4036b8:	48 8d 04 50                 	(arith) 	lea	(%rax,%rdx,2),%rax
  4036bc:	48 8d 4c 05 00              	(arith) 	lea	(%rbp,%rax,1),%rcx
  4036c1:	4c 01 f9                    	(arith) 	add	%r15,%rcx
  4036c4:	48 8d 84 05 03 02 00 00     	(arith) 	lea	0x203(%rbp,%rax,1),%rax
  4036cc:	49 01 c7                    	(arith) 	add	%rax,%r15
  4036cf:	4a 8d 14 fd 00 16 61 00     	(arith) 	lea	0x611600(,%r15,8),%rdx
/home/jcsalinas/Documents/pruebas/inst_estimation_module/BT/exact_rhs.f:222
  4036d7:	b8 00 00 00 00              	(move)  	mov	$0,%eax
  4036dc:	4c 29 f9                    	(arith) 	sub	%r15,%rcx
/home/jcsalinas/Documents/pruebas/inst_estimation_module/BT/exact_rhs.f:219
  4036df:	4d 63 f6                    	(move)  	movsxd	%r14d,%r14
  4036e2:	48 63 f6                    	(move)  	movsxd	%esi,%rsi
  4036e5:	4d 63 ed                    	(move)  	movsxd	%r13d,%r13
  4036e8:	41 8d 7b fb                 	(arith) 	lea	-0x5(%r11),%edi
  4036ec:	48 63 ff                    	(move)  	movsxd	%edi,%rdi
  4036ef:	f2 0f 10 2d 61 b7 00 00     	(move)  	movsd	0xb761(%rip),%xmm5
  4036f7:	f2 0f 10 3d 61 b7 00 00     	(move)  	movsd	0xb761(%rip),%xmm7
/home/jcsalinas/Documents/pruebas/inst_estimation_module/BT/exact_rhs.f:222
  4036ff:	f2 0f 10 35 49 b7 00 00     	(move)  	movsd	0xb749(%rip),%xmm6
; ------- Loop 53 entry
332 (loop 53):	
/home/jcsalinas/Documents/pruebas/inst_estimation_module/BT/exact_rhs.f:219
  403707:	f2 42 0f 10 a4 f0 70 18 37 0b	(move)  	movsd	0xb371870(%rax,%r14,8),%xmm4
  403711:	f2 44 0f 10 84 f0 70 18 37 0b	(move)  	movsd	0xb371870(%rax,%rsi,8),%xmm8
  40371b:	f2 42 0f 10 84 e8 70 18 37 0b	(move)  	movsd	0xb371870(%rax,%r13,8),%xmm0
  403725:	66 0f 28 d4                 	(move)  	movapd	%xmm4,%xmm2
  403729:	f2 0f 59 d5                 	(arith) 	mulsd	%xmm5,%xmm2
  40372d:	f2 0f 10 8c f8 70 18 37 0b  	(move)  	movsd	0xb371870(%rax,%rdi,8),%xmm1
  403736:	f2 0f 5c ca                 	(arith) 	subsd	%xmm2,%xmm1
  40373a:	66 41 0f 28 d0              	(move)  	movapd	%xmm8,%xmm2
  40373f:	f2 0f 59 d7                 	(arith) 	mulsd	%xmm7,%xmm2
  403743:	f2 0f 58 ca                 	(arith) 	addsd	%xmm2,%xmm1
  403747:	66 0f 28 d0                 	(move)  	movapd	%xmm0,%xmm2
  40374b:	f2 0f 59 d5                 	(arith) 	mulsd	%xmm5,%xmm2
  40374f:	f2 0f 5c ca                 	(arith) 	subsd	%xmm2,%xmm1
  403753:	f2 0f 59 cb                 	(arith) 	mulsd	%xmm3,%xmm1
  403757:	f2 0f 10 94 ca 00 83 41 08  	(move)  	movsd	0x8418300(%rdx,%rcx,8),%xmm2
  403760:	f2 0f 5c d1                 	(arith) 	subsd	%xmm1,%xmm2
  403764:	f2 0f 11 94 ca 00 83 41 08  	(move)  	movsd	%xmm2,0x8418300(%rdx,%rcx,8)
/home/jcsalinas/Documents/pruebas/inst_estimation_module/BT/exact_rhs.f:222
  40376d:	f2 44 0f 59 c5              	(arith) 	mulsd	%xmm5,%xmm8
  403772:	f2 41 0f 5c e0              	(arith) 	subsd	%xmm8,%xmm4
  403777:	f2 0f 59 c6                 	(arith) 	mulsd	%xmm6,%xmm0
  40377b:	f2 0f 58 c4                 	(arith) 	addsd	%xmm4,%xmm0
  40377f:	f2 0f 59 c3                 	(arith) 	mulsd	%xmm3,%xmm0
  403783:	f2 0f 10 8a 00 83 41 08     	(move)  	movsd	0x8418300(%rdx),%xmm1
  40378b:	f2 0f 5c c8                 	(arith) 	subsd	%xmm0,%xmm1
  40378f:	f2 0f 11 8a 00 83 41 08     	(move)  	movsd	%xmm1,0x8418300(%rdx)
  403797:	48 05 38 03 00 00           	(arith) 	add	$0x338,%rax
  40379d:	48 83 c2 08                 	(arith) 	add	$0x8,%rdx
/home/jcsalinas/Documents/pruebas/inst_estimation_module/BT/exact_rhs.f:215
  4037a1:	48 3d 18 10 00 00           	(arith) 	cmp	$0x1018,%rax
  4037a7:	0f 85 5a ff ff ff           	(control)	jne	403707 <exact_rhs_+0x11f8>	; ↰ label 332 (loop 53)
; ------- Loop 53 exit
333:	
/home/jcsalinas/Documents/pruebas/inst_estimation_module/BT/exact_rhs.f:136
  4037ad:	83 c3 01                    	(arith) 	add	$0x1,%ebx
  4037b0:	39 5c 24 58                 	(arith) 	cmp	%ebx,0x58(%rsp)
  4037b4:	0f 85 7f f7 ff ff           	(control)	jne	402f39 <exact_rhs_+0xa2a>	; ↰ label 313 (loop 54)
; ------- Loop 54 exit
311:	
/home/jcsalinas/Documents/pruebas/inst_estimation_module/BT/exact_rhs.f:134
  4037ba:	83 44 24 44 01              	(arith) 	addl	$0x1,0x44(%rsp)
  4037bf:	8b 44 24 44                 	(move)  	mov	0x44(%rsp),%eax
  4037c3:	3b 44 24 5c                 	(arith) 	cmp	0x5c(%rsp),%eax
  4037c7:	0f 85 13 f7 ff ff           	(control)	jne	402ee0 <exact_rhs_+0x9d1>	; ↰ label 310 (loop 51)
; ------- Loop 51 exit
334:	
/home/jcsalinas/Documents/pruebas/inst_estimation_module/BT/exact_rhs.f:232
  4037cd:	8b 05 19 de 20 00           	(move)  	mov	0x20de19(%rip),%eax
  4037d3:	83 e8 02                    	(arith) 	sub	$0x2,%eax
  4037d6:	89 44 24 5c                 	(move)  	mov	%eax,0x5c(%rsp)
  4037da:	85 c0                       	(arith) 	test	%eax,%eax
  4037dc:	0f 8e ff 08 00 00           	(control)	jle	4040e1 <exact_rhs_+0x1bd2>	; ↲ label 335
336:	
/home/jcsalinas/Documents/pruebas/inst_estimation_module/BT/exact_rhs.f:222
  4037e2:	c7 44 24 44 01 00 00 00     	(move)  	movl	$0x1,0x44(%rsp)
  4037ea:	4c 8d a4 24 a0 00 00 00     	(arith) 	lea	0xa0(%rsp),%r12
; ------- Loop 36 entry
337 (loop 36):	
/home/jcsalinas/Documents/pruebas/inst_estimation_module/BT/exact_rhs.f:233
  4037f2:	8b 5c 24 44                 	(move)  	mov	0x44(%rsp),%ebx
  4037f6:	66 0f ef c0                 	(logic) 	pxor	%xmm0,%xmm0
  4037fa:	f2 0f 2a c3                 	(conv)  	cvtsi2sd	%ebx,%xmm0
  4037fe:	f2 0f 59 05 c2 dc 20 00     	(arith) 	mulsd	0x20dcc2(%rip),%xmm0
  403806:	f2 0f 11 44 24 78           	(move)  	movsd	%xmm0,0x78(%rsp)
/home/jcsalinas/Documents/pruebas/inst_estimation_module/BT/exact_rhs.f:234
  40380c:	8b 0d d6 dd 20 00           	(move)  	mov	0x20ddd6(%rip),%ecx
  403812:	8d 41 fe                    	(arith) 	lea	-0x2(%rcx),%eax
  403815:	85 c0                       	(arith) 	test	%eax,%eax
  403817:	0f 8e ae 08 00 00           	(control)	jle	4040cb <exact_rhs_+0x1bbc>	; ↲ label 338
339:	
/home/jcsalinas/Documents/pruebas/inst_estimation_module/BT/exact_rhs.f:264
  40381d:	89 d8                       	(move)  	mov	%ebx,%eax
  40381f:	48 98                       	(conv)  	cltq
  403821:	48 89 c2                    	(move)  	mov	%rax,%rdx
  403824:	48 c1 e2 08                 	(logic) 	sal	$0x8,%rdx
  403828:	48 01 c2                    	(arith) 	add	%rax,%rdx
  40382b:	48 8d 04 50                 	(arith) 	lea	(%rax,%rdx,2),%rax
  40382f:	48 89 c5                    	(move)  	mov	%rax,%rbp
/home/jcsalinas/Documents/pruebas/inst_estimation_module/BT/exact_rhs.f:298
  403832:	48 8d 98 35 cf 00 00        	(arith) 	lea	0xcf35(%rax),%rbx
  403839:	48 89 5c 24 48              	(move)  	mov	%rbx,0x48(%rsp)
/home/jcsalinas/Documents/pruebas/inst_estimation_module/BT/exact_rhs.f:302
  40383e:	48 05 6a 9e 01 00           	(arith) 	add	$0x19e6a,%rax
  403844:	48 89 44 24 50              	(move)  	mov	%rax,0x50(%rsp)
  403849:	8d 41 ff                    	(arith) 	lea	-0x1(%rcx),%eax
  40384c:	89 44 24 58                 	(move)  	mov	%eax,0x58(%rsp)
  403850:	bb 01 00 00 00              	(move)  	mov	$0x1,%ebx
; ------- Loop 43 entry
340 (loop 43):	
/home/jcsalinas/Documents/pruebas/inst_estimation_module/BT/exact_rhs.f:235
  403855:	66 0f ef c0                 	(logic) 	pxor	%xmm0,%xmm0
  403859:	f2 0f 2a c3                 	(conv)  	cvtsi2sd	%ebx,%xmm0
  40385d:	f2 0f 59 05 5b dc 20 00     	(arith) 	mulsd	0x20dc5b(%rip),%xmm0
  403865:	f2 0f 11 44 24 70           	(move)  	movsd	%xmm0,0x70(%rsp)
/home/jcsalinas/Documents/pruebas/inst_estimation_module/BT/exact_rhs.f:237
  40386b:	44 8b 35 7e dd 20 00        	(move)  	mov	0x20dd7e(%rip),%r14d
  403872:	44 89 f0                    	(move)  	mov	%r14d,%eax
  403875:	83 e8 01                    	(arith) 	sub	$0x1,%eax
  403878:	0f 88 65 01 00 00           	(control)	js	4039e3 <exact_rhs_+0x14d4>	; ↲ label 341
342:	
  40387e:	41 bd 00 00 00 00           	(move)  	mov	$0,%r13d
; ------- Loop 49 entry
343 (loop 49):	
/home/jcsalinas/Documents/pruebas/inst_estimation_module/BT/exact_rhs.f:238
  403884:	66 0f ef c0                 	(logic) 	pxor	%xmm0,%xmm0
  403888:	f2 41 0f 2a c5              	(conv)  	cvtsi2sd	%r13d,%xmm0
  40388d:	f2 0f 59 05 3b dc 20 00     	(arith) 	mulsd	0x20dc3b(%rip),%xmm0
  403895:	f2 0f 11 44 24 68           	(move)  	movsd	%xmm0,0x68(%rsp)
/home/jcsalinas/Documents/pruebas/inst_estimation_module/BT/exact_rhs.f:240
  40389b:	48 8d 8c 24 80 00 00 00     	(arith) 	lea	0x80(%rsp),%rcx
  4038a3:	48 8d 54 24 68              	(arith) 	lea	0x68(%rsp),%rdx
  4038a8:	48 8d 74 24 78              	(arith) 	lea	0x78(%rsp),%rsi
  4038ad:	48 8d 7c 24 70              	(arith) 	lea	0x70(%rsp),%rdi
  4038b2:	b8 00 00 00 00              	(move)  	mov	$0,%eax
  4038b7:	e8 76 eb ff ff              	(control)	call	402432 <exact_solution_>	; ⇄ exact_solution
344:	
  4038bc:	48 8d 94 24 80 00 00 00     	(arith) 	lea	0x80(%rsp),%rdx
  4038c4:	49 63 c5                    	(move)  	movsxd	%r13d,%rax
  4038c7:	48 8d 34 c5 00 12 37 0b     	(arith) 	lea	0xb371200(,%rax,8),%rsi
  4038cf:	48 89 d0                    	(move)  	mov	%rdx,%rax
  4038d2:	4c 8d 4a 28                 	(arith) 	lea	0x28(%rdx),%r9
  4038d6:	48 89 f1                    	(move)  	mov	%rsi,%rcx
/home/jcsalinas/Documents/pruebas/inst_estimation_module/BT/exact_rhs.f:242
  4038d9:	4d 63 c5                    	(move)  	movsxd	%r13d,%r8
; ------- Loop 47 entry
345 (loop 47):	
  4038dc:	4c 89 c7                    	(move)  	mov	%r8,%rdi
  4038df:	f2 0f 10 00                 	(move)  	movsd	(%rax),%xmm0
  4038e3:	f2 0f 11 81 70 06 00 00     	(move)  	movsd	%xmm0,0x670(%rcx)
  4038eb:	48 83 c0 08                 	(arith) 	add	$0x8,%rax
  4038ef:	48 81 c1 38 03 00 00        	(arith) 	add	$0x338,%rcx
/home/jcsalinas/Documents/pruebas/inst_estimation_module/BT/exact_rhs.f:241
  4038f6:	4c 39 c8                    	(arith) 	cmp	%r9,%rax
  4038f9:	75 e1                       	(control)	jne	4038dc <exact_rhs_+0x13cd>	; ↰ label 345 (loop 47)
; ------- Loop 47 exit
346:	
/home/jcsalinas/Documents/pruebas/inst_estimation_module/BT/exact_rhs.f:245
  4038fb:	f2 0f 10 0d 2d b5 00 00     	(move)  	movsd	0xb52d(%rip),%xmm1
  403903:	f2 0f 5e 8c 24 80 00 00 00  	(arith) 	divsd	0x80(%rsp),%xmm1
; ------- Loop 48 entry
347 (loop 48):	
/home/jcsalinas/Documents/pruebas/inst_estimation_module/BT/exact_rhs.f:248
  40390c:	66 0f 28 c1                 	(move)  	movapd	%xmm1,%xmm0
  403910:	f2 0f 59 42 08              	(arith) 	mulsd	0x8(%rdx),%xmm0
  403915:	f2 0f 11 86 c0 19 00 00     	(move)  	movsd	%xmm0,0x19c0(%rsi)
  40391d:	48 83 c2 08                 	(arith) 	add	$0x8,%rdx
  403921:	48 81 c6 38 03 00 00        	(arith) 	add	$0x338,%rsi
/home/jcsalinas/Documents/pruebas/inst_estimation_module/BT/exact_rhs.f:247
  403928:	4c 39 e2                    	(arith) 	cmp	%r12,%rdx
  40392b:	75 df                       	(control)	jne	40390c <exact_rhs_+0x13fd>	; ↰ label 347 (loop 48)
; ------- Loop 48 exit
348:	
/home/jcsalinas/Documents/pruebas/inst_estimation_module/BT/exact_rhs.f:251
  40392d:	48 8d 87 06 04 00 00        	(arith) 	lea	0x406(%rdi),%rax
  403934:	f2 0f 10 04 c5 00 12 37 0b  	(move)  	movsd	0xb371200(,%rax,8),%xmm0
  40393d:	f2 0f 59 c0                 	(arith) 	mulsd	%xmm0,%xmm0
  403941:	f2 0f 11 04 fd 00 12 37 0b  	(move)  	movsd	%xmm0,0xb371200(,%rdi,8)
/home/jcsalinas/Documents/pruebas/inst_estimation_module/BT/exact_rhs.f:253
  40394a:	48 8d 8f 38 03 00 00        	(arith) 	lea	0x338(%rdi),%rcx
  403951:	f2 0f 10 14 cd 00 12 37 0b  	(move)  	movsd	0xb371200(,%rcx,8),%xmm2
  40395a:	48 8d 97 9f 03 00 00        	(arith) 	lea	0x39f(%rdi),%rdx
  403961:	f2 0f 10 0c d5 00 12 37 0b  	(move)  	movsd	0xb371200(,%rdx,8),%xmm1
  40396a:	f2 0f 59 d2                 	(arith) 	mulsd	%xmm2,%xmm2
  40396e:	f2 0f 58 c2                 	(arith) 	addsd	%xmm2,%xmm0
  403972:	f2 0f 59 c9                 	(arith) 	mulsd	%xmm1,%xmm1
  403976:	f2 0f 58 c1                 	(arith) 	addsd	%xmm1,%xmm0
  40397a:	f2 0f 11 04 fd 88 28 37 0b  	(move)  	movsd	%xmm0,0xb372888(,%rdi,8)
/home/jcsalinas/Documents/pruebas/inst_estimation_module/BT/exact_rhs.f:255
  403983:	f2 0f 10 04 cd 00 12 37 0b  	(move)  	movsd	0xb371200(,%rcx,8),%xmm0
  40398c:	f2 0f 59 04 fd a8 1b 37 0b  	(arith) 	mulsd	0xb371ba8(,%rdi,8),%xmm0
  403995:	66 0f 28 c8                 	(move)  	movapd	%xmm0,%xmm1
  403999:	f2 0f 10 04 d5 00 12 37 0b  	(move)  	movsd	0xb371200(,%rdx,8),%xmm0
  4039a2:	f2 0f 59 04 fd e0 1e 37 0b  	(arith) 	mulsd	0xb371ee0(,%rdi,8),%xmm0
  4039ab:	f2 0f 58 c1                 	(arith) 	addsd	%xmm1,%xmm0
  4039af:	f2 0f 10 0c c5 00 12 37 0b  	(move)  	movsd	0xb371200(,%rax,8),%xmm1
  4039b8:	f2 0f 59 0c fd 18 22 37 0b  	(arith) 	mulsd	0xb372218(,%rdi,8),%xmm1
  4039c1:	f2 0f 58 c1                 	(arith) 	addsd	%xmm1,%xmm0
  4039c5:	f2 0f 59 05 7b b4 00 00     	(arith) 	mulsd	0xb47b(%rip),%xmm0
  4039cd:	f2 0f 11 04 fd 38 15 37 0b  	(move)  	movsd	%xmm0,0xb371538(,%rdi,8)
/home/jcsalinas/Documents/pruebas/inst_estimation_module/BT/exact_rhs.f:237
  4039d6:	41 83 c5 01                 	(arith) 	add	$0x1,%r13d
  4039da:	45 39 ee                    	(arith) 	cmp	%r13d,%r14d
  4039dd:	0f 85 a1 fe ff ff           	(control)	jne	403884 <exact_rhs_+0x1375>	; ↰ label 343 (loop 49)
; ------- Loop 49 exit
341:	
/home/jcsalinas/Documents/pruebas/inst_estimation_module/BT/exact_rhs.f:258
  4039e3:	44 8b 1d 06 dc 20 00        	(move)  	mov	0x20dc06(%rip),%r11d
  4039ea:	45 8d 6b fe                 	(arith) 	lea	-0x2(%r11),%r13d
  4039ee:	45 85 ed                    	(arith) 	test	%r13d,%r13d
  4039f1:	0f 8e 10 04 00 00           	(control)	jle	403e07 <exact_rhs_+0x18f8>	; ↲ label 349
350:	
/home/jcsalinas/Documents/pruebas/inst_estimation_module/BT/exact_rhs.f:5
  4039f7:	f2 44 0f 10 0d 18 d7 20 00  	(move)  	movsd	0x20d718(%rip),%xmm9
  403a00:	f2 0f 10 2d 90 da 20 00     	(move)  	movsd	0x20da90(%rip),%xmm5
  403a08:	f2 0f 11 2c 24              	(move)  	movsd	%xmm5,(%rsp)
  403a0d:	f2 44 0f 10 35 62 da 20 00  	(move)  	movsd	0x20da62(%rip),%xmm14
  403a16:	f2 0f 10 2d 82 da 20 00     	(move)  	movsd	0x20da82(%rip),%xmm5
  403a1e:	f2 0f 11 6c 24 08           	(move)  	movsd	%xmm5,0x8(%rsp)
  403a24:	f2 0f 10 2d 7c da 20 00     	(move)  	movsd	0x20da7c(%rip),%xmm5
  403a2c:	f2 0f 11 6c 24 10           	(move)  	movsd	%xmm5,0x10(%rsp)
  403a32:	f2 44 0f 10 25 cd da 20 00  	(move)  	movsd	0x20dacd(%rip),%xmm12
  403a3b:	f2 0f 10 2d 2d da 20 00     	(move)  	movsd	0x20da2d(%rip),%xmm5
  403a43:	f2 0f 11 6c 24 18           	(move)  	movsd	%xmm5,0x18(%rsp)
  403a49:	f2 0f 10 2d 5f da 20 00     	(move)  	movsd	0x20da5f(%rip),%xmm5
  403a51:	f2 0f 11 6c 24 20           	(move)  	movsd	%xmm5,0x20(%rsp)
  403a57:	f2 44 0f 10 2d a0 da 20 00  	(move)  	movsd	0x20daa0(%rip),%xmm13
/home/jcsalinas/Documents/pruebas/inst_estimation_module/BT/exact_rhs.f:289
  403a60:	f2 44 0f 10 3d df b3 00 00  	(move)  	movsd	0xb3df(%rip),%xmm15
  403a69:	f2 44 0f 59 3d 0e da 20 00  	(arith) 	mulsd	0x20da0e(%rip),%xmm15
/home/jcsalinas/Documents/pruebas/inst_estimation_module/BT/exact_rhs.f:5
  403a72:	f2 0f 10 2d 0e da 20 00     	(move)  	movsd	0x20da0e(%rip),%xmm5
  403a7a:	f2 0f 11 6c 24 28           	(move)  	movsd	%xmm5,0x28(%rsp)
  403a80:	f2 0f 10 2d 08 da 20 00     	(move)  	movsd	0x20da08(%rip),%xmm5
  403a88:	f2 0f 11 6c 24 30           	(move)  	movsd	%xmm5,0x30(%rsp)
  403a8e:	f2 0f 10 2d 22 da 20 00     	(move)  	movsd	0x20da22(%rip),%xmm5
  403a96:	f2 0f 11 6c 24 38           	(move)  	movsd	%xmm5,0x38(%rsp)
  403a9c:	48 63 c3                    	(move)  	movsxd	%ebx,%rax
  403a9f:	48 8d 04 80                 	(arith) 	lea	(%rax,%rax,4),%rax
  403aa3:	48 01 e8                    	(arith) 	add	%rbp,%rax
  403aa6:	48 8d 14 c5 00 16 61 00     	(arith) 	lea	0x611600(,%rax,8),%rdx
  403aae:	b8 00 12 37 0b              	(move)  	mov	$0xb371200,%eax
  403ab3:	41 8d 73 ff                 	(arith) 	lea	-0x1(%r11),%esi
  403ab7:	b9 01 00 00 00              	(move)  	mov	$0x1,%ecx
; ------- Loop 46 entry
351 (loop 46):	
/home/jcsalinas/Documents/pruebas/inst_estimation_module/BT/exact_rhs.f:260
  403abc:	83 c1 01                    	(arith) 	add	$0x1,%ecx
/home/jcsalinas/Documents/pruebas/inst_estimation_module/BT/exact_rhs.f:264
  403abf:	f2 0f 10 b0 28 10 00 00     	(move)  	movsd	0x1028(%rax),%xmm6
  403ac7:	f2 0f 10 88 18 10 00 00     	(move)  	movsd	0x1018(%rax),%xmm1
  403acf:	f2 0f 10 90 78 06 00 00     	(move)  	movsd	0x678(%rax),%xmm2
  403ad7:	f2 0f 58 d2                 	(arith) 	addsd	%xmm2,%xmm2
  403adb:	f2 0f 10 80 80 06 00 00     	(move)  	movsd	0x680(%rax),%xmm0
  403ae3:	f2 0f 5c c2                 	(arith) 	subsd	%xmm2,%xmm0
  403ae7:	f2 0f 58 80 70 06 00 00     	(arith) 	addsd	0x670(%rax),%xmm0
  403aef:	f2 0f 59 04 24              	(arith) 	mulsd	(%rsp),%xmm0
  403af4:	66 0f 28 de                 	(move)  	movapd	%xmm6,%xmm3
  403af8:	f2 0f 5c d9                 	(arith) 	subsd	%xmm1,%xmm3
  403afc:	f2 41 0f 59 d9              	(arith) 	mulsd	%xmm9,%xmm3
  403b01:	f2 0f 10 92 a8 fc 47 08     	(move)  	movsd	0x847fca8(%rdx),%xmm2
  403b09:	f2 0f 5c d3                 	(arith) 	subsd	%xmm3,%xmm2
  403b0d:	f2 0f 58 d0                 	(arith) 	addsd	%xmm0,%xmm2
  403b11:	f2 0f 11 92 a8 fc 47 08     	(move)  	movsd	%xmm2,0x847fca8(%rdx)
/home/jcsalinas/Documents/pruebas/inst_estimation_module/BT/exact_rhs.f:269
  403b19:	f2 44 0f 10 80 b8 09 00 00  	(move)  	movsd	0x9b8(%rax),%xmm8
  403b22:	f2 0f 10 a8 40 20 00 00     	(move)  	movsd	0x2040(%rax),%xmm5
  403b2a:	f2 0f 10 80 a8 09 00 00     	(move)  	movsd	0x9a8(%rax),%xmm0
  403b32:	f2 0f 10 90 30 20 00 00     	(move)  	movsd	0x2030(%rax),%xmm2
  403b3a:	f2 0f 10 a0 c8 19 00 00     	(move)  	movsd	0x19c8(%rax),%xmm4
  403b42:	f2 0f 58 e4                 	(arith) 	addsd	%xmm4,%xmm4
  403b46:	f2 0f 10 98 d0 19 00 00     	(move)  	movsd	0x19d0(%rax),%xmm3
  403b4e:	f2 0f 5c dc                 	(arith) 	subsd	%xmm4,%xmm3
  403b52:	f2 0f 58 98 c0 19 00 00     	(arith) 	addsd	0x19c0(%rax),%xmm3
  403b5a:	f2 41 0f 59 de              	(arith) 	mulsd	%xmm14,%xmm3
  403b5f:	66 41 0f 28 f8              	(move)  	movapd	%xmm8,%xmm7
  403b64:	f2 0f 59 fd                 	(arith) 	mulsd	%xmm5,%xmm7
  403b68:	66 0f 28 e0                 	(move)  	movapd	%xmm0,%xmm4
  403b6c:	f2 0f 59 e2                 	(arith) 	mulsd	%xmm2,%xmm4
  403b70:	f2 0f 5c fc                 	(arith) 	subsd	%xmm4,%xmm7
  403b74:	f2 41 0f 59 f9              	(arith) 	mulsd	%xmm9,%xmm7
  403b79:	f2 0f 10 a2 b0 fc 47 08     	(move)  	movsd	0x847fcb0(%rdx),%xmm4
  403b81:	f2 0f 5c e7                 	(arith) 	subsd	%xmm7,%xmm4
  403b85:	f2 0f 58 dc                 	(arith) 	addsd	%xmm4,%xmm3
  403b89:	f2 0f 10 a0 b0 09 00 00     	(move)  	movsd	0x9b0(%rax),%xmm4
  403b91:	f2 0f 58 e4                 	(arith) 	addsd	%xmm4,%xmm4
  403b95:	f2 44 0f 5c c4              	(arith) 	subsd	%xmm4,%xmm8
  403b9a:	f2 44 0f 58 c0              	(arith) 	addsd	%xmm0,%xmm8
  403b9f:	f2 44 0f 59 44 24 08        	(arith) 	mulsd	0x8(%rsp),%xmm8
  403ba6:	f2 41 0f 58 d8              	(arith) 	addsd	%xmm8,%xmm3
  403bab:	f2 0f 11 9a b0 fc 47 08     	(move)  	movsd	%xmm3,0x847fcb0(%rdx)
/home/jcsalinas/Documents/pruebas/inst_estimation_module/BT/exact_rhs.f:274
  403bb3:	f2 44 0f 10 80 f0 0c 00 00  	(move)  	movsd	0xcf0(%rax),%xmm8
  403bbc:	f2 0f 10 80 e0 0c 00 00     	(move)  	movsd	0xce0(%rax),%xmm0
  403bc4:	f2 0f 10 a0 00 1d 00 00     	(move)  	movsd	0x1d00(%rax),%xmm4
  403bcc:	f2 0f 58 e4                 	(arith) 	addsd	%xmm4,%xmm4
  403bd0:	f2 0f 10 98 08 1d 00 00     	(move)  	movsd	0x1d08(%rax),%xmm3
  403bd8:	f2 0f 5c dc                 	(arith) 	subsd	%xmm4,%xmm3
  403bdc:	f2 0f 58 98 f8 1c 00 00     	(arith) 	addsd	0x1cf8(%rax),%xmm3
  403be4:	f2 41 0f 59 de              	(arith) 	mulsd	%xmm14,%xmm3
  403be9:	66 0f 28 fd                 	(move)  	movapd	%xmm5,%xmm7
  403bed:	f2 41 0f 59 f8              	(arith) 	mulsd	%xmm8,%xmm7
  403bf2:	66 0f 28 e2                 	(move)  	movapd	%xmm2,%xmm4
  403bf6:	f2 0f 59 e0                 	(arith) 	mulsd	%xmm0,%xmm4
  403bfa:	f2 0f 5c fc                 	(arith) 	subsd	%xmm4,%xmm7
  403bfe:	f2 41 0f 59 f9              	(arith) 	mulsd	%xmm9,%xmm7
  403c03:	f2 0f 10 a2 b8 fc 47 08     	(move)  	movsd	0x847fcb8(%rdx),%xmm4
  403c0b:	f2 0f 5c e7                 	(arith) 	subsd	%xmm7,%xmm4
  403c0f:	f2 0f 58 dc                 	(arith) 	addsd	%xmm4,%xmm3
  403c13:	f2 0f 10 a0 e8 0c 00 00     	(move)  	movsd	0xce8(%rax),%xmm4
  403c1b:	f2 0f 58 e4                 	(arith) 	addsd	%xmm4,%xmm4
  403c1f:	f2 44 0f 5c c4              	(arith) 	subsd	%xmm4,%xmm8
  403c24:	f2 44 0f 58 c0              	(arith) 	addsd	%xmm0,%xmm8
  403c29:	f2 44 0f 59 44 24 10        	(arith) 	mulsd	0x10(%rsp),%xmm8
  403c30:	f2 41 0f 58 d8              	(arith) 	addsd	%xmm8,%xmm3
  403c35:	f2 0f 11 9a b8 fc 47 08     	(move)  	movsd	%xmm3,0x847fcb8(%rdx)
/home/jcsalinas/Documents/pruebas/inst_estimation_module/BT/exact_rhs.f:280
  403c3d:	f2 0f 10 a0 60 13 00 00     	(move)  	movsd	0x1360(%rax),%xmm4
  403c45:	f2 44 0f 10 80 48 03 00 00  	(move)  	movsd	0x348(%rax),%xmm8
  403c4e:	f2 0f 10 80 50 13 00 00     	(move)  	movsd	0x1350(%rax),%xmm0
  403c56:	f2 0f 10 b8 38 03 00 00     	(move)  	movsd	0x338(%rax),%xmm7
  403c5e:	66 0f 28 dc                 	(move)  	movapd	%xmm4,%xmm3
  403c62:	f2 41 0f 5c d8              	(arith) 	subsd	%xmm8,%xmm3
  403c67:	f2 41 0f 59 dc              	(arith) 	mulsd	%xmm12,%xmm3
  403c6c:	66 44 0f 28 d6              	(move)  	movapd	%xmm6,%xmm10
  403c71:	f2 44 0f 59 d5              	(arith) 	mulsd	%xmm5,%xmm10
  403c76:	f2 41 0f 58 da              	(arith) 	addsd	%xmm10,%xmm3
  403c7b:	66 44 0f 28 d8              	(move)  	movapd	%xmm0,%xmm11
  403c80:	f2 44 0f 5c df              	(arith) 	subsd	%xmm7,%xmm11
  403c85:	f2 45 0f 59 dc              	(arith) 	mulsd	%xmm12,%xmm11
  403c8a:	66 44 0f 28 d1              	(move)  	movapd	%xmm1,%xmm10
  403c8f:	f2 44 0f 59 d2              	(arith) 	mulsd	%xmm2,%xmm10
  403c94:	f2 45 0f 58 d3              	(arith) 	addsd	%xmm11,%xmm10
  403c99:	f2 41 0f 5c da              	(arith) 	subsd	%xmm10,%xmm3
  403c9e:	f2 41 0f 59 d9              	(arith) 	mulsd	%xmm9,%xmm3
  403ca3:	66 44 0f 28 db              	(move)  	movapd	%xmm3,%xmm11
  403ca8:	f2 0f 10 9a c0 fc 47 08     	(move)  	movsd	0x847fcc0(%rdx),%xmm3
  403cb0:	f2 41 0f 5c db              	(arith) 	subsd	%xmm11,%xmm3
  403cb5:	66 44 0f 28 d3              	(move)  	movapd	%xmm3,%xmm10
  403cba:	f2 0f 10 98 38 20 00 00     	(move)  	movsd	0x2038(%rax),%xmm3
  403cc2:	f2 0f 58 db                 	(arith) 	addsd	%xmm3,%xmm3
  403cc6:	66 44 0f 28 dd              	(move)  	movapd	%xmm5,%xmm11
  403ccb:	f2 44 0f 5c db              	(arith) 	subsd	%xmm3,%xmm11
  403cd0:	66 41 0f 28 db              	(move)  	movapd	%xmm11,%xmm3
  403cd5:	f2 0f 58 da                 	(arith) 	addsd	%xmm2,%xmm3
  403cd9:	f2 0f 59 5c 24 18           	(arith) 	mulsd	0x18(%rsp),%xmm3
  403cdf:	f2 41 0f 58 da              	(arith) 	addsd	%xmm10,%xmm3
  403ce4:	f2 44 0f 10 90 20 10 00 00  	(move)  	movsd	0x1020(%rax),%xmm10
  403ced:	f2 45 0f 58 d2              	(arith) 	addsd	%xmm10,%xmm10
  403cf2:	f2 41 0f 5c f2              	(arith) 	subsd	%xmm10,%xmm6
  403cf7:	f2 0f 58 f1                 	(arith) 	addsd	%xmm1,%xmm6
  403cfb:	f2 0f 59 74 24 20           	(arith) 	mulsd	0x20(%rsp),%xmm6
  403d01:	f2 0f 58 f3                 	(arith) 	addsd	%xmm3,%xmm6
  403d05:	f2 0f 11 b2 c0 fc 47 08     	(move)  	movsd	%xmm6,0x847fcc0(%rdx)
/home/jcsalinas/Documents/pruebas/inst_estimation_module/BT/exact_rhs.f:289
  403d0d:	66 0f 28 cc                 	(move)  	movapd	%xmm4,%xmm1
  403d11:	f2 41 0f 59 cd              	(arith) 	mulsd	%xmm13,%xmm1
  403d16:	f2 45 0f 59 c4              	(arith) 	mulsd	%xmm12,%xmm8
  403d1b:	f2 41 0f 5c c8              	(arith) 	subsd	%xmm8,%xmm1
  403d20:	f2 0f 59 e9                 	(arith) 	mulsd	%xmm1,%xmm5
  403d24:	66 0f 28 c8                 	(move)  	movapd	%xmm0,%xmm1
  403d28:	f2 41 0f 59 cd              	(arith) 	mulsd	%xmm13,%xmm1
  403d2d:	f2 41 0f 59 fc              	(arith) 	mulsd	%xmm12,%xmm7
  403d32:	f2 0f 5c cf                 	(arith) 	subsd	%xmm7,%xmm1
  403d36:	f2 0f 59 ca                 	(arith) 	mulsd	%xmm2,%xmm1
  403d3a:	f2 0f 5c e9                 	(arith) 	subsd	%xmm1,%xmm5
  403d3e:	f2 41 0f 59 e9              	(arith) 	mulsd	%xmm9,%xmm5
  403d43:	f2 0f 10 8a c8 fc 47 08     	(move)  	movsd	0x847fcc8(%rdx),%xmm1
  403d4b:	66 0f 28 f1                 	(move)  	movapd	%xmm1,%xmm6
  403d4f:	f2 0f 5c f5                 	(arith) 	subsd	%xmm5,%xmm6
  403d53:	f2 0f 10 a8 90 16 00 00     	(move)  	movsd	0x1690(%rax),%xmm5
  403d5b:	f2 0f 58 ed                 	(arith) 	addsd	%xmm5,%xmm5
  403d5f:	f2 0f 10 98 98 16 00 00     	(move)  	movsd	0x1698(%rax),%xmm3
  403d67:	66 0f 28 d3                 	(move)  	movapd	%xmm3,%xmm2
  403d6b:	f2 0f 5c d5                 	(arith) 	subsd	%xmm5,%xmm2
  403d6f:	f2 0f 58 90 88 16 00 00     	(arith) 	addsd	0x1688(%rax),%xmm2
  403d77:	f2 41 0f 59 d7              	(arith) 	mulsd	%xmm15,%xmm2
  403d7c:	f2 0f 58 f2                 	(arith) 	addsd	%xmm2,%xmm6
  403d80:	f2 0f 10 50 08              	(move)  	movsd	0x8(%rax),%xmm2
  403d85:	f2 0f 58 d2                 	(arith) 	addsd	%xmm2,%xmm2
  403d89:	f2 0f 10 58 10              	(move)  	movsd	0x10(%rax),%xmm3
  403d8e:	f2 0f 5c da                 	(arith) 	subsd	%xmm2,%xmm3
  403d92:	66 0f 28 d3                 	(move)  	movapd	%xmm3,%xmm2
  403d96:	f2 0f 58 10                 	(arith) 	addsd	(%rax),%xmm2
  403d9a:	f2 0f 59 54 24 28           	(arith) 	mulsd	0x28(%rsp),%xmm2
  403da0:	f2 0f 58 d6                 	(arith) 	addsd	%xmm6,%xmm2
  403da4:	f2 0f 10 98 70 23 00 00     	(move)  	movsd	0x2370(%rax),%xmm3
  403dac:	f2 0f 58 db                 	(arith) 	addsd	%xmm3,%xmm3
  403db0:	f2 0f 10 88 78 23 00 00     	(move)  	movsd	0x2378(%rax),%xmm1
  403db8:	f2 0f 5c cb                 	(arith) 	subsd	%xmm3,%xmm1
  403dbc:	f2 0f 58 88 68 23 00 00     	(arith) 	addsd	0x2368(%rax),%xmm1
  403dc4:	f2 0f 59 4c 24 30           	(arith) 	mulsd	0x30(%rsp),%xmm1
  403dca:	f2 0f 58 d1                 	(arith) 	addsd	%xmm1,%xmm2
  403dce:	f2 0f 10 88 58 13 00 00     	(move)  	movsd	0x1358(%rax),%xmm1
  403dd6:	f2 0f 58 c9                 	(arith) 	addsd	%xmm1,%xmm1
  403dda:	f2 0f 5c e1                 	(arith) 	subsd	%xmm1,%xmm4
  403dde:	f2 0f 58 c4                 	(arith) 	addsd	%xmm4,%xmm0
  403de2:	f2 0f 59 44 24 38           	(arith) 	mulsd	0x38(%rsp),%xmm0
  403de8:	f2 0f 58 d0                 	(arith) 	addsd	%xmm0,%xmm2
  403dec:	f2 0f 11 92 c8 fc 47 08     	(move)  	movsd	%xmm2,0x847fcc8(%rdx)
  403df4:	48 81 c2 a8 79 06 00        	(arith) 	add	$0x679a8,%rdx
  403dfb:	48 83 c0 08                 	(arith) 	add	$0x8,%rax
/home/jcsalinas/Documents/pruebas/inst_estimation_module/BT/exact_rhs.f:258
  403dff:	39 f1                       	(arith) 	cmp	%esi,%ecx
  403e01:	0f 85 b5 fc ff ff           	(control)	jne	403abc <exact_rhs_+0x15ad>	; ↰ label 351 (loop 46)
; ------- Loop 46 exit
349:	
/home/jcsalinas/Documents/pruebas/inst_estimation_module/BT/exact_rhs.f:298
  403e07:	48 63 c3                    	(move)  	movsxd	%ebx,%rax
  403e0a:	4c 8d 3c 80                 	(arith) 	lea	(%rax,%rax,4),%r15
  403e0e:	48 8b 44 24 48              	(move)  	mov	0x48(%rsp),%rax
  403e13:	4a 8d 0c 38                 	(arith) 	lea	(%rax,%r15,1),%rcx
/home/jcsalinas/Documents/pruebas/inst_estimation_module/BT/exact_rhs.f:5
  403e17:	f2 0f 10 1d 81 d3 20 00     	(move)  	movsd	0x20d381(%rip),%xmm3
  403e1f:	b8 00 12 37 0b              	(move)  	mov	$0xb371200,%eax
  403e24:	48 8b 7c 24 50              	(move)  	mov	0x50(%rsp),%rdi
  403e29:	4c 01 ff                    	(arith) 	add	%r15,%rdi
  403e2c:	48 8d 14 fd 00 16 61 00     	(arith) 	lea	0x611600(,%rdi,8),%rdx
  403e34:	be 18 22 37 0b              	(move)  	mov	$0xb372218,%esi
  403e39:	48 29 f9                    	(arith) 	sub	%rdi,%rcx
/home/jcsalinas/Documents/pruebas/inst_estimation_module/BT/exact_rhs.f:298
  403e3c:	f2 0f 10 35 0c b0 00 00     	(move)  	movsd	0xb00c(%rip),%xmm6
  403e44:	f2 0f 10 25 0c b0 00 00     	(move)  	movsd	0xb00c(%rip),%xmm4
/home/jcsalinas/Documents/pruebas/inst_estimation_module/BT/exact_rhs.f:302
  403e4c:	f2 0f 10 2d 0c b0 00 00     	(move)  	movsd	0xb00c(%rip),%xmm5
; ------- Loop 41 entry
352 (loop 41):	
/home/jcsalinas/Documents/pruebas/inst_estimation_module/BT/exact_rhs.f:298
  403e54:	f2 0f 10 b8 78 06 00 00     	(move)  	movsd	0x678(%rax),%xmm7
  403e5c:	f2 0f 10 80 80 06 00 00     	(move)  	movsd	0x680(%rax),%xmm0
  403e64:	f2 0f 10 90 88 06 00 00     	(move)  	movsd	0x688(%rax),%xmm2
  403e6c:	66 0f 28 cf                 	(move)  	movapd	%xmm7,%xmm1
  403e70:	f2 0f 59 ce                 	(arith) 	mulsd	%xmm6,%xmm1
  403e74:	66 44 0f 28 c0              	(move)  	movapd	%xmm0,%xmm8
  403e79:	f2 44 0f 59 c4              	(arith) 	mulsd	%xmm4,%xmm8
  403e7e:	f2 41 0f 5c c8              	(arith) 	subsd	%xmm8,%xmm1
  403e83:	f2 0f 58 ca                 	(arith) 	addsd	%xmm2,%xmm1
  403e87:	f2 0f 59 cb                 	(arith) 	mulsd	%xmm3,%xmm1
  403e8b:	f2 44 0f 10 84 ca 00 83 41 08	(move)  	movsd	0x8418300(%rdx,%rcx,8),%xmm8
  403e95:	f2 44 0f 5c c1              	(arith) 	subsd	%xmm1,%xmm8
  403e9a:	f2 44 0f 11 84 ca 00 83 41 08	(move)  	movsd	%xmm8,0x8418300(%rdx,%rcx,8)
/home/jcsalinas/Documents/pruebas/inst_estimation_module/BT/exact_rhs.f:302
  403ea4:	f2 0f 59 c5                 	(arith) 	mulsd	%xmm5,%xmm0
  403ea8:	f2 0f 59 fc                 	(arith) 	mulsd	%xmm4,%xmm7
  403eac:	f2 0f 5c c7                 	(arith) 	subsd	%xmm7,%xmm0
  403eb0:	f2 0f 59 d4                 	(arith) 	mulsd	%xmm4,%xmm2
  403eb4:	f2 0f 5c c2                 	(arith) 	subsd	%xmm2,%xmm0
  403eb8:	f2 0f 58 80 90 06 00 00     	(arith) 	addsd	0x690(%rax),%xmm0
  403ec0:	f2 0f 59 c3                 	(arith) 	mulsd	%xmm3,%xmm0
  403ec4:	f2 0f 10 8a 00 83 41 08     	(move)  	movsd	0x8418300(%rdx),%xmm1
  403ecc:	f2 0f 5c c8                 	(arith) 	subsd	%xmm0,%xmm1
  403ed0:	f2 0f 11 8a 00 83 41 08     	(move)  	movsd	%xmm1,0x8418300(%rdx)
  403ed8:	48 05 38 03 00 00           	(arith) 	add	$0x338,%rax
  403ede:	48 83 c2 08                 	(arith) 	add	$0x8,%rdx
/home/jcsalinas/Documents/pruebas/inst_estimation_module/BT/exact_rhs.f:295
  403ee2:	48 39 f0                    	(arith) 	cmp	%rsi,%rax
  403ee5:	0f 85 69 ff ff ff           	(control)	jne	403e54 <exact_rhs_+0x1945>	; ↰ label 352 (loop 41)
; ------- Loop 41 exit
353:	
/home/jcsalinas/Documents/pruebas/inst_estimation_module/BT/exact_rhs.f:305
  403eeb:	45 8d 73 fc                 	(arith) 	lea	-0x4(%r11),%r14d
  403eef:	41 83 fe 02                 	(arith) 	cmp	$0x2,%r14d
  403ef3:	0f 8e c6 00 00 00           	(control)	jle	403fbf <exact_rhs_+0x1ab0>	; ↲ label 354
355:	
  403ef9:	4a 8d 84 3d 9f 6d 02 00     	(arith) 	lea	0x26d9f(%rbp,%r15,1),%rax
  403f01:	4c 8d 0c c5 00 16 61 00     	(arith) 	lea	0x611600(,%rax,8),%r9
  403f09:	41 b8 18 12 37 0b           	(move)  	mov	$0xb371218,%r8d
  403f0f:	41 8d 43 f9                 	(arith) 	lea	-0x7(%r11),%eax
  403f13:	4c 8d 14 c5 20 12 37 0b     	(arith) 	lea	0xb371220(,%rax,8),%r10
  403f1b:	b9 03 00 00 00              	(move)  	mov	$0x3,%ecx
/home/jcsalinas/Documents/pruebas/inst_estimation_module/BT/exact_rhs.f:309
  403f20:	f2 0f 10 15 30 af 00 00     	(move)  	movsd	0xaf30(%rip),%xmm2
  403f28:	f2 0f 10 25 30 af 00 00     	(move)  	movsd	0xaf30(%rip),%xmm4
; ------- Loop 45 entry
356 (loop 45):	
  403f30:	49 8d b8 18 10 00 00        	(arith) 	lea	0x1018(%r8),%rdi
  403f37:	4c 89 c0                    	(move)  	mov	%r8,%rax
  403f3a:	4c 89 ca                    	(move)  	mov	%r9,%rdx
; ------- Loop 44 entry
357 (loop 44):	
  403f3d:	48 8d 71 01                 	(arith) 	lea	0x1(%rcx),%rsi
  403f41:	66 0f 28 ca                 	(move)  	movapd	%xmm2,%xmm1
  403f45:	f2 0f 59 88 68 06 00 00     	(arith) 	mulsd	0x668(%rax),%xmm1
  403f4d:	f2 0f 10 80 60 06 00 00     	(move)  	movsd	0x660(%rax),%xmm0
  403f55:	f2 0f 5c c1                 	(arith) 	subsd	%xmm1,%xmm0
  403f59:	66 0f 28 cc                 	(move)  	movapd	%xmm4,%xmm1
  403f5d:	f2 0f 59 88 70 06 00 00     	(arith) 	mulsd	0x670(%rax),%xmm1
  403f65:	f2 0f 58 c1                 	(arith) 	addsd	%xmm1,%xmm0
  403f69:	66 0f 28 ca                 	(move)  	movapd	%xmm2,%xmm1
  403f6d:	f2 0f 59 88 78 06 00 00     	(arith) 	mulsd	0x678(%rax),%xmm1
  403f75:	f2 0f 5c c1                 	(arith) 	subsd	%xmm1,%xmm0
  403f79:	f2 0f 58 80 80 06 00 00     	(arith) 	addsd	0x680(%rax),%xmm0
  403f81:	f2 0f 59 c3                 	(arith) 	mulsd	%xmm3,%xmm0
  403f85:	f2 0f 10 8a 00 83 41 08     	(move)  	movsd	0x8418300(%rdx),%xmm1
  403f8d:	f2 0f 5c c8                 	(arith) 	subsd	%xmm0,%xmm1
  403f91:	f2 0f 11 8a 00 83 41 08     	(move)  	movsd	%xmm1,0x8418300(%rdx)
  403f99:	48 83 c2 08                 	(arith) 	add	$0x8,%rdx
  403f9d:	48 05 38 03 00 00           	(arith) 	add	$0x338,%rax
/home/jcsalinas/Documents/pruebas/inst_estimation_module/BT/exact_rhs.f:306
  403fa3:	48 39 f8                    	(arith) 	cmp	%rdi,%rax
  403fa6:	75 95                       	(control)	jne	403f3d <exact_rhs_+0x1a2e>	; ↰ label 357 (loop 44)
; ------- Loop 44 exit
358:	
  403fa8:	49 81 c1 a8 79 06 00        	(arith) 	add	$0x679a8,%r9
  403faf:	49 83 c0 08                 	(arith) 	add	$0x8,%r8
  403fb3:	48 89 f1                    	(move)  	mov	%rsi,%rcx
/home/jcsalinas/Documents/pruebas/inst_estimation_module/BT/exact_rhs.f:305
  403fb6:	4d 39 d0                    	(arith) 	cmp	%r10,%r8
  403fb9:	0f 85 71 ff ff ff           	(control)	jne	403f30 <exact_rhs_+0x1a21>	; ↰ label 356 (loop 45)
; ------- Loop 45 exit
354:	
/home/jcsalinas/Documents/pruebas/inst_estimation_module/BT/exact_rhs.f:314
  403fbf:	41 8d 73 fd                 	(arith) 	lea	-0x3(%r11),%esi
/home/jcsalinas/Documents/pruebas/inst_estimation_module/BT/exact_rhs.f:317
  403fc3:	48 63 c6                    	(move)  	movsxd	%esi,%rax
  403fc6:	48 69 c0 35 cf 00 00        	(arith) 	imul	$0xcf35,%rax,%rax
  403fcd:	48 8d 4c 05 00              	(arith) 	lea	(%rbp,%rax,1),%rcx
  403fd2:	4c 01 f9                    	(arith) 	add	%r15,%rcx
  403fd5:	48 8d 84 05 35 cf 00 00     	(arith) 	lea	0xcf35(%rbp,%rax,1),%rax
  403fdd:	49 01 c7                    	(arith) 	add	%rax,%r15
  403fe0:	4a 8d 14 fd 00 16 61 00     	(arith) 	lea	0x611600(,%r15,8),%rdx
/home/jcsalinas/Documents/pruebas/inst_estimation_module/BT/exact_rhs.f:320
  403fe8:	b8 00 00 00 00              	(move)  	mov	$0,%eax
  403fed:	4c 29 f9                    	(arith) 	sub	%r15,%rcx
/home/jcsalinas/Documents/pruebas/inst_estimation_module/BT/exact_rhs.f:317
  403ff0:	4d 63 f6                    	(move)  	movsxd	%r14d,%r14
  403ff3:	48 63 f6                    	(move)  	movsxd	%esi,%rsi
  403ff6:	4d 63 ed                    	(move)  	movsxd	%r13d,%r13
  403ff9:	41 8d 7b fb                 	(arith) 	lea	-0x5(%r11),%edi
  403ffd:	48 63 ff                    	(move)  	movsxd	%edi,%rdi
  404000:	f2 0f 10 2d 50 ae 00 00     	(move)  	movsd	0xae50(%rip),%xmm5
  404008:	f2 0f 10 3d 50 ae 00 00     	(move)  	movsd	0xae50(%rip),%xmm7
/home/jcsalinas/Documents/pruebas/inst_estimation_module/BT/exact_rhs.f:320
  404010:	f2 0f 10 35 38 ae 00 00     	(move)  	movsd	0xae38(%rip),%xmm6
; ------- Loop 42 entry
359 (loop 42):	
/home/jcsalinas/Documents/pruebas/inst_estimation_module/BT/exact_rhs.f:317
  404018:	f2 42 0f 10 a4 f0 70 18 37 0b	(move)  	movsd	0xb371870(%rax,%r14,8),%xmm4
  404022:	f2 44 0f 10 84 f0 70 18 37 0b	(move)  	movsd	0xb371870(%rax,%rsi,8),%xmm8
  40402c:	f2 42 0f 10 84 e8 70 18 37 0b	(move)  	movsd	0xb371870(%rax,%r13,8),%xmm0
  404036:	66 0f 28 d4                 	(move)  	movapd	%xmm4,%xmm2
  40403a:	f2 0f 59 d5                 	(arith) 	mulsd	%xmm5,%xmm2
  40403e:	f2 0f 10 8c f8 70 18 37 0b  	(move)  	movsd	0xb371870(%rax,%rdi,8),%xmm1
  404047:	f2 0f 5c ca                 	(arith) 	subsd	%xmm2,%xmm1
  40404b:	66 41 0f 28 d0              	(move)  	movapd	%xmm8,%xmm2
  404050:	f2 0f 59 d7                 	(arith) 	mulsd	%xmm7,%xmm2
  404054:	f2 0f 58 ca                 	(arith) 	addsd	%xmm2,%xmm1
  404058:	66 0f 28 d0                 	(move)  	movapd	%xmm0,%xmm2
  40405c:	f2 0f 59 d5                 	(arith) 	mulsd	%xmm5,%xmm2
  404060:	f2 0f 5c ca                 	(arith) 	subsd	%xmm2,%xmm1
  404064:	f2 0f 59 cb                 	(arith) 	mulsd	%xmm3,%xmm1
  404068:	f2 0f 10 94 ca 00 83 41 08  	(move)  	movsd	0x8418300(%rdx,%rcx,8),%xmm2
  404071:	f2 0f 5c d1                 	(arith) 	subsd	%xmm1,%xmm2
  404075:	f2 0f 11 94 ca 00 83 41 08  	(move)  	movsd	%xmm2,0x8418300(%rdx,%rcx,8)
/home/jcsalinas/Documents/pruebas/inst_estimation_module/BT/exact_rhs.f:320
  40407e:	f2 44 0f 59 c5              	(arith) 	mulsd	%xmm5,%xmm8
  404083:	f2 41 0f 5c e0              	(arith) 	subsd	%xmm8,%xmm4
  404088:	f2 0f 59 c6                 	(arith) 	mulsd	%xmm6,%xmm0
  40408c:	f2 0f 58 c4                 	(arith) 	addsd	%xmm4,%xmm0
  404090:	f2 0f 59 c3                 	(arith) 	mulsd	%xmm3,%xmm0
  404094:	f2 0f 10 8a 00 83 41 08     	(move)  	movsd	0x8418300(%rdx),%xmm1
  40409c:	f2 0f 5c c8                 	(arith) 	subsd	%xmm0,%xmm1
  4040a0:	f2 0f 11 8a 00 83 41 08     	(move)  	movsd	%xmm1,0x8418300(%rdx)
  4040a8:	48 05 38 03 00 00           	(arith) 	add	$0x338,%rax
  4040ae:	48 83 c2 08                 	(arith) 	add	$0x8,%rdx
/home/jcsalinas/Documents/pruebas/inst_estimation_module/BT/exact_rhs.f:313
  4040b2:	48 3d 18 10 00 00           	(arith) 	cmp	$0x1018,%rax
  4040b8:	0f 85 5a ff ff ff           	(control)	jne	404018 <exact_rhs_+0x1b09>	; ↰ label 359 (loop 42)
; ------- Loop 42 exit
360:	
/home/jcsalinas/Documents/pruebas/inst_estimation_module/BT/exact_rhs.f:234
  4040be:	83 c3 01                    	(arith) 	add	$0x1,%ebx
  4040c1:	39 5c 24 58                 	(arith) 	cmp	%ebx,0x58(%rsp)
  4040c5:	0f 85 8a f7 ff ff           	(control)	jne	403855 <exact_rhs_+0x1346>	; ↰ label 340 (loop 43)
; ------- Loop 43 exit
338:	
/home/jcsalinas/Documents/pruebas/inst_estimation_module/BT/exact_rhs.f:232
  4040cb:	83 44 24 44 01              	(arith) 	addl	$0x1,0x44(%rsp)
  4040d0:	8b 44 24 44                 	(move)  	mov	0x44(%rsp),%eax
  4040d4:	83 e8 01                    	(arith) 	sub	$0x1,%eax
  4040d7:	39 44 24 5c                 	(arith) 	cmp	%eax,0x5c(%rsp)
  4040db:	0f 85 11 f7 ff ff           	(control)	jne	4037f2 <exact_rhs_+0x12e3>	; ↰ label 337 (loop 36)
; ------- Loop 36 exit
335:	
/home/jcsalinas/Documents/pruebas/inst_estimation_module/BT/exact_rhs.f:329
  4040e1:	8b 1d 09 d5 20 00           	(move)  	mov	0x20d509(%rip),%ebx
  4040e7:	8d 43 fe                    	(arith) 	lea	-0x2(%rbx),%eax
  4040ea:	85 c0                       	(arith) 	test	%eax,%eax
  4040ec:	0f 8e e0 00 00 00           	(control)	jle	4041d2 <exact_rhs_+0x1cc3>	; ↲ label 361
362:	
/home/jcsalinas/Documents/pruebas/inst_estimation_module/BT/exact_rhs.f:330
  4040f2:	44 8b 0d f3 d4 20 00        	(move)  	mov	0x20d4f3(%rip),%r9d
  4040f9:	45 8d 61 fe                 	(arith) 	lea	-0x2(%r9),%r12d
/home/jcsalinas/Documents/pruebas/inst_estimation_module/BT/exact_rhs.f:331
  4040fd:	8b 3d e5 d4 20 00           	(move)  	mov	0x20d4e5(%rip),%edi
  404103:	8d 6f fe                    	(arith) 	lea	-0x2(%rdi),%ebp
  404106:	83 eb 01                    	(arith) 	sub	$0x1,%ebx
  404109:	41 bb 01 00 00 00           	(move)  	mov	$0x1,%r11d
  40410f:	41 83 e9 01                 	(arith) 	sub	$0x1,%r9d
  404113:	83 ef 01                    	(arith) 	sub	$0x1,%edi
/home/jcsalinas/Documents/pruebas/inst_estimation_module/BT/exact_rhs.f:333
  404116:	f2 0f 10 0d 52 ad 00 00     	(move)  	movsd	0xad52(%rip),%xmm1
; ------- Loop 37 entry
363 (loop 37):	
/home/jcsalinas/Documents/pruebas/inst_estimation_module/BT/exact_rhs.f:330
  40411e:	45 85 e4                    	(arith) 	test	%r12d,%r12d
  404121:	7e 74                       	(control)	jle	404197 <exact_rhs_+0x1c88>	; ↲ label 364
365:	
/home/jcsalinas/Documents/pruebas/inst_estimation_module/BT/exact_rhs.f:333
  404123:	4d 63 d3                    	(move)  	movsxd	%r11d,%r10
  404126:	4d 69 d2 35 cf 00 00        	(arith) 	imul	$0xcf35,%r10,%r10
  40412d:	41 b8 01 00 00 00           	(move)  	mov	$0x1,%r8d
; ------- Loop 38 entry
366 (loop 38):	
/home/jcsalinas/Documents/pruebas/inst_estimation_module/BT/exact_rhs.f:331
  404133:	85 ed                       	(arith) 	test	%ebp,%ebp
  404135:	7e 57                       	(control)	jle	40418e <exact_rhs_+0x1c7f>	; ↲ label 367
368:	
/home/jcsalinas/Documents/pruebas/inst_estimation_module/BT/exact_rhs.f:333
  404137:	49 63 c0                    	(move)  	movsxd	%r8d,%rax
  40413a:	48 89 c2                    	(move)  	mov	%rax,%rdx
  40413d:	48 c1 e2 08                 	(logic) 	sal	$0x8,%rdx
  404141:	48 01 c2                    	(arith) 	add	%rax,%rdx
  404144:	48 8d 34 50                 	(arith) 	lea	(%rax,%rdx,2),%rsi
  404148:	4c 01 d6                    	(arith) 	add	%r10,%rsi
  40414b:	b9 01 00 00 00              	(move)  	mov	$0x1,%ecx
; ------- Loop 40 entry
369 (loop 40):	
  404150:	48 63 c1                    	(move)  	movsxd	%ecx,%rax
  404153:	48 8d 14 80                 	(arith) 	lea	(%rax,%rax,4),%rdx
  404157:	48 01 f2                    	(arith) 	add	%rsi,%rdx
  40415a:	48 8d 04 d5 00 16 61 00     	(arith) 	lea	0x611600(,%rdx,8),%rax
  404162:	48 8d 14 d5 28 16 61 00     	(arith) 	lea	0x611628(,%rdx,8),%rdx
; ------- Loop 39 entry
370 (loop 39):	
  40416a:	f2 0f 10 80 00 83 41 08     	(move)  	movsd	0x8418300(%rax),%xmm0
  404172:	66 0f 57 c1                 	(logic) 	xorpd	%xmm1,%xmm0
  404176:	f2 0f 11 80 00 83 41 08     	(move)  	movsd	%xmm0,0x8418300(%rax)
  40417e:	48 83 c0 08                 	(arith) 	add	$0x8,%rax
/home/jcsalinas/Documents/pruebas/inst_estimation_module/BT/exact_rhs.f:332
  404182:	48 39 d0                    	(arith) 	cmp	%rdx,%rax
  404185:	75 e3                       	(control)	jne	40416a <exact_rhs_+0x1c5b>	; ↰ label 370 (loop 39)
; ------- Loop 39 exit
371:	
/home/jcsalinas/Documents/pruebas/inst_estimation_module/BT/exact_rhs.f:331
  404187:	83 c1 01                    	(arith) 	add	$0x1,%ecx
  40418a:	39 cf                       	(arith) 	cmp	%ecx,%edi
  40418c:	75 c2                       	(control)	jne	404150 <exact_rhs_+0x1c41>	; ↰ label 369 (loop 40)
; ------- Loop 40 exit
367:	
/home/jcsalinas/Documents/pruebas/inst_estimation_module/BT/exact_rhs.f:330
  40418e:	41 83 c0 01                 	(arith) 	add	$0x1,%r8d
  404192:	45 39 c1                    	(arith) 	cmp	%r8d,%r9d
  404195:	75 9c                       	(control)	jne	404133 <exact_rhs_+0x1c24>	; ↰ label 366 (loop 38)
; ------- Loop 38 exit
364:	
/home/jcsalinas/Documents/pruebas/inst_estimation_module/BT/exact_rhs.f:329
  404197:	41 83 c3 01                 	(arith) 	add	$0x1,%r11d
  40419b:	41 39 db                    	(arith) 	cmp	%ebx,%r11d
  40419e:	0f 85 7a ff ff ff           	(control)	jne	40411e <exact_rhs_+0x1c0f>	; ↰ label 363 (loop 37)
; ------- Loop 37 exit
372:	
  4041a4:	eb 2c                       	(control)	jmp	4041d2 <exact_rhs_+0x1cc3>	; ↲ label 361
308:	
/home/jcsalinas/Documents/pruebas/inst_estimation_module/BT/exact_rhs.f:232
  4041a6:	8b 05 40 d4 20 00           	(move)  	mov	0x20d440(%rip),%eax
  4041ac:	83 e8 02                    	(arith) 	sub	$0x2,%eax
  4041af:	89 44 24 5c                 	(move)  	mov	%eax,0x5c(%rsp)
  4041b3:	85 c0                       	(arith) 	test	%eax,%eax
  4041b5:	0f 8f 27 f6 ff ff           	(control)	jg	4037e2 <exact_rhs_+0x12d3>	; ↰ label 336
373:	
  4041bb:	eb 15                       	(control)	jmp	4041d2 <exact_rhs_+0x1cc3>	; ↲ label 361
281:	
  4041bd:	8b 05 29 d4 20 00           	(move)  	mov	0x20d429(%rip),%eax
  4041c3:	83 e8 02                    	(arith) 	sub	$0x2,%eax
  4041c6:	89 44 24 5c                 	(move)  	mov	%eax,0x5c(%rsp)
  4041ca:	85 c0                       	(arith) 	test	%eax,%eax
  4041cc:	0f 8f 10 f6 ff ff           	(control)	jg	4037e2 <exact_rhs_+0x12d3>	; ↰ label 336
361:	
/home/jcsalinas/Documents/pruebas/inst_estimation_module/BT/exact_rhs.f:341
  4041d2:	48 81 c4 b8 00 00 00        	(arith) 	add	$0xb8,%rsp
  4041d9:	5b                          	(move)  	pop	%rbx
  4041da:	5d                          	(move)  	pop	%rbp
  4041db:	41 5c                       	(move)  	pop	%r12
  4041dd:	41 5d                       	(move)  	pop	%r13
  4041df:	41 5e                       	(move)  	pop	%r14
  4041e1:	41 5f                       	(move)  	pop	%r15
  4041e3:	c3                          	(control)	ret


00000000004041e4 <set_constants>:
94 (function set_constants_):	
/home/jcsalinas/Documents/pruebas/inst_estimation_module/BT/set_constants.f:4
  4041e4:	f2 0f 10 15 94 ac 00 00     	(move)  	movsd	0xac94(%rip),%xmm2
/home/jcsalinas/Documents/pruebas/inst_estimation_module/BT/set_constants.f:11
  4041ec:	f2 0f 11 15 bc cf 20 00     	(move)  	movsd	%xmm2,0x20cfbc(%rip)
/home/jcsalinas/Documents/pruebas/inst_estimation_module/BT/set_constants.f:12
  4041f4:	66 0f ef c9                 	(logic) 	pxor	%xmm1,%xmm1
  4041f8:	f2 0f 11 0d d8 cf 20 00     	(move)  	movsd	%xmm1,0x20cfd8(%rip)
/home/jcsalinas/Documents/pruebas/inst_estimation_module/BT/set_constants.f:13
  404200:	f2 0f 11 0d f8 cf 20 00     	(move)  	movsd	%xmm1,0x20cff8(%rip)
/home/jcsalinas/Documents/pruebas/inst_estimation_module/BT/set_constants.f:14
  404208:	f2 44 0f 10 15 47 ac 00 00  	(move)  	movsd	0xac47(%rip),%xmm10
  404211:	f2 44 0f 11 15 0e d0 20 00  	(move)  	movsd	%xmm10,0x20d00e(%rip)
/home/jcsalinas/Documents/pruebas/inst_estimation_module/BT/set_constants.f:15
  40421a:	f2 44 0f 10 0d 2d ac 00 00  	(move)  	movsd	0xac2d(%rip),%xmm9
  404223:	f2 44 0f 11 0d 24 d0 20 00  	(move)  	movsd	%xmm9,0x20d024(%rip)
/home/jcsalinas/Documents/pruebas/inst_estimation_module/BT/set_constants.f:16
  40422c:	f2 0f 10 35 54 ac 00 00     	(move)  	movsd	0xac54(%rip),%xmm6
  404234:	f2 0f 11 35 3c d0 20 00     	(move)  	movsd	%xmm6,0x20d03c(%rip)
/home/jcsalinas/Documents/pruebas/inst_estimation_module/BT/set_constants.f:17
  40423c:	f2 0f 10 3d 04 ac 00 00     	(move)  	movsd	0xac04(%rip),%xmm7
  404244:	f2 0f 11 3d 54 d0 20 00     	(move)  	movsd	%xmm7,0x20d054(%rip)
/home/jcsalinas/Documents/pruebas/inst_estimation_module/BT/set_constants.f:18
  40424c:	f2 44 0f 10 05 3b ac 00 00  	(move)  	movsd	0xac3b(%rip),%xmm8
  404255:	f2 44 0f 11 05 6a d0 20 00  	(move)  	movsd	%xmm8,0x20d06a(%rip)
/home/jcsalinas/Documents/pruebas/inst_estimation_module/BT/set_constants.f:19
  40425e:	f2 44 0f 10 1d 31 ac 00 00  	(move)  	movsd	0xac31(%rip),%xmm11
  404267:	f2 44 0f 11 1d 80 d0 20 00  	(move)  	movsd	%xmm11,0x20d080(%rip)
/home/jcsalinas/Documents/pruebas/inst_estimation_module/BT/set_constants.f:20
  404270:	f2 0f 10 2d 28 ac 00 00     	(move)  	movsd	0xac28(%rip),%xmm5
  404278:	f2 0f 11 2d 98 d0 20 00     	(move)  	movsd	%xmm5,0x20d098(%rip)
/home/jcsalinas/Documents/pruebas/inst_estimation_module/BT/set_constants.f:21
  404280:	f2 0f 11 3d b8 d0 20 00     	(move)  	movsd	%xmm7,0x20d0b8(%rip)
/home/jcsalinas/Documents/pruebas/inst_estimation_module/BT/set_constants.f:22
  404288:	f2 0f 10 25 18 ac 00 00     	(move)  	movsd	0xac18(%rip),%xmm4
  404290:	f2 0f 11 25 d0 d0 20 00     	(move)  	movsd	%xmm4,0x20d0d0(%rip)
/home/jcsalinas/Documents/pruebas/inst_estimation_module/BT/set_constants.f:23
  404298:	f2 0f 10 1d 10 ac 00 00     	(move)  	movsd	0xac10(%rip),%xmm3
  4042a0:	f2 0f 11 1d e8 d0 20 00     	(move)  	movsd	%xmm3,0x20d0e8(%rip)
/home/jcsalinas/Documents/pruebas/inst_estimation_module/BT/set_constants.f:25
  4042a8:	f2 0f 10 05 80 ab 00 00     	(move)  	movsd	0xab80(%rip),%xmm0
  4042b0:	f2 0f 11 05 00 cf 20 00     	(move)  	movsd	%xmm0,0x20cf00(%rip)
/home/jcsalinas/Documents/pruebas/inst_estimation_module/BT/set_constants.f:26
  4042b8:	f2 0f 11 0d 20 cf 20 00     	(move)  	movsd	%xmm1,0x20cf20(%rip)
/home/jcsalinas/Documents/pruebas/inst_estimation_module/BT/set_constants.f:27
  4042c0:	f2 0f 11 0d 40 cf 20 00     	(move)  	movsd	%xmm1,0x20cf40(%rip)
/home/jcsalinas/Documents/pruebas/inst_estimation_module/BT/set_constants.f:28
  4042c8:	f2 0f 11 0d 60 cf 20 00     	(move)  	movsd	%xmm1,0x20cf60(%rip)
/home/jcsalinas/Documents/pruebas/inst_estimation_module/BT/set_constants.f:29
  4042d0:	f2 0f 11 05 80 cf 20 00     	(move)  	movsd	%xmm0,0x20cf80(%rip)
/home/jcsalinas/Documents/pruebas/inst_estimation_module/BT/set_constants.f:30
  4042d8:	f2 0f 11 15 a0 cf 20 00     	(move)  	movsd	%xmm2,0x20cfa0(%rip)
/home/jcsalinas/Documents/pruebas/inst_estimation_module/BT/set_constants.f:31
  4042e0:	f2 0f 11 35 c0 cf 20 00     	(move)  	movsd	%xmm6,0x20cfc0(%rip)
/home/jcsalinas/Documents/pruebas/inst_estimation_module/BT/set_constants.f:32
  4042e8:	f2 44 0f 11 1d df cf 20 00  	(move)  	movsd	%xmm11,0x20cfdf(%rip)
/home/jcsalinas/Documents/pruebas/inst_estimation_module/BT/set_constants.f:33
  4042f1:	f2 0f 11 2d ff cf 20 00     	(move)  	movsd	%xmm5,0x20cfff(%rip)
/home/jcsalinas/Documents/pruebas/inst_estimation_module/BT/set_constants.f:34
  4042f9:	f2 44 0f 11 05 1e d0 20 00  	(move)  	movsd	%xmm8,0x20d01e(%rip)
/home/jcsalinas/Documents/pruebas/inst_estimation_module/BT/set_constants.f:35
  404302:	f2 0f 11 25 3e d0 20 00     	(move)  	movsd	%xmm4,0x20d03e(%rip)
/home/jcsalinas/Documents/pruebas/inst_estimation_module/BT/set_constants.f:36
  40430a:	f2 0f 11 1d 5e d0 20 00     	(move)  	movsd	%xmm3,0x20d05e(%rip)
/home/jcsalinas/Documents/pruebas/inst_estimation_module/BT/set_constants.f:37
  404312:	f2 0f 11 3d 7e d0 20 00     	(move)  	movsd	%xmm7,0x20d07e(%rip)
/home/jcsalinas/Documents/pruebas/inst_estimation_module/BT/set_constants.f:39
  40431a:	f2 0f 11 15 9e ce 20 00     	(move)  	movsd	%xmm2,0x20ce9e(%rip)
/home/jcsalinas/Documents/pruebas/inst_estimation_module/BT/set_constants.f:40
  404322:	f2 0f 11 15 be ce 20 00     	(move)  	movsd	%xmm2,0x20cebe(%rip)
/home/jcsalinas/Documents/pruebas/inst_estimation_module/BT/set_constants.f:41
  40432a:	f2 0f 11 0d de ce 20 00     	(move)  	movsd	%xmm1,0x20cede(%rip)
/home/jcsalinas/Documents/pruebas/inst_estimation_module/BT/set_constants.f:42
  404332:	f2 0f 11 0d fe ce 20 00     	(move)  	movsd	%xmm1,0x20cefe(%rip)
/home/jcsalinas/Documents/pruebas/inst_estimation_module/BT/set_constants.f:43
  40433a:	f2 0f 11 0d 1e cf 20 00     	(move)  	movsd	%xmm1,0x20cf1e(%rip)
/home/jcsalinas/Documents/pruebas/inst_estimation_module/BT/set_constants.f:44
  404342:	f2 0f 11 15 3e cf 20 00     	(move)  	movsd	%xmm2,0x20cf3e(%rip)
/home/jcsalinas/Documents/pruebas/inst_estimation_module/BT/set_constants.f:45
  40434a:	f2 0f 11 35 5e cf 20 00     	(move)  	movsd	%xmm6,0x20cf5e(%rip)
/home/jcsalinas/Documents/pruebas/inst_estimation_module/BT/set_constants.f:46
  404352:	f2 44 0f 10 05 5d ab 00 00  	(move)  	movsd	0xab5d(%rip),%xmm8
  40435b:	f2 44 0f 11 05 74 cf 20 00  	(move)  	movsd	%xmm8,0x20cf74(%rip)
/home/jcsalinas/Documents/pruebas/inst_estimation_module/BT/set_constants.f:47
  404364:	f2 0f 11 2d 94 cf 20 00     	(move)  	movsd	%xmm5,0x20cf94(%rip)
/home/jcsalinas/Documents/pruebas/inst_estimation_module/BT/set_constants.f:48
  40436c:	f2 44 0f 10 1d 4b ab 00 00  	(move)  	movsd	0xab4b(%rip),%xmm11
  404375:	f2 44 0f 11 1d aa cf 20 00  	(move)  	movsd	%xmm11,0x20cfaa(%rip)
/home/jcsalinas/Documents/pruebas/inst_estimation_module/BT/set_constants.f:49
  40437e:	f2 0f 11 1d ca cf 20 00     	(move)  	movsd	%xmm3,0x20cfca(%rip)
/home/jcsalinas/Documents/pruebas/inst_estimation_module/BT/set_constants.f:50
  404386:	f2 0f 11 3d ea cf 20 00     	(move)  	movsd	%xmm7,0x20cfea(%rip)
/home/jcsalinas/Documents/pruebas/inst_estimation_module/BT/set_constants.f:51
  40438e:	f2 0f 11 25 0a d0 20 00     	(move)  	movsd	%xmm4,0x20d00a(%rip)
/home/jcsalinas/Documents/pruebas/inst_estimation_module/BT/set_constants.f:53
  404396:	f2 0f 11 15 2a ce 20 00     	(move)  	movsd	%xmm2,0x20ce2a(%rip)
/home/jcsalinas/Documents/pruebas/inst_estimation_module/BT/set_constants.f:54
  40439e:	f2 0f 11 15 4a ce 20 00     	(move)  	movsd	%xmm2,0x20ce4a(%rip)
/home/jcsalinas/Documents/pruebas/inst_estimation_module/BT/set_constants.f:55
  4043a6:	f2 0f 11 0d 6a ce 20 00     	(move)  	movsd	%xmm1,0x20ce6a(%rip)
/home/jcsalinas/Documents/pruebas/inst_estimation_module/BT/set_constants.f:56
  4043ae:	f2 0f 11 0d 8a ce 20 00     	(move)  	movsd	%xmm1,0x20ce8a(%rip)
/home/jcsalinas/Documents/pruebas/inst_estimation_module/BT/set_constants.f:57
  4043b6:	f2 0f 11 0d aa ce 20 00     	(move)  	movsd	%xmm1,0x20ceaa(%rip)
/home/jcsalinas/Documents/pruebas/inst_estimation_module/BT/set_constants.f:58
  4043be:	f2 0f 11 15 ca ce 20 00     	(move)  	movsd	%xmm2,0x20ceca(%rip)
/home/jcsalinas/Documents/pruebas/inst_estimation_module/BT/set_constants.f:59
  4043c6:	f2 0f 11 35 ea ce 20 00     	(move)  	movsd	%xmm6,0x20ceea(%rip)
/home/jcsalinas/Documents/pruebas/inst_estimation_module/BT/set_constants.f:60
  4043ce:	f2 0f 11 2d 0a cf 20 00     	(move)  	movsd	%xmm5,0x20cf0a(%rip)
/home/jcsalinas/Documents/pruebas/inst_estimation_module/BT/set_constants.f:61
  4043d6:	f2 44 0f 11 1d 29 cf 20 00  	(move)  	movsd	%xmm11,0x20cf29(%rip)
/home/jcsalinas/Documents/pruebas/inst_estimation_module/BT/set_constants.f:62
  4043df:	f2 44 0f 11 05 48 cf 20 00  	(move)  	movsd	%xmm8,0x20cf48(%rip)
/home/jcsalinas/Documents/pruebas/inst_estimation_module/BT/set_constants.f:63
  4043e8:	f2 0f 10 3d d8 aa 00 00     	(move)  	movsd	0xaad8(%rip),%xmm7
  4043f0:	f2 0f 11 3d 60 cf 20 00     	(move)  	movsd	%xmm7,0x20cf60(%rip)
/home/jcsalinas/Documents/pruebas/inst_estimation_module/BT/set_constants.f:64
  4043f8:	f2 0f 10 0d d0 aa 00 00     	(move)  	movsd	0xaad0(%rip),%xmm1
  404400:	f2 0f 11 0d 78 cf 20 00     	(move)  	movsd	%xmm1,0x20cf78(%rip)
/home/jcsalinas/Documents/pruebas/inst_estimation_module/BT/set_constants.f:65
  404408:	f2 0f 11 1d 98 cf 20 00     	(move)  	movsd	%xmm3,0x20cf98(%rip)
/home/jcsalinas/Documents/pruebas/inst_estimation_module/BT/set_constants.f:67
  404410:	f2 44 0f 11 0d b7 cd 20 00  	(move)  	movsd	%xmm9,0x20cdb7(%rip)
/home/jcsalinas/Documents/pruebas/inst_estimation_module/BT/set_constants.f:68
  404419:	f2 44 0f 11 15 d6 cd 20 00  	(move)  	movsd	%xmm10,0x20cdd6(%rip)
/home/jcsalinas/Documents/pruebas/inst_estimation_module/BT/set_constants.f:69
  404422:	f2 0f 11 35 f6 cd 20 00     	(move)  	movsd	%xmm6,0x20cdf6(%rip)
/home/jcsalinas/Documents/pruebas/inst_estimation_module/BT/set_constants.f:70
  40442a:	f2 0f 11 15 16 ce 20 00     	(move)  	movsd	%xmm2,0x20ce16(%rip)
/home/jcsalinas/Documents/pruebas/inst_estimation_module/BT/set_constants.f:71
  404432:	f2 0f 11 0d 36 ce 20 00     	(move)  	movsd	%xmm1,0x20ce36(%rip)
/home/jcsalinas/Documents/pruebas/inst_estimation_module/BT/set_constants.f:72
  40443a:	f2 0f 11 25 56 ce 20 00     	(move)  	movsd	%xmm4,0x20ce56(%rip)
/home/jcsalinas/Documents/pruebas/inst_estimation_module/BT/set_constants.f:73
  404442:	f2 0f 11 1d 76 ce 20 00     	(move)  	movsd	%xmm3,0x20ce76(%rip)
/home/jcsalinas/Documents/pruebas/inst_estimation_module/BT/set_constants.f:74
  40444a:	f2 44 0f 11 1d 95 ce 20 00  	(move)  	movsd	%xmm11,0x20ce95(%rip)
/home/jcsalinas/Documents/pruebas/inst_estimation_module/BT/set_constants.f:75
  404453:	f2 44 0f 11 05 b4 ce 20 00  	(move)  	movsd	%xmm8,0x20ceb4(%rip)
/home/jcsalinas/Documents/pruebas/inst_estimation_module/BT/set_constants.f:76
  40445c:	f2 0f 11 2d d4 ce 20 00     	(move)  	movsd	%xmm5,0x20ced4(%rip)
/home/jcsalinas/Documents/pruebas/inst_estimation_module/BT/set_constants.f:77
  404464:	f2 0f 11 0d f4 ce 20 00     	(move)  	movsd	%xmm1,0x20cef4(%rip)
/home/jcsalinas/Documents/pruebas/inst_estimation_module/BT/set_constants.f:78
  40446c:	f2 0f 11 1d 14 cf 20 00     	(move)  	movsd	%xmm3,0x20cf14(%rip)
/home/jcsalinas/Documents/pruebas/inst_estimation_module/BT/set_constants.f:79
  404474:	f2 0f 11 3d 34 cf 20 00     	(move)  	movsd	%xmm7,0x20cf34(%rip)
/home/jcsalinas/Documents/pruebas/inst_estimation_module/BT/set_constants.f:81
  40447c:	f2 0f 10 15 54 aa 00 00     	(move)  	movsd	0xaa54(%rip),%xmm2
  404484:	f2 0f 11 15 74 d0 20 00     	(move)  	movsd	%xmm2,0x20d074(%rip)
/home/jcsalinas/Documents/pruebas/inst_estimation_module/BT/set_constants.f:82
  40448c:	f2 0f 11 25 74 d0 20 00     	(move)  	movsd	%xmm4,0x20d074(%rip)
/home/jcsalinas/Documents/pruebas/inst_estimation_module/BT/set_constants.f:83
  404494:	f2 0f 11 0d 74 d0 20 00     	(move)  	movsd	%xmm1,0x20d074(%rip)
/home/jcsalinas/Documents/pruebas/inst_estimation_module/BT/set_constants.f:84
  40449c:	f2 0f 11 05 74 d0 20 00     	(move)  	movsd	%xmm0,0x20d074(%rip)
/home/jcsalinas/Documents/pruebas/inst_estimation_module/BT/set_constants.f:85
  4044a4:	f2 0f 11 15 74 d0 20 00     	(move)  	movsd	%xmm2,0x20d074(%rip)
/home/jcsalinas/Documents/pruebas/inst_estimation_module/BT/set_constants.f:87
  4044ac:	8b 05 36 d1 20 00           	(move)  	mov	0x20d136(%rip),%eax
  4044b2:	83 e8 01                    	(arith) 	sub	$0x1,%eax
  4044b5:	66 0f ef d2                 	(logic) 	pxor	%xmm2,%xmm2
  4044b9:	f2 0f 2a d0                 	(conv)  	cvtsi2sd	%eax,%xmm2
  4044bd:	66 0f 28 e0                 	(move)  	movapd	%xmm0,%xmm4
  4044c1:	f2 0f 5e e2                 	(arith) 	divsd	%xmm2,%xmm4
  4044c5:	f2 0f 11 25 f3 cf 20 00     	(move)  	movsd	%xmm4,0x20cff3(%rip)
/home/jcsalinas/Documents/pruebas/inst_estimation_module/BT/set_constants.f:88
  4044cd:	8b 05 19 d1 20 00           	(move)  	mov	0x20d119(%rip),%eax
  4044d3:	83 e8 01                    	(arith) 	sub	$0x1,%eax
  4044d6:	66 0f ef d2                 	(logic) 	pxor	%xmm2,%xmm2
  4044da:	f2 0f 2a d0                 	(conv)  	cvtsi2sd	%eax,%xmm2
  4044de:	66 0f 28 d8                 	(move)  	movapd	%xmm0,%xmm3
  4044e2:	f2 0f 5e da                 	(arith) 	divsd	%xmm2,%xmm3
  4044e6:	f2 0f 11 1d da cf 20 00     	(move)  	movsd	%xmm3,0x20cfda(%rip)
/home/jcsalinas/Documents/pruebas/inst_estimation_module/BT/set_constants.f:89
  4044ee:	8b 05 fc d0 20 00           	(move)  	mov	0x20d0fc(%rip),%eax
  4044f4:	83 e8 01                    	(arith) 	sub	$0x1,%eax
  4044f7:	66 0f ef d2                 	(logic) 	pxor	%xmm2,%xmm2
  4044fb:	f2 0f 2a d0                 	(conv)  	cvtsi2sd	%eax,%xmm2
  4044ff:	66 0f 28 f8                 	(move)  	movapd	%xmm0,%xmm7
  404503:	f2 0f 5e fa                 	(arith) 	divsd	%xmm2,%xmm7
  404507:	66 0f 28 d7                 	(move)  	movapd	%xmm7,%xmm2
  40450b:	f2 0f 11 3d bd cf 20 00     	(move)  	movsd	%xmm7,0x20cfbd(%rip)
/home/jcsalinas/Documents/pruebas/inst_estimation_module/BT/set_constants.f:91
  404513:	f2 0f 10 3d c5 a9 00 00     	(move)  	movsd	0xa9c5(%rip),%xmm7
  40451b:	f2 0f 11 3d b5 cf 20 00     	(move)  	movsd	%xmm7,0x20cfb5(%rip)
/home/jcsalinas/Documents/pruebas/inst_estimation_module/BT/set_constants.f:92
  404523:	f2 0f 10 3d bd a9 00 00     	(move)  	movsd	0xa9bd(%rip),%xmm7
  40452b:	f2 0f 11 3d ad cf 20 00     	(move)  	movsd	%xmm7,0x20cfad(%rip)
/home/jcsalinas/Documents/pruebas/inst_estimation_module/BT/set_constants.f:93
  404533:	f2 0f 11 0d ad cf 20 00     	(move)  	movsd	%xmm1,0x20cfad(%rip)
/home/jcsalinas/Documents/pruebas/inst_estimation_module/BT/set_constants.f:94
  40453b:	f2 0f 10 3d ad a9 00 00     	(move)  	movsd	0xa9ad(%rip),%xmm7
  404543:	f2 0f 11 3d a5 cf 20 00     	(move)  	movsd	%xmm7,0x20cfa5(%rip)
/home/jcsalinas/Documents/pruebas/inst_estimation_module/BT/set_constants.f:96
  40454b:	f2 0f 10 3d a5 a9 00 00     	(move)  	movsd	0xa9a5(%rip),%xmm7
  404553:	f2 0f 11 3d 9d cf 20 00     	(move)  	movsd	%xmm7,0x20cf9d(%rip)
/home/jcsalinas/Documents/pruebas/inst_estimation_module/BT/set_constants.f:98
  40455b:	66 0f 28 ec                 	(move)  	movapd	%xmm4,%xmm5
  40455f:	f2 0f 59 ec                 	(arith) 	mulsd	%xmm4,%xmm5
  404563:	66 0f 28 f0                 	(move)  	movapd	%xmm0,%xmm6
  404567:	f2 0f 5e f5                 	(arith) 	divsd	%xmm5,%xmm6
  40456b:	f2 0f 11 35 6d cb 20 00     	(move)  	movsd	%xmm6,0x20cb6d(%rip)
/home/jcsalinas/Documents/pruebas/inst_estimation_module/BT/set_constants.f:99
  404573:	66 0f 28 ec                 	(move)  	movapd	%xmm4,%xmm5
  404577:	f2 0f 58 ec                 	(arith) 	addsd	%xmm4,%xmm5
  40457b:	66 44 0f 28 e8              	(move)  	movapd	%xmm0,%xmm13
  404580:	f2 44 0f 5e ed              	(arith) 	divsd	%xmm5,%xmm13
  404585:	f2 44 0f 11 2d 5a cb 20 00  	(move)  	movsd	%xmm13,0x20cb5a(%rip)
/home/jcsalinas/Documents/pruebas/inst_estimation_module/BT/set_constants.f:100
  40458e:	66 0f 28 e8                 	(move)  	movapd	%xmm0,%xmm5
  404592:	f2 0f 5e ec                 	(arith) 	divsd	%xmm4,%xmm5
  404596:	f2 0f 11 2d 52 cb 20 00     	(move)  	movsd	%xmm5,0x20cb52(%rip)
/home/jcsalinas/Documents/pruebas/inst_estimation_module/BT/set_constants.f:102
  40459e:	66 0f 28 e3                 	(move)  	movapd	%xmm3,%xmm4
  4045a2:	f2 0f 59 e3                 	(arith) 	mulsd	%xmm3,%xmm4
  4045a6:	66 44 0f 28 f0              	(move)  	movapd	%xmm0,%xmm14
  4045ab:	f2 44 0f 5e f4              	(arith) 	divsd	%xmm4,%xmm14
  4045b0:	f2 44 0f 11 35 3f cb 20 00  	(move)  	movsd	%xmm14,0x20cb3f(%rip)
/home/jcsalinas/Documents/pruebas/inst_estimation_module/BT/set_constants.f:103
  4045b9:	66 0f 28 e3                 	(move)  	movapd	%xmm3,%xmm4
  4045bd:	f2 0f 58 e3                 	(arith) 	addsd	%xmm3,%xmm4
  4045c1:	66 44 0f 28 e0              	(move)  	movapd	%xmm0,%xmm12
  4045c6:	f2 44 0f 5e e4              	(arith) 	divsd	%xmm4,%xmm12
  4045cb:	f2 44 0f 11 25 2c cb 20 00  	(move)  	movsd	%xmm12,0x20cb2c(%rip)
/home/jcsalinas/Documents/pruebas/inst_estimation_module/BT/set_constants.f:104
  4045d4:	66 0f 28 e0                 	(move)  	movapd	%xmm0,%xmm4
  4045d8:	f2 0f 5e e3                 	(arith) 	divsd	%xmm3,%xmm4
  4045dc:	f2 0f 11 25 24 cb 20 00     	(move)  	movsd	%xmm4,0x20cb24(%rip)
/home/jcsalinas/Documents/pruebas/inst_estimation_module/BT/set_constants.f:106
  4045e4:	66 0f 28 da                 	(move)  	movapd	%xmm2,%xmm3
  4045e8:	f2 0f 59 da                 	(arith) 	mulsd	%xmm2,%xmm3
  4045ec:	66 44 0f 28 c0              	(move)  	movapd	%xmm0,%xmm8
  4045f1:	f2 44 0f 5e c3              	(arith) 	divsd	%xmm3,%xmm8
  4045f6:	f2 44 0f 11 05 11 cb 20 00  	(move)  	movsd	%xmm8,0x20cb11(%rip)
/home/jcsalinas/Documents/pruebas/inst_estimation_module/BT/set_constants.f:107
  4045ff:	66 0f 28 da                 	(move)  	movapd	%xmm2,%xmm3
  404603:	f2 0f 58 da                 	(arith) 	addsd	%xmm2,%xmm3
  404607:	66 44 0f 28 d8              	(move)  	movapd	%xmm0,%xmm11
  40460c:	f2 44 0f 5e db              	(arith) 	divsd	%xmm3,%xmm11
  404611:	f2 44 0f 11 1d fe ca 20 00  	(move)  	movsd	%xmm11,0x20cafe(%rip)
/home/jcsalinas/Documents/pruebas/inst_estimation_module/BT/set_constants.f:108
  40461a:	66 0f 28 d8                 	(move)  	movapd	%xmm0,%xmm3
  40461e:	f2 0f 5e da                 	(arith) 	divsd	%xmm2,%xmm3
  404622:	f2 0f 11 1d f6 ca 20 00     	(move)  	movsd	%xmm3,0x20caf6(%rip)
/home/jcsalinas/Documents/pruebas/inst_estimation_module/BT/set_constants.f:110
  40462a:	f2 0f 10 3d ce a8 00 00     	(move)  	movsd	0xa8ce(%rip),%xmm7
  404632:	f2 0f 11 3d ee ca 20 00     	(move)  	movsd	%xmm7,0x20caee(%rip)
/home/jcsalinas/Documents/pruebas/inst_estimation_module/BT/set_constants.f:111
  40463a:	f2 0f 11 3d ee ca 20 00     	(move)  	movsd	%xmm7,0x20caee(%rip)
/home/jcsalinas/Documents/pruebas/inst_estimation_module/BT/set_constants.f:112
  404642:	f2 0f 11 3d ee ca 20 00     	(move)  	movsd	%xmm7,0x20caee(%rip)
/home/jcsalinas/Documents/pruebas/inst_estimation_module/BT/set_constants.f:113
  40464a:	f2 0f 11 3d ee ca 20 00     	(move)  	movsd	%xmm7,0x20caee(%rip)
/home/jcsalinas/Documents/pruebas/inst_estimation_module/BT/set_constants.f:114
  404652:	f2 0f 11 3d ee ca 20 00     	(move)  	movsd	%xmm7,0x20caee(%rip)
/home/jcsalinas/Documents/pruebas/inst_estimation_module/BT/set_constants.f:116
  40465a:	f2 0f 11 3d ee ca 20 00     	(move)  	movsd	%xmm7,0x20caee(%rip)
/home/jcsalinas/Documents/pruebas/inst_estimation_module/BT/set_constants.f:117
  404662:	f2 0f 11 3d ee ca 20 00     	(move)  	movsd	%xmm7,0x20caee(%rip)
/home/jcsalinas/Documents/pruebas/inst_estimation_module/BT/set_constants.f:118
  40466a:	f2 0f 11 3d ee ca 20 00     	(move)  	movsd	%xmm7,0x20caee(%rip)
/home/jcsalinas/Documents/pruebas/inst_estimation_module/BT/set_constants.f:119
  404672:	f2 0f 11 3d ee ca 20 00     	(move)  	movsd	%xmm7,0x20caee(%rip)
/home/jcsalinas/Documents/pruebas/inst_estimation_module/BT/set_constants.f:120
  40467a:	f2 0f 11 3d ee ca 20 00     	(move)  	movsd	%xmm7,0x20caee(%rip)
/home/jcsalinas/Documents/pruebas/inst_estimation_module/BT/set_constants.f:122
  404682:	f2 0f 11 05 ee ca 20 00     	(move)  	movsd	%xmm0,0x20caee(%rip)
/home/jcsalinas/Documents/pruebas/inst_estimation_module/BT/set_constants.f:123
  40468a:	f2 0f 11 05 ee ca 20 00     	(move)  	movsd	%xmm0,0x20caee(%rip)
/home/jcsalinas/Documents/pruebas/inst_estimation_module/BT/set_constants.f:124
  404692:	f2 0f 11 05 ee ca 20 00     	(move)  	movsd	%xmm0,0x20caee(%rip)
/home/jcsalinas/Documents/pruebas/inst_estimation_module/BT/set_constants.f:125
  40469a:	f2 0f 11 05 ee ca 20 00     	(move)  	movsd	%xmm0,0x20caee(%rip)
/home/jcsalinas/Documents/pruebas/inst_estimation_module/BT/set_constants.f:126
  4046a2:	f2 0f 11 05 ee ca 20 00     	(move)  	movsd	%xmm0,0x20caee(%rip)
/home/jcsalinas/Documents/pruebas/inst_estimation_module/BT/set_constants.f:128
  4046aa:	f2 0f 11 3d 06 cd 20 00     	(move)  	movsd	%xmm7,0x20cd06(%rip)
/home/jcsalinas/Documents/pruebas/inst_estimation_module/BT/set_constants.f:129
  4046b2:	f2 0f 11 3d 06 cd 20 00     	(move)  	movsd	%xmm7,0x20cd06(%rip)
/home/jcsalinas/Documents/pruebas/inst_estimation_module/BT/set_constants.f:130
  4046ba:	f2 0f 11 05 06 cd 20 00     	(move)  	movsd	%xmm0,0x20cd06(%rip)
/home/jcsalinas/Documents/pruebas/inst_estimation_module/BT/set_constants.f:132
  4046c2:	f2 0f 10 15 3e a8 00 00     	(move)  	movsd	0xa83e(%rip),%xmm2
  4046ca:	f2 0f 11 15 ce ca 20 00     	(move)  	movsd	%xmm2,0x20cace(%rip)
/home/jcsalinas/Documents/pruebas/inst_estimation_module/BT/set_constants.f:134
  4046d2:	f2 0f 11 05 4e ce 20 00     	(move)  	movsd	%xmm0,0x20ce4e(%rip)
/home/jcsalinas/Documents/pruebas/inst_estimation_module/BT/set_constants.f:135
  4046da:	f2 0f 10 05 2e a8 00 00     	(move)  	movsd	0xa82e(%rip),%xmm0
  4046e2:	f2 0f 11 05 46 ce 20 00     	(move)  	movsd	%xmm0,0x20ce46(%rip)
/home/jcsalinas/Documents/pruebas/inst_estimation_module/BT/set_constants.f:4
  4046ea:	f2 0f 10 05 b6 ca 20 00     	(move)  	movsd	0x20cab6(%rip),%xmm0
/home/jcsalinas/Documents/pruebas/inst_estimation_module/BT/set_constants.f:137
  4046f2:	66 44 0f 28 fe              	(move)  	movapd	%xmm6,%xmm15
  4046f7:	f2 44 0f 59 f8              	(arith) 	mulsd	%xmm0,%xmm15
  4046fc:	f2 44 0f 11 3d 3b ce 20 00  	(move)  	movsd	%xmm15,0x20ce3b(%rip)
/home/jcsalinas/Documents/pruebas/inst_estimation_module/BT/set_constants.f:138
  404705:	f2 44 0f 59 e8              	(arith) 	mulsd	%xmm0,%xmm13
  40470a:	f2 44 0f 11 2d 35 ce 20 00  	(move)  	movsd	%xmm13,0x20ce35(%rip)
/home/jcsalinas/Documents/pruebas/inst_estimation_module/BT/set_constants.f:139
  404713:	66 45 0f 28 ee              	(move)  	movapd	%xmm14,%xmm13
  404718:	f2 44 0f 59 e8              	(arith) 	mulsd	%xmm0,%xmm13
  40471d:	f2 44 0f 11 2d 2a ce 20 00  	(move)  	movsd	%xmm13,0x20ce2a(%rip)
/home/jcsalinas/Documents/pruebas/inst_estimation_module/BT/set_constants.f:140
  404726:	f2 44 0f 59 e0              	(arith) 	mulsd	%xmm0,%xmm12
  40472b:	f2 44 0f 11 25 24 ce 20 00  	(move)  	movsd	%xmm12,0x20ce24(%rip)
/home/jcsalinas/Documents/pruebas/inst_estimation_module/BT/set_constants.f:141
  404734:	66 45 0f 28 e0              	(move)  	movapd	%xmm8,%xmm12
  404739:	f2 44 0f 59 e0              	(arith) 	mulsd	%xmm0,%xmm12
  40473e:	f2 44 0f 11 25 19 ce 20 00  	(move)  	movsd	%xmm12,0x20ce19(%rip)
/home/jcsalinas/Documents/pruebas/inst_estimation_module/BT/set_constants.f:142
  404747:	f2 44 0f 59 d8              	(arith) 	mulsd	%xmm0,%xmm11
  40474c:	f2 44 0f 11 1d 13 ce 20 00  	(move)  	movsd	%xmm11,0x20ce13(%rip)
/home/jcsalinas/Documents/pruebas/inst_estimation_module/BT/set_constants.f:144
  404755:	f2 45 0f 58 ff              	(arith) 	addsd	%xmm15,%xmm15
  40475a:	f2 44 0f 11 3d 0d ce 20 00  	(move)  	movsd	%xmm15,0x20ce0d(%rip)
/home/jcsalinas/Documents/pruebas/inst_estimation_module/BT/set_constants.f:145
  404763:	f2 45 0f 58 ed              	(arith) 	addsd	%xmm13,%xmm13
  404768:	f2 44 0f 11 2d 07 ce 20 00  	(move)  	movsd	%xmm13,0x20ce07(%rip)
/home/jcsalinas/Documents/pruebas/inst_estimation_module/BT/set_constants.f:146
  404771:	f2 45 0f 58 e4              	(arith) 	addsd	%xmm12,%xmm12
  404776:	f2 44 0f 11 25 01 ce 20 00  	(move)  	movsd	%xmm12,0x20ce01(%rip)
/home/jcsalinas/Documents/pruebas/inst_estimation_module/BT/set_constants.f:148
  40477f:	f2 0f 59 d0                 	(arith) 	mulsd	%xmm0,%xmm2
  404783:	f2 0f 11 15 ad cd 20 00     	(move)  	movsd	%xmm2,0x20cdad(%rip)
/home/jcsalinas/Documents/pruebas/inst_estimation_module/BT/set_constants.f:150
  40478b:	f2 0f 11 15 f5 cd 20 00     	(move)  	movsd	%xmm2,0x20cdf5(%rip)
/home/jcsalinas/Documents/pruebas/inst_estimation_module/BT/set_constants.f:151
  404793:	f2 44 0f 59 d2              	(arith) 	mulsd	%xmm2,%xmm10
  404798:	f2 44 0f 11 15 ef cd 20 00  	(move)  	movsd	%xmm10,0x20cdef(%rip)
/home/jcsalinas/Documents/pruebas/inst_estimation_module/BT/set_constants.f:152
  4047a1:	f2 44 0f 59 ca              	(arith) 	mulsd	%xmm2,%xmm9
  4047a6:	f2 44 0f 11 0d e9 cd 20 00  	(move)  	movsd	%xmm9,0x20cde9(%rip)
/home/jcsalinas/Documents/pruebas/inst_estimation_module/BT/set_constants.f:153
  4047af:	f2 0f 59 15 a9 a6 00 00     	(arith) 	mulsd	0xa6a9(%rip),%xmm2
  4047b7:	f2 0f 11 15 e1 cd 20 00     	(move)  	movsd	%xmm2,0x20cde1(%rip)
/home/jcsalinas/Documents/pruebas/inst_estimation_module/BT/set_constants.f:155
  4047bf:	66 44 0f 28 d5              	(move)  	movapd	%xmm5,%xmm10
  4047c4:	f2 44 0f 59 d1              	(arith) 	mulsd	%xmm1,%xmm10
  4047c9:	f2 44 0f 11 15 d6 cd 20 00  	(move)  	movsd	%xmm10,0x20cdd6(%rip)
/home/jcsalinas/Documents/pruebas/inst_estimation_module/BT/set_constants.f:156
  4047d2:	66 44 0f 28 cc              	(move)  	movapd	%xmm4,%xmm9
  4047d7:	f2 44 0f 59 c9              	(arith) 	mulsd	%xmm1,%xmm9
  4047dc:	f2 44 0f 11 0d cb cd 20 00  	(move)  	movsd	%xmm9,0x20cdcb(%rip)
/home/jcsalinas/Documents/pruebas/inst_estimation_module/BT/set_constants.f:157
  4047e5:	f2 0f 59 cb                 	(arith) 	mulsd	%xmm3,%xmm1
  4047e9:	f2 0f 11 0d c7 cd 20 00     	(move)  	movsd	%xmm1,0x20cdc7(%rip)
/home/jcsalinas/Documents/pruebas/inst_estimation_module/BT/set_constants.f:159
  4047f1:	f2 0f 59 f7                 	(arith) 	mulsd	%xmm7,%xmm6
  4047f5:	f2 0f 11 35 fb cb 20 00     	(move)  	movsd	%xmm6,0x20cbfb(%rip)
/home/jcsalinas/Documents/pruebas/inst_estimation_module/BT/set_constants.f:160
  4047fd:	f2 0f 11 35 fb cb 20 00     	(move)  	movsd	%xmm6,0x20cbfb(%rip)
/home/jcsalinas/Documents/pruebas/inst_estimation_module/BT/set_constants.f:161
  404805:	f2 0f 11 35 fb cb 20 00     	(move)  	movsd	%xmm6,0x20cbfb(%rip)
/home/jcsalinas/Documents/pruebas/inst_estimation_module/BT/set_constants.f:162
  40480d:	f2 0f 11 35 fb cb 20 00     	(move)  	movsd	%xmm6,0x20cbfb(%rip)
/home/jcsalinas/Documents/pruebas/inst_estimation_module/BT/set_constants.f:163
  404815:	f2 0f 11 35 fb cb 20 00     	(move)  	movsd	%xmm6,0x20cbfb(%rip)
/home/jcsalinas/Documents/pruebas/inst_estimation_module/BT/set_constants.f:165
  40481d:	f2 44 0f 59 f7              	(arith) 	mulsd	%xmm7,%xmm14
  404822:	f2 44 0f 11 35 1d cc 20 00  	(move)  	movsd	%xmm14,0x20cc1d(%rip)
/home/jcsalinas/Documents/pruebas/inst_estimation_module/BT/set_constants.f:166
  40482b:	f2 44 0f 11 35 1c cc 20 00  	(move)  	movsd	%xmm14,0x20cc1c(%rip)
/home/jcsalinas/Documents/pruebas/inst_estimation_module/BT/set_constants.f:167
  404834:	f2 44 0f 11 35 1b cc 20 00  	(move)  	movsd	%xmm14,0x20cc1b(%rip)
/home/jcsalinas/Documents/pruebas/inst_estimation_module/BT/set_constants.f:168
  40483d:	f2 44 0f 11 35 1a cc 20 00  	(move)  	movsd	%xmm14,0x20cc1a(%rip)
/home/jcsalinas/Documents/pruebas/inst_estimation_module/BT/set_constants.f:169
  404846:	f2 44 0f 11 35 19 cc 20 00  	(move)  	movsd	%xmm14,0x20cc19(%rip)
/home/jcsalinas/Documents/pruebas/inst_estimation_module/BT/set_constants.f:171
  40484f:	f2 44 0f 11 05 40 cc 20 00  	(move)  	movsd	%xmm8,0x20cc40(%rip)
/home/jcsalinas/Documents/pruebas/inst_estimation_module/BT/set_constants.f:172
  404858:	f2 44 0f 11 05 3f cc 20 00  	(move)  	movsd	%xmm8,0x20cc3f(%rip)
/home/jcsalinas/Documents/pruebas/inst_estimation_module/BT/set_constants.f:173
  404861:	f2 44 0f 11 05 3e cc 20 00  	(move)  	movsd	%xmm8,0x20cc3e(%rip)
/home/jcsalinas/Documents/pruebas/inst_estimation_module/BT/set_constants.f:174
  40486a:	f2 44 0f 11 05 3d cc 20 00  	(move)  	movsd	%xmm8,0x20cc3d(%rip)
/home/jcsalinas/Documents/pruebas/inst_estimation_module/BT/set_constants.f:175
  404873:	f2 44 0f 11 05 3c cc 20 00  	(move)  	movsd	%xmm8,0x20cc3c(%rip)
/home/jcsalinas/Documents/pruebas/inst_estimation_module/BT/set_constants.f:177
  40487c:	f2 0f 10 3d 94 a6 00 00     	(move)  	movsd	0xa694(%rip),%xmm7
  404884:	f2 0f 11 3d 34 cd 20 00     	(move)  	movsd	%xmm7,0x20cd34(%rip)
/home/jcsalinas/Documents/pruebas/inst_estimation_module/BT/set_constants.f:178
  40488c:	f2 0f 10 15 8c a6 00 00     	(move)  	movsd	0xa68c(%rip),%xmm2
  404894:	f2 0f 11 15 2c cd 20 00     	(move)  	movsd	%xmm2,0x20cd2c(%rip)
/home/jcsalinas/Documents/pruebas/inst_estimation_module/BT/set_constants.f:179
  40489c:	f2 0f 10 05 84 a6 00 00     	(move)  	movsd	0xa684(%rip),%xmm0
  4048a4:	f2 0f 11 05 24 cd 20 00     	(move)  	movsd	%xmm0,0x20cd24(%rip)
/home/jcsalinas/Documents/pruebas/inst_estimation_module/BT/set_constants.f:181
  4048ac:	66 41 0f 28 f2              	(move)  	movapd	%xmm10,%xmm6
  4048b1:	f2 0f 59 f2                 	(arith) 	mulsd	%xmm2,%xmm6
  4048b5:	f2 0f 59 f5                 	(arith) 	mulsd	%xmm5,%xmm6
  4048b9:	f2 0f 11 35 0f cb 20 00     	(move)  	movsd	%xmm6,0x20cb0f(%rip)
/home/jcsalinas/Documents/pruebas/inst_estimation_module/BT/set_constants.f:182
  4048c1:	66 0f 28 f5                 	(move)  	movapd	%xmm5,%xmm6
  4048c5:	f2 41 0f 59 f2              	(arith) 	mulsd	%xmm10,%xmm6
  4048ca:	f2 0f 11 35 06 cb 20 00     	(move)  	movsd	%xmm6,0x20cb06(%rip)
/home/jcsalinas/Documents/pruebas/inst_estimation_module/BT/set_constants.f:183
  4048d2:	f2 0f 10 35 1e a6 00 00     	(move)  	movsd	0xa61e(%rip),%xmm6
  4048da:	f2 41 0f 59 f2              	(arith) 	mulsd	%xmm10,%xmm6
  4048df:	f2 0f 59 f5                 	(arith) 	mulsd	%xmm5,%xmm6
  4048e3:	f2 0f 11 35 f5 ca 20 00     	(move)  	movsd	%xmm6,0x20caf5(%rip)
/home/jcsalinas/Documents/pruebas/inst_estimation_module/BT/set_constants.f:184
  4048eb:	66 41 0f 28 f2              	(move)  	movapd	%xmm10,%xmm6
  4048f0:	f2 0f 59 f0                 	(arith) 	mulsd	%xmm0,%xmm6
  4048f4:	f2 0f 59 f5                 	(arith) 	mulsd	%xmm5,%xmm6
  4048f8:	f2 0f 11 35 e8 ca 20 00     	(move)  	movsd	%xmm6,0x20cae8(%rip)
/home/jcsalinas/Documents/pruebas/inst_estimation_module/BT/set_constants.f:185
  404900:	f2 44 0f 59 15 df a5 00 00  	(arith) 	mulsd	0xa5df(%rip),%xmm10
  404909:	f2 41 0f 59 ea              	(arith) 	mulsd	%xmm10,%xmm5
  40490e:	f2 0f 11 2d da ca 20 00     	(move)  	movsd	%xmm5,0x20cada(%rip)
/home/jcsalinas/Documents/pruebas/inst_estimation_module/BT/set_constants.f:187
  404916:	66 41 0f 28 e9              	(move)  	movapd	%xmm9,%xmm5
  40491b:	f2 0f 59 ea                 	(arith) 	mulsd	%xmm2,%xmm5
  40491f:	f2 0f 59 ec                 	(arith) 	mulsd	%xmm4,%xmm5
  404923:	f2 0f 11 2d f5 ca 20 00     	(move)  	movsd	%xmm5,0x20caf5(%rip)
/home/jcsalinas/Documents/pruebas/inst_estimation_module/BT/set_constants.f:188
  40492b:	66 0f 28 ec                 	(move)  	movapd	%xmm4,%xmm5
  40492f:	f2 41 0f 59 e9              	(arith) 	mulsd	%xmm9,%xmm5
  404934:	f2 0f 11 2d ec ca 20 00     	(move)  	movsd	%xmm5,0x20caec(%rip)
/home/jcsalinas/Documents/pruebas/inst_estimation_module/BT/set_constants.f:189
  40493c:	f2 0f 10 2d b4 a5 00 00     	(move)  	movsd	0xa5b4(%rip),%xmm5
  404944:	f2 41 0f 59 e9              	(arith) 	mulsd	%xmm9,%xmm5
  404949:	f2 0f 59 ec                 	(arith) 	mulsd	%xmm4,%xmm5
  40494d:	f2 0f 11 2d db ca 20 00     	(move)  	movsd	%xmm5,0x20cadb(%rip)
/home/jcsalinas/Documents/pruebas/inst_estimation_module/BT/set_constants.f:190
  404955:	66 41 0f 28 e9              	(move)  	movapd	%xmm9,%xmm5
  40495a:	f2 0f 59 e8                 	(arith) 	mulsd	%xmm0,%xmm5
  40495e:	f2 0f 59 ec                 	(arith) 	mulsd	%xmm4,%xmm5
  404962:	f2 0f 11 2d ce ca 20 00     	(move)  	movsd	%xmm5,0x20cace(%rip)
/home/jcsalinas/Documents/pruebas/inst_estimation_module/BT/set_constants.f:191
  40496a:	f2 44 0f 59 0d 75 a5 00 00  	(arith) 	mulsd	0xa575(%rip),%xmm9
  404973:	f2 41 0f 59 e1              	(arith) 	mulsd	%xmm9,%xmm4
  404978:	f2 0f 11 25 c0 ca 20 00     	(move)  	movsd	%xmm4,0x20cac0(%rip)
/home/jcsalinas/Documents/pruebas/inst_estimation_module/BT/set_constants.f:193
  404980:	f2 0f 59 d1                 	(arith) 	mulsd	%xmm1,%xmm2
  404984:	f2 0f 59 d3                 	(arith) 	mulsd	%xmm3,%xmm2
  404988:	f2 0f 11 15 e0 ca 20 00     	(move)  	movsd	%xmm2,0x20cae0(%rip)
/home/jcsalinas/Documents/pruebas/inst_estimation_module/BT/set_constants.f:194
  404990:	66 0f 28 d3                 	(move)  	movapd	%xmm3,%xmm2
  404994:	f2 0f 59 d1                 	(arith) 	mulsd	%xmm1,%xmm2
  404998:	f2 0f 11 15 d8 ca 20 00     	(move)  	movsd	%xmm2,0x20cad8(%rip)
/home/jcsalinas/Documents/pruebas/inst_estimation_module/BT/set_constants.f:195
  4049a0:	f2 0f 10 3d 50 a5 00 00     	(move)  	movsd	0xa550(%rip),%xmm7
  4049a8:	f2 0f 59 f9                 	(arith) 	mulsd	%xmm1,%xmm7
  4049ac:	f2 0f 59 fb                 	(arith) 	mulsd	%xmm3,%xmm7
  4049b0:	f2 0f 11 3d c8 ca 20 00     	(move)  	movsd	%xmm7,0x20cac8(%rip)
/home/jcsalinas/Documents/pruebas/inst_estimation_module/BT/set_constants.f:196
  4049b8:	f2 0f 59 c1                 	(arith) 	mulsd	%xmm1,%xmm0
  4049bc:	f2 0f 59 c3                 	(arith) 	mulsd	%xmm3,%xmm0
  4049c0:	f2 0f 11 05 c0 ca 20 00     	(move)  	movsd	%xmm0,0x20cac0(%rip)
/home/jcsalinas/Documents/pruebas/inst_estimation_module/BT/set_constants.f:197
  4049c8:	f2 0f 59 0d 18 a5 00 00     	(arith) 	mulsd	0xa518(%rip),%xmm1
  4049d0:	f2 0f 59 d9                 	(arith) 	mulsd	%xmm1,%xmm3
  4049d4:	f2 0f 11 1d b4 ca 20 00     	(move)  	movsd	%xmm3,0x20cab4(%rip)
  4049dc:	c3                          	(control)	ret


00000000004049dd <adi>:
104 (function adi_):	
/home/jcsalinas/Documents/pruebas/inst_estimation_module/BT/adi.f:4
  4049dd:	48 83 ec 08                 	(arith) 	sub	$0x8,%rsp
/home/jcsalinas/Documents/pruebas/inst_estimation_module/BT/adi.f:9
  4049e1:	b8 00 00 00 00              	(move)  	mov	$0,%eax
  4049e6:	e8 2d 00 00 00              	(control)	call	404a18 <compute_rhs_>	; ⇄ compute_rhs
375:	
/home/jcsalinas/Documents/pruebas/inst_estimation_module/BT/adi.f:11
  4049eb:	b8 00 00 00 00              	(move)  	mov	$0,%eax
  4049f0:	e8 df 23 00 00              	(control)	call	406dd4 <x_solve_>	; ⇄ x_solve
377:	
/home/jcsalinas/Documents/pruebas/inst_estimation_module/BT/adi.f:13
  4049f5:	b8 00 00 00 00              	(move)  	mov	$0,%eax
  4049fa:	e8 df 37 00 00              	(control)	call	4081de <y_solve_>	; ⇄ y_solve
379:	
/home/jcsalinas/Documents/pruebas/inst_estimation_module/BT/adi.f:15
  4049ff:	b8 00 00 00 00              	(move)  	mov	$0,%eax
  404a04:	e8 53 6f 00 00              	(control)	call	40b95c <z_solve_>	; ⇄ z_solve
381:	
/home/jcsalinas/Documents/pruebas/inst_estimation_module/BT/adi.f:17
  404a09:	b8 00 00 00 00              	(move)  	mov	$0,%eax
  404a0e:	e8 a6 83 00 00              	(control)	call	40cdb9 <add_>	; ⇄ add
383:	
/home/jcsalinas/Documents/pruebas/inst_estimation_module/BT/adi.f:20
  404a13:	48 83 c4 08                 	(arith) 	add	$0x8,%rsp
  404a17:	c3                          	(control)	ret


0000000000404a18 <compute_rhs>:
374 (function compute_rhs_):	
/home/jcsalinas/Documents/pruebas/inst_estimation_module/BT/rhs.f:4
  404a18:	41 57                       	(move)  	push	%r15
  404a1a:	41 56                       	(move)  	push	%r14
  404a1c:	41 55                       	(move)  	push	%r13
  404a1e:	41 54                       	(move)  	push	%r12
  404a20:	55                          	(move)  	push	%rbp
  404a21:	53                          	(move)  	push	%rbx
  404a22:	48 81 ec 08 01 00 00        	(arith) 	sub	$0x108,%rsp
/home/jcsalinas/Documents/pruebas/inst_estimation_module/BT/rhs.f:16
  404a29:	83 3d c4 cb 20 00 00        	(arith) 	cmpl	$0,0x20cbc4(%rip)
  404a30:	0f 84 3c 23 00 00           	(control)	je	406d72 <compute_rhs_+0x235a>	; ↲ label 384
385:	
/home/jcsalinas/Documents/pruebas/inst_estimation_module/BT/rhs.f:21
  404a36:	bf 30 ef 40 00              	(move)  	mov	$0x40ef30,%edi
  404a3b:	b8 00 00 00 00              	(move)  	mov	$0,%eax
  404a40:	e8 de 9f 00 00              	(control)	call	40ea23 <timer_start_>	; ⇄ timer_start
386:	
/home/jcsalinas/Documents/pruebas/inst_estimation_module/BT/rhs.f:21
  404a45:	44 8b 1d a4 cb 20 00        	(move)  	mov	0x20cba4(%rip),%r11d
  404a4c:	44 89 d8                    	(move)  	mov	%r11d,%eax
  404a4f:	83 e8 01                    	(arith) 	sub	$0x1,%eax
  404a52:	0f 88 f0 01 00 00           	(control)	js	404c48 <compute_rhs_+0x230>	; ↲ label 387
388:	
/home/jcsalinas/Documents/pruebas/inst_estimation_module/BT/rhs.f:22
  404a58:	44 8b 0d 8d cb 20 00        	(move)  	mov	0x20cb8d(%rip),%r9d
  404a5f:	45 8d 61 ff                 	(arith) 	lea	-0x1(%r9),%r12d
/home/jcsalinas/Documents/pruebas/inst_estimation_module/BT/rhs.f:23
  404a63:	8b 0d 7f cb 20 00           	(move)  	mov	0x20cb7f(%rip),%ecx
  404a69:	44 8d 51 ff                 	(arith) 	lea	-0x1(%rcx),%r10d
  404a6d:	bd 00 00 00 00              	(move)  	mov	$0,%ebp
/home/jcsalinas/Documents/pruebas/inst_estimation_module/BT/rhs.f:24
  404a72:	f2 0f 10 35 b6 a3 00 00     	(move)  	movsd	0xa3b6(%rip),%xmm6
/home/jcsalinas/Documents/pruebas/inst_estimation_module/BT/rhs.f:32
  404a7a:	f2 0f 10 2d c6 a3 00 00     	(move)  	movsd	0xa3c6(%rip),%xmm5
; ------- Loop 74 entry
389 (loop 74):	
/home/jcsalinas/Documents/pruebas/inst_estimation_module/BT/rhs.f:22
  404a82:	45 85 e4                    	(arith) 	test	%r12d,%r12d
  404a85:	0f 88 2e 01 00 00           	(control)	js	404bb9 <compute_rhs_+0x1a1>	; ↲ label 390
391:	
/home/jcsalinas/Documents/pruebas/inst_estimation_module/BT/rhs.f:24
  404a8b:	48 63 dd                    	(move)  	movsxd	%ebp,%rbx
  404a8e:	4c 69 eb 35 cf 00 00        	(arith) 	imul	$0xcf35,%rbx,%r13
/home/jcsalinas/Documents/pruebas/inst_estimation_module/BT/rhs.f:25
  404a95:	48 69 db 71 29 00 00        	(arith) 	imul	$0x2971,%rbx,%rbx
  404a9c:	41 b8 00 00 00 00           	(move)  	mov	$0,%r8d
; ------- Loop 128 entry
392 (loop 128):	
/home/jcsalinas/Documents/pruebas/inst_estimation_module/BT/rhs.f:23
  404aa2:	45 85 d2                    	(arith) 	test	%r10d,%r10d
  404aa5:	0f 88 01 01 00 00           	(control)	js	404bac <compute_rhs_+0x194>	; ↲ label 393
394:	
/home/jcsalinas/Documents/pruebas/inst_estimation_module/BT/rhs.f:24
  404aab:	49 63 c0                    	(move)  	movsxd	%r8d,%rax
  404aae:	48 89 c2                    	(move)  	mov	%rax,%rdx
  404ab1:	48 c1 e2 08                 	(logic) 	sal	$0x8,%rdx
  404ab5:	48 01 c2                    	(arith) 	add	%rax,%rdx
  404ab8:	48 8d 3c 50                 	(arith) 	lea	(%rax,%rdx,2),%rdi
  404abc:	4c 01 ef                    	(arith) 	add	%r13,%rdi
/home/jcsalinas/Documents/pruebas/inst_estimation_module/BT/rhs.f:25
  404abf:	48 6b c0 67                 	(arith) 	imul	$0x67,%rax,%rax
  404ac3:	48 8d 34 18                 	(arith) 	lea	(%rax,%rbx,1),%rsi
  404ac7:	ba 00 00 00 00              	(move)  	mov	$0,%edx
; ------- Loop 129 entry
395 (loop 129):	
/home/jcsalinas/Documents/pruebas/inst_estimation_module/BT/rhs.f:24
  404acc:	48 63 c2                    	(move)  	movsxd	%edx,%rax
  404acf:	4c 8d 34 80                 	(arith) 	lea	(%rax,%rax,4),%r14
  404ad3:	49 01 fe                    	(arith) 	add	%rdi,%r14
  404ad6:	66 0f 28 c6                 	(move)  	movapd	%xmm6,%xmm0
  404ada:	f2 42 0f 5e 04 f5 00 16 61 00	(arith) 	divsd	0x611600(,%r14,8),%xmm0
/home/jcsalinas/Documents/pruebas/inst_estimation_module/BT/rhs.f:25
  404ae4:	48 01 f0                    	(arith) 	add	%rsi,%rax
  404ae7:	4c 8d b8 36 9b 94 00        	(arith) 	lea	0x949b36(%rax),%r15
  404aee:	f2 42 0f 11 04 fd 00 16 61 00	(move)  	movsd	%xmm0,0x611600(,%r15,8)
/home/jcsalinas/Documents/pruebas/inst_estimation_module/BT/rhs.f:26
  404af8:	f2 42 0f 10 1c f5 08 16 61 00	(move)  	movsd	0x611608(,%r14,8),%xmm3
  404b02:	4c 8d b8 1e 8f 52 00        	(arith) 	lea	0x528f1e(%rax),%r15
  404b09:	66 0f 28 c8                 	(move)  	movapd	%xmm0,%xmm1
  404b0d:	f2 0f 59 cb                 	(arith) 	mulsd	%xmm3,%xmm1
  404b11:	f2 42 0f 11 0c fd 00 16 61 00	(move)  	movsd	%xmm1,0x611600(,%r15,8)
/home/jcsalinas/Documents/pruebas/inst_estimation_module/BT/rhs.f:27
  404b1b:	f2 42 0f 10 14 f5 10 16 61 00	(move)  	movsd	0x611610(,%r14,8),%xmm2
  404b25:	4c 8d b8 24 12 63 00        	(arith) 	lea	0x631224(%rax),%r15
  404b2c:	66 0f 28 c8                 	(move)  	movapd	%xmm0,%xmm1
  404b30:	f2 0f 59 ca                 	(arith) 	mulsd	%xmm2,%xmm1
  404b34:	f2 42 0f 11 0c fd 00 16 61 00	(move)  	movsd	%xmm1,0x611600(,%r15,8)
/home/jcsalinas/Documents/pruebas/inst_estimation_module/BT/rhs.f:28
  404b3e:	f2 42 0f 10 0c f5 18 16 61 00	(move)  	movsd	0x611618(,%r14,8),%xmm1
  404b48:	4c 8d b0 2a 95 73 00        	(arith) 	lea	0x73952a(%rax),%r14
  404b4f:	66 0f 28 e0                 	(move)  	movapd	%xmm0,%xmm4
  404b53:	f2 0f 59 e1                 	(arith) 	mulsd	%xmm1,%xmm4
  404b57:	f2 42 0f 11 24 f5 00 16 61 00	(move)  	movsd	%xmm4,0x611600(,%r14,8)
/home/jcsalinas/Documents/pruebas/inst_estimation_module/BT/rhs.f:32
  404b61:	f2 0f 59 db                 	(arith) 	mulsd	%xmm3,%xmm3
  404b65:	f2 0f 59 d2                 	(arith) 	mulsd	%xmm2,%xmm2
  404b69:	f2 0f 58 d3                 	(arith) 	addsd	%xmm3,%xmm2
  404b6d:	f2 0f 59 c9                 	(arith) 	mulsd	%xmm1,%xmm1
  404b71:	f2 0f 58 ca                 	(arith) 	addsd	%xmm2,%xmm1
  404b75:	f2 0f 59 cd                 	(arith) 	mulsd	%xmm5,%xmm1
  404b79:	f2 0f 59 c8                 	(arith) 	mulsd	%xmm0,%xmm1
  404b7d:	4c 8d b0 3c 1e a5 00        	(arith) 	lea	0xa51e3c(%rax),%r14
  404b84:	f2 42 0f 11 0c f5 00 16 61 00	(move)  	movsd	%xmm1,0x611600(,%r14,8)
/home/jcsalinas/Documents/pruebas/inst_estimation_module/BT/rhs.f:33
  404b8e:	48 05 30 18 84 00           	(arith) 	add	$0x841830,%rax
  404b94:	f2 0f 59 c1                 	(arith) 	mulsd	%xmm1,%xmm0
  404b98:	f2 0f 11 04 c5 00 16 61 00  	(move)  	movsd	%xmm0,0x611600(,%rax,8)
/home/jcsalinas/Documents/pruebas/inst_estimation_module/BT/rhs.f:23
  404ba1:	83 c2 01                    	(arith) 	add	$0x1,%edx
  404ba4:	39 d1                       	(arith) 	cmp	%edx,%ecx
  404ba6:	0f 85 20 ff ff ff           	(control)	jne	404acc <compute_rhs_+0xb4>	; ↰ label 395 (loop 129)
; ------- Loop 129 exit
393:	
/home/jcsalinas/Documents/pruebas/inst_estimation_module/BT/rhs.f:22
  404bac:	41 83 c0 01                 	(arith) 	add	$0x1,%r8d
  404bb0:	45 39 c1                    	(arith) 	cmp	%r8d,%r9d
  404bb3:	0f 85 e9 fe ff ff           	(control)	jne	404aa2 <compute_rhs_+0x8a>	; ↰ label 392 (loop 128)
; ------- Loop 128 exit
390:	
/home/jcsalinas/Documents/pruebas/inst_estimation_module/BT/rhs.f:21
  404bb9:	83 c5 01                    	(arith) 	add	$0x1,%ebp
  404bbc:	44 39 dd                    	(arith) 	cmp	%r11d,%ebp
  404bbf:	0f 85 bd fe ff ff           	(control)	jne	404a82 <compute_rhs_+0x6a>	; ↰ label 389 (loop 74)
; ------- Loop 74 exit
396:	
  404bc5:	bb 00 00 00 00              	(move)  	mov	$0,%ebx
; ------- Loop 75 entry
397 (loop 75):	
/home/jcsalinas/Documents/pruebas/inst_estimation_module/BT/rhs.f:45
  404bca:	45 85 e4                    	(arith) 	test	%r12d,%r12d
  404bcd:	78 71                       	(control)	js	404c40 <compute_rhs_+0x228>	; ↲ label 398
399:	
/home/jcsalinas/Documents/pruebas/inst_estimation_module/BT/rhs.f:48
  404bcf:	48 63 eb                    	(move)  	movsxd	%ebx,%rbp
  404bd2:	48 69 ed 35 cf 00 00        	(arith) 	imul	$0xcf35,%rbp,%rbp
  404bd9:	41 b8 00 00 00 00           	(move)  	mov	$0,%r8d
; ------- Loop 125 entry
400 (loop 125):	
/home/jcsalinas/Documents/pruebas/inst_estimation_module/BT/rhs.f:46
  404bdf:	45 85 d2                    	(arith) 	test	%r10d,%r10d
  404be2:	78 53                       	(control)	js	404c37 <compute_rhs_+0x21f>	; ↲ label 401
402:	
/home/jcsalinas/Documents/pruebas/inst_estimation_module/BT/rhs.f:48
  404be4:	49 63 c0                    	(move)  	movsxd	%r8d,%rax
  404be7:	48 89 c2                    	(move)  	mov	%rax,%rdx
  404bea:	48 c1 e2 08                 	(logic) 	sal	$0x8,%rdx
  404bee:	48 01 c2                    	(arith) 	add	%rax,%rdx
  404bf1:	48 8d 3c 50                 	(arith) 	lea	(%rax,%rdx,2),%rdi
  404bf5:	48 01 ef                    	(arith) 	add	%rbp,%rdi
  404bf8:	be 00 00 00 00              	(move)  	mov	$0,%esi
; ------- Loop 127 entry
403 (loop 127):	
  404bfd:	48 63 c6                    	(move)  	movsxd	%esi,%rax
  404c00:	48 8d 14 80                 	(arith) 	lea	(%rax,%rax,4),%rdx
  404c04:	48 01 fa                    	(arith) 	add	%rdi,%rdx
  404c07:	48 8d 04 d5 00 16 61 00     	(arith) 	lea	0x611600(,%rdx,8),%rax
  404c0f:	48 8d 14 d5 28 16 61 00     	(arith) 	lea	0x611628(,%rdx,8),%rdx
; ------- Loop 126 entry
404 (loop 126):	
  404c17:	f2 0f 10 80 00 83 41 08     	(move)  	movsd	0x8418300(%rax),%xmm0
  404c1f:	f2 0f 11 80 10 0a ad 05     	(move)  	movsd	%xmm0,0x5ad0a10(%rax)
  404c27:	48 83 c0 08                 	(arith) 	add	$0x8,%rax
/home/jcsalinas/Documents/pruebas/inst_estimation_module/BT/rhs.f:47
  404c2b:	48 39 d0                    	(arith) 	cmp	%rdx,%rax
  404c2e:	75 e7                       	(control)	jne	404c17 <compute_rhs_+0x1ff>	; ↰ label 404 (loop 126)
; ------- Loop 126 exit
405:	
/home/jcsalinas/Documents/pruebas/inst_estimation_module/BT/rhs.f:46
  404c30:	83 c6 01                    	(arith) 	add	$0x1,%esi
  404c33:	39 f1                       	(arith) 	cmp	%esi,%ecx
  404c35:	75 c6                       	(control)	jne	404bfd <compute_rhs_+0x1e5>	; ↰ label 403 (loop 127)
; ------- Loop 127 exit
401:	
/home/jcsalinas/Documents/pruebas/inst_estimation_module/BT/rhs.f:45
  404c37:	41 83 c0 01                 	(arith) 	add	$0x1,%r8d
  404c3b:	45 39 c1                    	(arith) 	cmp	%r8d,%r9d
  404c3e:	75 9f                       	(control)	jne	404bdf <compute_rhs_+0x1c7>	; ↰ label 400 (loop 125)
; ------- Loop 125 exit
398:	
/home/jcsalinas/Documents/pruebas/inst_estimation_module/BT/rhs.f:44
  404c40:	83 c3 01                    	(arith) 	add	$0x1,%ebx
  404c43:	44 39 db                    	(arith) 	cmp	%r11d,%ebx
  404c46:	75 82                       	(control)	jne	404bca <compute_rhs_+0x1b2>	; ↰ label 397 (loop 75)
; ------- Loop 75 exit
387:	
/home/jcsalinas/Documents/pruebas/inst_estimation_module/BT/rhs.f:55
  404c48:	83 3d a5 c9 20 00 00        	(arith) 	cmpl	$0,0x20c9a5(%rip)
  404c4f:	74 0f                       	(control)	je	404c60 <compute_rhs_+0x248>	; ↲ label 406
407:	
/home/jcsalinas/Documents/pruebas/inst_estimation_module/BT/rhs.f:59
  404c51:	bf 34 ef 40 00              	(move)  	mov	$0x40ef34,%edi
  404c56:	b8 00 00 00 00              	(move)  	mov	$0,%eax
  404c5b:	e8 c3 9d 00 00              	(control)	call	40ea23 <timer_start_>	; ⇄ timer_start
406:	
/home/jcsalinas/Documents/pruebas/inst_estimation_module/BT/rhs.f:59
  404c60:	8b 0d 8a c9 20 00           	(move)  	mov	0x20c98a(%rip),%ecx
  404c66:	8d 41 fe                    	(arith) 	lea	-0x2(%rcx),%eax
  404c69:	85 c0                       	(arith) 	test	%eax,%eax
  404c6b:	0f 8e fc 07 00 00           	(control)	jle	40546d <compute_rhs_+0xa55>	; ↲ label 408
409:	
/home/jcsalinas/Documents/pruebas/inst_estimation_module/BT/rhs.f:60
  404c71:	8b 05 75 c9 20 00           	(move)  	mov	0x20c975(%rip),%eax
  404c77:	89 84 24 80 00 00 00        	(move)  	mov	%eax,0x80(%rsp)
  404c7e:	83 e8 02                    	(arith) 	sub	$0x2,%eax
  404c81:	89 84 24 90 00 00 00        	(move)  	mov	%eax,0x90(%rsp)
/home/jcsalinas/Documents/pruebas/inst_estimation_module/BT/rhs.f:61
  404c88:	8b 05 5a c9 20 00           	(move)  	mov	0x20c95a(%rip),%eax
  404c8e:	44 8d 70 fe                 	(arith) 	lea	-0x2(%rax),%r14d
/home/jcsalinas/Documents/pruebas/inst_estimation_module/BT/rhs.f:4
  404c92:	f2 0f 10 2d 5e c7 20 00     	(move)  	movsd	0x20c75e(%rip),%xmm5
  404c9a:	f2 0f 11 6c 24 20           	(move)  	movsd	%xmm5,0x20(%rsp)
  404ca0:	f2 44 0f 10 15 3f c4 20 00  	(move)  	movsd	0x20c43f(%rip),%xmm10
  404ca9:	f2 0f 10 2d 4f c7 20 00     	(move)  	movsd	0x20c74f(%rip),%xmm5
  404cb1:	f2 0f 11 6c 24 28           	(move)  	movsd	%xmm5,0x28(%rsp)
  404cb7:	f2 0f 10 2d 19 c7 20 00     	(move)  	movsd	0x20c719(%rip),%xmm5
  404cbf:	f2 0f 11 6c 24 08           	(move)  	movsd	%xmm5,0x8(%rsp)
  404cc5:	f2 0f 10 2d fb c8 20 00     	(move)  	movsd	0x20c8fb(%rip),%xmm5
  404ccd:	f2 0f 11 ac 24 88 00 00 00  	(move)  	movsd	%xmm5,0x88(%rsp)
  404cd6:	f2 0f 10 2d 2a c8 20 00     	(move)  	movsd	0x20c82a(%rip),%xmm5
  404cde:	f2 0f 11 6c 24 10           	(move)  	movsd	%xmm5,0x10(%rsp)
  404ce4:	f2 0f 10 2d 1c c7 20 00     	(move)  	movsd	0x20c71c(%rip),%xmm5
  404cec:	f2 0f 11 6c 24 30           	(move)  	movsd	%xmm5,0x30(%rsp)
  404cf2:	f2 0f 10 2d 16 c7 20 00     	(move)  	movsd	0x20c716(%rip),%xmm5
  404cfa:	f2 0f 11 6c 24 38           	(move)  	movsd	%xmm5,0x38(%rsp)
  404d00:	f2 0f 10 2d 10 c7 20 00     	(move)  	movsd	0x20c710(%rip),%xmm5
  404d08:	f2 0f 11 6c 24 40           	(move)  	movsd	%xmm5,0x40(%rsp)
  404d0e:	f2 0f 10 2d ca c6 20 00     	(move)  	movsd	0x20c6ca(%rip),%xmm5
  404d16:	f2 0f 11 6c 24 48           	(move)  	movsd	%xmm5,0x48(%rsp)
  404d1c:	f2 0f 10 2d c4 c6 20 00     	(move)  	movsd	0x20c6c4(%rip),%xmm5
  404d24:	f2 0f 11 6c 24 50           	(move)  	movsd	%xmm5,0x50(%rsp)
  404d2a:	f2 0f 10 2d be c6 20 00     	(move)  	movsd	0x20c6be(%rip),%xmm5
  404d32:	f2 0f 11 6c 24 58           	(move)  	movsd	%xmm5,0x58(%rsp)
  404d38:	f2 0f 10 2d c0 c7 20 00     	(move)  	movsd	0x20c7c0(%rip),%xmm5
  404d40:	f2 0f 11 6c 24 60           	(move)  	movsd	%xmm5,0x60(%rsp)
  404d46:	f2 0f 10 3d 52 c4 20 00     	(move)  	movsd	0x20c452(%rip),%xmm7
/home/jcsalinas/Documents/pruebas/inst_estimation_module/BT/rhs.f:134
  404d4e:	8d 58 fc                    	(arith) 	lea	-0x4(%rax),%ebx
  404d51:	89 9c 24 a8 00 00 00        	(move)  	mov	%ebx,0xa8(%rsp)
/home/jcsalinas/Documents/pruebas/inst_estimation_module/BT/rhs.f:149
  404d58:	8d 50 fd                    	(arith) 	lea	-0x3(%rax),%edx
  404d5b:	48 63 d2                    	(move)  	movsxd	%edx,%rdx
  404d5e:	48 8d 14 92                 	(arith) 	lea	(%rdx,%rdx,4),%rdx
  404d62:	48 89 54 24 68              	(move)  	mov	%rdx,0x68(%rsp)
  404d67:	4c 8d 7a f6                 	(arith) 	lea	-0xa(%rdx),%r15
  404d6b:	48 8d 5a fb                 	(arith) 	lea	-0x5(%rdx),%rbx
  404d6f:	48 89 5c 24 70              	(move)  	mov	%rbx,0x70(%rsp)
  404d74:	48 8d 5a 05                 	(arith) 	lea	0x5(%rdx),%rbx
  404d78:	48 89 5c 24 78              	(move)  	mov	%rbx,0x78(%rsp)
  404d7d:	8d 59 ff                    	(arith) 	lea	-0x1(%rcx),%ebx
  404d80:	89 9c 24 98 00 00 00        	(move)  	mov	%ebx,0x98(%rsp)
  404d87:	89 84 24 b0 00 00 00        	(move)  	mov	%eax,0xb0(%rsp)
  404d8e:	8d 40 f9                    	(arith) 	lea	-0x7(%rax),%eax
  404d91:	48 8d 04 80                 	(arith) 	lea	(%rax,%rax,4),%rax
  404d95:	48 89 84 24 a0 00 00 00     	(move)  	mov	%rax,0xa0(%rsp)
  404d9d:	c7 84 24 c0 00 00 00 01 00 00 00	(move)  	movl	$0x1,0xc0(%rsp)
/home/jcsalinas/Documents/pruebas/inst_estimation_module/BT/rhs.f:139
  404da8:	f2 44 0f 10 0d a7 a0 00 00  	(move)  	movsd	0xa0a7(%rip),%xmm9
  404db1:	f2 44 0f 10 2d a6 a0 00 00  	(move)  	movsd	0xa0a6(%rip),%xmm13
  404dba:	66 45 0f 28 e2              	(move)  	movapd	%xmm10,%xmm12
; ------- Loop 113 entry
410 (loop 113):	
/home/jcsalinas/Documents/pruebas/inst_estimation_module/BT/rhs.f:60
  404dbf:	83 bc 24 90 00 00 00 00     	(arith) 	cmpl	$0,0x90(%rsp)
  404dc7:	0f 8e 7f 06 00 00           	(control)	jle	40544c <compute_rhs_+0xa34>	; ↲ label 411
412:	
/home/jcsalinas/Documents/pruebas/inst_estimation_module/BT/rhs.f:62
  404dcd:	4c 63 84 24 c0 00 00 00     	(move)  	movsxd	0xc0(%rsp),%r8
  404dd5:	4d 69 d0 71 29 00 00        	(arith) 	imul	$0x2971,%r8,%r10
/home/jcsalinas/Documents/pruebas/inst_estimation_module/BT/rhs.f:69
  404ddc:	4d 69 c0 35 cf 00 00        	(arith) 	imul	$0xcf35,%r8,%r8
  404de3:	8b 84 24 80 00 00 00        	(move)  	mov	0x80(%rsp),%eax
  404dea:	44 8d 48 ff                 	(arith) 	lea	-0x1(%rax),%r9d
  404dee:	bf 01 00 00 00              	(move)  	mov	$0x1,%edi
  404df3:	8b 84 24 b0 00 00 00        	(move)  	mov	0xb0(%rsp),%eax
  404dfa:	8d 70 ff                    	(arith) 	lea	-0x1(%rax),%esi
  404dfd:	f2 0f 11 bc 24 b8 00 00 00  	(move)  	movsd	%xmm7,0xb8(%rsp)
; ------- Loop 114 entry
413 (loop 114):	
/home/jcsalinas/Documents/pruebas/inst_estimation_module/BT/rhs.f:61
  404e06:	45 85 f6                    	(arith) 	test	%r14d,%r14d
  404e09:	0f 8e 45 03 00 00           	(control)	jle	405154 <compute_rhs_+0x73c>	; ↲ label 414
415:	
/home/jcsalinas/Documents/pruebas/inst_estimation_module/BT/rhs.f:62
  404e0f:	48 63 c7                    	(move)  	movsxd	%edi,%rax
/home/jcsalinas/Documents/pruebas/inst_estimation_module/BT/rhs.f:79
  404e12:	f2 0f 10 6c 24 08           	(move)  	movsd	0x8(%rsp),%xmm5
  404e18:	f2 0f 59 ac 24 88 00 00 00  	(arith) 	mulsd	0x88(%rsp),%xmm5
  404e21:	f2 0f 11 6c 24 18           	(move)  	movsd	%xmm5,0x18(%rsp)
  404e27:	48 6b d0 67                 	(arith) 	imul	$0x67,%rax,%rdx
  404e2b:	4c 01 d2                    	(arith) 	add	%r10,%rdx
  404e2e:	48 8d 14 d5 00 16 61 00     	(arith) 	lea	0x611600(,%rdx,8),%rdx
  404e36:	48 89 c1                    	(move)  	mov	%rax,%rcx
  404e39:	48 c1 e1 08                 	(logic) 	sal	$0x8,%rcx
  404e3d:	48 01 c1                    	(arith) 	add	%rax,%rcx
  404e40:	48 8d 04 48                 	(arith) 	lea	(%rax,%rcx,2),%rax
  404e44:	4c 01 c0                    	(arith) 	add	%r8,%rax
  404e47:	48 8d 04 c5 00 16 61 00     	(arith) 	lea	0x611600(,%rax,8),%rax
  404e4f:	b9 01 00 00 00              	(move)  	mov	$0x1,%ecx
; ------- Loop 124 entry
416 (loop 124):	
/home/jcsalinas/Documents/pruebas/inst_estimation_module/BT/rhs.f:62
  404e54:	f2 44 0f 10 9a f8 78 94 02  	(move)  	movsd	0x29478f8(%rdx),%xmm11
/home/jcsalinas/Documents/pruebas/inst_estimation_module/BT/rhs.f:63
  404e5d:	83 c1 01                    	(arith) 	add	$0x1,%ecx
  404e60:	f2 0f 10 aa 00 79 94 02     	(move)  	movsd	0x2947900(%rdx),%xmm5
/home/jcsalinas/Documents/pruebas/inst_estimation_module/BT/rhs.f:64
  404e68:	f2 0f 10 92 f0 78 94 02     	(move)  	movsd	0x29478f0(%rdx),%xmm2
/home/jcsalinas/Documents/pruebas/inst_estimation_module/BT/rhs.f:69
  404e70:	f2 0f 10 48 58              	(move)  	movsd	0x58(%rax),%xmm1
  404e75:	f2 44 0f 10 70 08           	(move)  	movsd	0x8(%rax),%xmm14
  404e7b:	f2 0f 10 58 28              	(move)  	movsd	0x28(%rax),%xmm3
  404e80:	f2 0f 58 db                 	(arith) 	addsd	%xmm3,%xmm3
  404e84:	f2 0f 10 40 50              	(move)  	movsd	0x50(%rax),%xmm0
  404e89:	f2 0f 5c c3                 	(arith) 	subsd	%xmm3,%xmm0
  404e8d:	f2 0f 58 00                 	(arith) 	addsd	(%rax),%xmm0
  404e91:	f2 0f 59 44 24 20           	(arith) 	mulsd	0x20(%rsp),%xmm0
  404e97:	f2 0f 58 80 38 0a ad 05     	(arith) 	addsd	0x5ad0a38(%rax),%xmm0
  404e9f:	66 0f 28 d9                 	(move)  	movapd	%xmm1,%xmm3
  404ea3:	f2 41 0f 5c de              	(arith) 	subsd	%xmm14,%xmm3
  404ea8:	f2 41 0f 59 dc              	(arith) 	mulsd	%xmm12,%xmm3
  404ead:	f2 0f 5c c3                 	(arith) 	subsd	%xmm3,%xmm0
  404eb1:	f2 0f 11 80 38 0a ad 05     	(move)  	movsd	%xmm0,0x5ad0a38(%rax)
/home/jcsalinas/Documents/pruebas/inst_estimation_module/BT/rhs.f:79
  404eb9:	66 45 0f 28 d3              	(move)  	movapd	%xmm11,%xmm10
  404ebe:	f2 45 0f 58 d3              	(arith) 	addsd	%xmm11,%xmm10
  404ec3:	f2 0f 10 40 70              	(move)  	movsd	0x70(%rax),%xmm0
  404ec8:	f2 44 0f 10 82 f0 f1 28 05  	(move)  	movsd	0x528f1f0(%rdx),%xmm8
  404ed1:	f2 0f 10 58 20              	(move)  	movsd	0x20(%rax),%xmm3
  404ed6:	f2 0f 10 ba e0 f1 28 05     	(move)  	movsd	0x528f1e0(%rdx),%xmm7
  404ede:	f2 0f 10 60 30              	(move)  	movsd	0x30(%rax),%xmm4
  404ee3:	f2 0f 58 e4                 	(arith) 	addsd	%xmm4,%xmm4
  404ee7:	66 0f 28 f1                 	(move)  	movapd	%xmm1,%xmm6
  404eeb:	f2 0f 5c f4                 	(arith) 	subsd	%xmm4,%xmm6
  404eef:	66 0f 28 e6                 	(move)  	movapd	%xmm6,%xmm4
  404ef3:	f2 41 0f 58 e6              	(arith) 	addsd	%xmm14,%xmm4
  404ef8:	f2 0f 59 64 24 28           	(arith) 	mulsd	0x28(%rsp),%xmm4
  404efe:	f2 0f 58 a0 40 0a ad 05     	(arith) 	addsd	0x5ad0a40(%rax),%xmm4
  404f06:	66 0f 28 f4                 	(move)  	movapd	%xmm4,%xmm6
  404f0a:	66 0f 28 e5                 	(move)  	movapd	%xmm5,%xmm4
  404f0e:	f2 41 0f 5c e2              	(arith) 	subsd	%xmm10,%xmm4
  404f13:	f2 0f 58 e2                 	(arith) 	addsd	%xmm2,%xmm4
  404f17:	f2 0f 59 64 24 18           	(arith) 	mulsd	0x18(%rsp),%xmm4
  404f1d:	f2 0f 58 e6                 	(arith) 	addsd	%xmm6,%xmm4
  404f21:	66 0f 28 f0                 	(move)  	movapd	%xmm0,%xmm6
  404f25:	f2 41 0f 5c f0              	(arith) 	subsd	%xmm8,%xmm6
  404f2a:	f2 0f 5c f3                 	(arith) 	subsd	%xmm3,%xmm6
  404f2e:	f2 0f 58 f7                 	(arith) 	addsd	%xmm7,%xmm6
  404f32:	f2 0f 59 74 24 10           	(arith) 	mulsd	0x10(%rsp),%xmm6
  404f38:	f2 0f 59 cd                 	(arith) 	mulsd	%xmm5,%xmm1
  404f3c:	f2 44 0f 59 f2              	(arith) 	mulsd	%xmm2,%xmm14
  404f41:	f2 41 0f 5c ce              	(arith) 	subsd	%xmm14,%xmm1
  404f46:	f2 0f 58 ce                 	(arith) 	addsd	%xmm6,%xmm1
  404f4a:	f2 41 0f 59 cc              	(arith) 	mulsd	%xmm12,%xmm1
  404f4f:	f2 0f 5c e1                 	(arith) 	subsd	%xmm1,%xmm4
  404f53:	f2 0f 11 a0 40 0a ad 05     	(move)  	movsd	%xmm4,0x5ad0a40(%rax)
/home/jcsalinas/Documents/pruebas/inst_estimation_module/BT/rhs.f:87
  404f5b:	f2 0f 10 60 60              	(move)  	movsd	0x60(%rax),%xmm4
  404f60:	f2 44 0f 10 70 10           	(move)  	movsd	0x10(%rax),%xmm14
  404f66:	f2 0f 10 48 38              	(move)  	movsd	0x38(%rax),%xmm1
  404f6b:	f2 0f 58 c9                 	(arith) 	addsd	%xmm1,%xmm1
  404f6f:	66 0f 28 f4                 	(move)  	movapd	%xmm4,%xmm6
  404f73:	f2 0f 5c f1                 	(arith) 	subsd	%xmm1,%xmm6
  404f77:	f2 41 0f 58 f6              	(arith) 	addsd	%xmm14,%xmm6
  404f7c:	f2 0f 59 74 24 30           	(arith) 	mulsd	0x30(%rsp),%xmm6
  404f82:	f2 0f 58 b0 48 0a ad 05     	(arith) 	addsd	0x5ad0a48(%rax),%xmm6
  404f8a:	f2 44 0f 10 ba 28 91 18 03  	(move)  	movsd	0x3189128(%rdx),%xmm15
  404f93:	f2 45 0f 58 ff              	(arith) 	addsd	%xmm15,%xmm15
  404f98:	f2 0f 10 8a 30 91 18 03     	(move)  	movsd	0x3189130(%rdx),%xmm1
  404fa0:	f2 41 0f 5c cf              	(arith) 	subsd	%xmm15,%xmm1
  404fa5:	f2 0f 58 8a 20 91 18 03     	(arith) 	addsd	0x3189120(%rdx),%xmm1
  404fad:	f2 0f 59 4c 24 08           	(arith) 	mulsd	0x8(%rsp),%xmm1
  404fb3:	f2 0f 58 f1                 	(arith) 	addsd	%xmm1,%xmm6
  404fb7:	f2 0f 59 e5                 	(arith) 	mulsd	%xmm5,%xmm4
  404fbb:	f2 44 0f 59 f2              	(arith) 	mulsd	%xmm2,%xmm14
  404fc0:	f2 41 0f 5c e6              	(arith) 	subsd	%xmm14,%xmm4
  404fc5:	f2 41 0f 59 e4              	(arith) 	mulsd	%xmm12,%xmm4
  404fca:	f2 0f 5c f4                 	(arith) 	subsd	%xmm4,%xmm6
  404fce:	f2 0f 11 b0 48 0a ad 05     	(move)  	movsd	%xmm6,0x5ad0a48(%rax)
/home/jcsalinas/Documents/pruebas/inst_estimation_module/BT/rhs.f:95
  404fd6:	f2 0f 10 60 68              	(move)  	movsd	0x68(%rax),%xmm4
  404fdb:	f2 44 0f 10 70 18           	(move)  	movsd	0x18(%rax),%xmm14
  404fe1:	f2 0f 10 48 40              	(move)  	movsd	0x40(%rax),%xmm1
  404fe6:	f2 0f 58 c9                 	(arith) 	addsd	%xmm1,%xmm1
  404fea:	66 0f 28 f4                 	(move)  	movapd	%xmm4,%xmm6
  404fee:	f2 0f 5c f1                 	(arith) 	subsd	%xmm1,%xmm6
  404ff2:	f2 41 0f 58 f6              	(arith) 	addsd	%xmm14,%xmm6
  404ff7:	f2 0f 59 74 24 38           	(arith) 	mulsd	0x38(%rsp),%xmm6
  404ffd:	f2 0f 58 b0 50 0a ad 05     	(arith) 	addsd	0x5ad0a50(%rax),%xmm6
  405005:	f2 44 0f 10 ba 58 a9 9c 03  	(move)  	movsd	0x39ca958(%rdx),%xmm15
  40500e:	f2 45 0f 58 ff              	(arith) 	addsd	%xmm15,%xmm15
  405013:	f2 0f 10 8a 60 a9 9c 03     	(move)  	movsd	0x39ca960(%rdx),%xmm1
  40501b:	f2 41 0f 5c cf              	(arith) 	subsd	%xmm15,%xmm1
  405020:	f2 0f 58 8a 50 a9 9c 03     	(arith) 	addsd	0x39ca950(%rdx),%xmm1
  405028:	f2 0f 59 4c 24 08           	(arith) 	mulsd	0x8(%rsp),%xmm1
  40502e:	f2 0f 58 f1                 	(arith) 	addsd	%xmm1,%xmm6
  405032:	f2 0f 59 e5                 	(arith) 	mulsd	%xmm5,%xmm4
  405036:	f2 44 0f 59 f2              	(arith) 	mulsd	%xmm2,%xmm14
  40503b:	f2 41 0f 5c e6              	(arith) 	subsd	%xmm14,%xmm4
  405040:	f2 41 0f 59 e4              	(arith) 	mulsd	%xmm12,%xmm4
  405045:	f2 0f 5c f4                 	(arith) 	subsd	%xmm4,%xmm6
  405049:	f2 0f 11 b0 50 0a ad 05     	(move)  	movsd	%xmm6,0x5ad0a50(%rax)
/home/jcsalinas/Documents/pruebas/inst_estimation_module/BT/rhs.f:110
  405051:	f2 0f 10 60 48              	(move)  	movsd	0x48(%rax),%xmm4
  405056:	f2 0f 58 e4                 	(arith) 	addsd	%xmm4,%xmm4
  40505a:	f2 0f 10 b2 88 c1 20 04     	(move)  	movsd	0x420c188(%rdx),%xmm6
  405062:	f2 0f 58 f6                 	(arith) 	addsd	%xmm6,%xmm6
  405066:	f2 0f 10 8a 90 c1 20 04     	(move)  	movsd	0x420c190(%rdx),%xmm1
  40506e:	f2 0f 5c ce                 	(arith) 	subsd	%xmm6,%xmm1
  405072:	f2 0f 58 8a 80 c1 20 04     	(arith) 	addsd	0x420c180(%rdx),%xmm1
  40507a:	66 0f 28 f1                 	(move)  	movapd	%xmm1,%xmm6
  40507e:	f2 0f 59 74 24 48           	(arith) 	mulsd	0x48(%rsp),%xmm6
  405084:	66 0f 28 c8                 	(move)  	movapd	%xmm0,%xmm1
  405088:	f2 0f 5c cc                 	(arith) 	subsd	%xmm4,%xmm1
  40508c:	f2 0f 58 cb                 	(arith) 	addsd	%xmm3,%xmm1
  405090:	f2 0f 59 4c 24 40           	(arith) 	mulsd	0x40(%rsp),%xmm1
  405096:	f2 0f 58 88 58 0a ad 05     	(arith) 	addsd	0x5ad0a58(%rax),%xmm1
  40509e:	f2 0f 58 ce                 	(arith) 	addsd	%xmm6,%xmm1
  4050a2:	66 0f 28 f5                 	(move)  	movapd	%xmm5,%xmm6
  4050a6:	f2 0f 59 f5                 	(arith) 	mulsd	%xmm5,%xmm6
  4050aa:	f2 45 0f 59 d3              	(arith) 	mulsd	%xmm11,%xmm10
  4050af:	f2 41 0f 5c f2              	(arith) 	subsd	%xmm10,%xmm6
  4050b4:	66 44 0f 28 d2              	(move)  	movapd	%xmm2,%xmm10
  4050b9:	f2 44 0f 59 d2              	(arith) 	mulsd	%xmm2,%xmm10
  4050be:	f2 41 0f 58 f2              	(arith) 	addsd	%xmm10,%xmm6
  4050c3:	f2 0f 59 74 24 50           	(arith) 	mulsd	0x50(%rsp),%xmm6
  4050c9:	f2 0f 58 ce                 	(arith) 	addsd	%xmm6,%xmm1
  4050cd:	66 0f 28 f0                 	(move)  	movapd	%xmm0,%xmm6
  4050d1:	f2 0f 59 b2 c0 d9 a4 04     	(arith) 	mulsd	0x4a4d9c0(%rdx),%xmm6
  4050d9:	f2 0f 59 a2 b8 d9 a4 04     	(arith) 	mulsd	0x4a4d9b8(%rdx),%xmm4
  4050e1:	f2 0f 5c f4                 	(arith) 	subsd	%xmm4,%xmm6
  4050e5:	66 0f 28 e3                 	(move)  	movapd	%xmm3,%xmm4
  4050e9:	f2 0f 59 a2 b0 d9 a4 04     	(arith) 	mulsd	0x4a4d9b0(%rdx),%xmm4
  4050f1:	f2 0f 58 f4                 	(arith) 	addsd	%xmm4,%xmm6
  4050f5:	f2 0f 59 74 24 58           	(arith) 	mulsd	0x58(%rsp),%xmm6
  4050fb:	f2 0f 58 ce                 	(arith) 	addsd	%xmm6,%xmm1
  4050ff:	f2 0f 10 64 24 60           	(move)  	movsd	0x60(%rsp),%xmm4
  405105:	f2 0f 59 c4                 	(arith) 	mulsd	%xmm4,%xmm0
  405109:	f2 44 0f 10 7c 24 10        	(move)  	movsd	0x10(%rsp),%xmm15
  405110:	f2 45 0f 59 c7              	(arith) 	mulsd	%xmm15,%xmm8
  405115:	f2 41 0f 5c c0              	(arith) 	subsd	%xmm8,%xmm0
  40511a:	f2 0f 59 c5                 	(arith) 	mulsd	%xmm5,%xmm0
  40511e:	f2 0f 59 dc                 	(arith) 	mulsd	%xmm4,%xmm3
  405122:	f2 41 0f 59 ff              	(arith) 	mulsd	%xmm15,%xmm7
  405127:	f2 0f 5c df                 	(arith) 	subsd	%xmm7,%xmm3
  40512b:	f2 0f 59 da                 	(arith) 	mulsd	%xmm2,%xmm3
  40512f:	f2 0f 5c c3                 	(arith) 	subsd	%xmm3,%xmm0
  405133:	f2 41 0f 59 c4              	(arith) 	mulsd	%xmm12,%xmm0
  405138:	f2 0f 5c c8                 	(arith) 	subsd	%xmm0,%xmm1
  40513c:	f2 0f 11 88 58 0a ad 05     	(move)  	movsd	%xmm1,0x5ad0a58(%rax)
  405144:	48 83 c2 08                 	(arith) 	add	$0x8,%rdx
  405148:	48 83 c0 28                 	(arith) 	add	$0x28,%rax
/home/jcsalinas/Documents/pruebas/inst_estimation_module/BT/rhs.f:61
  40514c:	39 f1                       	(arith) 	cmp	%esi,%ecx
  40514e:	0f 85 00 fd ff ff           	(control)	jne	404e54 <compute_rhs_+0x43c>	; ↰ label 416 (loop 124)
; ------- Loop 124 exit
414:	
/home/jcsalinas/Documents/pruebas/inst_estimation_module/BT/rhs.f:60
  405154:	83 c7 01                    	(arith) 	add	$0x1,%edi
  405157:	41 39 f9                    	(arith) 	cmp	%edi,%r9d
  40515a:	0f 85 a6 fc ff ff           	(control)	jne	404e06 <compute_rhs_+0x3ee>	; ↰ label 413 (loop 114)
; ------- Loop 114 exit
417:	
  405160:	f2 0f 10 bc 24 b8 00 00 00  	(move)  	movsd	0xb8(%rsp),%xmm7
  405169:	be 01 00 00 00              	(move)  	mov	$0x1,%esi
/home/jcsalinas/Documents/pruebas/inst_estimation_module/BT/rhs.f:122
  40516e:	f2 0f 10 1d e2 9c 00 00     	(move)  	movsd	0x9ce2(%rip),%xmm3
/home/jcsalinas/Documents/pruebas/inst_estimation_module/BT/rhs.f:129
  405176:	f2 0f 10 25 e2 9c 00 00     	(move)  	movsd	0x9ce2(%rip),%xmm4
  40517e:	66 0f 28 d3                 	(move)  	movapd	%xmm3,%xmm2
; ------- Loop 117 entry
418 (loop 117):	
  405182:	48 63 c6                    	(move)  	movsxd	%esi,%rax
  405185:	48 89 c2                    	(move)  	mov	%rax,%rdx
  405188:	48 c1 e2 08                 	(logic) 	sal	$0x8,%rdx
  40518c:	48 01 c2                    	(arith) 	add	%rax,%rdx
  40518f:	48 8d 14 50                 	(arith) 	lea	(%rax,%rdx,2),%rdx
  405193:	4c 01 c2                    	(arith) 	add	%r8,%rdx
  405196:	48 8d 04 d5 00 16 61 00     	(arith) 	lea	0x611600(,%rdx,8),%rax
  40519e:	48 8d 0c d5 28 16 61 00     	(arith) 	lea	0x611628(,%rdx,8),%rcx
  4051a6:	48 89 c2                    	(move)  	mov	%rax,%rdx
; ------- Loop 115 entry
419 (loop 115):	
/home/jcsalinas/Documents/pruebas/inst_estimation_module/BT/rhs.f:122
  4051a9:	f2 0f 10 42 28              	(move)  	movsd	0x28(%rdx),%xmm0
  4051ae:	f2 0f 59 05 9a 9c 00 00     	(arith) 	mulsd	0x9c9a(%rip),%xmm0
  4051b6:	66 0f 28 cb                 	(move)  	movapd	%xmm3,%xmm1
  4051ba:	f2 0f 59 4a 50              	(arith) 	mulsd	0x50(%rdx),%xmm1
  4051bf:	f2 0f 5c c1                 	(arith) 	subsd	%xmm1,%xmm0
  4051c3:	f2 0f 58 42 78              	(arith) 	addsd	0x78(%rdx),%xmm0
  4051c8:	f2 0f 59 c7                 	(arith) 	mulsd	%xmm7,%xmm0
  4051cc:	f2 0f 10 8a 38 0a ad 05     	(move)  	movsd	0x5ad0a38(%rdx),%xmm1
  4051d4:	f2 0f 5c c8                 	(arith) 	subsd	%xmm0,%xmm1
  4051d8:	f2 0f 11 8a 38 0a ad 05     	(move)  	movsd	%xmm1,0x5ad0a38(%rdx)
  4051e0:	48 83 c2 08                 	(arith) 	add	$0x8,%rdx
/home/jcsalinas/Documents/pruebas/inst_estimation_module/BT/rhs.f:119
  4051e4:	48 39 ca                    	(arith) 	cmp	%rcx,%rdx
  4051e7:	75 c0                       	(control)	jne	4051a9 <compute_rhs_+0x791>	; ↰ label 419 (loop 115)
; ------- Loop 115 exit
; ------- Loop 116 entry
420 (loop 116):	
/home/jcsalinas/Documents/pruebas/inst_estimation_module/BT/rhs.f:129
  4051e9:	66 0f 28 c4                 	(move)  	movapd	%xmm4,%xmm0
  4051ed:	f2 0f 59 40 50              	(arith) 	mulsd	0x50(%rax),%xmm0
  4051f2:	66 0f 28 ca                 	(move)  	movapd	%xmm2,%xmm1
  4051f6:	f2 0f 59 48 28              	(arith) 	mulsd	0x28(%rax),%xmm1
  4051fb:	f2 0f 5c c1                 	(arith) 	subsd	%xmm1,%xmm0
  4051ff:	66 0f 28 ca                 	(move)  	movapd	%xmm2,%xmm1
  405203:	f2 0f 59 48 78              	(arith) 	mulsd	0x78(%rax),%xmm1
  405208:	f2 0f 5c c1                 	(arith) 	subsd	%xmm1,%xmm0
  40520c:	f2 0f 58 80 a0 00 00 00     	(arith) 	addsd	0xa0(%rax),%xmm0
  405214:	f2 0f 59 c7                 	(arith) 	mulsd	%xmm7,%xmm0
  405218:	f2 0f 10 88 60 0a ad 05     	(move)  	movsd	0x5ad0a60(%rax),%xmm1
  405220:	f2 0f 5c c8                 	(arith) 	subsd	%xmm0,%xmm1
  405224:	f2 0f 11 88 60 0a ad 05     	(move)  	movsd	%xmm1,0x5ad0a60(%rax)
  40522c:	48 83 c0 08                 	(arith) 	add	$0x8,%rax
/home/jcsalinas/Documents/pruebas/inst_estimation_module/BT/rhs.f:126
  405230:	48 39 c1                    	(arith) 	cmp	%rax,%rcx
  405233:	75 b4                       	(control)	jne	4051e9 <compute_rhs_+0x7d1>	; ↰ label 420 (loop 116)
; ------- Loop 116 exit
421:	
/home/jcsalinas/Documents/pruebas/inst_estimation_module/BT/rhs.f:117
  405235:	83 c6 01                    	(arith) 	add	$0x1,%esi
  405238:	41 39 f1                    	(arith) 	cmp	%esi,%r9d
  40523b:	0f 85 41 ff ff ff           	(control)	jne	405182 <compute_rhs_+0x76a>	; ↰ label 418 (loop 117)
; ------- Loop 117 exit
422:	
/home/jcsalinas/Documents/pruebas/inst_estimation_module/BT/rhs.f:139
  405241:	4c 63 ac 24 c0 00 00 00     	(move)  	movsxd	0xc0(%rsp),%r13
  405249:	4d 69 ed 35 cf 00 00        	(arith) 	imul	$0xcf35,%r13,%r13
  405250:	8b 84 24 80 00 00 00        	(move)  	mov	0x80(%rsp),%eax
  405257:	44 8d 60 ff                 	(arith) 	lea	-0x1(%rax),%r12d
  40525b:	41 ba 01 00 00 00           	(move)  	mov	$0x1,%r10d
  405261:	48 8b 84 24 a0 00 00 00     	(move)  	mov	0xa0(%rsp),%rax
  405269:	4c 8d 58 14                 	(arith) 	lea	0x14(%rax),%r11
  40526d:	49 c7 c0 b0 ff ff ff        	(move)  	mov	$-0x50,%r8
  405274:	48 c7 c7 d8 ff ff ff        	(move)  	mov	$-0x28,%rdi
  40527b:	8b 9c 24 a8 00 00 00        	(move)  	mov	0xa8(%rsp),%ebx
; ------- Loop 118 entry
423 (loop 118):	
/home/jcsalinas/Documents/pruebas/inst_estimation_module/BT/rhs.f:134
  405282:	83 fb 02                    	(arith) 	cmp	$0x2,%ebx
  405285:	0f 8e 93 00 00 00           	(control)	jle	40531e <compute_rhs_+0x906>	; ↲ label 424
425:	
/home/jcsalinas/Documents/pruebas/inst_estimation_module/BT/rhs.f:139
  40528b:	49 63 c2                    	(move)  	movsxd	%r10d,%rax
  40528e:	48 89 c2                    	(move)  	mov	%rax,%rdx
  405291:	48 c1 e2 08                 	(logic) 	sal	$0x8,%rdx
  405295:	48 01 c2                    	(arith) 	add	%rax,%rdx
  405298:	48 8d 14 50                 	(arith) 	lea	(%rax,%rdx,2),%rdx
  40529c:	4c 01 ea                    	(arith) 	add	%r13,%rdx
  40529f:	48 8d 4a 0f                 	(arith) 	lea	0xf(%rdx),%rcx
  4052a3:	48 8d 04 cd 00 16 61 00     	(arith) 	lea	0x611600(,%rcx,8),%rax
  4052ab:	4c 01 da                    	(arith) 	add	%r11,%rdx
  4052ae:	4c 8d 0c d5 00 16 61 00     	(arith) 	lea	0x611600(,%rdx,8),%r9
; ------- Loop 123 entry
426 (loop 123):	
  4052b6:	48 8d 50 28                 	(arith) 	lea	0x28(%rax),%rdx
; ------- Loop 122 entry
427 (loop 122):	
  4052ba:	48 8d 71 05                 	(arith) 	lea	0x5(%rcx),%rsi
  4052be:	66 41 0f 28 c9              	(move)  	movapd	%xmm9,%xmm1
  4052c3:	f2 0f 59 0c 38              	(arith) 	mulsd	(%rax,%rdi,1),%xmm1
  4052c8:	f2 42 0f 10 04 00           	(move)  	movsd	(%rax,%r8,1),%xmm0
  4052ce:	f2 0f 5c c1                 	(arith) 	subsd	%xmm1,%xmm0
  4052d2:	66 41 0f 28 cd              	(move)  	movapd	%xmm13,%xmm1
  4052d7:	f2 0f 59 08                 	(arith) 	mulsd	(%rax),%xmm1
  4052db:	f2 0f 58 c1                 	(arith) 	addsd	%xmm1,%xmm0
  4052df:	66 41 0f 28 c9              	(move)  	movapd	%xmm9,%xmm1
  4052e4:	f2 0f 59 48 28              	(arith) 	mulsd	0x28(%rax),%xmm1
  4052e9:	f2 0f 5c c1                 	(arith) 	subsd	%xmm1,%xmm0
  4052ed:	f2 0f 58 40 50              	(arith) 	addsd	0x50(%rax),%xmm0
  4052f2:	f2 0f 59 c7                 	(arith) 	mulsd	%xmm7,%xmm0
  4052f6:	f2 0f 10 88 10 0a ad 05     	(move)  	movsd	0x5ad0a10(%rax),%xmm1
  4052fe:	f2 0f 5c c8                 	(arith) 	subsd	%xmm0,%xmm1
  405302:	f2 0f 11 88 10 0a ad 05     	(move)  	movsd	%xmm1,0x5ad0a10(%rax)
  40530a:	48 83 c0 08                 	(arith) 	add	$0x8,%rax
/home/jcsalinas/Documents/pruebas/inst_estimation_module/BT/rhs.f:135
  40530e:	48 39 d0                    	(arith) 	cmp	%rdx,%rax
  405311:	75 a7                       	(control)	jne	4052ba <compute_rhs_+0x8a2>	; ↰ label 427 (loop 122)
; ------- Loop 122 exit
428:	
  405313:	48 89 d0                    	(move)  	mov	%rdx,%rax
  405316:	48 89 f1                    	(move)  	mov	%rsi,%rcx
/home/jcsalinas/Documents/pruebas/inst_estimation_module/BT/rhs.f:134
  405319:	49 39 d1                    	(arith) 	cmp	%rdx,%r9
  40531c:	75 98                       	(control)	jne	4052b6 <compute_rhs_+0x89e>	; ↰ label 426 (loop 123)
; ------- Loop 123 exit
424:	
/home/jcsalinas/Documents/pruebas/inst_estimation_module/BT/rhs.f:133
  40531e:	41 83 c2 01                 	(arith) 	add	$0x1,%r10d
  405322:	45 39 d4                    	(arith) 	cmp	%r10d,%r12d
  405325:	0f 85 57 ff ff ff           	(control)	jne	405282 <compute_rhs_+0x86a>	; ↰ label 423 (loop 118)
; ------- Loop 118 exit
429:	
  40532b:	bd 01 00 00 00              	(move)  	mov	$0x1,%ebp
/home/jcsalinas/Documents/pruebas/inst_estimation_module/BT/rhs.f:149
  405330:	f2 0f 10 15 20 9b 00 00     	(move)  	movsd	0x9b20(%rip),%xmm2
  405338:	f2 0f 10 1d 20 9b 00 00     	(move)  	movsd	0x9b20(%rip),%xmm3
/home/jcsalinas/Documents/pruebas/inst_estimation_module/BT/rhs.f:156
  405340:	66 0f 28 e2                 	(move)  	movapd	%xmm2,%xmm4
  405344:	f2 0f 10 2d 04 9b 00 00     	(move)  	movsd	0x9b04(%rip),%xmm5
; ------- Loop 121 entry
430 (loop 121):	
/home/jcsalinas/Documents/pruebas/inst_estimation_module/BT/rhs.f:149
  40534c:	48 63 c5                    	(move)  	movsxd	%ebp,%rax
  40534f:	48 89 c2                    	(move)  	mov	%rax,%rdx
  405352:	48 c1 e2 08                 	(logic) 	sal	$0x8,%rdx
  405356:	48 01 c2                    	(arith) 	add	%rax,%rdx
  405359:	48 8d 14 50                 	(arith) 	lea	(%rax,%rdx,2),%rdx
  40535d:	4c 01 ea                    	(arith) 	add	%r13,%rdx
  405360:	4a 8d 3c 3a                 	(arith) 	lea	(%rdx,%r15,1),%rdi
  405364:	48 8b 44 24 70              	(move)  	mov	0x70(%rsp),%rax
  405369:	4c 8d 0c 02                 	(arith) 	lea	(%rdx,%rax,1),%r9
  40536d:	48 8b 44 24 78              	(move)  	mov	0x78(%rsp),%rax
  405372:	4c 8d 04 02                 	(arith) 	lea	(%rdx,%rax,1),%r8
  405376:	48 03 54 24 68              	(arith) 	add	0x68(%rsp),%rdx
  40537b:	48 8d 04 d5 00 16 61 00     	(arith) 	lea	0x611600(,%rdx,8),%rax
  405383:	48 8d 1c d5 28 16 61 00     	(arith) 	lea	0x611628(,%rdx,8),%rbx
  40538b:	48 29 d7                    	(arith) 	sub	%rdx,%rdi
  40538e:	4d 89 cb                    	(move)  	mov	%r9,%r11
  405391:	49 29 d3                    	(arith) 	sub	%rdx,%r11
  405394:	4d 89 c2                    	(move)  	mov	%r8,%r10
  405397:	49 29 d2                    	(arith) 	sub	%rdx,%r10
; ------- Loop 119 entry
431 (loop 119):	
  40539a:	4c 89 c9                    	(move)  	mov	%r9,%rcx
  40539d:	66 0f 28 ca                 	(move)  	movapd	%xmm2,%xmm1
  4053a1:	f2 42 0f 59 0c d8           	(arith) 	mulsd	(%rax,%r11,8),%xmm1
  4053a7:	f2 0f 10 04 f8              	(move)  	movsd	(%rax,%rdi,8),%xmm0
  4053ac:	f2 0f 5c c1                 	(arith) 	subsd	%xmm1,%xmm0
  4053b0:	66 0f 28 cb                 	(move)  	movapd	%xmm3,%xmm1
  4053b4:	f2 0f 59 08                 	(arith) 	mulsd	(%rax),%xmm1
  4053b8:	f2 0f 58 c1                 	(arith) 	addsd	%xmm1,%xmm0
  4053bc:	66 0f 28 ca                 	(move)  	movapd	%xmm2,%xmm1
  4053c0:	f2 42 0f 59 0c d0           	(arith) 	mulsd	(%rax,%r10,8),%xmm1
  4053c6:	f2 0f 5c c1                 	(arith) 	subsd	%xmm1,%xmm0
  4053ca:	f2 0f 59 c7                 	(arith) 	mulsd	%xmm7,%xmm0
  4053ce:	f2 0f 10 88 10 0a ad 05     	(move)  	movsd	0x5ad0a10(%rax),%xmm1
  4053d6:	f2 0f 5c c8                 	(arith) 	subsd	%xmm0,%xmm1
  4053da:	f2 0f 11 88 10 0a ad 05     	(move)  	movsd	%xmm1,0x5ad0a10(%rax)
  4053e2:	48 83 c0 08                 	(arith) 	add	$0x8,%rax
/home/jcsalinas/Documents/pruebas/inst_estimation_module/BT/rhs.f:146
  4053e6:	48 39 d8                    	(arith) 	cmp	%rbx,%rax
  4053e9:	75 af                       	(control)	jne	40539a <compute_rhs_+0x982>	; ↰ label 431 (loop 119)
; ------- Loop 119 exit
432:	
  4053eb:	4a 8d 04 c5 00 16 61 00     	(arith) 	lea	0x611600(,%r8,8),%rax
  4053f3:	4a 8d 3c c5 28 16 61 00     	(arith) 	lea	0x611628(,%r8,8),%rdi
/home/jcsalinas/Documents/pruebas/inst_estimation_module/BT/rhs.f:156
  4053fb:	4c 29 c1                    	(arith) 	sub	%r8,%rcx
  4053fe:	4c 29 c2                    	(arith) 	sub	%r8,%rdx
; ------- Loop 120 entry
433 (loop 120):	
  405401:	66 0f 28 cc                 	(move)  	movapd	%xmm4,%xmm1
  405405:	f2 0f 59 0c d0              	(arith) 	mulsd	(%rax,%rdx,8),%xmm1
  40540a:	f2 0f 10 04 c8              	(move)  	movsd	(%rax,%rcx,8),%xmm0
  40540f:	f2 0f 5c c1                 	(arith) 	subsd	%xmm1,%xmm0
  405413:	66 0f 28 cd                 	(move)  	movapd	%xmm5,%xmm1
  405417:	f2 0f 59 08                 	(arith) 	mulsd	(%rax),%xmm1
  40541b:	f2 0f 58 c1                 	(arith) 	addsd	%xmm1,%xmm0
  40541f:	f2 0f 59 c7                 	(arith) 	mulsd	%xmm7,%xmm0
  405423:	f2 0f 10 88 10 0a ad 05     	(move)  	movsd	0x5ad0a10(%rax),%xmm1
  40542b:	f2 0f 5c c8                 	(arith) 	subsd	%xmm0,%xmm1
  40542f:	f2 0f 11 88 10 0a ad 05     	(move)  	movsd	%xmm1,0x5ad0a10(%rax)
  405437:	48 83 c0 08                 	(arith) 	add	$0x8,%rax
/home/jcsalinas/Documents/pruebas/inst_estimation_module/BT/rhs.f:153
  40543b:	48 39 f8                    	(arith) 	cmp	%rdi,%rax
  40543e:	75 c1                       	(control)	jne	405401 <compute_rhs_+0x9e9>	; ↰ label 433 (loop 120)
; ------- Loop 120 exit
434:	
/home/jcsalinas/Documents/pruebas/inst_estimation_module/BT/rhs.f:144
  405440:	83 c5 01                    	(arith) 	add	$0x1,%ebp
  405443:	41 39 ec                    	(arith) 	cmp	%ebp,%r12d
  405446:	0f 85 00 ff ff ff           	(control)	jne	40534c <compute_rhs_+0x934>	; ↰ label 430 (loop 121)
; ------- Loop 121 exit
411:	
/home/jcsalinas/Documents/pruebas/inst_estimation_module/BT/rhs.f:59
  40544c:	83 84 24 c0 00 00 00 01     	(arith) 	addl	$0x1,0xc0(%rsp)
  405454:	8b 84 24 c0 00 00 00        	(move)  	mov	0xc0(%rsp),%eax
  40545b:	39 84 24 98 00 00 00        	(arith) 	cmp	%eax,0x98(%rsp)
  405462:	0f 85 57 f9 ff ff           	(control)	jne	404dbf <compute_rhs_+0x3a7>	; ↰ label 410 (loop 113)
; ------- Loop 113 exit
435:	
  405468:	e9 1d 19 00 00              	(control)	jmp	406d8a <compute_rhs_+0x2372>	; ↲ label 436
408:	
/home/jcsalinas/Documents/pruebas/inst_estimation_module/BT/rhs.f:160
  40546d:	83 3d 80 c1 20 00 00        	(arith) 	cmpl	$0,0x20c180(%rip)
  405474:	74 27                       	(control)	je	40549d <compute_rhs_+0xa85>	; ↲ label 437
438:	
/home/jcsalinas/Documents/pruebas/inst_estimation_module/BT/rhs.f:162
  405476:	bf 34 ef 40 00              	(move)  	mov	$0x40ef34,%edi
  40547b:	b8 00 00 00 00              	(move)  	mov	$0,%eax
  405480:	e8 b6 95 00 00              	(control)	call	40ea3b <timer_stop_>	; ⇄ timer_stop
439:	
/home/jcsalinas/Documents/pruebas/inst_estimation_module/BT/rhs.f:162
  405485:	83 3d 68 c1 20 00 00        	(arith) 	cmpl	$0,0x20c168(%rip)
  40548c:	74 0f                       	(control)	je	40549d <compute_rhs_+0xa85>	; ↲ label 437
440:	
  40548e:	bf 38 ef 40 00              	(move)  	mov	$0x40ef38,%edi
  405493:	b8 00 00 00 00              	(move)  	mov	$0,%eax
  405498:	e8 86 95 00 00              	(control)	call	40ea23 <timer_start_>	; ⇄ timer_start
437:	
/home/jcsalinas/Documents/pruebas/inst_estimation_module/BT/rhs.f:166
  40549d:	8b 05 4d c1 20 00           	(move)  	mov	0x20c14d(%rip),%eax
  4054a3:	8d 50 fe                    	(arith) 	lea	-0x2(%rax),%edx
  4054a6:	85 d2                       	(arith) 	test	%edx,%edx
  4054a8:	0f 8e 06 19 00 00           	(control)	jle	406db4 <compute_rhs_+0x239c>	; ↲ label 441
442:	
/home/jcsalinas/Documents/pruebas/inst_estimation_module/BT/rhs.f:167
  4054ae:	8b 1d 38 c1 20 00           	(move)  	mov	0x20c138(%rip),%ebx
  4054b4:	89 9c 24 c4 00 00 00        	(move)  	mov	%ebx,0xc4(%rsp)
  4054bb:	8d 7b fe                    	(arith) 	lea	-0x2(%rbx),%edi
  4054be:	89 bc 24 c8 00 00 00        	(move)  	mov	%edi,0xc8(%rsp)
/home/jcsalinas/Documents/pruebas/inst_estimation_module/BT/rhs.f:168
  4054c5:	8b 3d 1d c1 20 00           	(move)  	mov	0x20c11d(%rip),%edi
  4054cb:	89 bc 24 88 00 00 00        	(move)  	mov	%edi,0x88(%rsp)
  4054d2:	83 ef 02                    	(arith) 	sub	$0x2,%edi
  4054d5:	89 7c 24 68                 	(move)  	mov	%edi,0x68(%rsp)
/home/jcsalinas/Documents/pruebas/inst_estimation_module/BT/rhs.f:4
  4054d9:	f2 0f 10 2d 67 bf 20 00     	(move)  	movsd	0x20bf67(%rip),%xmm5
  4054e1:	f2 0f 11 6c 24 18           	(move)  	movsd	%xmm5,0x18(%rsp)
  4054e7:	f2 44 0f 10 15 10 bc 20 00  	(move)  	movsd	0x20bc10(%rip),%xmm10
  4054f0:	f2 0f 10 2d 58 bf 20 00     	(move)  	movsd	0x20bf58(%rip),%xmm5
  4054f8:	f2 0f 11 6c 24 20           	(move)  	movsd	%xmm5,0x20(%rsp)
  4054fe:	f2 0f 10 2d 22 bf 20 00     	(move)  	movsd	0x20bf22(%rip),%xmm5
  405506:	f2 0f 11 ac 24 d0 00 00 00  	(move)  	movsd	%xmm5,0xd0(%rsp)
  40550f:	f2 0f 10 2d 41 bf 20 00     	(move)  	movsd	0x20bf41(%rip),%xmm5
  405517:	f2 0f 11 6c 24 28           	(move)  	movsd	%xmm5,0x28(%rsp)
  40551d:	f2 0f 10 2d a3 c0 20 00     	(move)  	movsd	0x20c0a3(%rip),%xmm5
  405525:	f2 0f 11 ac 24 a8 00 00 00  	(move)  	movsd	%xmm5,0xa8(%rsp)
  40552e:	f2 44 0f 10 3d d1 bf 20 00  	(move)  	movsd	0x20bfd1(%rip),%xmm15
  405537:	f2 0f 10 2d 21 bf 20 00     	(move)  	movsd	0x20bf21(%rip),%xmm5
  40553f:	f2 0f 11 6c 24 30           	(move)  	movsd	%xmm5,0x30(%rsp)
  405545:	f2 0f 10 2d 1b bf 20 00     	(move)  	movsd	0x20bf1b(%rip),%xmm5
  40554d:	f2 0f 11 6c 24 38           	(move)  	movsd	%xmm5,0x38(%rsp)
  405553:	f2 0f 10 2d d5 be 20 00     	(move)  	movsd	0x20bed5(%rip),%xmm5
  40555b:	f2 0f 11 6c 24 40           	(move)  	movsd	%xmm5,0x40(%rsp)
  405561:	f2 0f 10 2d cf be 20 00     	(move)  	movsd	0x20becf(%rip),%xmm5
  405569:	f2 0f 11 6c 24 48           	(move)  	movsd	%xmm5,0x48(%rsp)
  40556f:	f2 0f 10 2d c9 be 20 00     	(move)  	movsd	0x20bec9(%rip),%xmm5
  405577:	f2 0f 11 6c 24 50           	(move)  	movsd	%xmm5,0x50(%rsp)
  40557d:	f2 0f 10 2d 7b bf 20 00     	(move)  	movsd	0x20bf7b(%rip),%xmm5
  405585:	f2 0f 11 6c 24 58           	(move)  	movsd	%xmm5,0x58(%rsp)
/home/jcsalinas/Documents/pruebas/inst_estimation_module/BT/rhs.f:237
  40558b:	8d 7b fc                    	(arith) 	lea	-0x4(%rbx),%edi
  40558e:	89 bc 24 b0 00 00 00        	(move)  	mov	%edi,0xb0(%rsp)
/home/jcsalinas/Documents/pruebas/inst_estimation_module/BT/rhs.f:4
  405595:	f2 44 0f 10 0d 02 bc 20 00  	(move)  	movsd	0x20bc02(%rip),%xmm9
/home/jcsalinas/Documents/pruebas/inst_estimation_module/BT/rhs.f:248
  40559e:	8d 53 fd                    	(arith) 	lea	-0x3(%rbx),%edx
/home/jcsalinas/Documents/pruebas/inst_estimation_module/BT/rhs.f:253
  4055a1:	8d 4b fb                    	(arith) 	lea	-0x5(%rbx),%ecx
  4055a4:	48 63 c9                    	(move)  	movsxd	%ecx,%rcx
  4055a7:	48 89 ce                    	(move)  	mov	%rcx,%rsi
  4055aa:	48 c1 e6 08                 	(logic) 	sal	$0x8,%rsi
  4055ae:	48 01 ce                    	(arith) 	add	%rcx,%rsi
  4055b1:	48 8d 0c 71                 	(arith) 	lea	(%rcx,%rsi,2),%rcx
  4055b5:	48 89 8c 24 d8 00 00 00     	(move)  	mov	%rcx,0xd8(%rsp)
  4055bd:	48 8d 99 09 06 00 00        	(arith) 	lea	0x609(%rcx),%rbx
  4055c4:	48 89 9c 24 e0 00 00 00     	(move)  	mov	%rbx,0xe0(%rsp)
  4055cc:	83 e8 01                    	(arith) 	sub	$0x1,%eax
  4055cf:	89 84 24 cc 00 00 00        	(move)  	mov	%eax,0xcc(%rsp)
  4055d6:	8d 47 01                    	(arith) 	lea	0x1(%rdi),%eax
  4055d9:	89 84 24 b8 00 00 00        	(move)  	mov	%eax,0xb8(%rsp)
  4055e0:	c7 44 24 70 01 00 00 00     	(move)  	movl	$0x1,0x70(%rsp)
  4055e8:	48 63 c2                    	(move)  	movsxd	%edx,%rax
  4055eb:	48 89 c2                    	(move)  	mov	%rax,%rdx
  4055ee:	48 c1 e2 08                 	(logic) 	sal	$0x8,%rdx
  4055f2:	48 01 c2                    	(arith) 	add	%rax,%rdx
  4055f5:	48 8d 04 50                 	(arith) 	lea	(%rax,%rdx,2),%rax
  4055f9:	48 89 84 24 e8 00 00 00     	(move)  	mov	%rax,0xe8(%rsp)
  405601:	48 63 c7                    	(move)  	movsxd	%edi,%rax
  405604:	48 89 c2                    	(move)  	mov	%rax,%rdx
  405607:	48 c1 e2 08                 	(logic) 	sal	$0x8,%rdx
  40560b:	48 01 c2                    	(arith) 	add	%rax,%rdx
  40560e:	48 8d 04 50                 	(arith) 	lea	(%rax,%rdx,2),%rax
  405612:	48 89 84 24 f0 00 00 00     	(move)  	mov	%rax,0xf0(%rsp)
; ------- Loop 99 entry
443 (loop 99):	
/home/jcsalinas/Documents/pruebas/inst_estimation_module/BT/rhs.f:167
  40561a:	83 bc 24 c8 00 00 00 00     	(arith) 	cmpl	$0,0xc8(%rsp)
  405622:	0f 8e 39 05 00 00           	(control)	jle	405b61 <compute_rhs_+0x1149>	; ↲ label 444
445:	
/home/jcsalinas/Documents/pruebas/inst_estimation_module/BT/rhs.f:169
  405628:	48 63 44 24 70              	(move)  	movsxd	0x70(%rsp),%rax
  40562d:	48 69 d8 71 29 00 00        	(arith) 	imul	$0x2971,%rax,%rbx
  405634:	48 89 9c 24 98 00 00 00     	(move)  	mov	%rbx,0x98(%rsp)
/home/jcsalinas/Documents/pruebas/inst_estimation_module/BT/rhs.f:175
  40563c:	48 69 c0 35 cf 00 00        	(arith) 	imul	$0xcf35,%rax,%rax
  405643:	48 89 84 24 a0 00 00 00     	(move)  	mov	%rax,0xa0(%rsp)
  40564b:	48 89 9c 24 80 00 00 00     	(move)  	mov	%rbx,0x80(%rsp)
  405653:	48 89 44 24 78              	(move)  	mov	%rax,0x78(%rsp)
  405658:	8b 84 24 c4 00 00 00        	(move)  	mov	0xc4(%rsp),%eax
  40565f:	83 e8 01                    	(arith) 	sub	$0x1,%eax
  405662:	89 84 24 90 00 00 00        	(move)  	mov	%eax,0x90(%rsp)
  405669:	c7 84 24 c0 00 00 00 01 00 00 00	(move)  	movl	$0x1,0xc0(%rsp)
  405674:	8b 84 24 88 00 00 00        	(move)  	mov	0x88(%rsp),%eax
  40567b:	83 e8 01                    	(arith) 	sub	$0x1,%eax
  40567e:	89 44 24 60                 	(move)  	mov	%eax,0x60(%rsp)
  405682:	f2 44 0f 10 b4 24 d0 00 00 00	(move)  	movsd	0xd0(%rsp),%xmm14
  40568c:	f2 44 0f 11 8c 24 f8 00 00 00	(move)  	movsd	%xmm9,0xf8(%rsp)
; ------- Loop 111 entry
446 (loop 111):	
/home/jcsalinas/Documents/pruebas/inst_estimation_module/BT/rhs.f:168
  405696:	83 7c 24 68 00              	(arith) 	cmpl	$0,0x68(%rsp)
  40569b:	0f 8e 88 04 00 00           	(control)	jle	405b29 <compute_rhs_+0x1111>	; ↲ label 447
448:	
/home/jcsalinas/Documents/pruebas/inst_estimation_module/BT/rhs.f:169
  4056a1:	8b 84 24 c0 00 00 00        	(move)  	mov	0xc0(%rsp),%eax
  4056a8:	48 63 d0                    	(move)  	movsxd	%eax,%rdx
  4056ab:	4c 6b f2 67                 	(arith) 	imul	$0x67,%rdx,%r14
  4056af:	48 8b 9c 24 98 00 00 00     	(move)  	mov	0x98(%rsp),%rbx
  4056b7:	49 01 de                    	(arith) 	add	%rbx,%r14
/home/jcsalinas/Documents/pruebas/inst_estimation_module/BT/rhs.f:170
  4056ba:	83 c0 01                    	(arith) 	add	$0x1,%eax
  4056bd:	48 98                       	(conv)  	cltq
  4056bf:	4c 6b e8 67                 	(arith) 	imul	$0x67,%rax,%r13
  4056c3:	49 01 dd                    	(arith) 	add	%rbx,%r13
/home/jcsalinas/Documents/pruebas/inst_estimation_module/BT/rhs.f:171
  4056c6:	4c 8b bc 24 80 00 00 00     	(move)  	mov	0x80(%rsp),%r15
/home/jcsalinas/Documents/pruebas/inst_estimation_module/BT/rhs.f:175
  4056ce:	48 89 d1                    	(move)  	mov	%rdx,%rcx
  4056d1:	48 c1 e1 08                 	(logic) 	sal	$0x8,%rcx
  4056d5:	48 01 d1                    	(arith) 	add	%rdx,%rcx
  4056d8:	4c 8d 24 4a                 	(arith) 	lea	(%rdx,%rcx,2),%r12
  4056dc:	48 8b 9c 24 a0 00 00 00     	(move)  	mov	0xa0(%rsp),%rbx
  4056e4:	49 01 dc                    	(arith) 	add	%rbx,%r12
  4056e7:	48 89 c2                    	(move)  	mov	%rax,%rdx
  4056ea:	48 c1 e2 08                 	(logic) 	sal	$0x8,%rdx
  4056ee:	48 01 c2                    	(arith) 	add	%rax,%rdx
  4056f1:	48 8d 2c 50                 	(arith) 	lea	(%rax,%rdx,2),%rbp
  4056f5:	48 01 dd                    	(arith) 	add	%rbx,%rbp
  4056f8:	48 8b 44 24 78              	(move)  	mov	0x78(%rsp),%rax
  4056fd:	48 89 44 24 08              	(move)  	mov	%rax,0x8(%rsp)
/home/jcsalinas/Documents/pruebas/inst_estimation_module/BT/rhs.f:191
  405702:	f2 0f 10 ac 24 a8 00 00 00  	(move)  	movsd	0xa8(%rsp),%xmm5
  40570b:	f2 41 0f 59 ee              	(arith) 	mulsd	%xmm14,%xmm5
  405710:	f2 0f 11 6c 24 10           	(move)  	movsd	%xmm5,0x10(%rsp)
  405716:	41 b9 01 00 00 00           	(move)  	mov	$0x1,%r9d
; ------- Loop 112 entry
449 (loop 112):	
/home/jcsalinas/Documents/pruebas/inst_estimation_module/BT/rhs.f:169
  40571c:	49 63 c1                    	(move)  	movsxd	%r9d,%rax
  40571f:	49 8d 3c 06                 	(arith) 	lea	(%r14,%rax,1),%rdi
  405723:	48 8d 97 24 12 63 00        	(arith) 	lea	0x631224(%rdi),%rdx
  40572a:	f2 44 0f 10 2c d5 00 16 61 00	(move)  	movsd	0x611600(,%rdx,8),%xmm13
/home/jcsalinas/Documents/pruebas/inst_estimation_module/BT/rhs.f:170
  405734:	4a 8d 34 28                 	(arith) 	lea	(%rax,%r13,1),%rsi
  405738:	48 8d 96 24 12 63 00        	(arith) 	lea	0x631224(%rsi),%rdx
  40573f:	f2 0f 10 2c d5 00 16 61 00  	(move)  	movsd	0x611600(,%rdx,8),%xmm5
/home/jcsalinas/Documents/pruebas/inst_estimation_module/BT/rhs.f:171
  405748:	4a 8d 0c 38                 	(arith) 	lea	(%rax,%r15,1),%rcx
  40574c:	48 8d 91 24 12 63 00        	(arith) 	lea	0x631224(%rcx),%rdx
  405753:	f2 0f 10 14 d5 00 16 61 00  	(move)  	movsd	0x611600(,%rdx,8),%xmm2
/home/jcsalinas/Documents/pruebas/inst_estimation_module/BT/rhs.f:175
  40575c:	48 8d 14 80                 	(arith) 	lea	(%rax,%rax,4),%rdx
  405760:	49 8d 04 14                 	(arith) 	lea	(%r12,%rdx,1),%rax
  405764:	4c 8d 04 2a                 	(arith) 	lea	(%rdx,%rbp,1),%r8
  405768:	48 03 54 24 08              	(arith) 	add	0x8(%rsp),%rdx
  40576d:	f2 42 0f 10 0c c5 10 16 61 00	(move)  	movsd	0x611610(,%r8,8),%xmm1
  405777:	f2 44 0f 10 1c d5 10 16 61 00	(move)  	movsd	0x611610(,%rdx,8),%xmm11
  405781:	4c 8d 90 42 a1 b5 00        	(arith) 	lea	0xb5a142(%rax),%r10
  405788:	f2 0f 10 1c c5 00 16 61 00  	(move)  	movsd	0x611600(,%rax,8),%xmm3
  405791:	f2 0f 58 db                 	(arith) 	addsd	%xmm3,%xmm3
  405795:	f2 42 0f 10 04 c5 00 16 61 00	(move)  	movsd	0x611600(,%r8,8),%xmm0
  40579f:	f2 0f 5c c3                 	(arith) 	subsd	%xmm3,%xmm0
  4057a3:	f2 0f 58 04 d5 00 16 61 00  	(arith) 	addsd	0x611600(,%rdx,8),%xmm0
  4057ac:	f2 0f 59 44 24 18           	(arith) 	mulsd	0x18(%rsp),%xmm0
  4057b2:	f2 42 0f 58 04 d5 00 16 61 00	(arith) 	addsd	0x611600(,%r10,8),%xmm0
  4057bc:	66 0f 28 d9                 	(move)  	movapd	%xmm1,%xmm3
  4057c0:	f2 41 0f 5c db              	(arith) 	subsd	%xmm11,%xmm3
  4057c5:	f2 41 0f 59 da              	(arith) 	mulsd	%xmm10,%xmm3
  4057ca:	f2 0f 5c c3                 	(arith) 	subsd	%xmm3,%xmm0
  4057ce:	f2 42 0f 11 04 d5 00 16 61 00	(move)  	movsd	%xmm0,0x611600(,%r10,8)
/home/jcsalinas/Documents/pruebas/inst_estimation_module/BT/rhs.f:182
  4057d8:	f2 42 0f 10 1c c5 08 16 61 00	(move)  	movsd	0x611608(,%r8,8),%xmm3
  4057e2:	f2 0f 10 34 d5 08 16 61 00  	(move)  	movsd	0x611608(,%rdx,8),%xmm6
  4057eb:	4c 8d 90 43 a1 b5 00        	(arith) 	lea	0xb5a143(%rax),%r10
  4057f2:	f2 0f 10 04 c5 08 16 61 00  	(move)  	movsd	0x611608(,%rax,8),%xmm0
  4057fb:	f2 0f 58 c0                 	(arith) 	addsd	%xmm0,%xmm0
  4057ff:	66 0f 28 e3                 	(move)  	movapd	%xmm3,%xmm4
  405803:	f2 0f 5c e0                 	(arith) 	subsd	%xmm0,%xmm4
  405807:	f2 0f 58 e6                 	(arith) 	addsd	%xmm6,%xmm4
  40580b:	f2 0f 59 64 24 20           	(arith) 	mulsd	0x20(%rsp),%xmm4
  405811:	f2 42 0f 58 24 d5 00 16 61 00	(arith) 	addsd	0x611600(,%r10,8),%xmm4
  40581b:	4c 8d 9e 1e 8f 52 00        	(arith) 	lea	0x528f1e(%rsi),%r11
  405822:	48 8d 9f 1e 8f 52 00        	(arith) 	lea	0x528f1e(%rdi),%rbx
  405829:	f2 0f 10 3c dd 00 16 61 00  	(move)  	movsd	0x611600(,%rbx,8),%xmm7
  405832:	f2 0f 58 ff                 	(arith) 	addsd	%xmm7,%xmm7
  405836:	f2 42 0f 10 04 dd 00 16 61 00	(move)  	movsd	0x611600(,%r11,8),%xmm0
  405840:	f2 0f 5c c7                 	(arith) 	subsd	%xmm7,%xmm0
  405844:	4c 8d 99 1e 8f 52 00        	(arith) 	lea	0x528f1e(%rcx),%r11
  40584b:	f2 42 0f 58 04 dd 00 16 61 00	(arith) 	addsd	0x611600(,%r11,8),%xmm0
  405855:	f2 41 0f 59 c6              	(arith) 	mulsd	%xmm14,%xmm0
  40585a:	f2 0f 58 e0                 	(arith) 	addsd	%xmm0,%xmm4
  40585e:	f2 0f 59 dd                 	(arith) 	mulsd	%xmm5,%xmm3
  405862:	f2 0f 59 f2                 	(arith) 	mulsd	%xmm2,%xmm6
  405866:	f2 0f 5c de                 	(arith) 	subsd	%xmm6,%xmm3
  40586a:	f2 41 0f 59 da              	(arith) 	mulsd	%xmm10,%xmm3
  40586f:	f2 0f 5c e3                 	(arith) 	subsd	%xmm3,%xmm4
  405873:	f2 42 0f 11 24 d5 00 16 61 00	(move)  	movsd	%xmm4,0x611600(,%r10,8)
/home/jcsalinas/Documents/pruebas/inst_estimation_module/BT/rhs.f:191
  40587d:	66 45 0f 28 cd              	(move)  	movapd	%xmm13,%xmm9
  405882:	f2 45 0f 58 cd              	(arith) 	addsd	%xmm13,%xmm9
  405887:	f2 42 0f 10 04 c5 20 16 61 00	(move)  	movsd	0x611620(,%r8,8),%xmm0
  405891:	4c 8d 96 3c 1e a5 00        	(arith) 	lea	0xa51e3c(%rsi),%r10
  405898:	f2 46 0f 10 04 d5 00 16 61 00	(move)  	movsd	0x611600(,%r10,8),%xmm8
  4058a2:	f2 0f 10 1c d5 20 16 61 00  	(move)  	movsd	0x611620(,%rdx,8),%xmm3
  4058ab:	4c 8d 91 3c 1e a5 00        	(arith) 	lea	0xa51e3c(%rcx),%r10
  4058b2:	f2 42 0f 10 3c d5 00 16 61 00	(move)  	movsd	0x611600(,%r10,8),%xmm7
  4058bc:	4c 8d 90 44 a1 b5 00        	(arith) 	lea	0xb5a144(%rax),%r10
  4058c3:	f2 0f 10 24 c5 10 16 61 00  	(move)  	movsd	0x611610(,%rax,8),%xmm4
  4058cc:	f2 0f 58 e4                 	(arith) 	addsd	%xmm4,%xmm4
  4058d0:	66 0f 28 f1                 	(move)  	movapd	%xmm1,%xmm6
  4058d4:	f2 0f 5c f4                 	(arith) 	subsd	%xmm4,%xmm6
  4058d8:	66 0f 28 e6                 	(move)  	movapd	%xmm6,%xmm4
  4058dc:	f2 41 0f 58 e3              	(arith) 	addsd	%xmm11,%xmm4
  4058e1:	f2 0f 59 64 24 28           	(arith) 	mulsd	0x28(%rsp),%xmm4
  4058e7:	f2 42 0f 58 24 d5 00 16 61 00	(arith) 	addsd	0x611600(,%r10,8),%xmm4
  4058f1:	66 0f 28 f4                 	(move)  	movapd	%xmm4,%xmm6
  4058f5:	66 0f 28 e5                 	(move)  	movapd	%xmm5,%xmm4
  4058f9:	f2 41 0f 5c e1              	(arith) 	subsd	%xmm9,%xmm4
  4058fe:	f2 0f 58 e2                 	(arith) 	addsd	%xmm2,%xmm4
  405902:	f2 0f 59 64 24 10           	(arith) 	mulsd	0x10(%rsp),%xmm4
  405908:	f2 0f 58 e6                 	(arith) 	addsd	%xmm6,%xmm4
  40590c:	66 0f 28 f0                 	(move)  	movapd	%xmm0,%xmm6
  405910:	f2 41 0f 5c f0              	(arith) 	subsd	%xmm8,%xmm6
  405915:	f2 0f 5c f3                 	(arith) 	subsd	%xmm3,%xmm6
  405919:	f2 0f 58 f7                 	(arith) 	addsd	%xmm7,%xmm6
  40591d:	f2 41 0f 59 f7              	(arith) 	mulsd	%xmm15,%xmm6
  405922:	f2 0f 59 cd                 	(arith) 	mulsd	%xmm5,%xmm1
  405926:	f2 44 0f 59 da              	(arith) 	mulsd	%xmm2,%xmm11
  40592b:	f2 41 0f 5c cb              	(arith) 	subsd	%xmm11,%xmm1
  405930:	f2 0f 58 ce                 	(arith) 	addsd	%xmm6,%xmm1
  405934:	f2 41 0f 59 ca              	(arith) 	mulsd	%xmm10,%xmm1
  405939:	f2 0f 5c e1                 	(arith) 	subsd	%xmm1,%xmm4
  40593d:	f2 42 0f 11 24 d5 00 16 61 00	(move)  	movsd	%xmm4,0x611600(,%r10,8)
/home/jcsalinas/Documents/pruebas/inst_estimation_module/BT/rhs.f:198
  405947:	f2 42 0f 10 24 c5 18 16 61 00	(move)  	movsd	0x611618(,%r8,8),%xmm4
  405951:	f2 44 0f 10 1c d5 18 16 61 00	(move)  	movsd	0x611618(,%rdx,8),%xmm11
  40595b:	48 8d 90 45 a1 b5 00        	(arith) 	lea	0xb5a145(%rax),%rdx
  405962:	f2 0f 10 0c c5 18 16 61 00  	(move)  	movsd	0x611618(,%rax,8),%xmm1
  40596b:	f2 0f 58 c9                 	(arith) 	addsd	%xmm1,%xmm1
  40596f:	66 0f 28 f4                 	(move)  	movapd	%xmm4,%xmm6
  405973:	f2 0f 5c f1                 	(arith) 	subsd	%xmm1,%xmm6
  405977:	f2 41 0f 58 f3              	(arith) 	addsd	%xmm11,%xmm6
  40597c:	f2 0f 59 74 24 30           	(arith) 	mulsd	0x30(%rsp),%xmm6
  405982:	f2 0f 58 34 d5 00 16 61 00  	(arith) 	addsd	0x611600(,%rdx,8),%xmm6
  40598b:	4c 8d 86 2a 95 73 00        	(arith) 	lea	0x73952a(%rsi),%r8
  405992:	4c 8d 97 2a 95 73 00        	(arith) 	lea	0x73952a(%rdi),%r10
  405999:	f2 46 0f 10 24 d5 00 16 61 00	(move)  	movsd	0x611600(,%r10,8),%xmm12
  4059a3:	f2 45 0f 58 e4              	(arith) 	addsd	%xmm12,%xmm12
  4059a8:	f2 42 0f 10 0c c5 00 16 61 00	(move)  	movsd	0x611600(,%r8,8),%xmm1
  4059b2:	f2 41 0f 5c cc              	(arith) 	subsd	%xmm12,%xmm1
  4059b7:	4c 8d 81 2a 95 73 00        	(arith) 	lea	0x73952a(%rcx),%r8
  4059be:	f2 42 0f 58 0c c5 00 16 61 00	(arith) 	addsd	0x611600(,%r8,8),%xmm1
  4059c8:	f2 41 0f 59 ce              	(arith) 	mulsd	%xmm14,%xmm1
  4059cd:	f2 0f 58 f1                 	(arith) 	addsd	%xmm1,%xmm6
  4059d1:	f2 0f 59 e5                 	(arith) 	mulsd	%xmm5,%xmm4
  4059d5:	f2 44 0f 59 da              	(arith) 	mulsd	%xmm2,%xmm11
  4059da:	f2 41 0f 5c e3              	(arith) 	subsd	%xmm11,%xmm4
  4059df:	f2 41 0f 59 e2              	(arith) 	mulsd	%xmm10,%xmm4
  4059e4:	f2 0f 5c f4                 	(arith) 	subsd	%xmm4,%xmm6
  4059e8:	f2 0f 11 34 d5 00 16 61 00  	(move)  	movsd	%xmm6,0x611600(,%rdx,8)
/home/jcsalinas/Documents/pruebas/inst_estimation_module/BT/rhs.f:212
  4059f1:	f2 0f 10 24 c5 20 16 61 00  	(move)  	movsd	0x611620(,%rax,8),%xmm4
  4059fa:	f2 0f 58 e4                 	(arith) 	addsd	%xmm4,%xmm4
  4059fe:	48 05 46 a1 b5 00           	(arith) 	add	$0xb5a146,%rax
  405a04:	48 8d 96 30 18 84 00        	(arith) 	lea	0x841830(%rsi),%rdx
  405a0b:	4c 8d 87 30 18 84 00        	(arith) 	lea	0x841830(%rdi),%r8
  405a12:	f2 42 0f 10 34 c5 00 16 61 00	(move)  	movsd	0x611600(,%r8,8),%xmm6
  405a1c:	f2 0f 58 f6                 	(arith) 	addsd	%xmm6,%xmm6
  405a20:	f2 0f 10 0c d5 00 16 61 00  	(move)  	movsd	0x611600(,%rdx,8),%xmm1
  405a29:	f2 0f 5c ce                 	(arith) 	subsd	%xmm6,%xmm1
  405a2d:	48 8d 91 30 18 84 00        	(arith) 	lea	0x841830(%rcx),%rdx
  405a34:	f2 0f 58 0c d5 00 16 61 00  	(arith) 	addsd	0x611600(,%rdx,8),%xmm1
  405a3d:	66 0f 28 f1                 	(move)  	movapd	%xmm1,%xmm6
  405a41:	f2 0f 59 74 24 40           	(arith) 	mulsd	0x40(%rsp),%xmm6
  405a47:	66 0f 28 c8                 	(move)  	movapd	%xmm0,%xmm1
  405a4b:	f2 0f 5c cc                 	(arith) 	subsd	%xmm4,%xmm1
  405a4f:	f2 0f 58 cb                 	(arith) 	addsd	%xmm3,%xmm1
  405a53:	f2 0f 59 4c 24 38           	(arith) 	mulsd	0x38(%rsp),%xmm1
  405a59:	f2 0f 58 0c c5 00 16 61 00  	(arith) 	addsd	0x611600(,%rax,8),%xmm1
  405a62:	f2 0f 58 ce                 	(arith) 	addsd	%xmm6,%xmm1
  405a66:	66 0f 28 f5                 	(move)  	movapd	%xmm5,%xmm6
  405a6a:	f2 0f 59 f5                 	(arith) 	mulsd	%xmm5,%xmm6
  405a6e:	f2 45 0f 59 cd              	(arith) 	mulsd	%xmm13,%xmm9
  405a73:	f2 41 0f 5c f1              	(arith) 	subsd	%xmm9,%xmm6
  405a78:	66 44 0f 28 ca              	(move)  	movapd	%xmm2,%xmm9
  405a7d:	f2 44 0f 59 ca              	(arith) 	mulsd	%xmm2,%xmm9
  405a82:	f2 41 0f 58 f1              	(arith) 	addsd	%xmm9,%xmm6
  405a87:	f2 0f 59 74 24 48           	(arith) 	mulsd	0x48(%rsp),%xmm6
  405a8d:	f2 0f 58 ce                 	(arith) 	addsd	%xmm6,%xmm1
  405a91:	48 81 c6 36 9b 94 00        	(arith) 	add	$0x949b36,%rsi
  405a98:	66 0f 28 f0                 	(move)  	movapd	%xmm0,%xmm6
  405a9c:	f2 0f 59 34 f5 00 16 61 00  	(arith) 	mulsd	0x611600(,%rsi,8),%xmm6
  405aa5:	48 81 c7 36 9b 94 00        	(arith) 	add	$0x949b36,%rdi
  405aac:	f2 0f 59 24 fd 00 16 61 00  	(arith) 	mulsd	0x611600(,%rdi,8),%xmm4
  405ab5:	f2 0f 5c f4                 	(arith) 	subsd	%xmm4,%xmm6
  405ab9:	48 81 c1 36 9b 94 00        	(arith) 	add	$0x949b36,%rcx
  405ac0:	66 0f 28 e3                 	(move)  	movapd	%xmm3,%xmm4
  405ac4:	f2 0f 59 24 cd 00 16 61 00  	(arith) 	mulsd	0x611600(,%rcx,8),%xmm4
  405acd:	f2 0f 58 f4                 	(arith) 	addsd	%xmm4,%xmm6
  405ad1:	f2 0f 59 74 24 50           	(arith) 	mulsd	0x50(%rsp),%xmm6
  405ad7:	f2 0f 58 ce                 	(arith) 	addsd	%xmm6,%xmm1
  405adb:	f2 0f 10 64 24 58           	(move)  	movsd	0x58(%rsp),%xmm4
  405ae1:	f2 0f 59 c4                 	(arith) 	mulsd	%xmm4,%xmm0
  405ae5:	f2 45 0f 59 c7              	(arith) 	mulsd	%xmm15,%xmm8
  405aea:	f2 41 0f 5c c0              	(arith) 	subsd	%xmm8,%xmm0
  405aef:	f2 0f 59 c5                 	(arith) 	mulsd	%xmm5,%xmm0
  405af3:	f2 0f 59 dc                 	(arith) 	mulsd	%xmm4,%xmm3
  405af7:	f2 41 0f 59 ff              	(arith) 	mulsd	%xmm15,%xmm7
  405afc:	f2 0f 5c df                 	(arith) 	subsd	%xmm7,%xmm3
  405b00:	f2 0f 59 da                 	(arith) 	mulsd	%xmm2,%xmm3
  405b04:	f2 0f 5c c3                 	(arith) 	subsd	%xmm3,%xmm0
  405b08:	f2 41 0f 59 c2              	(arith) 	mulsd	%xmm10,%xmm0
  405b0d:	f2 0f 5c c8                 	(arith) 	subsd	%xmm0,%xmm1
  405b11:	f2 0f 11 0c c5 00 16 61 00  	(move)  	movsd	%xmm1,0x611600(,%rax,8)
/home/jcsalinas/Documents/pruebas/inst_estimation_module/BT/rhs.f:168
  405b1a:	41 83 c1 01                 	(arith) 	add	$0x1,%r9d
  405b1e:	44 3b 4c 24 60              	(arith) 	cmp	0x60(%rsp),%r9d
  405b23:	0f 85 f3 fb ff ff           	(control)	jne	40571c <compute_rhs_+0xd04>	; ↰ label 449 (loop 112)
; ------- Loop 112 exit
447:	
/home/jcsalinas/Documents/pruebas/inst_estimation_module/BT/rhs.f:167
  405b29:	83 84 24 c0 00 00 00 01     	(arith) 	addl	$0x1,0xc0(%rsp)
  405b31:	8b 84 24 c0 00 00 00        	(move)  	mov	0xc0(%rsp),%eax
  405b38:	48 83 84 24 80 00 00 00 67  	(arith) 	addq	$0x67,0x80(%rsp)
  405b41:	48 81 44 24 78 03 02 00 00  	(arith) 	addq	$0x203,0x78(%rsp)
  405b4a:	3b 84 24 90 00 00 00        	(arith) 	cmp	0x90(%rsp),%eax
  405b51:	0f 85 3f fb ff ff           	(control)	jne	405696 <compute_rhs_+0xc7e>	; ↰ label 446 (loop 111)
; ------- Loop 111 exit
450:	
  405b57:	f2 44 0f 10 8c 24 f8 00 00 00	(move)  	movsd	0xf8(%rsp),%xmm9
444:	
/home/jcsalinas/Documents/pruebas/inst_estimation_module/BT/rhs.f:220
  405b61:	83 7c 24 68 00              	(arith) 	cmpl	$0,0x68(%rsp)
  405b66:	0f 8e 5d 01 00 00           	(control)	jle	405cc9 <compute_rhs_+0x12b1>	; ↲ label 451
452:	
/home/jcsalinas/Documents/pruebas/inst_estimation_module/BT/rhs.f:224
  405b6c:	48 63 6c 24 70              	(move)  	movsxd	0x70(%rsp),%rbp
  405b71:	48 69 ed 35 cf 00 00        	(arith) 	imul	$0xcf35,%rbp,%rbp
  405b78:	48 8d b5 03 02 00 00        	(arith) 	lea	0x203(%rbp),%rsi
  405b7f:	48 8d bd 06 04 00 00        	(arith) 	lea	0x406(%rbp),%rdi
  405b86:	4c 8d 85 09 06 00 00        	(arith) 	lea	0x609(%rbp),%r8
  405b8d:	8b 84 24 88 00 00 00        	(move)  	mov	0x88(%rsp),%eax
  405b94:	44 8d 48 ff                 	(arith) 	lea	-0x1(%rax),%r9d
  405b98:	41 ba 01 00 00 00           	(move)  	mov	$0x1,%r10d
  405b9e:	f2 0f 10 15 aa 92 00 00     	(move)  	movsd	0x92aa(%rip),%xmm2
  405ba6:	f2 0f 10 0d aa 92 00 00     	(move)  	movsd	0x92aa(%rip),%xmm1
; ------- Loop 108 entry
453 (loop 108):	
  405bae:	49 63 c2                    	(move)  	movsxd	%r10d,%rax
  405bb1:	48 8d 14 80                 	(arith) 	lea	(%rax,%rax,4),%rdx
  405bb5:	4c 8d 1c 3a                 	(arith) 	lea	(%rdx,%rdi,1),%r11
  405bb9:	4a 8d 0c 02                 	(arith) 	lea	(%rdx,%r8,1),%rcx
  405bbd:	48 01 f2                    	(arith) 	add	%rsi,%rdx
  405bc0:	48 8d 04 d5 00 16 61 00     	(arith) 	lea	0x611600(,%rdx,8),%rax
  405bc8:	48 8d 1c d5 28 16 61 00     	(arith) 	lea	0x611628(,%rdx,8),%rbx
  405bd0:	49 29 d3                    	(arith) 	sub	%rdx,%r11
  405bd3:	48 29 d1                    	(arith) 	sub	%rdx,%rcx
  405bd6:	48 89 ca                    	(move)  	mov	%rcx,%rdx
; ------- Loop 107 entry
454 (loop 107):	
  405bd9:	66 0f 28 c2                 	(move)  	movapd	%xmm2,%xmm0
  405bdd:	f2 0f 59 00                 	(arith) 	mulsd	(%rax),%xmm0
  405be1:	66 0f 28 d9                 	(move)  	movapd	%xmm1,%xmm3
  405be5:	f2 42 0f 59 1c d8           	(arith) 	mulsd	(%rax,%r11,8),%xmm3
  405beb:	f2 0f 5c c3                 	(arith) 	subsd	%xmm3,%xmm0
  405bef:	f2 0f 58 04 d0              	(arith) 	addsd	(%rax,%rdx,8),%xmm0
  405bf4:	f2 41 0f 59 c1              	(arith) 	mulsd	%xmm9,%xmm0
  405bf9:	f2 0f 10 98 10 0a ad 05     	(move)  	movsd	0x5ad0a10(%rax),%xmm3
  405c01:	f2 0f 5c d8                 	(arith) 	subsd	%xmm0,%xmm3
  405c05:	f2 0f 11 98 10 0a ad 05     	(move)  	movsd	%xmm3,0x5ad0a10(%rax)
  405c0d:	48 83 c0 08                 	(arith) 	add	$0x8,%rax
/home/jcsalinas/Documents/pruebas/inst_estimation_module/BT/rhs.f:221
  405c11:	48 39 d8                    	(arith) 	cmp	%rbx,%rax
  405c14:	75 c3                       	(control)	jne	405bd9 <compute_rhs_+0x11c1>	; ↰ label 454 (loop 107)
; ------- Loop 107 exit
455:	
/home/jcsalinas/Documents/pruebas/inst_estimation_module/BT/rhs.f:220
  405c16:	41 83 c2 01                 	(arith) 	add	$0x1,%r10d
  405c1a:	45 39 d1                    	(arith) 	cmp	%r10d,%r9d
  405c1d:	75 8f                       	(control)	jne	405bae <compute_rhs_+0x1196>	; ↰ label 453 (loop 108)
; ------- Loop 108 exit
456:	
/home/jcsalinas/Documents/pruebas/inst_estimation_module/BT/rhs.f:233
  405c1f:	48 81 c5 0c 08 00 00        	(arith) 	add	$0x80c,%rbp
  405c26:	bb 01 00 00 00              	(move)  	mov	$0x1,%ebx
  405c2b:	f2 0f 10 15 2d 92 00 00     	(move)  	movsd	0x922d(%rip),%xmm2
  405c33:	f2 0f 10 0d 1d 92 00 00     	(move)  	movsd	0x921d(%rip),%xmm1
; ------- Loop 110 entry
457 (loop 110):	
  405c3b:	48 63 c3                    	(move)  	movsxd	%ebx,%rax
  405c3e:	48 8d 14 80                 	(arith) 	lea	(%rax,%rax,4),%rdx
  405c42:	4c 8d 1c 16                 	(arith) 	lea	(%rsi,%rdx,1),%r11
  405c46:	4d 8d 14 10                 	(arith) 	lea	(%r8,%rdx,1),%r10
  405c4a:	48 8d 0c 2a                 	(arith) 	lea	(%rdx,%rbp,1),%rcx
  405c4e:	48 01 fa                    	(arith) 	add	%rdi,%rdx
  405c51:	48 8d 04 d5 00 16 61 00     	(arith) 	lea	0x611600(,%rdx,8),%rax
  405c59:	4c 8d 24 d5 28 16 61 00     	(arith) 	lea	0x611628(,%rdx,8),%r12
  405c61:	49 29 d3                    	(arith) 	sub	%rdx,%r11
  405c64:	49 29 d2                    	(arith) 	sub	%rdx,%r10
  405c67:	48 29 d1                    	(arith) 	sub	%rdx,%rcx
  405c6a:	48 89 ca                    	(move)  	mov	%rcx,%rdx
; ------- Loop 109 entry
458 (loop 109):	
  405c6d:	66 0f 28 c2                 	(move)  	movapd	%xmm2,%xmm0
  405c71:	f2 0f 59 00                 	(arith) 	mulsd	(%rax),%xmm0
  405c75:	66 0f 28 d9                 	(move)  	movapd	%xmm1,%xmm3
  405c79:	f2 42 0f 59 1c d8           	(arith) 	mulsd	(%rax,%r11,8),%xmm3
  405c7f:	f2 0f 5c c3                 	(arith) 	subsd	%xmm3,%xmm0
  405c83:	66 0f 28 d9                 	(move)  	movapd	%xmm1,%xmm3
  405c87:	f2 42 0f 59 1c d0           	(arith) 	mulsd	(%rax,%r10,8),%xmm3
  405c8d:	f2 0f 5c c3                 	(arith) 	subsd	%xmm3,%xmm0
  405c91:	f2 0f 58 04 d0              	(arith) 	addsd	(%rax,%rdx,8),%xmm0
  405c96:	f2 41 0f 59 c1              	(arith) 	mulsd	%xmm9,%xmm0
  405c9b:	f2 0f 10 98 10 0a ad 05     	(move)  	movsd	0x5ad0a10(%rax),%xmm3
  405ca3:	f2 0f 5c d8                 	(arith) 	subsd	%xmm0,%xmm3
  405ca7:	f2 0f 11 98 10 0a ad 05     	(move)  	movsd	%xmm3,0x5ad0a10(%rax)
  405caf:	48 83 c0 08                 	(arith) 	add	$0x8,%rax
/home/jcsalinas/Documents/pruebas/inst_estimation_module/BT/rhs.f:230
  405cb3:	4c 39 e0                    	(arith) 	cmp	%r12,%rax
  405cb6:	75 b5                       	(control)	jne	405c6d <compute_rhs_+0x1255>	; ↰ label 458 (loop 109)
; ------- Loop 109 exit
459:	
/home/jcsalinas/Documents/pruebas/inst_estimation_module/BT/rhs.f:229
  405cb8:	83 c3 01                    	(arith) 	add	$0x1,%ebx
  405cbb:	41 39 d9                    	(arith) 	cmp	%ebx,%r9d
  405cbe:	0f 85 77 ff ff ff           	(control)	jne	405c3b <compute_rhs_+0x1223>	; ↰ label 457 (loop 110)
; ------- Loop 110 exit
460:	
  405cc4:	e9 59 10 00 00              	(control)	jmp	406d22 <compute_rhs_+0x230a>	; ↲ label 461
451:	
/home/jcsalinas/Documents/pruebas/inst_estimation_module/BT/rhs.f:237
  405cc9:	83 bc 24 b0 00 00 00 02     	(arith) 	cmpl	$0x2,0xb0(%rsp)
  405cd1:	0f 8e d2 02 00 00           	(control)	jle	405fa9 <compute_rhs_+0x1591>	; ↲ label 462
463:	
/home/jcsalinas/Documents/pruebas/inst_estimation_module/BT/rhs.f:243
  405cd7:	48 63 44 24 70              	(move)  	movsxd	0x70(%rsp),%rax
  405cdc:	48 69 c0 35 cf 00 00        	(arith) 	imul	$0xcf35,%rax,%rax
  405ce3:	48 89 44 24 10              	(move)  	mov	%rax,0x10(%rsp)
  405ce8:	48 05 03 02 00 00           	(arith) 	add	$0x203,%rax
  405cee:	48 89 44 24 08              	(move)  	mov	%rax,0x8(%rsp)
  405cf3:	41 bf 03 00 00 00           	(move)  	mov	$0x3,%r15d
  405cf9:	8b 84 24 88 00 00 00        	(move)  	mov	0x88(%rsp),%eax
  405d00:	44 8d 70 ff                 	(arith) 	lea	-0x1(%rax),%r14d
  405d04:	f2 0f 10 0d 4c 91 00 00     	(move)  	movsd	0x914c(%rip),%xmm1
  405d0c:	f2 0f 10 15 4c 91 00 00     	(move)  	movsd	0x914c(%rip),%xmm2
; ------- Loop 100 entry
464 (loop 100):	
/home/jcsalinas/Documents/pruebas/inst_estimation_module/BT/rhs.f:238
  405d14:	83 7c 24 68 00              	(arith) 	cmpl	$0,0x68(%rsp)
  405d19:	0f 8e f4 00 00 00           	(control)	jle	405e13 <compute_rhs_+0x13fb>	; ↲ label 465
466:	
/home/jcsalinas/Documents/pruebas/inst_estimation_module/BT/rhs.f:243
  405d1f:	49 63 c7                    	(move)  	movsxd	%r15d,%rax
  405d22:	48 89 c2                    	(move)  	mov	%rax,%rdx
  405d25:	48 c1 e2 08                 	(logic) 	sal	$0x8,%rdx
  405d29:	48 01 c2                    	(arith) 	add	%rax,%rdx
  405d2c:	48 8d 2c 50                 	(arith) 	lea	(%rax,%rdx,2),%rbp
  405d30:	48 8b 7c 24 10              	(move)  	mov	0x10(%rsp),%rdi
  405d35:	48 01 fd                    	(arith) 	add	%rdi,%rbp
  405d38:	48 8b 44 24 08              	(move)  	mov	0x8(%rsp),%rax
  405d3d:	49 89 c5                    	(move)  	mov	%rax,%r13
  405d40:	4c 8d a0 03 02 00 00        	(arith) 	lea	0x203(%rax),%r12
  405d47:	41 8d 47 01                 	(arith) 	lea	0x1(%r15),%eax
  405d4b:	48 98                       	(conv)  	cltq
  405d4d:	48 89 c2                    	(move)  	mov	%rax,%rdx
  405d50:	48 c1 e2 08                 	(logic) 	sal	$0x8,%rdx
  405d54:	48 01 c2                    	(arith) 	add	%rax,%rdx
  405d57:	48 8d 1c 50                 	(arith) 	lea	(%rax,%rdx,2),%rbx
  405d5b:	48 01 fb                    	(arith) 	add	%rdi,%rbx
  405d5e:	41 8d 47 02                 	(arith) 	lea	0x2(%r15),%eax
  405d62:	48 98                       	(conv)  	cltq
  405d64:	48 89 c2                    	(move)  	mov	%rax,%rdx
  405d67:	48 c1 e2 08                 	(logic) 	sal	$0x8,%rdx
  405d6b:	48 01 c2                    	(arith) 	add	%rax,%rdx
  405d6e:	4c 8d 1c 50                 	(arith) 	lea	(%rax,%rdx,2),%r11
  405d72:	49 01 fb                    	(arith) 	add	%rdi,%r11
  405d75:	41 ba 01 00 00 00           	(move)  	mov	$0x1,%r10d
; ------- Loop 106 entry
467 (loop 106):	
  405d7b:	49 63 c2                    	(move)  	movsxd	%r10d,%rax
  405d7e:	48 8d 14 80                 	(arith) 	lea	(%rax,%rax,4),%rdx
  405d82:	4a 8d 3c 2a                 	(arith) 	lea	(%rdx,%r13,1),%rdi
  405d86:	4a 8d 34 22                 	(arith) 	lea	(%rdx,%r12,1),%rsi
  405d8a:	48 8d 0c 1a                 	(arith) 	lea	(%rdx,%rbx,1),%rcx
  405d8e:	4e 8d 0c 1a                 	(arith) 	lea	(%rdx,%r11,1),%r9
  405d92:	48 01 ea                    	(arith) 	add	%rbp,%rdx
  405d95:	48 8d 04 d5 00 16 61 00     	(arith) 	lea	0x611600(,%rdx,8),%rax
  405d9d:	4c 8d 04 d5 28 16 61 00     	(arith) 	lea	0x611628(,%rdx,8),%r8
  405da5:	48 29 d7                    	(arith) 	sub	%rdx,%rdi
  405da8:	48 29 d6                    	(arith) 	sub	%rdx,%rsi
  405dab:	48 29 d1                    	(arith) 	sub	%rdx,%rcx
  405dae:	49 29 d1                    	(arith) 	sub	%rdx,%r9
  405db1:	4c 89 ca                    	(move)  	mov	%r9,%rdx
; ------- Loop 105 entry
468 (loop 105):	
  405db4:	66 0f 28 d9                 	(move)  	movapd	%xmm1,%xmm3
  405db8:	f2 0f 59 1c f0              	(arith) 	mulsd	(%rax,%rsi,8),%xmm3
  405dbd:	f2 0f 10 04 f8              	(move)  	movsd	(%rax,%rdi,8),%xmm0
  405dc2:	f2 0f 5c c3                 	(arith) 	subsd	%xmm3,%xmm0
  405dc6:	66 0f 28 da                 	(move)  	movapd	%xmm2,%xmm3
  405dca:	f2 0f 59 18                 	(arith) 	mulsd	(%rax),%xmm3
  405dce:	f2 0f 58 c3                 	(arith) 	addsd	%xmm3,%xmm0
  405dd2:	66 0f 28 d9                 	(move)  	movapd	%xmm1,%xmm3
  405dd6:	f2 0f 59 1c c8              	(arith) 	mulsd	(%rax,%rcx,8),%xmm3
  405ddb:	f2 0f 5c c3                 	(arith) 	subsd	%xmm3,%xmm0
  405ddf:	f2 0f 58 04 d0              	(arith) 	addsd	(%rax,%rdx,8),%xmm0
  405de4:	f2 41 0f 59 c1              	(arith) 	mulsd	%xmm9,%xmm0
  405de9:	f2 0f 10 98 10 0a ad 05     	(move)  	movsd	0x5ad0a10(%rax),%xmm3
  405df1:	f2 0f 5c d8                 	(arith) 	subsd	%xmm0,%xmm3
  405df5:	f2 0f 11 98 10 0a ad 05     	(move)  	movsd	%xmm3,0x5ad0a10(%rax)
  405dfd:	48 83 c0 08                 	(arith) 	add	$0x8,%rax
/home/jcsalinas/Documents/pruebas/inst_estimation_module/BT/rhs.f:239
  405e01:	4c 39 c0                    	(arith) 	cmp	%r8,%rax
  405e04:	75 ae                       	(control)	jne	405db4 <compute_rhs_+0x139c>	; ↰ label 468 (loop 105)
; ------- Loop 105 exit
469:	
/home/jcsalinas/Documents/pruebas/inst_estimation_module/BT/rhs.f:238
  405e06:	41 83 c2 01                 	(arith) 	add	$0x1,%r10d
  405e0a:	45 39 d6                    	(arith) 	cmp	%r10d,%r14d
  405e0d:	0f 85 68 ff ff ff           	(control)	jne	405d7b <compute_rhs_+0x1363>	; ↰ label 467 (loop 106)
; ------- Loop 106 exit
465:	
/home/jcsalinas/Documents/pruebas/inst_estimation_module/BT/rhs.f:237
  405e13:	41 83 c7 01                 	(arith) 	add	$0x1,%r15d
  405e17:	48 81 44 24 08 03 02 00 00  	(arith) 	addq	$0x203,0x8(%rsp)
  405e20:	44 39 bc 24 b8 00 00 00     	(arith) 	cmp	%r15d,0xb8(%rsp)
  405e28:	0f 85 e6 fe ff ff           	(control)	jne	405d14 <compute_rhs_+0x12fc>	; ↰ label 464 (loop 100)
; ------- Loop 100 exit
470:	
/home/jcsalinas/Documents/pruebas/inst_estimation_module/BT/rhs.f:249
  405e2e:	83 7c 24 68 00              	(arith) 	cmpl	$0,0x68(%rsp)
  405e33:	0f 8e 70 01 00 00           	(control)	jle	405fa9 <compute_rhs_+0x1591>	; ↲ label 462
471:	
/home/jcsalinas/Documents/pruebas/inst_estimation_module/BT/rhs.f:253
  405e39:	48 63 4c 24 70              	(move)  	movsxd	0x70(%rsp),%rcx
  405e3e:	48 69 c9 35 cf 00 00        	(arith) 	imul	$0xcf35,%rcx,%rcx
  405e45:	48 8b 84 24 e8 00 00 00     	(move)  	mov	0xe8(%rsp),%rax
  405e4d:	48 8d 34 08                 	(arith) 	lea	(%rax,%rcx,1),%rsi
  405e51:	48 8b 84 24 d8 00 00 00     	(move)  	mov	0xd8(%rsp),%rax
  405e59:	48 8d 2c 01                 	(arith) 	lea	(%rcx,%rax,1),%rbp
  405e5d:	48 8b 84 24 f0 00 00 00     	(move)  	mov	0xf0(%rsp),%rax
  405e65:	48 8d 3c 08                 	(arith) 	lea	(%rax,%rcx,1),%rdi
  405e69:	48 03 8c 24 e0 00 00 00     	(arith) 	add	0xe0(%rsp),%rcx
  405e71:	8b 84 24 88 00 00 00        	(move)  	mov	0x88(%rsp),%eax
  405e78:	44 8d 40 ff                 	(arith) 	lea	-0x1(%rax),%r8d
  405e7c:	bb 01 00 00 00              	(move)  	mov	$0x1,%ebx
  405e81:	f2 0f 10 0d cf 8f 00 00     	(move)  	movsd	0x8fcf(%rip),%xmm1
  405e89:	f2 0f 10 15 cf 8f 00 00     	(move)  	movsd	0x8fcf(%rip),%xmm2
; ------- Loop 102 entry
472 (loop 102):	
  405e91:	48 63 c3                    	(move)  	movsxd	%ebx,%rax
  405e94:	48 8d 14 80                 	(arith) 	lea	(%rax,%rax,4),%rdx
  405e98:	4c 8d 1c 2a                 	(arith) 	lea	(%rdx,%rbp,1),%r11
  405e9c:	4c 8d 14 3a                 	(arith) 	lea	(%rdx,%rdi,1),%r10
  405ea0:	4c 8d 0c 0a                 	(arith) 	lea	(%rdx,%rcx,1),%r9
  405ea4:	48 01 f2                    	(arith) 	add	%rsi,%rdx
  405ea7:	48 8d 04 d5 00 16 61 00     	(arith) 	lea	0x611600(,%rdx,8),%rax
  405eaf:	4c 8d 24 d5 28 16 61 00     	(arith) 	lea	0x611628(,%rdx,8),%r12
  405eb7:	49 29 d3                    	(arith) 	sub	%rdx,%r11
  405eba:	49 29 d2                    	(arith) 	sub	%rdx,%r10
  405ebd:	49 29 d1                    	(arith) 	sub	%rdx,%r9
  405ec0:	4c 89 ca                    	(move)  	mov	%r9,%rdx
; ------- Loop 101 entry
473 (loop 101):	
  405ec3:	66 0f 28 d9                 	(move)  	movapd	%xmm1,%xmm3
  405ec7:	f2 42 0f 59 1c d0           	(arith) 	mulsd	(%rax,%r10,8),%xmm3
  405ecd:	f2 42 0f 10 04 d8           	(move)  	movsd	(%rax,%r11,8),%xmm0
  405ed3:	f2 0f 5c c3                 	(arith) 	subsd	%xmm3,%xmm0
  405ed7:	66 0f 28 da                 	(move)  	movapd	%xmm2,%xmm3
  405edb:	f2 0f 59 18                 	(arith) 	mulsd	(%rax),%xmm3
  405edf:	f2 0f 58 c3                 	(arith) 	addsd	%xmm3,%xmm0
  405ee3:	66 0f 28 d9                 	(move)  	movapd	%xmm1,%xmm3
  405ee7:	f2 0f 59 1c d0              	(arith) 	mulsd	(%rax,%rdx,8),%xmm3
  405eec:	f2 0f 5c c3                 	(arith) 	subsd	%xmm3,%xmm0
  405ef0:	f2 41 0f 59 c1              	(arith) 	mulsd	%xmm9,%xmm0
  405ef5:	f2 0f 10 98 10 0a ad 05     	(move)  	movsd	0x5ad0a10(%rax),%xmm3
  405efd:	f2 0f 5c d8                 	(arith) 	subsd	%xmm0,%xmm3
  405f01:	f2 0f 11 98 10 0a ad 05     	(move)  	movsd	%xmm3,0x5ad0a10(%rax)
  405f09:	48 83 c0 08                 	(arith) 	add	$0x8,%rax
/home/jcsalinas/Documents/pruebas/inst_estimation_module/BT/rhs.f:250
  405f0d:	4c 39 e0                    	(arith) 	cmp	%r12,%rax
  405f10:	75 b1                       	(control)	jne	405ec3 <compute_rhs_+0x14ab>	; ↰ label 473 (loop 101)
; ------- Loop 101 exit
474:	
/home/jcsalinas/Documents/pruebas/inst_estimation_module/BT/rhs.f:249
  405f12:	83 c3 01                    	(arith) 	add	$0x1,%ebx
  405f15:	41 39 d8                    	(arith) 	cmp	%ebx,%r8d
  405f18:	0f 85 73 ff ff ff           	(control)	jne	405e91 <compute_rhs_+0x1479>	; ↰ label 472 (loop 102)
; ------- Loop 102 exit
475:	
  405f1e:	41 bb 01 00 00 00           	(move)  	mov	$0x1,%r11d
/home/jcsalinas/Documents/pruebas/inst_estimation_module/BT/rhs.f:262
  405f24:	f2 0f 10 15 2c 8f 00 00     	(move)  	movsd	0x8f2c(%rip),%xmm2
  405f2c:	f2 0f 10 0d 1c 8f 00 00     	(move)  	movsd	0x8f1c(%rip),%xmm1
; ------- Loop 104 entry
476 (loop 104):	
  405f34:	49 63 c3                    	(move)  	movsxd	%r11d,%rax
  405f37:	48 8d 14 80                 	(arith) 	lea	(%rax,%rax,4),%rdx
  405f3b:	4c 8d 14 17                 	(arith) 	lea	(%rdi,%rdx,1),%r10
  405f3f:	4c 8d 0c 16                 	(arith) 	lea	(%rsi,%rdx,1),%r9
  405f43:	48 01 ca                    	(arith) 	add	%rcx,%rdx
  405f46:	48 8d 04 d5 00 16 61 00     	(arith) 	lea	0x611600(,%rdx,8),%rax
  405f4e:	48 8d 1c d5 28 16 61 00     	(arith) 	lea	0x611628(,%rdx,8),%rbx
  405f56:	49 29 d2                    	(arith) 	sub	%rdx,%r10
  405f59:	49 29 d1                    	(arith) 	sub	%rdx,%r9
  405f5c:	4c 89 ca                    	(move)  	mov	%r9,%rdx
; ------- Loop 103 entry
477 (loop 103):	
  405f5f:	66 0f 28 da                 	(move)  	movapd	%xmm2,%xmm3
  405f63:	f2 0f 59 1c d0              	(arith) 	mulsd	(%rax,%rdx,8),%xmm3
  405f68:	f2 42 0f 10 04 d0           	(move)  	movsd	(%rax,%r10,8),%xmm0
  405f6e:	f2 0f 5c c3                 	(arith) 	subsd	%xmm3,%xmm0
  405f72:	66 0f 28 d9                 	(move)  	movapd	%xmm1,%xmm3
  405f76:	f2 0f 59 18                 	(arith) 	mulsd	(%rax),%xmm3
  405f7a:	f2 0f 58 c3                 	(arith) 	addsd	%xmm3,%xmm0
  405f7e:	f2 41 0f 59 c1              	(arith) 	mulsd	%xmm9,%xmm0
  405f83:	f2 0f 10 98 10 0a ad 05     	(move)  	movsd	0x5ad0a10(%rax),%xmm3
  405f8b:	f2 0f 5c d8                 	(arith) 	subsd	%xmm0,%xmm3
  405f8f:	f2 0f 11 98 10 0a ad 05     	(move)  	movsd	%xmm3,0x5ad0a10(%rax)
  405f97:	48 83 c0 08                 	(arith) 	add	$0x8,%rax
/home/jcsalinas/Documents/pruebas/inst_estimation_module/BT/rhs.f:259
  405f9b:	48 39 d8                    	(arith) 	cmp	%rbx,%rax
  405f9e:	75 bf                       	(control)	jne	405f5f <compute_rhs_+0x1547>	; ↰ label 477 (loop 103)
; ------- Loop 103 exit
478:	
/home/jcsalinas/Documents/pruebas/inst_estimation_module/BT/rhs.f:258
  405fa0:	41 83 c3 01                 	(arith) 	add	$0x1,%r11d
  405fa4:	45 39 d8                    	(arith) 	cmp	%r11d,%r8d
  405fa7:	75 8b                       	(control)	jne	405f34 <compute_rhs_+0x151c>	; ↰ label 476 (loop 104)
; ------- Loop 104 exit
462:	
/home/jcsalinas/Documents/pruebas/inst_estimation_module/BT/rhs.f:166
  405fa9:	83 44 24 70 01              	(arith) 	addl	$0x1,0x70(%rsp)
  405fae:	8b 44 24 70                 	(move)  	mov	0x70(%rsp),%eax
  405fb2:	39 84 24 cc 00 00 00        	(arith) 	cmp	%eax,0xcc(%rsp)
  405fb9:	0f 85 5b f6 ff ff           	(control)	jne	40561a <compute_rhs_+0xc02>	; ↰ label 443 (loop 99)
; ------- Loop 99 exit
479:	
/home/jcsalinas/Documents/pruebas/inst_estimation_module/BT/rhs.f:266
  405fbf:	83 3d 2e b6 20 00 00        	(arith) 	cmpl	$0,0x20b62e(%rip)
  405fc6:	74 27                       	(control)	je	405fef <compute_rhs_+0x15d7>	; ↲ label 480
481:	
/home/jcsalinas/Documents/pruebas/inst_estimation_module/BT/rhs.f:268
  405fc8:	bf 38 ef 40 00              	(move)  	mov	$0x40ef38,%edi
  405fcd:	b8 00 00 00 00              	(move)  	mov	$0,%eax
  405fd2:	e8 64 8a 00 00              	(control)	call	40ea3b <timer_stop_>	; ⇄ timer_stop
482:	
/home/jcsalinas/Documents/pruebas/inst_estimation_module/BT/rhs.f:268
  405fd7:	83 3d 16 b6 20 00 00        	(arith) 	cmpl	$0,0x20b616(%rip)
  405fde:	74 0f                       	(control)	je	405fef <compute_rhs_+0x15d7>	; ↲ label 480
483:	
  405fe0:	bf 3c ef 40 00              	(move)  	mov	$0x40ef3c,%edi
  405fe5:	b8 00 00 00 00              	(move)  	mov	$0,%eax
  405fea:	e8 34 8a 00 00              	(control)	call	40ea23 <timer_start_>	; ⇄ timer_start
480:	
/home/jcsalinas/Documents/pruebas/inst_estimation_module/BT/rhs.f:272
  405fef:	8b 05 fb b5 20 00           	(move)  	mov	0x20b5fb(%rip),%eax
  405ff5:	89 c3                       	(move)  	mov	%eax,%ebx
  405ff7:	89 84 24 c0 00 00 00        	(move)  	mov	%eax,0xc0(%rsp)
  405ffe:	83 e8 02                    	(arith) 	sub	$0x2,%eax
  406001:	85 c0                       	(arith) 	test	%eax,%eax
  406003:	0f 8e 20 06 00 00           	(control)	jle	406629 <compute_rhs_+0x1c11>	; ↲ label 484
485:	
/home/jcsalinas/Documents/pruebas/inst_estimation_module/BT/rhs.f:273
  406009:	8b 15 dd b5 20 00           	(move)  	mov	0x20b5dd(%rip),%edx
  40600f:	8d 42 fe                    	(arith) 	lea	-0x2(%rdx),%eax
  406012:	89 84 24 c4 00 00 00        	(move)  	mov	%eax,0xc4(%rsp)
/home/jcsalinas/Documents/pruebas/inst_estimation_module/BT/rhs.f:274
  406019:	8b 05 c9 b5 20 00           	(move)  	mov	0x20b5c9(%rip),%eax
  40601f:	8d 78 fe                    	(arith) 	lea	-0x2(%rax),%edi
  406022:	89 7c 24 70                 	(move)  	mov	%edi,0x70(%rsp)
/home/jcsalinas/Documents/pruebas/inst_estimation_module/BT/rhs.f:4
  406026:	f2 0f 10 2d 6a b4 20 00     	(move)  	movsd	0x20b46a(%rip),%xmm5
  40602e:	f2 0f 11 6c 24 18           	(move)  	movsd	%xmm5,0x18(%rsp)
  406034:	f2 44 0f 10 15 db b0 20 00  	(move)  	movsd	0x20b0db(%rip),%xmm10
  40603d:	f2 0f 10 2d 5b b4 20 00     	(move)  	movsd	0x20b45b(%rip),%xmm5
  406045:	f2 0f 11 6c 24 20           	(move)  	movsd	%xmm5,0x20(%rsp)
  40604b:	f2 44 0f 10 35 24 b4 20 00  	(move)  	movsd	0x20b424(%rip),%xmm14
  406054:	f2 0f 10 2d 4c b4 20 00     	(move)  	movsd	0x20b44c(%rip),%xmm5
  40605c:	f2 0f 11 6c 24 28           	(move)  	movsd	%xmm5,0x28(%rsp)
  406062:	f2 0f 10 2d 46 b4 20 00     	(move)  	movsd	0x20b446(%rip),%xmm5
  40606a:	f2 0f 11 6c 24 30           	(move)  	movsd	%xmm5,0x30(%rsp)
  406070:	f2 0f 10 2d 50 b5 20 00     	(move)  	movsd	0x20b550(%rip),%xmm5
  406078:	f2 0f 11 ac 24 a8 00 00 00  	(move)  	movsd	%xmm5,0xa8(%rsp)
  406081:	f2 44 0f 10 2d 7e b4 20 00  	(move)  	movsd	0x20b47e(%rip),%xmm13
  40608a:	f2 0f 10 2d 26 b4 20 00     	(move)  	movsd	0x20b426(%rip),%xmm5
  406092:	f2 0f 11 6c 24 38           	(move)  	movsd	%xmm5,0x38(%rsp)
  406098:	f2 0f 10 2d e0 b3 20 00     	(move)  	movsd	0x20b3e0(%rip),%xmm5
  4060a0:	f2 0f 11 6c 24 40           	(move)  	movsd	%xmm5,0x40(%rsp)
  4060a6:	f2 0f 10 2d da b3 20 00     	(move)  	movsd	0x20b3da(%rip),%xmm5
  4060ae:	f2 0f 11 6c 24 48           	(move)  	movsd	%xmm5,0x48(%rsp)
  4060b4:	f2 0f 10 2d d4 b3 20 00     	(move)  	movsd	0x20b3d4(%rip),%xmm5
  4060bc:	f2 0f 11 6c 24 50           	(move)  	movsd	%xmm5,0x50(%rsp)
  4060c2:	f2 44 0f 10 3d 35 b4 20 00  	(move)  	movsd	0x20b435(%rip),%xmm15
  4060cb:	83 eb 01                    	(arith) 	sub	$0x1,%ebx
  4060ce:	89 9c 24 c8 00 00 00        	(move)  	mov	%ebx,0xc8(%rsp)
  4060d5:	48 c7 84 24 b0 00 00 00 00 00 00 00	(move)  	movq	$0,0xb0(%rsp)
  4060e1:	c7 44 24 68 01 00 00 00     	(move)  	movl	$0x1,0x68(%rsp)
  4060e9:	8d 5a ff                    	(arith) 	lea	-0x1(%rdx),%ebx
  4060ec:	89 5c 24 78                 	(move)  	mov	%ebx,0x78(%rsp)
  4060f0:	83 e8 01                    	(arith) 	sub	$0x1,%eax
  4060f3:	89 44 24 58                 	(move)  	mov	%eax,0x58(%rsp)
; ------- Loop 96 entry
486 (loop 96):	
/home/jcsalinas/Documents/pruebas/inst_estimation_module/BT/rhs.f:273
  4060f7:	83 bc 24 c4 00 00 00 00     	(arith) 	cmpl	$0,0xc4(%rsp)
  4060ff:	0f 8e 02 05 00 00           	(control)	jle	406607 <compute_rhs_+0x1bef>	; ↲ label 487
488:	
/home/jcsalinas/Documents/pruebas/inst_estimation_module/BT/rhs.f:275
  406105:	8b 44 24 68                 	(move)  	mov	0x68(%rsp),%eax
  406109:	48 63 d0                    	(move)  	movsxd	%eax,%rdx
  40610c:	48 69 da 71 29 00 00        	(arith) 	imul	$0x2971,%rdx,%rbx
  406113:	48 89 9c 24 80 00 00 00     	(move)  	mov	%rbx,0x80(%rsp)
/home/jcsalinas/Documents/pruebas/inst_estimation_module/BT/rhs.f:276
  40611b:	83 c0 01                    	(arith) 	add	$0x1,%eax
  40611e:	48 98                       	(conv)  	cltq
  406120:	48 69 d8 71 29 00 00        	(arith) 	imul	$0x2971,%rax,%rbx
  406127:	48 89 9c 24 88 00 00 00     	(move)  	mov	%rbx,0x88(%rsp)
/home/jcsalinas/Documents/pruebas/inst_estimation_module/BT/rhs.f:277
  40612f:	48 8b 9c 24 b0 00 00 00     	(move)  	mov	0xb0(%rsp),%rbx
  406137:	48 89 9c 24 90 00 00 00     	(move)  	mov	%rbx,0x90(%rsp)
/home/jcsalinas/Documents/pruebas/inst_estimation_module/BT/rhs.f:282
  40613f:	48 69 fa 35 cf 00 00        	(arith) 	imul	$0xcf35,%rdx,%rdi
  406146:	48 89 bc 24 98 00 00 00     	(move)  	mov	%rdi,0x98(%rsp)
  40614e:	48 69 c0 35 cf 00 00        	(arith) 	imul	$0xcf35,%rax,%rax
  406155:	48 89 84 24 a0 00 00 00     	(move)  	mov	%rax,0xa0(%rsp)
  40615d:	48 8d 04 9b                 	(arith) 	lea	(%rbx,%rbx,4),%rax
  406161:	48 89 84 24 b8 00 00 00     	(move)  	mov	%rax,0xb8(%rsp)
  406169:	c7 44 24 60 01 00 00 00     	(move)  	movl	$0x1,0x60(%rsp)
; ------- Loop 97 entry
489 (loop 97):	
/home/jcsalinas/Documents/pruebas/inst_estimation_module/BT/rhs.f:274
  406171:	83 7c 24 70 00              	(arith) 	cmpl	$0,0x70(%rsp)
  406176:	0f 8e 78 04 00 00           	(control)	jle	4065f4 <compute_rhs_+0x1bdc>	; ↲ label 490
491:	
/home/jcsalinas/Documents/pruebas/inst_estimation_module/BT/rhs.f:275
  40617c:	48 63 44 24 60              	(move)  	movsxd	0x60(%rsp),%rax
  406181:	48 6b d8 67                 	(arith) 	imul	$0x67,%rax,%rbx
  406185:	48 8b bc 24 80 00 00 00     	(move)  	mov	0x80(%rsp),%rdi
  40618d:	4c 8d 34 1f                 	(arith) 	lea	(%rdi,%rbx,1),%r14
/home/jcsalinas/Documents/pruebas/inst_estimation_module/BT/rhs.f:276
  406191:	48 8b bc 24 88 00 00 00     	(move)  	mov	0x88(%rsp),%rdi
  406199:	4c 8d 2c 3b                 	(arith) 	lea	(%rbx,%rdi,1),%r13
/home/jcsalinas/Documents/pruebas/inst_estimation_module/BT/rhs.f:277
  40619d:	48 03 9c 24 90 00 00 00     	(arith) 	add	0x90(%rsp),%rbx
/home/jcsalinas/Documents/pruebas/inst_estimation_module/BT/rhs.f:282
  4061a5:	48 89 c2                    	(move)  	mov	%rax,%rdx
  4061a8:	48 c1 e2 08                 	(logic) 	sal	$0x8,%rdx
  4061ac:	48 01 c2                    	(arith) 	add	%rax,%rdx
  4061af:	48 8d 04 50                 	(arith) 	lea	(%rax,%rdx,2),%rax
  4061b3:	48 8b bc 24 98 00 00 00     	(move)  	mov	0x98(%rsp),%rdi
  4061bb:	4c 8d 24 07                 	(arith) 	lea	(%rdi,%rax,1),%r12
  4061bf:	48 8b bc 24 a0 00 00 00     	(move)  	mov	0xa0(%rsp),%rdi
  4061c7:	48 8d 2c 38                 	(arith) 	lea	(%rax,%rdi,1),%rbp
  4061cb:	48 03 84 24 b8 00 00 00     	(arith) 	add	0xb8(%rsp),%rax
  4061d3:	48 89 44 24 08              	(move)  	mov	%rax,0x8(%rsp)
/home/jcsalinas/Documents/pruebas/inst_estimation_module/BT/rhs.f:305
  4061d8:	f2 0f 10 ac 24 a8 00 00 00  	(move)  	movsd	0xa8(%rsp),%xmm5
  4061e1:	f2 41 0f 59 ee              	(arith) 	mulsd	%xmm14,%xmm5
  4061e6:	f2 0f 11 6c 24 10           	(move)  	movsd	%xmm5,0x10(%rsp)
  4061ec:	41 b9 01 00 00 00           	(move)  	mov	$0x1,%r9d
; ------- Loop 98 entry
492 (loop 98):	
/home/jcsalinas/Documents/pruebas/inst_estimation_module/BT/rhs.f:275
  4061f2:	49 63 c1                    	(move)  	movsxd	%r9d,%rax
  4061f5:	49 8d 3c 06                 	(arith) 	lea	(%r14,%rax,1),%rdi
  4061f9:	48 8d 97 2a 95 73 00        	(arith) 	lea	0x73952a(%rdi),%rdx
  406200:	f2 44 0f 10 24 d5 00 16 61 00	(move)  	movsd	0x611600(,%rdx,8),%xmm12
/home/jcsalinas/Documents/pruebas/inst_estimation_module/BT/rhs.f:276
  40620a:	4a 8d 34 28                 	(arith) 	lea	(%rax,%r13,1),%rsi
  40620e:	48 8d 96 2a 95 73 00        	(arith) 	lea	0x73952a(%rsi),%rdx
  406215:	f2 0f 10 2c d5 00 16 61 00  	(move)  	movsd	0x611600(,%rdx,8),%xmm5
/home/jcsalinas/Documents/pruebas/inst_estimation_module/BT/rhs.f:277
  40621e:	48 8d 0c 18                 	(arith) 	lea	(%rax,%rbx,1),%rcx
  406222:	48 8d 91 2a 95 73 00        	(arith) 	lea	0x73952a(%rcx),%rdx
  406229:	f2 0f 10 14 d5 00 16 61 00  	(move)  	movsd	0x611600(,%rdx,8),%xmm2
/home/jcsalinas/Documents/pruebas/inst_estimation_module/BT/rhs.f:282
  406232:	48 8d 14 80                 	(arith) 	lea	(%rax,%rax,4),%rdx
  406236:	49 8d 04 14                 	(arith) 	lea	(%r12,%rdx,1),%rax
  40623a:	4c 8d 04 2a                 	(arith) 	lea	(%rdx,%rbp,1),%r8
  40623e:	48 03 54 24 08              	(arith) 	add	0x8(%rsp),%rdx
  406243:	f2 42 0f 10 0c c5 18 16 61 00	(move)  	movsd	0x611618(,%r8,8),%xmm1
  40624d:	f2 0f 10 3c d5 18 16 61 00  	(move)  	movsd	0x611618(,%rdx,8),%xmm7
  406256:	4c 8d 90 42 a1 b5 00        	(arith) 	lea	0xb5a142(%rax),%r10
  40625d:	f2 0f 10 1c c5 00 16 61 00  	(move)  	movsd	0x611600(,%rax,8),%xmm3
  406266:	f2 0f 58 db                 	(arith) 	addsd	%xmm3,%xmm3
  40626a:	f2 42 0f 10 04 c5 00 16 61 00	(move)  	movsd	0x611600(,%r8,8),%xmm0
  406274:	f2 0f 5c c3                 	(arith) 	subsd	%xmm3,%xmm0
  406278:	f2 0f 58 04 d5 00 16 61 00  	(arith) 	addsd	0x611600(,%rdx,8),%xmm0
  406281:	f2 0f 59 44 24 18           	(arith) 	mulsd	0x18(%rsp),%xmm0
  406287:	f2 42 0f 58 04 d5 00 16 61 00	(arith) 	addsd	0x611600(,%r10,8),%xmm0
  406291:	66 0f 28 d9                 	(move)  	movapd	%xmm1,%xmm3
  406295:	f2 0f 5c df                 	(arith) 	subsd	%xmm7,%xmm3
  406299:	f2 41 0f 59 da              	(arith) 	mulsd	%xmm10,%xmm3
  40629e:	f2 0f 5c c3                 	(arith) 	subsd	%xmm3,%xmm0
  4062a2:	f2 42 0f 11 04 d5 00 16 61 00	(move)  	movsd	%xmm0,0x611600(,%r10,8)
/home/jcsalinas/Documents/pruebas/inst_estimation_module/BT/rhs.f:289
  4062ac:	f2 42 0f 10 1c c5 08 16 61 00	(move)  	movsd	0x611608(,%r8,8),%xmm3
  4062b6:	f2 0f 10 34 d5 08 16 61 00  	(move)  	movsd	0x611608(,%rdx,8),%xmm6
  4062bf:	4c 8d 90 43 a1 b5 00        	(arith) 	lea	0xb5a143(%rax),%r10
  4062c6:	f2 0f 10 04 c5 08 16 61 00  	(move)  	movsd	0x611608(,%rax,8),%xmm0
  4062cf:	f2 0f 58 c0                 	(arith) 	addsd	%xmm0,%xmm0
  4062d3:	66 0f 28 e3                 	(move)  	movapd	%xmm3,%xmm4
  4062d7:	f2 0f 5c e0                 	(arith) 	subsd	%xmm0,%xmm4
  4062db:	f2 0f 58 e6                 	(arith) 	addsd	%xmm6,%xmm4
  4062df:	f2 0f 59 64 24 20           	(arith) 	mulsd	0x20(%rsp),%xmm4
  4062e5:	f2 42 0f 58 24 d5 00 16 61 00	(arith) 	addsd	0x611600(,%r10,8),%xmm4
  4062ef:	4c 8d 9e 1e 8f 52 00        	(arith) 	lea	0x528f1e(%rsi),%r11
  4062f6:	4c 8d bf 1e 8f 52 00        	(arith) 	lea	0x528f1e(%rdi),%r15
  4062fd:	f2 46 0f 10 04 fd 00 16 61 00	(move)  	movsd	0x611600(,%r15,8),%xmm8
  406307:	f2 45 0f 58 c0              	(arith) 	addsd	%xmm8,%xmm8
  40630c:	f2 42 0f 10 04 dd 00 16 61 00	(move)  	movsd	0x611600(,%r11,8),%xmm0
  406316:	f2 41 0f 5c c0              	(arith) 	subsd	%xmm8,%xmm0
  40631b:	4c 8d 99 1e 8f 52 00        	(arith) 	lea	0x528f1e(%rcx),%r11
  406322:	f2 42 0f 58 04 dd 00 16 61 00	(arith) 	addsd	0x611600(,%r11,8),%xmm0
  40632c:	f2 41 0f 59 c6              	(arith) 	mulsd	%xmm14,%xmm0
  406331:	f2 0f 58 e0                 	(arith) 	addsd	%xmm0,%xmm4
  406335:	f2 0f 59 dd                 	(arith) 	mulsd	%xmm5,%xmm3
  406339:	f2 0f 59 f2                 	(arith) 	mulsd	%xmm2,%xmm6
  40633d:	f2 0f 5c de                 	(arith) 	subsd	%xmm6,%xmm3
  406341:	f2 41 0f 59 da              	(arith) 	mulsd	%xmm10,%xmm3
  406346:	f2 0f 5c e3                 	(arith) 	subsd	%xmm3,%xmm4
  40634a:	f2 42 0f 11 24 d5 00 16 61 00	(move)  	movsd	%xmm4,0x611600(,%r10,8)
/home/jcsalinas/Documents/pruebas/inst_estimation_module/BT/rhs.f:296
  406354:	f2 42 0f 10 1c c5 10 16 61 00	(move)  	movsd	0x611610(,%r8,8),%xmm3
  40635e:	f2 0f 10 34 d5 10 16 61 00  	(move)  	movsd	0x611610(,%rdx,8),%xmm6
  406367:	4c 8d 90 44 a1 b5 00        	(arith) 	lea	0xb5a144(%rax),%r10
  40636e:	f2 0f 10 04 c5 10 16 61 00  	(move)  	movsd	0x611610(,%rax,8),%xmm0
  406377:	f2 0f 58 c0                 	(arith) 	addsd	%xmm0,%xmm0
  40637b:	66 0f 28 e3                 	(move)  	movapd	%xmm3,%xmm4
  40637f:	f2 0f 5c e0                 	(arith) 	subsd	%xmm0,%xmm4
  406383:	f2 0f 58 e6                 	(arith) 	addsd	%xmm6,%xmm4
  406387:	f2 0f 59 64 24 28           	(arith) 	mulsd	0x28(%rsp),%xmm4
  40638d:	f2 42 0f 58 24 d5 00 16 61 00	(arith) 	addsd	0x611600(,%r10,8),%xmm4
  406397:	4c 8d 9e 24 12 63 00        	(arith) 	lea	0x631224(%rsi),%r11
  40639e:	4c 8d bf 24 12 63 00        	(arith) 	lea	0x631224(%rdi),%r15
  4063a5:	f2 46 0f 10 04 fd 00 16 61 00	(move)  	movsd	0x611600(,%r15,8),%xmm8
  4063af:	f2 45 0f 58 c0              	(arith) 	addsd	%xmm8,%xmm8
  4063b4:	f2 42 0f 10 04 dd 00 16 61 00	(move)  	movsd	0x611600(,%r11,8),%xmm0
  4063be:	f2 41 0f 5c c0              	(arith) 	subsd	%xmm8,%xmm0
  4063c3:	4c 8d 99 24 12 63 00        	(arith) 	lea	0x631224(%rcx),%r11
  4063ca:	f2 42 0f 58 04 dd 00 16 61 00	(arith) 	addsd	0x611600(,%r11,8),%xmm0
  4063d4:	f2 41 0f 59 c6              	(arith) 	mulsd	%xmm14,%xmm0
  4063d9:	f2 0f 58 e0                 	(arith) 	addsd	%xmm0,%xmm4
  4063dd:	f2 0f 59 dd                 	(arith) 	mulsd	%xmm5,%xmm3
  4063e1:	f2 0f 59 f2                 	(arith) 	mulsd	%xmm2,%xmm6
  4063e5:	f2 0f 5c de                 	(arith) 	subsd	%xmm6,%xmm3
  4063e9:	f2 41 0f 59 da              	(arith) 	mulsd	%xmm10,%xmm3
  4063ee:	f2 0f 5c e3                 	(arith) 	subsd	%xmm3,%xmm4
  4063f2:	f2 42 0f 11 24 d5 00 16 61 00	(move)  	movsd	%xmm4,0x611600(,%r10,8)
/home/jcsalinas/Documents/pruebas/inst_estimation_module/BT/rhs.f:305
  4063fc:	66 45 0f 28 dc              	(move)  	movapd	%xmm12,%xmm11
  406401:	f2 45 0f 58 dc              	(arith) 	addsd	%xmm12,%xmm11
  406406:	f2 42 0f 10 04 c5 20 16 61 00	(move)  	movsd	0x611620(,%r8,8),%xmm0
  406410:	4c 8d 86 3c 1e a5 00        	(arith) 	lea	0xa51e3c(%rsi),%r8
  406417:	f2 46 0f 10 0c c5 00 16 61 00	(move)  	movsd	0x611600(,%r8,8),%xmm9
  406421:	f2 0f 10 24 d5 20 16 61 00  	(move)  	movsd	0x611620(,%rdx,8),%xmm4
  40642a:	48 8d 91 3c 1e a5 00        	(arith) 	lea	0xa51e3c(%rcx),%rdx
  406431:	f2 44 0f 10 04 d5 00 16 61 00	(move)  	movsd	0x611600(,%rdx,8),%xmm8
  40643b:	48 8d 90 45 a1 b5 00        	(arith) 	lea	0xb5a145(%rax),%rdx
  406442:	f2 0f 10 1c c5 18 16 61 00  	(move)  	movsd	0x611618(,%rax,8),%xmm3
  40644b:	f2 0f 58 db                 	(arith) 	addsd	%xmm3,%xmm3
  40644f:	66 0f 28 f1                 	(move)  	movapd	%xmm1,%xmm6
  406453:	f2 0f 5c f3                 	(arith) 	subsd	%xmm3,%xmm6
  406457:	66 0f 28 de                 	(move)  	movapd	%xmm6,%xmm3
  40645b:	f2 0f 58 df                 	(arith) 	addsd	%xmm7,%xmm3
  40645f:	f2 0f 59 5c 24 30           	(arith) 	mulsd	0x30(%rsp),%xmm3
  406465:	f2 0f 58 1c d5 00 16 61 00  	(arith) 	addsd	0x611600(,%rdx,8),%xmm3
  40646e:	66 0f 28 f3                 	(move)  	movapd	%xmm3,%xmm6
  406472:	66 0f 28 dd                 	(move)  	movapd	%xmm5,%xmm3
  406476:	f2 41 0f 5c db              	(arith) 	subsd	%xmm11,%xmm3
  40647b:	f2 0f 58 da                 	(arith) 	addsd	%xmm2,%xmm3
  40647f:	f2 0f 59 5c 24 10           	(arith) 	mulsd	0x10(%rsp),%xmm3
  406485:	f2 0f 58 de                 	(arith) 	addsd	%xmm6,%xmm3
  406489:	66 0f 28 f0                 	(move)  	movapd	%xmm0,%xmm6
  40648d:	f2 41 0f 5c f1              	(arith) 	subsd	%xmm9,%xmm6
  406492:	f2 0f 5c f4                 	(arith) 	subsd	%xmm4,%xmm6
  406496:	f2 41 0f 58 f0              	(arith) 	addsd	%xmm8,%xmm6
  40649b:	f2 41 0f 59 f5              	(arith) 	mulsd	%xmm13,%xmm6
  4064a0:	f2 0f 59 cd                 	(arith) 	mulsd	%xmm5,%xmm1
  4064a4:	f2 0f 59 fa                 	(arith) 	mulsd	%xmm2,%xmm7
  4064a8:	f2 0f 5c cf                 	(arith) 	subsd	%xmm7,%xmm1
  4064ac:	f2 0f 58 ce                 	(arith) 	addsd	%xmm6,%xmm1
  4064b0:	f2 41 0f 59 ca              	(arith) 	mulsd	%xmm10,%xmm1
  4064b5:	f2 0f 5c d9                 	(arith) 	subsd	%xmm1,%xmm3
  4064b9:	f2 0f 11 1c d5 00 16 61 00  	(move)  	movsd	%xmm3,0x611600(,%rdx,8)
/home/jcsalinas/Documents/pruebas/inst_estimation_module/BT/rhs.f:319
  4064c2:	f2 0f 10 1c c5 20 16 61 00  	(move)  	movsd	0x611620(,%rax,8),%xmm3
  4064cb:	f2 0f 58 db                 	(arith) 	addsd	%xmm3,%xmm3
  4064cf:	48 05 46 a1 b5 00           	(arith) 	add	$0xb5a146,%rax
  4064d5:	48 8d 96 30 18 84 00        	(arith) 	lea	0x841830(%rsi),%rdx
  4064dc:	4c 8d 87 30 18 84 00        	(arith) 	lea	0x841830(%rdi),%r8
  4064e3:	f2 42 0f 10 34 c5 00 16 61 00	(move)  	movsd	0x611600(,%r8,8),%xmm6
  4064ed:	f2 0f 58 f6                 	(arith) 	addsd	%xmm6,%xmm6
  4064f1:	f2 0f 10 0c d5 00 16 61 00  	(move)  	movsd	0x611600(,%rdx,8),%xmm1
  4064fa:	f2 0f 5c ce                 	(arith) 	subsd	%xmm6,%xmm1
  4064fe:	48 8d 91 30 18 84 00        	(arith) 	lea	0x841830(%rcx),%rdx
  406505:	f2 0f 58 0c d5 00 16 61 00  	(arith) 	addsd	0x611600(,%rdx,8),%xmm1
  40650e:	66 0f 28 f1                 	(move)  	movapd	%xmm1,%xmm6
  406512:	f2 0f 59 74 24 40           	(arith) 	mulsd	0x40(%rsp),%xmm6
  406518:	66 0f 28 c8                 	(move)  	movapd	%xmm0,%xmm1
  40651c:	f2 0f 5c cb                 	(arith) 	subsd	%xmm3,%xmm1
  406520:	f2 0f 58 cc                 	(arith) 	addsd	%xmm4,%xmm1
  406524:	f2 0f 59 4c 24 38           	(arith) 	mulsd	0x38(%rsp),%xmm1
  40652a:	f2 0f 58 0c c5 00 16 61 00  	(arith) 	addsd	0x611600(,%rax,8),%xmm1
  406533:	f2 0f 58 ce                 	(arith) 	addsd	%xmm6,%xmm1
  406537:	66 0f 28 f5                 	(move)  	movapd	%xmm5,%xmm6
  40653b:	f2 0f 59 f5                 	(arith) 	mulsd	%xmm5,%xmm6
  40653f:	f2 45 0f 59 dc              	(arith) 	mulsd	%xmm12,%xmm11
  406544:	f2 41 0f 5c f3              	(arith) 	subsd	%xmm11,%xmm6
  406549:	66 0f 28 fa                 	(move)  	movapd	%xmm2,%xmm7
  40654d:	f2 0f 59 fa                 	(arith) 	mulsd	%xmm2,%xmm7
  406551:	f2 0f 58 f7                 	(arith) 	addsd	%xmm7,%xmm6
  406555:	f2 0f 59 74 24 48           	(arith) 	mulsd	0x48(%rsp),%xmm6
  40655b:	f2 0f 58 ce                 	(arith) 	addsd	%xmm6,%xmm1
  40655f:	48 81 c6 36 9b 94 00        	(arith) 	add	$0x949b36,%rsi
  406566:	66 0f 28 f0                 	(move)  	movapd	%xmm0,%xmm6
  40656a:	f2 0f 59 34 f5 00 16 61 00  	(arith) 	mulsd	0x611600(,%rsi,8),%xmm6
  406573:	48 81 c7 36 9b 94 00        	(arith) 	add	$0x949b36,%rdi
  40657a:	f2 0f 59 1c fd 00 16 61 00  	(arith) 	mulsd	0x611600(,%rdi,8),%xmm3
  406583:	f2 0f 5c f3                 	(arith) 	subsd	%xmm3,%xmm6
  406587:	48 81 c1 36 9b 94 00        	(arith) 	add	$0x949b36,%rcx
  40658e:	66 0f 28 dc                 	(move)  	movapd	%xmm4,%xmm3
  406592:	f2 0f 59 1c cd 00 16 61 00  	(arith) 	mulsd	0x611600(,%rcx,8),%xmm3
  40659b:	f2 0f 58 f3                 	(arith) 	addsd	%xmm3,%xmm6
  40659f:	f2 0f 59 74 24 50           	(arith) 	mulsd	0x50(%rsp),%xmm6
  4065a5:	f2 0f 58 ce                 	(arith) 	addsd	%xmm6,%xmm1
  4065a9:	f2 41 0f 59 c7              	(arith) 	mulsd	%xmm15,%xmm0
  4065ae:	f2 45 0f 59 cd              	(arith) 	mulsd	%xmm13,%xmm9
  4065b3:	f2 41 0f 5c c1              	(arith) 	subsd	%xmm9,%xmm0
  4065b8:	f2 0f 59 c5                 	(arith) 	mulsd	%xmm5,%xmm0
  4065bc:	f2 41 0f 59 e7              	(arith) 	mulsd	%xmm15,%xmm4
  4065c1:	f2 45 0f 59 c5              	(arith) 	mulsd	%xmm13,%xmm8
  4065c6:	f2 41 0f 5c e0              	(arith) 	subsd	%xmm8,%xmm4
  4065cb:	f2 0f 59 e2                 	(arith) 	mulsd	%xmm2,%xmm4
  4065cf:	f2 0f 5c c4                 	(arith) 	subsd	%xmm4,%xmm0
  4065d3:	f2 41 0f 59 c2              	(arith) 	mulsd	%xmm10,%xmm0
  4065d8:	f2 0f 5c c8                 	(arith) 	subsd	%xmm0,%xmm1
  4065dc:	f2 0f 11 0c c5 00 16 61 00  	(move)  	movsd	%xmm1,0x611600(,%rax,8)
/home/jcsalinas/Documents/pruebas/inst_estimation_module/BT/rhs.f:274
  4065e5:	41 83 c1 01                 	(arith) 	add	$0x1,%r9d
  4065e9:	44 3b 4c 24 58              	(arith) 	cmp	0x58(%rsp),%r9d
  4065ee:	0f 85 fe fb ff ff           	(control)	jne	4061f2 <compute_rhs_+0x17da>	; ↰ label 492 (loop 98)
; ------- Loop 98 exit
490:	
/home/jcsalinas/Documents/pruebas/inst_estimation_module/BT/rhs.f:273
  4065f4:	83 44 24 60 01              	(arith) 	addl	$0x1,0x60(%rsp)
  4065f9:	8b 44 24 60                 	(move)  	mov	0x60(%rsp),%eax
  4065fd:	3b 44 24 78                 	(arith) 	cmp	0x78(%rsp),%eax
  406601:	0f 85 6a fb ff ff           	(control)	jne	406171 <compute_rhs_+0x1759>	; ↰ label 489 (loop 97)
; ------- Loop 97 exit
487:	
/home/jcsalinas/Documents/pruebas/inst_estimation_module/BT/rhs.f:272
  406607:	83 44 24 68 01              	(arith) 	addl	$0x1,0x68(%rsp)
  40660c:	8b 44 24 68                 	(move)  	mov	0x68(%rsp),%eax
  406610:	48 81 84 24 b0 00 00 00 71 29 00 00	(arith) 	addq	$0x2971,0xb0(%rsp)
  40661c:	3b 84 24 c8 00 00 00        	(arith) 	cmp	0xc8(%rsp),%eax
  406623:	0f 85 ce fa ff ff           	(control)	jne	4060f7 <compute_rhs_+0x16df>	; ↰ label 486 (loop 96)
; ------- Loop 96 exit
484:	
/home/jcsalinas/Documents/pruebas/inst_estimation_module/BT/rhs.f:328
  406629:	8b 05 bd af 20 00           	(move)  	mov	0x20afbd(%rip),%eax
  40662f:	89 44 24 18                 	(move)  	mov	%eax,0x18(%rsp)
  406633:	8d 58 fe                    	(arith) 	lea	-0x2(%rax),%ebx
  406636:	89 5c 24 20                 	(move)  	mov	%ebx,0x20(%rsp)
  40663a:	85 db                       	(arith) 	test	%ebx,%ebx
  40663c:	0f 8e cd 01 00 00           	(control)	jle	40680f <compute_rhs_+0x1df7>	; ↲ label 493
494:	
/home/jcsalinas/Documents/pruebas/inst_estimation_module/BT/rhs.f:329
  406642:	44 8b 1d 9f af 20 00        	(move)  	mov	0x20af9f(%rip),%r11d
  406649:	45 8d 73 fe                 	(arith) 	lea	-0x2(%r11),%r14d
/home/jcsalinas/Documents/pruebas/inst_estimation_module/BT/rhs.f:4
  40664d:	f2 0f 10 1d 4b ab 20 00     	(move)  	movsd	0x20ab4b(%rip),%xmm3
  406655:	44 8d 78 ff                 	(arith) 	lea	-0x1(%rax),%r15d
  406659:	bb 01 00 00 00              	(move)  	mov	$0x1,%ebx
  40665e:	45 8d 53 ff                 	(arith) 	lea	-0x1(%r11),%r10d
/home/jcsalinas/Documents/pruebas/inst_estimation_module/BT/rhs.f:333
  406662:	f2 0f 10 25 e6 87 00 00     	(move)  	movsd	0x87e6(%rip),%xmm4
  40666a:	f2 0f 10 15 e6 87 00 00     	(move)  	movsd	0x87e6(%rip),%xmm2
; ------- Loop 90 entry
495 (loop 90):	
/home/jcsalinas/Documents/pruebas/inst_estimation_module/BT/rhs.f:329
  406672:	45 85 f6                    	(arith) 	test	%r14d,%r14d
  406675:	0f 8e 99 00 00 00           	(control)	jle	406714 <compute_rhs_+0x1cfc>	; ↲ label 496
497:	
/home/jcsalinas/Documents/pruebas/inst_estimation_module/BT/rhs.f:333
  40667b:	48 63 c3                    	(move)  	movsxd	%ebx,%rax
  40667e:	48 89 c2                    	(move)  	mov	%rax,%rdx
  406681:	48 c1 e2 08                 	(logic) 	sal	$0x8,%rdx
  406685:	48 01 c2                    	(arith) 	add	%rax,%rdx
  406688:	48 8d 3c 50                 	(arith) 	lea	(%rax,%rdx,2),%rdi
  40668c:	4c 8d 8f 35 cf 00 00        	(arith) 	lea	0xcf35(%rdi),%r9
  406693:	4c 8d 87 6a 9e 01 00        	(arith) 	lea	0x19e6a(%rdi),%r8
  40669a:	48 81 c7 9f 6d 02 00        	(arith) 	add	$0x26d9f,%rdi
  4066a1:	be 01 00 00 00              	(move)  	mov	$0x1,%esi
; ------- Loop 95 entry
498 (loop 95):	
  4066a6:	48 63 c6                    	(move)  	movsxd	%esi,%rax
  4066a9:	48 8d 14 80                 	(arith) 	lea	(%rax,%rax,4),%rdx
  4066ad:	4a 8d 0c 02                 	(arith) 	lea	(%rdx,%r8,1),%rcx
  4066b1:	4c 8d 24 3a                 	(arith) 	lea	(%rdx,%rdi,1),%r12
  4066b5:	4c 01 ca                    	(arith) 	add	%r9,%rdx
  4066b8:	48 8d 04 d5 00 16 61 00     	(arith) 	lea	0x611600(,%rdx,8),%rax
  4066c0:	48 8d 2c d5 28 16 61 00     	(arith) 	lea	0x611628(,%rdx,8),%rbp
  4066c8:	48 29 d1                    	(arith) 	sub	%rdx,%rcx
  4066cb:	49 29 d4                    	(arith) 	sub	%rdx,%r12
  4066ce:	4c 89 e2                    	(move)  	mov	%r12,%rdx
; ------- Loop 94 entry
499 (loop 94):	
  4066d1:	66 0f 28 c4                 	(move)  	movapd	%xmm4,%xmm0
  4066d5:	f2 0f 59 00                 	(arith) 	mulsd	(%rax),%xmm0
  4066d9:	66 0f 28 ca                 	(move)  	movapd	%xmm2,%xmm1
  4066dd:	f2 0f 59 0c c8              	(arith) 	mulsd	(%rax,%rcx,8),%xmm1
  4066e2:	f2 0f 5c c1                 	(arith) 	subsd	%xmm1,%xmm0
  4066e6:	f2 0f 58 04 d0              	(arith) 	addsd	(%rax,%rdx,8),%xmm0
  4066eb:	f2 0f 59 c3                 	(arith) 	mulsd	%xmm3,%xmm0
  4066ef:	f2 0f 10 88 10 0a ad 05     	(move)  	movsd	0x5ad0a10(%rax),%xmm1
  4066f7:	f2 0f 5c c8                 	(arith) 	subsd	%xmm0,%xmm1
  4066fb:	f2 0f 11 88 10 0a ad 05     	(move)  	movsd	%xmm1,0x5ad0a10(%rax)
  406703:	48 83 c0 08                 	(arith) 	add	$0x8,%rax
/home/jcsalinas/Documents/pruebas/inst_estimation_module/BT/rhs.f:330
  406707:	48 39 e8                    	(arith) 	cmp	%rbp,%rax
  40670a:	75 c5                       	(control)	jne	4066d1 <compute_rhs_+0x1cb9>	; ↰ label 499 (loop 94)
; ------- Loop 94 exit
500:	
/home/jcsalinas/Documents/pruebas/inst_estimation_module/BT/rhs.f:329
  40670c:	83 c6 01                    	(arith) 	add	$0x1,%esi
  40670f:	41 39 f2                    	(arith) 	cmp	%esi,%r10d
  406712:	75 92                       	(control)	jne	4066a6 <compute_rhs_+0x1c8e>	; ↰ label 498 (loop 95)
; ------- Loop 95 exit
496:	
/home/jcsalinas/Documents/pruebas/inst_estimation_module/BT/rhs.f:328
  406714:	83 c3 01                    	(arith) 	add	$0x1,%ebx
  406717:	41 39 df                    	(arith) 	cmp	%ebx,%r15d
  40671a:	0f 85 52 ff ff ff           	(control)	jne	406672 <compute_rhs_+0x1c5a>	; ↰ label 495 (loop 90)
; ------- Loop 90 exit
501:	
  406720:	41 bd 01 00 00 00           	(move)  	mov	$0x1,%r13d
  406726:	41 83 eb 01                 	(arith) 	sub	$0x1,%r11d
/home/jcsalinas/Documents/pruebas/inst_estimation_module/BT/rhs.f:344
  40672a:	f2 0f 10 25 2e 87 00 00     	(move)  	movsd	0x872e(%rip),%xmm4
  406732:	f2 0f 10 15 1e 87 00 00     	(move)  	movsd	0x871e(%rip),%xmm2
; ------- Loop 91 entry
502 (loop 91):	
/home/jcsalinas/Documents/pruebas/inst_estimation_module/BT/rhs.f:340
  40673a:	45 85 f6                    	(arith) 	test	%r14d,%r14d
  40673d:	0f 8e ba 00 00 00           	(control)	jle	4067fd <compute_rhs_+0x1de5>	; ↲ label 503
504:	
/home/jcsalinas/Documents/pruebas/inst_estimation_module/BT/rhs.f:344
  406743:	49 63 c5                    	(move)  	movsxd	%r13d,%rax
  406746:	48 89 c2                    	(move)  	mov	%rax,%rdx
  406749:	48 c1 e2 08                 	(logic) 	sal	$0x8,%rdx
  40674d:	48 01 c2                    	(arith) 	add	%rax,%rdx
  406750:	4c 8d 0c 50                 	(arith) 	lea	(%rax,%rdx,2),%r9
  406754:	49 8d a9 6a 9e 01 00        	(arith) 	lea	0x19e6a(%r9),%rbp
  40675b:	49 8d 99 35 cf 00 00        	(arith) 	lea	0xcf35(%r9),%rbx
  406762:	4d 8d 91 9f 6d 02 00        	(arith) 	lea	0x26d9f(%r9),%r10
  406769:	49 81 c1 d4 3c 03 00        	(arith) 	add	$0x33cd4,%r9
  406770:	41 b8 01 00 00 00           	(move)  	mov	$0x1,%r8d
; ------- Loop 93 entry
505 (loop 93):	
  406776:	49 63 c0                    	(move)  	movsxd	%r8d,%rax
  406779:	48 8d 14 80                 	(arith) 	lea	(%rax,%rax,4),%rdx
  40677d:	48 8d 34 1a                 	(arith) 	lea	(%rdx,%rbx,1),%rsi
  406781:	4a 8d 0c 12                 	(arith) 	lea	(%rdx,%r10,1),%rcx
  406785:	4e 8d 24 0a                 	(arith) 	lea	(%rdx,%r9,1),%r12
  406789:	48 01 ea                    	(arith) 	add	%rbp,%rdx
  40678c:	48 8d 04 d5 00 16 61 00     	(arith) 	lea	0x611600(,%rdx,8),%rax
  406794:	48 8d 3c d5 28 16 61 00     	(arith) 	lea	0x611628(,%rdx,8),%rdi
  40679c:	48 29 d6                    	(arith) 	sub	%rdx,%rsi
  40679f:	48 29 d1                    	(arith) 	sub	%rdx,%rcx
  4067a2:	49 29 d4                    	(arith) 	sub	%rdx,%r12
  4067a5:	4c 89 e2                    	(move)  	mov	%r12,%rdx
; ------- Loop 92 entry
506 (loop 92):	
  4067a8:	66 0f 28 c4                 	(move)  	movapd	%xmm4,%xmm0
  4067ac:	f2 0f 59 00                 	(arith) 	mulsd	(%rax),%xmm0
  4067b0:	66 0f 28 ca                 	(move)  	movapd	%xmm2,%xmm1
  4067b4:	f2 0f 59 0c f0              	(arith) 	mulsd	(%rax,%rsi,8),%xmm1
  4067b9:	f2 0f 5c c1                 	(arith) 	subsd	%xmm1,%xmm0
  4067bd:	66 0f 28 ca                 	(move)  	movapd	%xmm2,%xmm1
  4067c1:	f2 0f 59 0c c8              	(arith) 	mulsd	(%rax,%rcx,8),%xmm1
  4067c6:	f2 0f 5c c1                 	(arith) 	subsd	%xmm1,%xmm0
  4067ca:	f2 0f 58 04 d0              	(arith) 	addsd	(%rax,%rdx,8),%xmm0
  4067cf:	f2 0f 59 c3                 	(arith) 	mulsd	%xmm3,%xmm0
  4067d3:	f2 0f 10 88 10 0a ad 05     	(move)  	movsd	0x5ad0a10(%rax),%xmm1
  4067db:	f2 0f 5c c8                 	(arith) 	subsd	%xmm0,%xmm1
  4067df:	f2 0f 11 88 10 0a ad 05     	(move)  	movsd	%xmm1,0x5ad0a10(%rax)
  4067e7:	48 83 c0 08                 	(arith) 	add	$0x8,%rax
/home/jcsalinas/Documents/pruebas/inst_estimation_module/BT/rhs.f:341
  4067eb:	48 39 f8                    	(arith) 	cmp	%rdi,%rax
  4067ee:	75 b8                       	(control)	jne	4067a8 <compute_rhs_+0x1d90>	; ↰ label 506 (loop 92)
; ------- Loop 92 exit
507:	
/home/jcsalinas/Documents/pruebas/inst_estimation_module/BT/rhs.f:340
  4067f0:	41 83 c0 01                 	(arith) 	add	$0x1,%r8d
  4067f4:	45 39 c3                    	(arith) 	cmp	%r8d,%r11d
  4067f7:	0f 85 79 ff ff ff           	(control)	jne	406776 <compute_rhs_+0x1d5e>	; ↰ label 505 (loop 93)
; ------- Loop 93 exit
503:	
/home/jcsalinas/Documents/pruebas/inst_estimation_module/BT/rhs.f:339
  4067fd:	41 83 c5 01                 	(arith) 	add	$0x1,%r13d
  406801:	45 39 ef                    	(arith) 	cmp	%r13d,%r15d
  406804:	0f 85 30 ff ff ff           	(control)	jne	40673a <compute_rhs_+0x1d22>	; ↰ label 502 (loop 91)
; ------- Loop 91 exit
508:	
  40680a:	e9 35 05 00 00              	(control)	jmp	406d44 <compute_rhs_+0x232c>	; ↲ label 509
493:	
/home/jcsalinas/Documents/pruebas/inst_estimation_module/BT/rhs.f:349
  40680f:	8b 84 24 c0 00 00 00        	(move)  	mov	0xc0(%rsp),%eax
  406816:	83 e8 04                    	(arith) 	sub	$0x4,%eax
  406819:	89 44 24 10                 	(move)  	mov	%eax,0x10(%rsp)
  40681d:	83 f8 02                    	(arith) 	cmp	$0x2,%eax
  406820:	0f 8e f9 03 00 00           	(control)	jle	406c1f <compute_rhs_+0x2207>	; ↲ label 510
511:	
/home/jcsalinas/Documents/pruebas/inst_estimation_module/BT/rhs.f:351
  406826:	8b 05 bc ad 20 00           	(move)  	mov	0x20adbc(%rip),%eax
  40682c:	8d 58 fe                    	(arith) 	lea	-0x2(%rax),%ebx
  40682f:	89 5c 24 28                 	(move)  	mov	%ebx,0x28(%rsp)
/home/jcsalinas/Documents/pruebas/inst_estimation_module/BT/rhs.f:4
  406833:	f2 0f 10 25 65 a9 20 00     	(move)  	movsd	0x20a965(%rip),%xmm4
  40683b:	8b 5c 24 10                 	(move)  	mov	0x10(%rsp),%ebx
  40683f:	83 c3 01                    	(arith) 	add	$0x1,%ebx
  406842:	89 5c 24 68                 	(move)  	mov	%ebx,0x68(%rsp)
  406846:	48 c7 44 24 38 35 cf 00 00  	(move)  	movq	$0xcf35,0x38(%rsp)
  40684f:	c7 44 24 08 03 00 00 00     	(move)  	movl	$0x3,0x8(%rsp)
  406857:	8b 5c 24 18                 	(move)  	mov	0x18(%rsp),%ebx
  40685b:	83 eb 01                    	(arith) 	sub	$0x1,%ebx
  40685e:	89 5c 24 60                 	(move)  	mov	%ebx,0x60(%rsp)
  406862:	44 8d 78 ff                 	(arith) 	lea	-0x1(%rax),%r15d
/home/jcsalinas/Documents/pruebas/inst_estimation_module/BT/rhs.f:356
  406866:	f2 0f 10 15 ea 85 00 00     	(move)  	movsd	0x85ea(%rip),%xmm2
  40686e:	f2 0f 10 1d ea 85 00 00     	(move)  	movsd	0x85ea(%rip),%xmm3
; ------- Loop 80 entry
512 (loop 80):	
/home/jcsalinas/Documents/pruebas/inst_estimation_module/BT/rhs.f:350
  406876:	83 7c 24 20 00              	(arith) 	cmpl	$0,0x20(%rsp)
  40687b:	0f 8e 46 01 00 00           	(control)	jle	4069c7 <compute_rhs_+0x1faf>	; ↲ label 513
514:	
/home/jcsalinas/Documents/pruebas/inst_estimation_module/BT/rhs.f:356
  406881:	8b 5c 24 08                 	(move)  	mov	0x8(%rsp),%ebx
  406885:	89 d8                       	(move)  	mov	%ebx,%eax
  406887:	48 98                       	(conv)  	cltq
  406889:	48 69 c0 35 cf 00 00        	(arith) 	imul	$0xcf35,%rax,%rax
  406890:	48 89 44 24 30              	(move)  	mov	%rax,0x30(%rsp)
  406895:	48 8b 44 24 38              	(move)  	mov	0x38(%rsp),%rax
  40689a:	48 89 44 24 48              	(move)  	mov	%rax,0x48(%rsp)
  40689f:	48 05 35 cf 00 00           	(arith) 	add	$0xcf35,%rax
  4068a5:	48 89 44 24 40              	(move)  	mov	%rax,0x40(%rsp)
  4068aa:	89 d8                       	(move)  	mov	%ebx,%eax
  4068ac:	83 c0 01                    	(arith) 	add	$0x1,%eax
  4068af:	48 98                       	(conv)  	cltq
  4068b1:	48 69 c0 35 cf 00 00        	(arith) 	imul	$0xcf35,%rax,%rax
  4068b8:	48 89 44 24 50              	(move)  	mov	%rax,0x50(%rsp)
  4068bd:	89 d8                       	(move)  	mov	%ebx,%eax
  4068bf:	83 c0 02                    	(arith) 	add	$0x2,%eax
  4068c2:	48 98                       	(conv)  	cltq
  4068c4:	48 69 c0 35 cf 00 00        	(arith) 	imul	$0xcf35,%rax,%rax
  4068cb:	48 89 44 24 58              	(move)  	mov	%rax,0x58(%rsp)
  4068d0:	41 be 01 00 00 00           	(move)  	mov	$0x1,%r14d
; ------- Loop 87 entry
515 (loop 87):	
/home/jcsalinas/Documents/pruebas/inst_estimation_module/BT/rhs.f:351
  4068d6:	83 7c 24 28 00              	(arith) 	cmpl	$0,0x28(%rsp)
  4068db:	0f 8e d7 00 00 00           	(control)	jle	4069b8 <compute_rhs_+0x1fa0>	; ↲ label 516
517:	
/home/jcsalinas/Documents/pruebas/inst_estimation_module/BT/rhs.f:356
  4068e1:	49 63 c6                    	(move)  	movsxd	%r14d,%rax
  4068e4:	48 89 c2                    	(move)  	mov	%rax,%rdx
  4068e7:	48 c1 e2 08                 	(logic) 	sal	$0x8,%rdx
  4068eb:	48 01 c2                    	(arith) 	add	%rax,%rdx
  4068ee:	4c 8d 1c 50                 	(arith) 	lea	(%rax,%rdx,2),%r11
  4068f2:	48 8b 44 24 30              	(move)  	mov	0x30(%rsp),%rax
  4068f7:	4e 8d 2c 18                 	(arith) 	lea	(%rax,%r11,1),%r13
  4068fb:	48 8b 44 24 48              	(move)  	mov	0x48(%rsp),%rax
  406900:	4d 8d 24 03                 	(arith) 	lea	(%r11,%rax,1),%r12
  406904:	48 8b 44 24 40              	(move)  	mov	0x40(%rsp),%rax
  406909:	49 8d 2c 03                 	(arith) 	lea	(%r11,%rax,1),%rbp
  40690d:	48 8b 44 24 50              	(move)  	mov	0x50(%rsp),%rax
  406912:	49 8d 1c 03                 	(arith) 	lea	(%r11,%rax,1),%rbx
  406916:	4c 03 5c 24 58              	(arith) 	add	0x58(%rsp),%r11
  40691b:	41 ba 01 00 00 00           	(move)  	mov	$0x1,%r10d
; ------- Loop 89 entry
518 (loop 89):	
  406921:	49 63 c2                    	(move)  	movsxd	%r10d,%rax
  406924:	48 8d 14 80                 	(arith) 	lea	(%rax,%rax,4),%rdx
  406928:	4a 8d 3c 22                 	(arith) 	lea	(%rdx,%r12,1),%rdi
  40692c:	48 8d 34 2a                 	(arith) 	lea	(%rdx,%rbp,1),%rsi
  406930:	48 8d 0c 1a                 	(arith) 	lea	(%rdx,%rbx,1),%rcx
  406934:	4e 8d 0c 1a                 	(arith) 	lea	(%rdx,%r11,1),%r9
  406938:	4c 01 ea                    	(arith) 	add	%r13,%rdx
  40693b:	48 8d 04 d5 00 16 61 00     	(arith) 	lea	0x611600(,%rdx,8),%rax
  406943:	4c 8d 04 d5 28 16 61 00     	(arith) 	lea	0x611628(,%rdx,8),%r8
  40694b:	48 29 d7                    	(arith) 	sub	%rdx,%rdi
  40694e:	48 29 d6                    	(arith) 	sub	%rdx,%rsi
  406951:	48 29 d1                    	(arith) 	sub	%rdx,%rcx
  406954:	49 29 d1                    	(arith) 	sub	%rdx,%r9
  406957:	4c 89 ca                    	(move)  	mov	%r9,%rdx
; ------- Loop 88 entry
519 (loop 88):	
  40695a:	66 0f 28 ca                 	(move)  	movapd	%xmm2,%xmm1
  40695e:	f2 0f 59 0c f0              	(arith) 	mulsd	(%rax,%rsi,8),%xmm1
  406963:	f2 0f 10 04 f8              	(move)  	movsd	(%rax,%rdi,8),%xmm0
  406968:	f2 0f 5c c1                 	(arith) 	subsd	%xmm1,%xmm0
  40696c:	66 0f 28 cb                 	(move)  	movapd	%xmm3,%xmm1
  406970:	f2 0f 59 08                 	(arith) 	mulsd	(%rax),%xmm1
  406974:	f2 0f 58 c1                 	(arith) 	addsd	%xmm1,%xmm0
  406978:	66 0f 28 ca                 	(move)  	movapd	%xmm2,%xmm1
  40697c:	f2 0f 59 0c c8              	(arith) 	mulsd	(%rax,%rcx,8),%xmm1
  406981:	f2 0f 5c c1                 	(arith) 	subsd	%xmm1,%xmm0
  406985:	f2 0f 58 04 d0              	(arith) 	addsd	(%rax,%rdx,8),%xmm0
  40698a:	f2 0f 59 c4                 	(arith) 	mulsd	%xmm4,%xmm0
  40698e:	f2 0f 10 88 10 0a ad 05     	(move)  	movsd	0x5ad0a10(%rax),%xmm1
  406996:	f2 0f 5c c8                 	(arith) 	subsd	%xmm0,%xmm1
  40699a:	f2 0f 11 88 10 0a ad 05     	(move)  	movsd	%xmm1,0x5ad0a10(%rax)
  4069a2:	48 83 c0 08                 	(arith) 	add	$0x8,%rax
/home/jcsalinas/Documents/pruebas/inst_estimation_module/BT/rhs.f:352
  4069a6:	4c 39 c0                    	(arith) 	cmp	%r8,%rax
  4069a9:	75 af                       	(control)	jne	40695a <compute_rhs_+0x1f42>	; ↰ label 519 (loop 88)
; ------- Loop 88 exit
520:	
/home/jcsalinas/Documents/pruebas/inst_estimation_module/BT/rhs.f:351
  4069ab:	41 83 c2 01                 	(arith) 	add	$0x1,%r10d
  4069af:	45 39 d7                    	(arith) 	cmp	%r10d,%r15d
  4069b2:	0f 85 69 ff ff ff           	(control)	jne	406921 <compute_rhs_+0x1f09>	; ↰ label 518 (loop 89)
; ------- Loop 89 exit
516:	
/home/jcsalinas/Documents/pruebas/inst_estimation_module/BT/rhs.f:350
  4069b8:	41 83 c6 01                 	(arith) 	add	$0x1,%r14d
  4069bc:	44 39 74 24 60              	(arith) 	cmp	%r14d,0x60(%rsp)
  4069c1:	0f 85 0f ff ff ff           	(control)	jne	4068d6 <compute_rhs_+0x1ebe>	; ↰ label 515 (loop 87)
; ------- Loop 87 exit
513:	
/home/jcsalinas/Documents/pruebas/inst_estimation_module/BT/rhs.f:349
  4069c7:	83 44 24 08 01              	(arith) 	addl	$0x1,0x8(%rsp)
  4069cc:	8b 44 24 08                 	(move)  	mov	0x8(%rsp),%eax
  4069d0:	48 81 44 24 38 35 cf 00 00  	(arith) 	addq	$0xcf35,0x38(%rsp)
  4069d9:	39 44 24 68                 	(arith) 	cmp	%eax,0x68(%rsp)
  4069dd:	0f 85 93 fe ff ff           	(control)	jne	406876 <compute_rhs_+0x1e5e>	; ↰ label 512 (loop 80)
; ------- Loop 80 exit
521:	
/home/jcsalinas/Documents/pruebas/inst_estimation_module/BT/rhs.f:362
  4069e3:	8b 84 24 c0 00 00 00        	(move)  	mov	0xc0(%rsp),%eax
  4069ea:	83 e8 03                    	(arith) 	sub	$0x3,%eax
/home/jcsalinas/Documents/pruebas/inst_estimation_module/BT/rhs.f:363
  4069ed:	83 7c 24 20 00              	(arith) 	cmpl	$0,0x20(%rsp)
  4069f2:	0f 8e 27 02 00 00           	(control)	jle	406c1f <compute_rhs_+0x2207>	; ↲ label 510
522:	
/home/jcsalinas/Documents/pruebas/inst_estimation_module/BT/rhs.f:364
  4069f8:	44 8b 1d e9 ab 20 00        	(move)  	mov	0x20abe9(%rip),%r11d
  4069ff:	41 8d 5b fe                 	(arith) 	lea	-0x2(%r11),%ebx
  406a03:	89 5c 24 08                 	(move)  	mov	%ebx,0x8(%rsp)
/home/jcsalinas/Documents/pruebas/inst_estimation_module/BT/rhs.f:368
  406a07:	48 98                       	(conv)  	cltq
  406a09:	48 69 c0 35 cf 00 00        	(arith) 	imul	$0xcf35,%rax,%rax
  406a10:	48 89 44 24 20              	(move)  	mov	%rax,0x20(%rsp)
  406a15:	8b 9c 24 c0 00 00 00        	(move)  	mov	0xc0(%rsp),%ebx
  406a1c:	83 eb 05                    	(arith) 	sub	$0x5,%ebx
  406a1f:	48 63 db                    	(move)  	movsxd	%ebx,%rbx
  406a22:	48 69 db 35 cf 00 00        	(arith) 	imul	$0xcf35,%rbx,%rbx
  406a29:	48 63 44 24 10              	(move)  	movsxd	0x10(%rsp),%rax
  406a2e:	48 69 c0 35 cf 00 00        	(arith) 	imul	$0xcf35,%rax,%rax
  406a35:	48 89 44 24 28              	(move)  	mov	%rax,0x28(%rsp)
  406a3a:	48 8d 83 9f 6d 02 00        	(arith) 	lea	0x26d9f(%rbx),%rax
  406a41:	48 89 44 24 30              	(move)  	mov	%rax,0x30(%rsp)
/home/jcsalinas/Documents/pruebas/inst_estimation_module/BT/rhs.f:4
  406a46:	f2 0f 10 15 52 a7 20 00     	(move)  	movsd	0x20a752(%rip),%xmm2
  406a4e:	8b 44 24 18                 	(move)  	mov	0x18(%rsp),%eax
  406a52:	83 e8 01                    	(arith) 	sub	$0x1,%eax
  406a55:	89 44 24 10                 	(move)  	mov	%eax,0x10(%rsp)
  406a59:	41 bc 01 00 00 00           	(move)  	mov	$0x1,%r12d
  406a5f:	41 8d 6b ff                 	(arith) 	lea	-0x1(%r11),%ebp
/home/jcsalinas/Documents/pruebas/inst_estimation_module/BT/rhs.f:368
  406a63:	f2 0f 10 1d ed 83 00 00     	(move)  	movsd	0x83ed(%rip),%xmm3
  406a6b:	f2 0f 10 25 ed 83 00 00     	(move)  	movsd	0x83ed(%rip),%xmm4
; ------- Loop 81 entry
523 (loop 81):	
/home/jcsalinas/Documents/pruebas/inst_estimation_module/BT/rhs.f:364
  406a73:	83 7c 24 08 00              	(arith) 	cmpl	$0,0x8(%rsp)
  406a78:	0f 8e bd 00 00 00           	(control)	jle	406b3b <compute_rhs_+0x2123>	; ↲ label 524
525:	
/home/jcsalinas/Documents/pruebas/inst_estimation_module/BT/rhs.f:368
  406a7e:	49 63 c4                    	(move)  	movsxd	%r12d,%rax
  406a81:	48 89 c2                    	(move)  	mov	%rax,%rdx
  406a84:	48 c1 e2 08                 	(logic) 	sal	$0x8,%rdx
  406a88:	48 01 c2                    	(arith) 	add	%rax,%rdx
  406a8b:	4c 8d 0c 50                 	(arith) 	lea	(%rax,%rdx,2),%r9
  406a8f:	48 8b 44 24 20              	(move)  	mov	0x20(%rsp),%rax
  406a94:	4e 8d 34 08                 	(arith) 	lea	(%rax,%r9,1),%r14
  406a98:	4d 8d 2c 19                 	(arith) 	lea	(%r9,%rbx,1),%r13
  406a9c:	48 8b 44 24 28              	(move)  	mov	0x28(%rsp),%rax
  406aa1:	4d 8d 14 01                 	(arith) 	lea	(%r9,%rax,1),%r10
  406aa5:	4c 03 4c 24 30              	(arith) 	add	0x30(%rsp),%r9
  406aaa:	41 b8 01 00 00 00           	(move)  	mov	$0x1,%r8d
; ------- Loop 86 entry
526 (loop 86):	
  406ab0:	49 63 c0                    	(move)  	movsxd	%r8d,%rax
  406ab3:	48 8d 14 80                 	(arith) 	lea	(%rax,%rax,4),%rdx
  406ab7:	4a 8d 34 2a                 	(arith) 	lea	(%rdx,%r13,1),%rsi
  406abb:	4a 8d 0c 12                 	(arith) 	lea	(%rdx,%r10,1),%rcx
  406abf:	4e 8d 3c 0a                 	(arith) 	lea	(%rdx,%r9,1),%r15
  406ac3:	4c 01 f2                    	(arith) 	add	%r14,%rdx
  406ac6:	48 8d 04 d5 00 16 61 00     	(arith) 	lea	0x611600(,%rdx,8),%rax
  406ace:	48 8d 3c d5 28 16 61 00     	(arith) 	lea	0x611628(,%rdx,8),%rdi
  406ad6:	48 29 d6                    	(arith) 	sub	%rdx,%rsi
  406ad9:	48 29 d1                    	(arith) 	sub	%rdx,%rcx
  406adc:	49 29 d7                    	(arith) 	sub	%rdx,%r15
  406adf:	4c 89 fa                    	(move)  	mov	%r15,%rdx
; ------- Loop 85 entry
527 (loop 85):	
  406ae2:	66 0f 28 cb                 	(move)  	movapd	%xmm3,%xmm1
  406ae6:	f2 0f 59 0c c8              	(arith) 	mulsd	(%rax,%rcx,8),%xmm1
  406aeb:	f2 0f 10 04 f0              	(move)  	movsd	(%rax,%rsi,8),%xmm0
  406af0:	f2 0f 5c c1                 	(arith) 	subsd	%xmm1,%xmm0
  406af4:	66 0f 28 cc                 	(move)  	movapd	%xmm4,%xmm1
  406af8:	f2 0f 59 08                 	(arith) 	mulsd	(%rax),%xmm1
  406afc:	f2 0f 58 c1                 	(arith) 	addsd	%xmm1,%xmm0
  406b00:	66 0f 28 cb                 	(move)  	movapd	%xmm3,%xmm1
  406b04:	f2 0f 59 0c d0              	(arith) 	mulsd	(%rax,%rdx,8),%xmm1
  406b09:	f2 0f 5c c1                 	(arith) 	subsd	%xmm1,%xmm0
  406b0d:	f2 0f 59 c2                 	(arith) 	mulsd	%xmm2,%xmm0
  406b11:	f2 0f 10 88 10 0a ad 05     	(move)  	movsd	0x5ad0a10(%rax),%xmm1
  406b19:	f2 0f 5c c8                 	(arith) 	subsd	%xmm0,%xmm1
  406b1d:	f2 0f 11 88 10 0a ad 05     	(move)  	movsd	%xmm1,0x5ad0a10(%rax)
  406b25:	48 83 c0 08                 	(arith) 	add	$0x8,%rax
/home/jcsalinas/Documents/pruebas/inst_estimation_module/BT/rhs.f:365
  406b29:	48 39 c7                    	(arith) 	cmp	%rax,%rdi
  406b2c:	75 b4                       	(control)	jne	406ae2 <compute_rhs_+0x20ca>	; ↰ label 527 (loop 85)
; ------- Loop 85 exit
528:	
/home/jcsalinas/Documents/pruebas/inst_estimation_module/BT/rhs.f:364
  406b2e:	41 83 c0 01                 	(arith) 	add	$0x1,%r8d
  406b32:	44 39 c5                    	(arith) 	cmp	%r8d,%ebp
  406b35:	0f 85 75 ff ff ff           	(control)	jne	406ab0 <compute_rhs_+0x2098>	; ↰ label 526 (loop 86)
; ------- Loop 86 exit
524:	
/home/jcsalinas/Documents/pruebas/inst_estimation_module/BT/rhs.f:363
  406b3b:	41 83 c4 01                 	(arith) 	add	$0x1,%r12d
  406b3f:	44 39 64 24 10              	(arith) 	cmp	%r12d,0x10(%rsp)
  406b44:	0f 85 29 ff ff ff           	(control)	jne	406a73 <compute_rhs_+0x205b>	; ↰ label 523 (loop 81)
; ------- Loop 81 exit
529:	
  406b4a:	41 ba 01 00 00 00           	(move)  	mov	$0x1,%r10d
  406b50:	41 83 eb 01                 	(arith) 	sub	$0x1,%r11d
/home/jcsalinas/Documents/pruebas/inst_estimation_module/BT/rhs.f:379
  406b54:	f2 0f 10 25 fc 82 00 00     	(move)  	movsd	0x82fc(%rip),%xmm4
  406b5c:	f2 0f 10 1d ec 82 00 00     	(move)  	movsd	0x82ec(%rip),%xmm3
; ------- Loop 82 entry
530 (loop 82):	
/home/jcsalinas/Documents/pruebas/inst_estimation_module/BT/rhs.f:375
  406b64:	83 7c 24 08 00              	(arith) 	cmpl	$0,0x8(%rsp)
  406b69:	0f 8e a1 00 00 00           	(control)	jle	406c10 <compute_rhs_+0x21f8>	; ↲ label 531
532:	
/home/jcsalinas/Documents/pruebas/inst_estimation_module/BT/rhs.f:379
  406b6f:	49 63 c2                    	(move)  	movsxd	%r10d,%rax
  406b72:	48 89 c2                    	(move)  	mov	%rax,%rdx
  406b75:	48 c1 e2 08                 	(logic) 	sal	$0x8,%rdx
  406b79:	48 01 c2                    	(arith) 	add	%rax,%rdx
  406b7c:	4c 8d 0c 50                 	(arith) 	lea	(%rax,%rdx,2),%r9
  406b80:	48 8b 44 24 30              	(move)  	mov	0x30(%rsp),%rax
  406b85:	4a 8d 2c 08                 	(arith) 	lea	(%rax,%r9,1),%rbp
  406b89:	48 8b 44 24 28              	(move)  	mov	0x28(%rsp),%rax
  406b8e:	4a 8d 1c 08                 	(arith) 	lea	(%rax,%r9,1),%rbx
  406b92:	4c 03 4c 24 20              	(arith) 	add	0x20(%rsp),%r9
  406b97:	41 b8 01 00 00 00           	(move)  	mov	$0x1,%r8d
; ------- Loop 84 entry
533 (loop 84):	
  406b9d:	49 63 c0                    	(move)  	movsxd	%r8d,%rax
  406ba0:	48 8d 14 80                 	(arith) 	lea	(%rax,%rax,4),%rdx
  406ba4:	48 8d 34 1a                 	(arith) 	lea	(%rdx,%rbx,1),%rsi
  406ba8:	4a 8d 0c 0a                 	(arith) 	lea	(%rdx,%r9,1),%rcx
  406bac:	48 01 ea                    	(arith) 	add	%rbp,%rdx
  406baf:	48 8d 04 d5 00 16 61 00     	(arith) 	lea	0x611600(,%rdx,8),%rax
  406bb7:	48 8d 3c d5 28 16 61 00     	(arith) 	lea	0x611628(,%rdx,8),%rdi
  406bbf:	48 29 d6                    	(arith) 	sub	%rdx,%rsi
  406bc2:	48 29 d1                    	(arith) 	sub	%rdx,%rcx
  406bc5:	48 89 ca                    	(move)  	mov	%rcx,%rdx
; ------- Loop 83 entry
534 (loop 83):	
  406bc8:	66 0f 28 cc                 	(move)  	movapd	%xmm4,%xmm1
  406bcc:	f2 0f 59 0c d0              	(arith) 	mulsd	(%rax,%rdx,8),%xmm1
  406bd1:	f2 0f 10 04 f0              	(move)  	movsd	(%rax,%rsi,8),%xmm0
  406bd6:	f2 0f 5c c1                 	(arith) 	subsd	%xmm1,%xmm0
  406bda:	66 0f 28 cb                 	(move)  	movapd	%xmm3,%xmm1
  406bde:	f2 0f 59 08                 	(arith) 	mulsd	(%rax),%xmm1
  406be2:	f2 0f 58 c1                 	(arith) 	addsd	%xmm1,%xmm0
  406be6:	f2 0f 59 c2                 	(arith) 	mulsd	%xmm2,%xmm0
  406bea:	f2 0f 10 88 10 0a ad 05     	(move)  	movsd	0x5ad0a10(%rax),%xmm1
  406bf2:	f2 0f 5c c8                 	(arith) 	subsd	%xmm0,%xmm1
  406bf6:	f2 0f 11 88 10 0a ad 05     	(move)  	movsd	%xmm1,0x5ad0a10(%rax)
  406bfe:	48 83 c0 08                 	(arith) 	add	$0x8,%rax
/home/jcsalinas/Documents/pruebas/inst_estimation_module/BT/rhs.f:376
  406c02:	48 39 f8                    	(arith) 	cmp	%rdi,%rax
  406c05:	75 c1                       	(control)	jne	406bc8 <compute_rhs_+0x21b0>	; ↰ label 534 (loop 83)
; ------- Loop 83 exit
535:	
/home/jcsalinas/Documents/pruebas/inst_estimation_module/BT/rhs.f:375
  406c07:	41 83 c0 01                 	(arith) 	add	$0x1,%r8d
  406c0b:	45 39 c3                    	(arith) 	cmp	%r8d,%r11d
  406c0e:	75 8d                       	(control)	jne	406b9d <compute_rhs_+0x2185>	; ↰ label 533 (loop 84)
; ------- Loop 84 exit
531:	
/home/jcsalinas/Documents/pruebas/inst_estimation_module/BT/rhs.f:374
  406c10:	41 83 c2 01                 	(arith) 	add	$0x1,%r10d
  406c14:	44 39 54 24 10              	(arith) 	cmp	%r10d,0x10(%rsp)
  406c19:	0f 85 45 ff ff ff           	(control)	jne	406b64 <compute_rhs_+0x214c>	; ↰ label 530 (loop 82)
; ------- Loop 82 exit
510:	
/home/jcsalinas/Documents/pruebas/inst_estimation_module/BT/rhs.f:383
  406c1f:	83 3d ce a9 20 00 00        	(arith) 	cmpl	$0,0x20a9ce(%rip)
  406c26:	0f 84 31 01 00 00           	(control)	je	406d5d <compute_rhs_+0x2345>	; ↲ label 536
537:	
/home/jcsalinas/Documents/pruebas/inst_estimation_module/BT/rhs.f:385
  406c2c:	bf 3c ef 40 00              	(move)  	mov	$0x40ef3c,%edi
  406c31:	b8 00 00 00 00              	(move)  	mov	$0,%eax
  406c36:	e8 00 7e 00 00              	(control)	call	40ea3b <timer_stop_>	; ⇄ timer_stop
538:	
/home/jcsalinas/Documents/pruebas/inst_estimation_module/BT/rhs.f:385
  406c3b:	8b 05 af a9 20 00           	(move)  	mov	0x20a9af(%rip),%eax
  406c41:	44 8d 48 fe                 	(arith) 	lea	-0x2(%rax),%r9d
  406c45:	45 85 c9                    	(arith) 	test	%r9d,%r9d
  406c48:	0f 8e b3 00 00 00           	(control)	jle	406d01 <compute_rhs_+0x22e9>	; ↲ label 539
540:	
/home/jcsalinas/Documents/pruebas/inst_estimation_module/BT/rhs.f:386
  406c4e:	44 8b 15 97 a9 20 00        	(move)  	mov	0x20a997(%rip),%r10d
  406c55:	45 8d 62 fe                 	(arith) 	lea	-0x2(%r10),%r12d
/home/jcsalinas/Documents/pruebas/inst_estimation_module/BT/rhs.f:387
  406c59:	8b 3d 89 a9 20 00           	(move)  	mov	0x20a989(%rip),%edi
  406c5f:	8d 5f fe                    	(arith) 	lea	-0x2(%rdi),%ebx
/home/jcsalinas/Documents/pruebas/inst_estimation_module/BT/rhs.f:4
  406c62:	f2 0f 10 0d 3e a5 20 00     	(move)  	movsd	0x20a53e(%rip),%xmm1
  406c6a:	41 83 c1 01                 	(arith) 	add	$0x1,%r9d
  406c6e:	41 bb 01 00 00 00           	(move)  	mov	$0x1,%r11d
  406c74:	41 83 ea 01                 	(arith) 	sub	$0x1,%r10d
  406c78:	83 ef 01                    	(arith) 	sub	$0x1,%edi
; ------- Loop 76 entry
541 (loop 76):	
/home/jcsalinas/Documents/pruebas/inst_estimation_module/BT/rhs.f:386
  406c7b:	45 85 e4                    	(arith) 	test	%r12d,%r12d
  406c7e:	7e 74                       	(control)	jle	406cf4 <compute_rhs_+0x22dc>	; ↲ label 542
543:	
/home/jcsalinas/Documents/pruebas/inst_estimation_module/BT/rhs.f:389
  406c80:	49 63 eb                    	(move)  	movsxd	%r11d,%rbp
  406c83:	48 69 ed 35 cf 00 00        	(arith) 	imul	$0xcf35,%rbp,%rbp
  406c8a:	41 b8 01 00 00 00           	(move)  	mov	$0x1,%r8d
; ------- Loop 77 entry
544 (loop 77):	
/home/jcsalinas/Documents/pruebas/inst_estimation_module/BT/rhs.f:387
  406c90:	85 db                       	(arith) 	test	%ebx,%ebx
  406c92:	7e 57                       	(control)	jle	406ceb <compute_rhs_+0x22d3>	; ↲ label 545
546:	
/home/jcsalinas/Documents/pruebas/inst_estimation_module/BT/rhs.f:389
  406c94:	49 63 c0                    	(move)  	movsxd	%r8d,%rax
  406c97:	48 89 c2                    	(move)  	mov	%rax,%rdx
  406c9a:	48 c1 e2 08                 	(logic) 	sal	$0x8,%rdx
  406c9e:	48 01 c2                    	(arith) 	add	%rax,%rdx
  406ca1:	48 8d 34 50                 	(arith) 	lea	(%rax,%rdx,2),%rsi
  406ca5:	48 01 ee                    	(arith) 	add	%rbp,%rsi
  406ca8:	b9 01 00 00 00              	(move)  	mov	$0x1,%ecx
; ------- Loop 79 entry
547 (loop 79):	
  406cad:	48 63 c1                    	(move)  	movsxd	%ecx,%rax
  406cb0:	48 8d 14 80                 	(arith) 	lea	(%rax,%rax,4),%rdx
  406cb4:	48 01 f2                    	(arith) 	add	%rsi,%rdx
  406cb7:	48 8d 04 d5 00 16 61 00     	(arith) 	lea	0x611600(,%rdx,8),%rax
  406cbf:	48 8d 14 d5 28 16 61 00     	(arith) 	lea	0x611628(,%rdx,8),%rdx
; ------- Loop 78 entry
548 (loop 78):	
  406cc7:	66 0f 28 c1                 	(move)  	movapd	%xmm1,%xmm0
  406ccb:	f2 0f 59 80 10 0a ad 05     	(arith) 	mulsd	0x5ad0a10(%rax),%xmm0
  406cd3:	f2 0f 11 80 10 0a ad 05     	(move)  	movsd	%xmm0,0x5ad0a10(%rax)
  406cdb:	48 83 c0 08                 	(arith) 	add	$0x8,%rax
/home/jcsalinas/Documents/pruebas/inst_estimation_module/BT/rhs.f:388
  406cdf:	48 39 c2                    	(arith) 	cmp	%rax,%rdx
  406ce2:	75 e3                       	(control)	jne	406cc7 <compute_rhs_+0x22af>	; ↰ label 548 (loop 78)
; ------- Loop 78 exit
549:	
/home/jcsalinas/Documents/pruebas/inst_estimation_module/BT/rhs.f:387
  406ce4:	83 c1 01                    	(arith) 	add	$0x1,%ecx
  406ce7:	39 cf                       	(arith) 	cmp	%ecx,%edi
  406ce9:	75 c2                       	(control)	jne	406cad <compute_rhs_+0x2295>	; ↰ label 547 (loop 79)
; ------- Loop 79 exit
545:	
/home/jcsalinas/Documents/pruebas/inst_estimation_module/BT/rhs.f:386
  406ceb:	41 83 c0 01                 	(arith) 	add	$0x1,%r8d
  406cef:	45 39 c2                    	(arith) 	cmp	%r8d,%r10d
  406cf2:	75 9c                       	(control)	jne	406c90 <compute_rhs_+0x2278>	; ↰ label 544 (loop 77)
; ------- Loop 77 exit
542:	
/home/jcsalinas/Documents/pruebas/inst_estimation_module/BT/rhs.f:385
  406cf4:	41 83 c3 01                 	(arith) 	add	$0x1,%r11d
  406cf8:	45 39 d9                    	(arith) 	cmp	%r11d,%r9d
  406cfb:	0f 85 7a ff ff ff           	(control)	jne	406c7b <compute_rhs_+0x2263>	; ↰ label 541 (loop 76)
; ------- Loop 76 exit
539:	
/home/jcsalinas/Documents/pruebas/inst_estimation_module/BT/rhs.f:394
  406d01:	83 3d ec a8 20 00 00        	(arith) 	cmpl	$0,0x20a8ec(%rip)
  406d08:	0f 84 b4 00 00 00           	(control)	je	406dc2 <compute_rhs_+0x23aa>	; ↲ label 550
551:	
/home/jcsalinas/Documents/pruebas/inst_estimation_module/BT/rhs.f:396
  406d0e:	bf 30 ef 40 00              	(move)  	mov	$0x40ef30,%edi
  406d13:	b8 00 00 00 00              	(move)  	mov	$0,%eax
  406d18:	e8 1e 7d 00 00              	(control)	call	40ea3b <timer_stop_>	; ⇄ timer_stop
552:	
/home/jcsalinas/Documents/pruebas/inst_estimation_module/BT/rhs.f:396
  406d1d:	e9 a0 00 00 00              	(control)	jmp	406dc2 <compute_rhs_+0x23aa>	; ↲ label 550
; ------- Loop 99 entry
461:	
/home/jcsalinas/Documents/pruebas/inst_estimation_module/BT/rhs.f:237
  406d22:	83 bc 24 b0 00 00 00 02     	(arith) 	cmpl	$0x2,0xb0(%rsp)
  406d2a:	0f 8f a7 ef ff ff           	(control)	jg	405cd7 <compute_rhs_+0x12bf>	; ↰ label 463
553:	
  406d30:	e9 04 f1 ff ff              	(control)	jmp	405e39 <compute_rhs_+0x1421>	; ↰ label 471
; ------- Loop 99 exit
554:	
/home/jcsalinas/Documents/pruebas/inst_estimation_module/BT/rhs.f:362
  406d35:	8b 84 24 c0 00 00 00        	(move)  	mov	0xc0(%rsp),%eax
  406d3c:	83 e8 03                    	(arith) 	sub	$0x3,%eax
  406d3f:	e9 b4 fc ff ff              	(control)	jmp	4069f8 <compute_rhs_+0x1fe0>	; ↰ label 522
509:	
/home/jcsalinas/Documents/pruebas/inst_estimation_module/BT/rhs.f:349
  406d44:	8b 84 24 c0 00 00 00        	(move)  	mov	0xc0(%rsp),%eax
  406d4b:	83 e8 04                    	(arith) 	sub	$0x4,%eax
  406d4e:	89 44 24 10                 	(move)  	mov	%eax,0x10(%rsp)
  406d52:	83 f8 02                    	(arith) 	cmp	$0x2,%eax
  406d55:	0f 8f cb fa ff ff           	(control)	jg	406826 <compute_rhs_+0x1e0e>	; ↰ label 511
555:	
  406d5b:	eb d8                       	(control)	jmp	406d35 <compute_rhs_+0x231d>	; ↰ label 554
536:	
/home/jcsalinas/Documents/pruebas/inst_estimation_module/BT/rhs.f:385
  406d5d:	8b 05 8d a8 20 00           	(move)  	mov	0x20a88d(%rip),%eax
  406d63:	44 8d 48 fe                 	(arith) 	lea	-0x2(%rax),%r9d
  406d67:	45 85 c9                    	(arith) 	test	%r9d,%r9d
  406d6a:	0f 8f de fe ff ff           	(control)	jg	406c4e <compute_rhs_+0x2236>	; ↰ label 540
556:	
  406d70:	eb 50                       	(control)	jmp	406dc2 <compute_rhs_+0x23aa>	; ↲ label 550
384:	
/home/jcsalinas/Documents/pruebas/inst_estimation_module/BT/rhs.f:21
  406d72:	44 8b 1d 77 a8 20 00        	(move)  	mov	0x20a877(%rip),%r11d
  406d79:	44 89 d8                    	(move)  	mov	%r11d,%eax
  406d7c:	83 e8 01                    	(arith) 	sub	$0x1,%eax
  406d7f:	0f 89 d3 dc ff ff           	(control)	jns	404a58 <compute_rhs_+0x40>	; ↰ label 388
557:	
  406d85:	e9 d6 de ff ff              	(control)	jmp	404c60 <compute_rhs_+0x248>	; ↰ label 406
436:	
/home/jcsalinas/Documents/pruebas/inst_estimation_module/BT/rhs.f:166
  406d8a:	8b 05 60 a8 20 00           	(move)  	mov	0x20a860(%rip),%eax
/home/jcsalinas/Documents/pruebas/inst_estimation_module/BT/rhs.f:160
  406d90:	83 3d 5d a8 20 00 00        	(arith) 	cmpl	$0,0x20a85d(%rip)
  406d97:	0f 84 11 e7 ff ff           	(control)	je	4054ae <compute_rhs_+0xa96>	; ↰ label 442
558:	
  406d9d:	e9 d4 e6 ff ff              	(control)	jmp	405476 <compute_rhs_+0xa5e>	; ↰ label 438
559:	
/home/jcsalinas/Documents/pruebas/inst_estimation_module/BT/rhs.f:272
  406da2:	8b 05 48 a8 20 00           	(move)  	mov	0x20a848(%rip),%eax
  406da8:	89 84 24 c0 00 00 00        	(move)  	mov	%eax,0xc0(%rsp)
  406daf:	e9 75 f8 ff ff              	(control)	jmp	406629 <compute_rhs_+0x1c11>	; ↰ label 484
441:	
/home/jcsalinas/Documents/pruebas/inst_estimation_module/BT/rhs.f:266
  406db4:	83 3d 39 a8 20 00 00        	(arith) 	cmpl	$0,0x20a839(%rip)
  406dbb:	74 e5                       	(control)	je	406da2 <compute_rhs_+0x238a>	; ↰ label 559
560:	
  406dbd:	e9 06 f2 ff ff              	(control)	jmp	405fc8 <compute_rhs_+0x15b0>	; ↰ label 481
550:	
/home/jcsalinas/Documents/pruebas/inst_estimation_module/BT/rhs.f:397
  406dc2:	48 81 c4 08 01 00 00        	(arith) 	add	$0x108,%rsp
  406dc9:	5b                          	(move)  	pop	%rbx
  406dca:	5d                          	(move)  	pop	%rbp
  406dcb:	41 5c                       	(move)  	pop	%r12
  406dcd:	41 5d                       	(move)  	pop	%r13
  406dcf:	41 5e                       	(move)  	pop	%r14
  406dd1:	41 5f                       	(move)  	pop	%r15
  406dd3:	c3                          	(control)	ret


0000000000406dd4 <x_solve>:
376 (function x_solve_):	
/home/jcsalinas/Documents/pruebas/inst_estimation_module/BT/x_solve.f:5
  406dd4:	41 57                       	(move)  	push	%r15
  406dd6:	41 56                       	(move)  	push	%r14
  406dd8:	41 55                       	(move)  	push	%r13
  406dda:	41 54                       	(move)  	push	%r12
  406ddc:	55                          	(move)  	push	%rbp
  406ddd:	53                          	(move)  	push	%rbx
  406dde:	48 81 ec 88 00 00 00        	(arith) 	sub	$0x88,%rsp
/home/jcsalinas/Documents/pruebas/inst_estimation_module/BT/x_solve.f:30
  406de5:	83 3d 08 a8 20 00 00        	(arith) 	cmpl	$0,0x20a808(%rip)
  406dec:	74 0f                       	(control)	je	406dfd <x_solve_+0x29>	; ↲ label 561
562:	
/home/jcsalinas/Documents/pruebas/inst_estimation_module/BT/x_solve.f:39
  406dee:	bf 40 ef 40 00              	(move)  	mov	$0x40ef40,%edi
  406df3:	b8 00 00 00 00              	(move)  	mov	$0,%eax
  406df8:	e8 26 7c 00 00              	(control)	call	40ea23 <timer_start_>	; ⇄ timer_start
561:	
/home/jcsalinas/Documents/pruebas/inst_estimation_module/BT/x_solve.f:39
  406dfd:	8b 05 e5 a7 20 00           	(move)  	mov	0x20a7e5(%rip),%eax
  406e03:	83 e8 01                    	(arith) 	sub	$0x1,%eax
  406e06:	89 44 24 7c                 	(move)  	mov	%eax,0x7c(%rsp)
/home/jcsalinas/Documents/pruebas/inst_estimation_module/BT/x_solve.f:44
  406e0a:	8b 05 e0 a7 20 00           	(move)  	mov	0x20a7e0(%rip),%eax
  406e10:	8d 50 fe                    	(arith) 	lea	-0x2(%rax),%edx
  406e13:	85 d2                       	(arith) 	test	%edx,%edx
  406e15:	0f 8e 99 13 00 00           	(control)	jle	4081b4 <x_solve_+0x13e0>	; ↲ label 563
564:	
  406e1b:	83 e8 01                    	(arith) 	sub	$0x1,%eax
  406e1e:	89 44 24 6c                 	(move)  	mov	%eax,0x6c(%rsp)
  406e22:	c7 44 24 5c 01 00 00 00     	(move)  	movl	$0x1,0x5c(%rsp)
; ------- Loop 130 entry
565 (loop 130):	
/home/jcsalinas/Documents/pruebas/inst_estimation_module/BT/x_solve.f:45
  406e2a:	8b 05 bc a7 20 00           	(move)  	mov	0x20a7bc(%rip),%eax
  406e30:	8d 50 fe                    	(arith) 	lea	-0x2(%rax),%edx
  406e33:	85 d2                       	(arith) 	test	%edx,%edx
  406e35:	0f 8e 66 13 00 00           	(control)	jle	4081a1 <x_solve_+0x13cd>	; ↲ label 566
567:	
/home/jcsalinas/Documents/pruebas/inst_estimation_module/BT/x_solve.f:48
  406e3b:	48 63 54 24 5c              	(move)  	movsxd	0x5c(%rsp),%rdx
  406e40:	48 69 da 71 29 00 00        	(arith) 	imul	$0x2971,%rdx,%rbx
  406e47:	48 89 5c 24 60              	(move)  	mov	%rbx,0x60(%rsp)
/home/jcsalinas/Documents/pruebas/inst_estimation_module/BT/x_solve.f:62
  406e4c:	48 69 da 35 cf 00 00        	(arith) 	imul	$0xcf35,%rdx,%rbx
  406e53:	48 89 5c 24 50              	(move)  	mov	%rbx,0x50(%rsp)
  406e58:	83 e8 01                    	(arith) 	sub	$0x1,%eax
  406e5b:	89 44 24 68                 	(move)  	mov	%eax,0x68(%rsp)
  406e5f:	c7 44 24 58 01 00 00 00     	(move)  	movl	$0x1,0x58(%rsp)
; ------- Loop 131 entry
568 (loop 131):	
/home/jcsalinas/Documents/pruebas/inst_estimation_module/BT/x_solve.f:46
  406e67:	8b 7c 24 7c                 	(move)  	mov	0x7c(%rsp),%edi
  406e6b:	85 ff                       	(arith) 	test	%edi,%edi
  406e6d:	0f 88 3a 05 00 00           	(control)	js	4073ad <x_solve_+0x5d9>	; ↲ label 569
570:	
/home/jcsalinas/Documents/pruebas/inst_estimation_module/BT/x_solve.f:48
  406e73:	48 63 44 24 58              	(move)  	movsxd	0x58(%rsp),%rax
  406e78:	4c 6b c8 67                 	(arith) 	imul	$0x67,%rax,%r9
  406e7c:	4c 03 4c 24 60              	(arith) 	add	0x60(%rsp),%r9
/home/jcsalinas/Documents/pruebas/inst_estimation_module/BT/x_solve.f:5
  406e81:	f2 44 0f 10 15 7e a6 20 00  	(move)  	movsd	0x20a67e(%rip),%xmm10
/home/jcsalinas/Documents/pruebas/inst_estimation_module/BT/x_solve.f:62
  406e8a:	48 89 c2                    	(move)  	mov	%rax,%rdx
  406e8d:	48 c1 e2 08                 	(logic) 	sal	$0x8,%rdx
  406e91:	48 01 c2                    	(arith) 	add	%rax,%rdx
  406e94:	4c 8d 04 50                 	(arith) 	lea	(%rax,%rdx,2),%r8
  406e98:	4c 03 44 24 50              	(arith) 	add	0x50(%rsp),%r8
/home/jcsalinas/Documents/pruebas/inst_estimation_module/BT/x_solve.f:64
  406e9d:	f2 0f 10 05 db 7f 00 00     	(move)  	movsd	0x7fdb(%rip),%xmm0
  406ea5:	f2 41 0f 5c c2              	(arith) 	subsd	%xmm10,%xmm0
  406eaa:	f2 0f 11 44 24 10           	(move)  	movsd	%xmm0,0x10(%rsp)
/home/jcsalinas/Documents/pruebas/inst_estimation_module/BT/x_solve.f:83
  406eb0:	66 41 0f 28 fa              	(move)  	movapd	%xmm10,%xmm7
  406eb5:	f2 41 0f 58 fa              	(arith) 	addsd	%xmm10,%xmm7
  406eba:	f2 0f 11 7c 24 18           	(move)  	movsd	%xmm7,0x18(%rsp)
/home/jcsalinas/Documents/pruebas/inst_estimation_module/BT/x_solve.f:5
  406ec0:	f2 0f 10 3d 38 a6 20 00     	(move)  	movsd	0x20a638(%rip),%xmm7
  406ec8:	f2 0f 11 7c 24 08           	(move)  	movsd	%xmm7,0x8(%rsp)
  406ece:	f2 0f 10 3d 12 a6 20 00     	(move)  	movsd	0x20a612(%rip),%xmm7
  406ed6:	66 0f 28 f7                 	(move)  	movapd	%xmm7,%xmm6
  406eda:	f2 0f 11 7c 24 20           	(move)  	movsd	%xmm7,0x20(%rsp)
/home/jcsalinas/Documents/pruebas/inst_estimation_module/BT/x_solve.f:100
  406ee0:	f2 0f 59 3d e0 a6 20 00     	(arith) 	mulsd	0x20a6e0(%rip),%xmm7
  406ee8:	66 0f 28 e7                 	(move)  	movapd	%xmm7,%xmm4
  406eec:	f2 0f 11 7c 24 28           	(move)  	movsd	%xmm7,0x28(%rsp)
/home/jcsalinas/Documents/pruebas/inst_estimation_module/BT/x_solve.f:5
  406ef2:	f2 0f 10 3d f6 a5 20 00     	(move)  	movsd	0x20a5f6(%rip),%xmm7
  406efa:	66 0f 28 ef                 	(move)  	movapd	%xmm7,%xmm5
  406efe:	f2 0f 11 7c 24 30           	(move)  	movsd	%xmm7,0x30(%rsp)
/home/jcsalinas/Documents/pruebas/inst_estimation_module/BT/x_solve.f:122
  406f04:	f2 0f 5c e7                 	(arith) 	subsd	%xmm7,%xmm4
  406f08:	f2 0f 11 64 24 38           	(move)  	movsd	%xmm4,0x38(%rsp)
  406f0e:	66 0f 28 fe                 	(move)  	movapd	%xmm6,%xmm7
  406f12:	f2 0f 5c fd                 	(arith) 	subsd	%xmm5,%xmm7
  406f16:	f2 0f 11 7c 24 40           	(move)  	movsd	%xmm7,0x40(%rsp)
/home/jcsalinas/Documents/pruebas/inst_estimation_module/BT/x_solve.f:128
  406f1c:	f2 0f 11 6c 24 48           	(move)  	movsd	%xmm5,0x48(%rsp)
  406f22:	83 c7 01                    	(arith) 	add	$0x1,%edi
  406f25:	be 00 00 00 00              	(move)  	mov	$0,%esi
/home/jcsalinas/Documents/pruebas/inst_estimation_module/BT/x_solve.f:54
  406f2a:	66 45 0f ef f6              	(logic) 	pxor	%xmm14,%xmm14
/home/jcsalinas/Documents/pruebas/inst_estimation_module/BT/x_solve.f:55
  406f2f:	49 ba 00 00 00 00 00 00 f0 3f	(move)  	mov	$0x3ff0000000000000,%r10
; ------- Loop 137 entry
571 (loop 137):	
/home/jcsalinas/Documents/pruebas/inst_estimation_module/BT/x_solve.f:48
  406f39:	48 63 c6                    	(move)  	movsxd	%esi,%rax
  406f3c:	4d 8d 1c 01                 	(arith) 	lea	(%r9,%rax,1),%r11
  406f40:	49 8d 93 36 9b 94 00        	(arith) 	lea	0x949b36(%r11),%rdx
  406f47:	f2 0f 10 24 d5 00 16 61 00  	(move)  	movsd	0x611600(,%rdx,8),%xmm4
/home/jcsalinas/Documents/pruebas/inst_estimation_module/BT/x_solve.f:49
  406f50:	66 0f 28 d4                 	(move)  	movapd	%xmm4,%xmm2
  406f54:	f2 0f 59 d4                 	(arith) 	mulsd	%xmm4,%xmm2
/home/jcsalinas/Documents/pruebas/inst_estimation_module/BT/x_solve.f:50
  406f58:	66 44 0f 28 e4              	(move)  	movapd	%xmm4,%xmm12
  406f5d:	f2 44 0f 59 e2              	(arith) 	mulsd	%xmm2,%xmm12
/home/jcsalinas/Documents/pruebas/inst_estimation_module/BT/x_solve.f:54
  406f62:	48 8d 14 80                 	(arith) 	lea	(%rax,%rax,4),%rdx
  406f66:	48 8d 04 92                 	(arith) 	lea	(%rdx,%rdx,4),%rax
  406f6a:	f2 44 0f 11 34 c5 a0 38 37 0b	(move)  	movsd	%xmm14,0xb3738a0(,%rax,8)
/home/jcsalinas/Documents/pruebas/inst_estimation_module/BT/x_solve.f:55
  406f74:	4c 89 14 c5 c8 38 37 0b     	(move)  	mov	%r10,0xb3738c8(,%rax,8)
/home/jcsalinas/Documents/pruebas/inst_estimation_module/BT/x_solve.f:56
  406f7c:	f2 44 0f 11 34 c5 f0 38 37 0b	(move)  	movsd	%xmm14,0xb3738f0(,%rax,8)
/home/jcsalinas/Documents/pruebas/inst_estimation_module/BT/x_solve.f:57
  406f86:	f2 44 0f 11 34 c5 18 39 37 0b	(move)  	movsd	%xmm14,0xb373918(,%rax,8)
/home/jcsalinas/Documents/pruebas/inst_estimation_module/BT/x_solve.f:58
  406f90:	f2 44 0f 11 34 c5 40 39 37 0b	(move)  	movsd	%xmm14,0xb373940(,%rax,8)
/home/jcsalinas/Documents/pruebas/inst_estimation_module/BT/x_solve.f:62
  406f9a:	49 8d 8b 30 18 84 00        	(arith) 	lea	0x841830(%r11),%rcx
  406fa1:	f2 44 0f 10 0c cd 00 16 61 00	(move)  	movsd	0x611600(,%rcx,8),%xmm9
  406fab:	4c 01 c2                    	(arith) 	add	%r8,%rdx
  406fae:	f2 0f 10 04 d5 08 16 61 00  	(move)  	movsd	0x611608(,%rdx,8),%xmm0
  406fb7:	66 0f 28 ca                 	(move)  	movapd	%xmm2,%xmm1
  406fbb:	f2 0f 59 c8                 	(arith) 	mulsd	%xmm0,%xmm1
  406fbf:	66 41 0f 28 d9              	(move)  	movapd	%xmm9,%xmm3
  406fc4:	f2 41 0f 59 da              	(arith) 	mulsd	%xmm10,%xmm3
  406fc9:	66 0f 28 e8                 	(move)  	movapd	%xmm0,%xmm5
  406fcd:	f2 0f 59 e9                 	(arith) 	mulsd	%xmm1,%xmm5
  406fd1:	f2 0f 5c dd                 	(arith) 	subsd	%xmm5,%xmm3
  406fd5:	f2 0f 11 1c c5 a8 38 37 0b  	(move)  	movsd	%xmm3,0xb3738a8(,%rax,8)
/home/jcsalinas/Documents/pruebas/inst_estimation_module/BT/x_solve.f:64
  406fde:	66 0f 28 d8                 	(move)  	movapd	%xmm0,%xmm3
  406fe2:	f2 0f 5e 1c d5 00 16 61 00  	(arith) 	divsd	0x611600(,%rdx,8),%xmm3
  406feb:	f2 0f 59 5c 24 10           	(arith) 	mulsd	0x10(%rsp),%xmm3
  406ff1:	f2 0f 11 1c c5 d0 38 37 0b  	(move)  	movsd	%xmm3,0xb3738d0(,%rax,8)
/home/jcsalinas/Documents/pruebas/inst_estimation_module/BT/x_solve.f:65
  406ffa:	f2 0f 10 1c d5 10 16 61 00  	(move)  	movsd	0x611610(,%rdx,8),%xmm3
  407003:	66 44 0f 28 c4              	(move)  	movapd	%xmm4,%xmm8
  407008:	f2 44 0f 59 c3              	(arith) 	mulsd	%xmm3,%xmm8
  40700d:	66 41 0f 28 e8              	(move)  	movapd	%xmm8,%xmm5
  407012:	f2 41 0f 59 ea              	(arith) 	mulsd	%xmm10,%xmm5
  407017:	66 0f 57 2d 51 7e 00 00     	(logic) 	xorpd	0x7e51(%rip),%xmm5
  40701f:	f2 0f 11 2c c5 f8 38 37 0b  	(move)  	movsd	%xmm5,0xb3738f8(,%rax,8)
/home/jcsalinas/Documents/pruebas/inst_estimation_module/BT/x_solve.f:66
  407028:	f2 0f 10 3c d5 18 16 61 00  	(move)  	movsd	0x611618(,%rdx,8),%xmm7
  407031:	66 44 0f 28 dc              	(move)  	movapd	%xmm4,%xmm11
  407036:	f2 44 0f 59 df              	(arith) 	mulsd	%xmm7,%xmm11
  40703b:	66 41 0f 28 eb              	(move)  	movapd	%xmm11,%xmm5
  407040:	f2 41 0f 59 ea              	(arith) 	mulsd	%xmm10,%xmm5
  407045:	66 0f 57 2d 23 7e 00 00     	(logic) 	xorpd	0x7e23(%rip),%xmm5
  40704d:	f2 0f 11 2c c5 20 39 37 0b  	(move)  	movsd	%xmm5,0xb373920(,%rax,8)
/home/jcsalinas/Documents/pruebas/inst_estimation_module/BT/x_solve.f:67
  407056:	f2 44 0f 11 14 c5 48 39 37 0b	(move)  	movsd	%xmm10,0xb373948(,%rax,8)
/home/jcsalinas/Documents/pruebas/inst_estimation_module/BT/x_solve.f:69
  407060:	66 0f 28 f0                 	(move)  	movapd	%xmm0,%xmm6
  407064:	f2 0f 59 f3                 	(arith) 	mulsd	%xmm3,%xmm6
  407068:	66 0f 28 ea                 	(move)  	movapd	%xmm2,%xmm5
  40706c:	f2 0f 59 ee                 	(arith) 	mulsd	%xmm6,%xmm5
  407070:	66 0f 57 2d f8 7d 00 00     	(logic) 	xorpd	0x7df8(%rip),%xmm5
  407078:	f2 0f 11 2c c5 b0 38 37 0b  	(move)  	movsd	%xmm5,0xb3738b0(,%rax,8)
/home/jcsalinas/Documents/pruebas/inst_estimation_module/BT/x_solve.f:70
  407081:	f2 44 0f 11 04 c5 d8 38 37 0b	(move)  	movsd	%xmm8,0xb3738d8(,%rax,8)
/home/jcsalinas/Documents/pruebas/inst_estimation_module/BT/x_solve.f:71
  40708b:	66 44 0f 28 ec              	(move)  	movapd	%xmm4,%xmm13
  407090:	f2 44 0f 59 e8              	(arith) 	mulsd	%xmm0,%xmm13
  407095:	f2 44 0f 11 2c c5 00 39 37 0b	(move)  	movsd	%xmm13,0xb373900(,%rax,8)
/home/jcsalinas/Documents/pruebas/inst_estimation_module/BT/x_solve.f:72
  40709f:	f2 44 0f 11 34 c5 28 39 37 0b	(move)  	movsd	%xmm14,0xb373928(,%rax,8)
/home/jcsalinas/Documents/pruebas/inst_estimation_module/BT/x_solve.f:73
  4070a9:	f2 44 0f 11 34 c5 50 39 37 0b	(move)  	movsd	%xmm14,0xb373950(,%rax,8)
/home/jcsalinas/Documents/pruebas/inst_estimation_module/BT/x_solve.f:75
  4070b3:	66 0f 28 e8                 	(move)  	movapd	%xmm0,%xmm5
  4070b7:	f2 0f 59 ef                 	(arith) 	mulsd	%xmm7,%xmm5
  4070bb:	66 44 0f 28 c2              	(move)  	movapd	%xmm2,%xmm8
  4070c0:	f2 44 0f 59 c5              	(arith) 	mulsd	%xmm5,%xmm8
  4070c5:	66 44 0f 57 05 a2 7d 00 00  	(logic) 	xorpd	0x7da2(%rip),%xmm8
  4070ce:	f2 44 0f 11 04 c5 b8 38 37 0b	(move)  	movsd	%xmm8,0xb3738b8(,%rax,8)
/home/jcsalinas/Documents/pruebas/inst_estimation_module/BT/x_solve.f:76
  4070d8:	f2 44 0f 11 1c c5 e0 38 37 0b	(move)  	movsd	%xmm11,0xb3738e0(,%rax,8)
/home/jcsalinas/Documents/pruebas/inst_estimation_module/BT/x_solve.f:77
  4070e2:	f2 44 0f 11 34 c5 08 39 37 0b	(move)  	movsd	%xmm14,0xb373908(,%rax,8)
/home/jcsalinas/Documents/pruebas/inst_estimation_module/BT/x_solve.f:78
  4070ec:	f2 44 0f 11 2c c5 30 39 37 0b	(move)  	movsd	%xmm13,0xb373930(,%rax,8)
/home/jcsalinas/Documents/pruebas/inst_estimation_module/BT/x_solve.f:79
  4070f6:	f2 44 0f 11 34 c5 58 39 37 0b	(move)  	movsd	%xmm14,0xb373958(,%rax,8)
/home/jcsalinas/Documents/pruebas/inst_estimation_module/BT/x_solve.f:83
  407100:	f2 44 0f 10 1c d5 20 16 61 00	(move)  	movsd	0x611620(,%rdx,8),%xmm11
  40710a:	f2 44 0f 10 44 24 08        	(move)  	movsd	0x8(%rsp),%xmm8
  407111:	f2 45 0f 59 c3              	(arith) 	mulsd	%xmm11,%xmm8
  407116:	49 81 c3 3c 1e a5 00        	(arith) 	add	$0xa51e3c,%r11
  40711d:	f2 44 0f 10 7c 24 18        	(move)  	movsd	0x18(%rsp),%xmm15
  407124:	f2 46 0f 59 3c dd 00 16 61 00	(arith) 	mulsd	0x611600(,%r11,8),%xmm15
  40712e:	f2 45 0f 5c f8              	(arith) 	subsd	%xmm8,%xmm15
  407133:	f2 41 0f 59 cf              	(arith) 	mulsd	%xmm15,%xmm1
  407138:	f2 0f 11 0c c5 c0 38 37 0b  	(move)  	movsd	%xmm1,0xb3738c0(,%rax,8)
/home/jcsalinas/Documents/pruebas/inst_estimation_module/BT/x_solve.f:87
  407141:	66 0f 28 c8                 	(move)  	movapd	%xmm0,%xmm1
  407145:	f2 0f 59 c8                 	(arith) 	mulsd	%xmm0,%xmm1
  407149:	f2 44 0f 59 c4              	(arith) 	mulsd	%xmm4,%xmm8
  40714e:	66 44 0f 28 fa              	(move)  	movapd	%xmm2,%xmm15
  407153:	f2 44 0f 59 f9              	(arith) 	mulsd	%xmm1,%xmm15
  407158:	f2 45 0f 58 cf              	(arith) 	addsd	%xmm15,%xmm9
  40715d:	f2 45 0f 59 ca              	(arith) 	mulsd	%xmm10,%xmm9
  407162:	f2 45 0f 5c c1              	(arith) 	subsd	%xmm9,%xmm8
  407167:	f2 44 0f 11 04 c5 e8 38 37 0b	(move)  	movsd	%xmm8,0xb3738e8(,%rax,8)
/home/jcsalinas/Documents/pruebas/inst_estimation_module/BT/x_solve.f:89
  407171:	f2 41 0f 59 f2              	(arith) 	mulsd	%xmm10,%xmm6
  407176:	f2 0f 59 f2                 	(arith) 	mulsd	%xmm2,%xmm6
  40717a:	66 0f 57 35 ee 7c 00 00     	(logic) 	xorpd	0x7cee(%rip),%xmm6
  407182:	f2 0f 11 34 c5 10 39 37 0b  	(move)  	movsd	%xmm6,0xb373910(,%rax,8)
/home/jcsalinas/Documents/pruebas/inst_estimation_module/BT/x_solve.f:91
  40718b:	f2 41 0f 59 ea              	(arith) 	mulsd	%xmm10,%xmm5
  407190:	f2 0f 59 ea                 	(arith) 	mulsd	%xmm2,%xmm5
  407194:	66 0f 57 2d d4 7c 00 00     	(logic) 	xorpd	0x7cd4(%rip),%xmm5
  40719c:	f2 0f 11 2c c5 38 39 37 0b  	(move)  	movsd	%xmm5,0xb373938(,%rax,8)
/home/jcsalinas/Documents/pruebas/inst_estimation_module/BT/x_solve.f:92
  4071a5:	66 41 0f 28 ed              	(move)  	movapd	%xmm13,%xmm5
  4071aa:	f2 0f 59 6c 24 08           	(arith) 	mulsd	0x8(%rsp),%xmm5
  4071b0:	f2 0f 11 2c c5 60 39 37 0b  	(move)  	movsd	%xmm5,0xb373960(,%rax,8)
/home/jcsalinas/Documents/pruebas/inst_estimation_module/BT/x_solve.f:94
  4071b9:	f2 44 0f 11 34 c5 18 89 37 0b	(move)  	movsd	%xmm14,0xb378918(,%rax,8)
/home/jcsalinas/Documents/pruebas/inst_estimation_module/BT/x_solve.f:95
  4071c3:	f2 44 0f 11 34 c5 40 89 37 0b	(move)  	movsd	%xmm14,0xb378940(,%rax,8)
/home/jcsalinas/Documents/pruebas/inst_estimation_module/BT/x_solve.f:96
  4071cd:	f2 44 0f 11 34 c5 68 89 37 0b	(move)  	movsd	%xmm14,0xb378968(,%rax,8)
/home/jcsalinas/Documents/pruebas/inst_estimation_module/BT/x_solve.f:97
  4071d7:	f2 44 0f 11 34 c5 90 89 37 0b	(move)  	movsd	%xmm14,0xb378990(,%rax,8)
/home/jcsalinas/Documents/pruebas/inst_estimation_module/BT/x_solve.f:98
  4071e1:	f2 44 0f 11 34 c5 b8 89 37 0b	(move)  	movsd	%xmm14,0xb3789b8(,%rax,8)
/home/jcsalinas/Documents/pruebas/inst_estimation_module/BT/x_solve.f:100
  4071eb:	f2 0f 10 74 24 28           	(move)  	movsd	0x28(%rsp),%xmm6
  4071f1:	66 0f 28 ee                 	(move)  	movapd	%xmm6,%xmm5
  4071f5:	f2 0f 59 ea                 	(arith) 	mulsd	%xmm2,%xmm5
  4071f9:	f2 0f 59 e8                 	(arith) 	mulsd	%xmm0,%xmm5
  4071fd:	66 0f 57 2d 6b 7c 00 00     	(logic) 	xorpd	0x7c6b(%rip),%xmm5
  407205:	f2 0f 11 2c c5 20 89 37 0b  	(move)  	movsd	%xmm5,0xb378920(,%rax,8)
/home/jcsalinas/Documents/pruebas/inst_estimation_module/BT/x_solve.f:101
  40720e:	66 0f 28 ee                 	(move)  	movapd	%xmm6,%xmm5
  407212:	f2 0f 59 ec                 	(arith) 	mulsd	%xmm4,%xmm5
  407216:	f2 0f 11 2c c5 48 89 37 0b  	(move)  	movsd	%xmm5,0xb378948(,%rax,8)
/home/jcsalinas/Documents/pruebas/inst_estimation_module/BT/x_solve.f:102
  40721f:	f2 44 0f 11 34 c5 70 89 37 0b	(move)  	movsd	%xmm14,0xb378970(,%rax,8)
/home/jcsalinas/Documents/pruebas/inst_estimation_module/BT/x_solve.f:103
  407229:	f2 44 0f 11 34 c5 98 89 37 0b	(move)  	movsd	%xmm14,0xb378998(,%rax,8)
/home/jcsalinas/Documents/pruebas/inst_estimation_module/BT/x_solve.f:104
  407233:	f2 44 0f 11 34 c5 c0 89 37 0b	(move)  	movsd	%xmm14,0xb3789c0(,%rax,8)
/home/jcsalinas/Documents/pruebas/inst_estimation_module/BT/x_solve.f:106
  40723d:	f2 44 0f 10 6c 24 20        	(move)  	movsd	0x20(%rsp),%xmm13
  407244:	66 41 0f 28 ed              	(move)  	movapd	%xmm13,%xmm5
  407249:	f2 0f 59 ea                 	(arith) 	mulsd	%xmm2,%xmm5
  40724d:	66 0f 28 f3                 	(move)  	movapd	%xmm3,%xmm6
  407251:	f2 0f 59 f5                 	(arith) 	mulsd	%xmm5,%xmm6
  407255:	66 0f 57 35 13 7c 00 00     	(logic) 	xorpd	0x7c13(%rip),%xmm6
  40725d:	f2 0f 11 34 c5 28 89 37 0b  	(move)  	movsd	%xmm6,0xb378928(,%rax,8)
/home/jcsalinas/Documents/pruebas/inst_estimation_module/BT/x_solve.f:107
  407266:	f2 44 0f 11 34 c5 50 89 37 0b	(move)  	movsd	%xmm14,0xb378950(,%rax,8)
/home/jcsalinas/Documents/pruebas/inst_estimation_module/BT/x_solve.f:108
  407270:	66 41 0f 28 f5              	(move)  	movapd	%xmm13,%xmm6
  407275:	f2 0f 59 f4                 	(arith) 	mulsd	%xmm4,%xmm6
  407279:	f2 0f 11 34 c5 78 89 37 0b  	(move)  	movsd	%xmm6,0xb378978(,%rax,8)
/home/jcsalinas/Documents/pruebas/inst_estimation_module/BT/x_solve.f:109
  407282:	f2 44 0f 11 34 c5 a0 89 37 0b	(move)  	movsd	%xmm14,0xb3789a0(,%rax,8)
/home/jcsalinas/Documents/pruebas/inst_estimation_module/BT/x_solve.f:110
  40728c:	f2 44 0f 11 34 c5 c8 89 37 0b	(move)  	movsd	%xmm14,0xb3789c8(,%rax,8)
/home/jcsalinas/Documents/pruebas/inst_estimation_module/BT/x_solve.f:112
  407296:	f2 0f 59 ef                 	(arith) 	mulsd	%xmm7,%xmm5
  40729a:	66 0f 57 2d ce 7b 00 00     	(logic) 	xorpd	0x7bce(%rip),%xmm5
  4072a2:	f2 0f 11 2c c5 30 89 37 0b  	(move)  	movsd	%xmm5,0xb378930(,%rax,8)
/home/jcsalinas/Documents/pruebas/inst_estimation_module/BT/x_solve.f:113
  4072ab:	f2 44 0f 11 34 c5 58 89 37 0b	(move)  	movsd	%xmm14,0xb378958(,%rax,8)
/home/jcsalinas/Documents/pruebas/inst_estimation_module/BT/x_solve.f:114
  4072b5:	f2 44 0f 11 34 c5 80 89 37 0b	(move)  	movsd	%xmm14,0xb378980(,%rax,8)
/home/jcsalinas/Documents/pruebas/inst_estimation_module/BT/x_solve.f:115
  4072bf:	f2 0f 11 34 c5 a8 89 37 0b  	(move)  	movsd	%xmm6,0xb3789a8(,%rax,8)
/home/jcsalinas/Documents/pruebas/inst_estimation_module/BT/x_solve.f:116
  4072c8:	f2 44 0f 11 34 c5 d0 89 37 0b	(move)  	movsd	%xmm14,0xb3789d0(,%rax,8)
/home/jcsalinas/Documents/pruebas/inst_estimation_module/BT/x_solve.f:122
  4072d2:	f2 44 0f 10 6c 24 40        	(move)  	movsd	0x40(%rsp),%xmm13
  4072d9:	66 41 0f 28 ed              	(move)  	movapd	%xmm13,%xmm5
  4072de:	f2 41 0f 59 ec              	(arith) 	mulsd	%xmm12,%xmm5
  4072e3:	f2 44 0f 10 4c 24 38        	(move)  	movsd	0x38(%rsp),%xmm9
  4072ea:	66 41 0f 28 f1              	(move)  	movapd	%xmm9,%xmm6
  4072ef:	f2 41 0f 59 f4              	(arith) 	mulsd	%xmm12,%xmm6
  4072f4:	f2 0f 59 ce                 	(arith) 	mulsd	%xmm6,%xmm1
  4072f8:	66 0f 57 0d 70 7b 00 00     	(logic) 	xorpd	0x7b70(%rip),%xmm1
  407300:	66 0f 28 f3                 	(move)  	movapd	%xmm3,%xmm6
  407304:	f2 0f 59 f3                 	(arith) 	mulsd	%xmm3,%xmm6
  407308:	f2 0f 59 f5                 	(arith) 	mulsd	%xmm5,%xmm6
  40730c:	f2 0f 5c ce                 	(arith) 	subsd	%xmm6,%xmm1
  407310:	66 0f 28 f7                 	(move)  	movapd	%xmm7,%xmm6
  407314:	f2 0f 59 f7                 	(arith) 	mulsd	%xmm7,%xmm6
  407318:	f2 0f 59 ee                 	(arith) 	mulsd	%xmm6,%xmm5
  40731c:	f2 0f 5c cd                 	(arith) 	subsd	%xmm5,%xmm1
  407320:	f2 0f 10 6c 24 30           	(move)  	movsd	0x30(%rsp),%xmm5
  407326:	f2 0f 59 ea                 	(arith) 	mulsd	%xmm2,%xmm5
  40732a:	f2 44 0f 59 dd              	(arith) 	mulsd	%xmm5,%xmm11
  40732f:	f2 41 0f 5c cb              	(arith) 	subsd	%xmm11,%xmm1
  407334:	f2 0f 11 0c c5 38 89 37 0b  	(move)  	movsd	%xmm1,0xb378938(,%rax,8)
/home/jcsalinas/Documents/pruebas/inst_estimation_module/BT/x_solve.f:125
  40733d:	66 41 0f 28 c9              	(move)  	movapd	%xmm9,%xmm1
  407342:	f2 0f 59 ca                 	(arith) 	mulsd	%xmm2,%xmm1
  407346:	f2 0f 59 c1                 	(arith) 	mulsd	%xmm1,%xmm0
  40734a:	f2 0f 11 04 c5 60 89 37 0b  	(move)  	movsd	%xmm0,0xb378960(,%rax,8)
/home/jcsalinas/Documents/pruebas/inst_estimation_module/BT/x_solve.f:126
  407353:	66 41 0f 28 c5              	(move)  	movapd	%xmm13,%xmm0
  407358:	f2 0f 59 c2                 	(arith) 	mulsd	%xmm2,%xmm0
  40735c:	f2 0f 59 d8                 	(arith) 	mulsd	%xmm0,%xmm3
  407360:	f2 0f 11 1c c5 88 89 37 0b  	(move)  	movsd	%xmm3,0xb378988(,%rax,8)
/home/jcsalinas/Documents/pruebas/inst_estimation_module/BT/x_solve.f:127
  407369:	f2 0f 59 f8                 	(arith) 	mulsd	%xmm0,%xmm7
  40736d:	f2 0f 11 3c c5 b0 89 37 0b  	(move)  	movsd	%xmm7,0xb3789b0(,%rax,8)
/home/jcsalinas/Documents/pruebas/inst_estimation_module/BT/x_solve.f:128
  407376:	f2 0f 10 44 24 48           	(move)  	movsd	0x48(%rsp),%xmm0
  40737c:	f2 0f 59 c4                 	(arith) 	mulsd	%xmm4,%xmm0
  407380:	f2 0f 11 04 c5 d8 89 37 0b  	(move)  	movsd	%xmm0,0xb3789d8(,%rax,8)
/home/jcsalinas/Documents/pruebas/inst_estimation_module/BT/x_solve.f:46
  407389:	83 c6 01                    	(arith) 	add	$0x1,%esi
  40738c:	39 fe                       	(arith) 	cmp	%edi,%esi
  40738e:	0f 85 a5 fb ff ff           	(control)	jne	406f39 <x_solve_+0x165>	; ↰ label 571 (loop 137)
; ------- Loop 137 exit
572:	
  407394:	f2 0f 11 25 5c 57 f8 0a     	(move)  	movsd	%xmm4,0xaf8575c(%rip)
  40739c:	f2 0f 11 15 5c 57 f8 0a     	(move)  	movsd	%xmm2,0xaf8575c(%rip)
  4073a4:	f2 44 0f 11 25 5b 57 f8 0a  	(move)  	movsd	%xmm12,0xaf8575b(%rip)
569:	
/home/jcsalinas/Documents/pruebas/inst_estimation_module/BT/x_solve.f:134
  4073ad:	48 8d 74 24 7c              	(arith) 	lea	0x7c(%rsp),%rsi
  4073b2:	bf 90 d9 37 0b              	(move)  	mov	$0xb37d990,%edi
  4073b7:	b8 00 00 00 00              	(move)  	mov	$0,%eax
  4073bc:	e8 de af ff ff              	(control)	call	40239f <lhsinit_>	; ⇄ lhsinit
573:	
/home/jcsalinas/Documents/pruebas/inst_estimation_module/BT/x_solve.f:135
  4073c1:	8b 74 24 7c                 	(move)  	mov	0x7c(%rsp),%esi
  4073c5:	8d 46 ff                    	(arith) 	lea	-0x1(%rsi),%eax
  4073c8:	85 c0                       	(arith) 	test	%eax,%eax
  4073ca:	0f 8e 58 0b 00 00           	(control)	jle	407f28 <x_solve_+0x1154>	; ↲ label 574
575:	
/home/jcsalinas/Documents/pruebas/inst_estimation_module/BT/x_solve.f:5
  4073d0:	f2 0f 10 0d d0 9d 20 00     	(move)  	movsd	0x209dd0(%rip),%xmm1
/home/jcsalinas/Documents/pruebas/inst_estimation_module/BT/x_solve.f:137
  4073d8:	66 0f 28 c1                 	(move)  	movapd	%xmm1,%xmm0
  4073dc:	f2 0f 59 05 fc 9c 20 00     	(arith) 	mulsd	0x209cfc(%rip),%xmm0
/home/jcsalinas/Documents/pruebas/inst_estimation_module/BT/x_solve.f:138
  4073e4:	f2 0f 59 0d fc 9c 20 00     	(arith) 	mulsd	0x209cfc(%rip),%xmm1
/home/jcsalinas/Documents/pruebas/inst_estimation_module/BT/x_solve.f:5
  4073ec:	f2 44 0f 10 35 33 9d 20 00  	(move)  	movsd	0x209d33(%rip),%xmm14
/home/jcsalinas/Documents/pruebas/inst_estimation_module/BT/x_solve.f:142
  4073f5:	66 44 0f 28 c8              	(move)  	movapd	%xmm0,%xmm9
  4073fa:	f2 45 0f 59 ce              	(arith) 	mulsd	%xmm14,%xmm9
/home/jcsalinas/Documents/pruebas/inst_estimation_module/BT/x_solve.f:5
  4073ff:	f2 44 0f 10 2d 28 9d 20 00  	(move)  	movsd	0x209d28(%rip),%xmm13
/home/jcsalinas/Documents/pruebas/inst_estimation_module/BT/x_solve.f:156
  407408:	66 44 0f 28 c0              	(move)  	movapd	%xmm0,%xmm8
  40740d:	f2 45 0f 59 c5              	(arith) 	mulsd	%xmm13,%xmm8
/home/jcsalinas/Documents/pruebas/inst_estimation_module/BT/x_solve.f:5
  407412:	f2 44 0f 10 25 1d 9d 20 00  	(move)  	movsd	0x209d1d(%rip),%xmm12
/home/jcsalinas/Documents/pruebas/inst_estimation_module/BT/x_solve.f:170
  40741b:	66 0f 28 f8                 	(move)  	movapd	%xmm0,%xmm7
  40741f:	f2 41 0f 59 fc              	(arith) 	mulsd	%xmm12,%xmm7
/home/jcsalinas/Documents/pruebas/inst_estimation_module/BT/x_solve.f:5
  407424:	f2 44 0f 10 1d 13 9d 20 00  	(move)  	movsd	0x209d13(%rip),%xmm11
/home/jcsalinas/Documents/pruebas/inst_estimation_module/BT/x_solve.f:184
  40742d:	66 0f 28 f0                 	(move)  	movapd	%xmm0,%xmm6
  407431:	f2 41 0f 59 f3              	(arith) 	mulsd	%xmm11,%xmm6
/home/jcsalinas/Documents/pruebas/inst_estimation_module/BT/x_solve.f:5
  407436:	f2 44 0f 10 15 09 9d 20 00  	(move)  	movsd	0x209d09(%rip),%xmm10
/home/jcsalinas/Documents/pruebas/inst_estimation_module/BT/x_solve.f:198
  40743f:	66 0f 28 e8                 	(move)  	movapd	%xmm0,%xmm5
  407443:	f2 41 0f 59 ea              	(arith) 	mulsd	%xmm10,%xmm5
/home/jcsalinas/Documents/pruebas/inst_estimation_module/BT/x_solve.f:202
  407448:	66 0f 28 d0                 	(move)  	movapd	%xmm0,%xmm2
  40744c:	f2 0f 58 d0                 	(arith) 	addsd	%xmm0,%xmm2
  407450:	f2 44 0f 59 f2              	(arith) 	mulsd	%xmm2,%xmm14
/home/jcsalinas/Documents/pruebas/inst_estimation_module/BT/x_solve.f:211
  407455:	f2 44 0f 59 ea              	(arith) 	mulsd	%xmm2,%xmm13
/home/jcsalinas/Documents/pruebas/inst_estimation_module/BT/x_solve.f:220
  40745a:	f2 44 0f 59 e2              	(arith) 	mulsd	%xmm2,%xmm12
/home/jcsalinas/Documents/pruebas/inst_estimation_module/BT/x_solve.f:229
  40745f:	f2 44 0f 59 da              	(arith) 	mulsd	%xmm2,%xmm11
/home/jcsalinas/Documents/pruebas/inst_estimation_module/BT/x_solve.f:238
  407464:	f2 44 0f 59 d2              	(arith) 	mulsd	%xmm2,%xmm10
  407469:	b8 a0 38 37 0b              	(move)  	mov	$0xb3738a0,%eax
  40746e:	48 89 c2                    	(move)  	mov	%rax,%rdx
  407471:	b9 01 00 00 00              	(move)  	mov	$0x1,%ecx
/home/jcsalinas/Documents/pruebas/inst_estimation_module/BT/x_solve.f:202
  407476:	f2 0f 10 25 b2 79 00 00     	(move)  	movsd	0x79b2(%rip),%xmm4
; ------- Loop 136 entry
576 (loop 136):	
/home/jcsalinas/Documents/pruebas/inst_estimation_module/BT/x_solve.f:142
  40747e:	66 0f 28 d9                 	(move)  	movapd	%xmm1,%xmm3
  407482:	f2 0f 59 18                 	(arith) 	mulsd	(%rax),%xmm3
  407486:	66 0f 57 1d e2 79 00 00     	(logic) 	xorpd	0x79e2(%rip),%xmm3
  40748e:	66 44 0f 28 f8              	(move)  	movapd	%xmm0,%xmm15
  407493:	f2 44 0f 59 b8 78 50 00 00  	(arith) 	mulsd	0x5078(%rax),%xmm15
  40749c:	f2 41 0f 5c df              	(arith) 	subsd	%xmm15,%xmm3
  4074a1:	f2 41 0f 5c d9              	(arith) 	subsd	%xmm9,%xmm3
  4074a6:	f2 0f 11 9a 48 a3 00 00     	(move)  	movsd	%xmm3,0xa348(%rdx)
/home/jcsalinas/Documents/pruebas/inst_estimation_module/BT/x_solve.f:144
  4074ae:	66 0f 28 d9                 	(move)  	movapd	%xmm1,%xmm3
  4074b2:	f2 0f 59 58 28              	(arith) 	mulsd	0x28(%rax),%xmm3
  4074b7:	66 0f 57 1d b1 79 00 00     	(logic) 	xorpd	0x79b1(%rip),%xmm3
  4074bf:	66 44 0f 28 f8              	(move)  	movapd	%xmm0,%xmm15
  4074c4:	f2 44 0f 59 b8 a0 50 00 00  	(arith) 	mulsd	0x50a0(%rax),%xmm15
  4074cd:	f2 41 0f 5c df              	(arith) 	subsd	%xmm15,%xmm3
  4074d2:	f2 0f 11 9a 70 a3 00 00     	(move)  	movsd	%xmm3,0xa370(%rdx)
/home/jcsalinas/Documents/pruebas/inst_estimation_module/BT/x_solve.f:146
  4074da:	66 0f 28 d9                 	(move)  	movapd	%xmm1,%xmm3
  4074de:	f2 0f 59 58 50              	(arith) 	mulsd	0x50(%rax),%xmm3
  4074e3:	66 0f 57 1d 85 79 00 00     	(logic) 	xorpd	0x7985(%rip),%xmm3
  4074eb:	66 44 0f 28 f8              	(move)  	movapd	%xmm0,%xmm15
  4074f0:	f2 44 0f 59 b8 c8 50 00 00  	(arith) 	mulsd	0x50c8(%rax),%xmm15
  4074f9:	f2 41 0f 5c df              	(arith) 	subsd	%xmm15,%xmm3
  4074fe:	f2 0f 11 9a 98 a3 00 00     	(move)  	movsd	%xmm3,0xa398(%rdx)
/home/jcsalinas/Documents/pruebas/inst_estimation_module/BT/x_solve.f:148
  407506:	66 0f 28 d9                 	(move)  	movapd	%xmm1,%xmm3
  40750a:	f2 0f 59 58 78              	(arith) 	mulsd	0x78(%rax),%xmm3
  40750f:	66 0f 57 1d 59 79 00 00     	(logic) 	xorpd	0x7959(%rip),%xmm3
  407517:	66 44 0f 28 f8              	(move)  	movapd	%xmm0,%xmm15
  40751c:	f2 44 0f 59 b8 f0 50 00 00  	(arith) 	mulsd	0x50f0(%rax),%xmm15
  407525:	f2 41 0f 5c df              	(arith) 	subsd	%xmm15,%xmm3
  40752a:	f2 0f 11 9a c0 a3 00 00     	(move)  	movsd	%xmm3,0xa3c0(%rdx)
/home/jcsalinas/Documents/pruebas/inst_estimation_module/BT/x_solve.f:150
  407532:	66 0f 28 d9                 	(move)  	movapd	%xmm1,%xmm3
  407536:	f2 0f 59 98 a0 00 00 00     	(arith) 	mulsd	0xa0(%rax),%xmm3
  40753e:	66 0f 57 1d 2a 79 00 00     	(logic) 	xorpd	0x792a(%rip),%xmm3
  407546:	66 44 0f 28 f8              	(move)  	movapd	%xmm0,%xmm15
  40754b:	f2 44 0f 59 b8 18 51 00 00  	(arith) 	mulsd	0x5118(%rax),%xmm15
  407554:	f2 41 0f 5c df              	(arith) 	subsd	%xmm15,%xmm3
  407559:	f2 0f 11 9a e8 a3 00 00     	(move)  	movsd	%xmm3,0xa3e8(%rdx)
/home/jcsalinas/Documents/pruebas/inst_estimation_module/BT/x_solve.f:153
  407561:	66 0f 28 d9                 	(move)  	movapd	%xmm1,%xmm3
  407565:	f2 0f 59 58 08              	(arith) 	mulsd	0x8(%rax),%xmm3
  40756a:	66 0f 57 1d fe 78 00 00     	(logic) 	xorpd	0x78fe(%rip),%xmm3
  407572:	66 44 0f 28 f8              	(move)  	movapd	%xmm0,%xmm15
  407577:	f2 44 0f 59 b8 80 50 00 00  	(arith) 	mulsd	0x5080(%rax),%xmm15
  407580:	f2 41 0f 5c df              	(arith) 	subsd	%xmm15,%xmm3
  407585:	f2 0f 11 9a 50 a3 00 00     	(move)  	movsd	%xmm3,0xa350(%rdx)
/home/jcsalinas/Documents/pruebas/inst_estimation_module/BT/x_solve.f:156
  40758d:	66 0f 28 d9                 	(move)  	movapd	%xmm1,%xmm3
  407591:	f2 0f 59 58 30              	(arith) 	mulsd	0x30(%rax),%xmm3
  407596:	66 0f 57 1d d2 78 00 00     	(logic) 	xorpd	0x78d2(%rip),%xmm3
  40759e:	66 44 0f 28 f8              	(move)  	movapd	%xmm0,%xmm15
  4075a3:	f2 44 0f 59 b8 a8 50 00 00  	(arith) 	mulsd	0x50a8(%rax),%xmm15
  4075ac:	f2 41 0f 5c df              	(arith) 	subsd	%xmm15,%xmm3
  4075b1:	f2 41 0f 5c d8              	(arith) 	subsd	%xmm8,%xmm3
  4075b6:	f2 0f 11 9a 78 a3 00 00     	(move)  	movsd	%xmm3,0xa378(%rdx)
/home/jcsalinas/Documents/pruebas/inst_estimation_module/BT/x_solve.f:158
  4075be:	66 0f 28 d9                 	(move)  	movapd	%xmm1,%xmm3
  4075c2:	f2 0f 59 58 58              	(arith) 	mulsd	0x58(%rax),%xmm3
  4075c7:	66 0f 57 1d a1 78 00 00     	(logic) 	xorpd	0x78a1(%rip),%xmm3
  4075cf:	66 44 0f 28 f8              	(move)  	movapd	%xmm0,%xmm15
  4075d4:	f2 44 0f 59 b8 d0 50 00 00  	(arith) 	mulsd	0x50d0(%rax),%xmm15
  4075dd:	f2 41 0f 5c df              	(arith) 	subsd	%xmm15,%xmm3
  4075e2:	f2 0f 11 9a a0 a3 00 00     	(move)  	movsd	%xmm3,0xa3a0(%rdx)
/home/jcsalinas/Documents/pruebas/inst_estimation_module/BT/x_solve.f:160
  4075ea:	66 0f 28 d9                 	(move)  	movapd	%xmm1,%xmm3
  4075ee:	f2 0f 59 98 80 00 00 00     	(arith) 	mulsd	0x80(%rax),%xmm3
  4075f6:	66 0f 57 1d 72 78 00 00     	(logic) 	xorpd	0x7872(%rip),%xmm3
  4075fe:	66 44 0f 28 f8              	(move)  	movapd	%xmm0,%xmm15
  407603:	f2 44 0f 59 b8 f8 50 00 00  	(arith) 	mulsd	0x50f8(%rax),%xmm15
  40760c:	f2 41 0f 5c df              	(arith) 	subsd	%xmm15,%xmm3
  407611:	f2 0f 11 9a c8 a3 00 00     	(move)  	movsd	%xmm3,0xa3c8(%rdx)
/home/jcsalinas/Documents/pruebas/inst_estimation_module/BT/x_solve.f:162
  407619:	66 0f 28 d9                 	(move)  	movapd	%xmm1,%xmm3
  40761d:	f2 0f 59 98 a8 00 00 00     	(arith) 	mulsd	0xa8(%rax),%xmm3
  407625:	66 0f 57 1d 43 78 00 00     	(logic) 	xorpd	0x7843(%rip),%xmm3
  40762d:	66 44 0f 28 f8              	(move)  	movapd	%xmm0,%xmm15
  407632:	f2 44 0f 59 b8 20 51 00 00  	(arith) 	mulsd	0x5120(%rax),%xmm15
  40763b:	f2 41 0f 5c df              	(arith) 	subsd	%xmm15,%xmm3
  407640:	f2 0f 11 9a f0 a3 00 00     	(move)  	movsd	%xmm3,0xa3f0(%rdx)
/home/jcsalinas/Documents/pruebas/inst_estimation_module/BT/x_solve.f:165
  407648:	66 0f 28 d9                 	(move)  	movapd	%xmm1,%xmm3
  40764c:	f2 0f 59 58 10              	(arith) 	mulsd	0x10(%rax),%xmm3
  407651:	66 0f 57 1d 17 78 00 00     	(logic) 	xorpd	0x7817(%rip),%xmm3
  407659:	66 44 0f 28 f8              	(move)  	movapd	%xmm0,%xmm15
  40765e:	f2 44 0f 59 b8 88 50 00 00  	(arith) 	mulsd	0x5088(%rax),%xmm15
  407667:	f2 41 0f 5c df              	(arith) 	subsd	%xmm15,%xmm3
  40766c:	f2 0f 11 9a 58 a3 00 00     	(move)  	movsd	%xmm3,0xa358(%rdx)
/home/jcsalinas/Documents/pruebas/inst_estimation_module/BT/x_solve.f:167
  407674:	66 0f 28 d9                 	(move)  	movapd	%xmm1,%xmm3
  407678:	f2 0f 59 58 38              	(arith) 	mulsd	0x38(%rax),%xmm3
  40767d:	66 0f 57 1d eb 77 00 00     	(logic) 	xorpd	0x77eb(%rip),%xmm3
  407685:	66 44 0f 28 f8              	(move)  	movapd	%xmm0,%xmm15
  40768a:	f2 44 0f 59 b8 b0 50 00 00  	(arith) 	mulsd	0x50b0(%rax),%xmm15
  407693:	f2 41 0f 5c df              	(arith) 	subsd	%xmm15,%xmm3
  407698:	f2 0f 11 9a 80 a3 00 00     	(move)  	movsd	%xmm3,0xa380(%rdx)
/home/jcsalinas/Documents/pruebas/inst_estimation_module/BT/x_solve.f:170
  4076a0:	66 0f 28 d9                 	(move)  	movapd	%xmm1,%xmm3
  4076a4:	f2 0f 59 58 60              	(arith) 	mulsd	0x60(%rax),%xmm3
  4076a9:	66 0f 57 1d bf 77 00 00     	(logic) 	xorpd	0x77bf(%rip),%xmm3
  4076b1:	66 44 0f 28 f8              	(move)  	movapd	%xmm0,%xmm15
  4076b6:	f2 44 0f 59 b8 d8 50 00 00  	(arith) 	mulsd	0x50d8(%rax),%xmm15
  4076bf:	f2 41 0f 5c df              	(arith) 	subsd	%xmm15,%xmm3
  4076c4:	f2 0f 5c df                 	(arith) 	subsd	%xmm7,%xmm3
  4076c8:	f2 0f 11 9a a8 a3 00 00     	(move)  	movsd	%xmm3,0xa3a8(%rdx)
/home/jcsalinas/Documents/pruebas/inst_estimation_module/BT/x_solve.f:172
  4076d0:	66 0f 28 d9                 	(move)  	movapd	%xmm1,%xmm3
  4076d4:	f2 0f 59 98 88 00 00 00     	(arith) 	mulsd	0x88(%rax),%xmm3
  4076dc:	66 0f 57 1d 8c 77 00 00     	(logic) 	xorpd	0x778c(%rip),%xmm3
  4076e4:	66 44 0f 28 f8              	(move)  	movapd	%xmm0,%xmm15
  4076e9:	f2 44 0f 59 b8 00 51 00 00  	(arith) 	mulsd	0x5100(%rax),%xmm15
  4076f2:	f2 41 0f 5c df              	(arith) 	subsd	%xmm15,%xmm3
  4076f7:	f2 0f 11 9a d0 a3 00 00     	(move)  	movsd	%xmm3,0xa3d0(%rdx)
/home/jcsalinas/Documents/pruebas/inst_estimation_module/BT/x_solve.f:174
  4076ff:	66 0f 28 d9                 	(move)  	movapd	%xmm1,%xmm3
  407703:	f2 0f 59 98 b0 00 00 00     	(arith) 	mulsd	0xb0(%rax),%xmm3
  40770b:	66 0f 57 1d 5d 77 00 00     	(logic) 	xorpd	0x775d(%rip),%xmm3
  407713:	66 44 0f 28 f8              	(move)  	movapd	%xmm0,%xmm15
  407718:	f2 44 0f 59 b8 28 51 00 00  	(arith) 	mulsd	0x5128(%rax),%xmm15
  407721:	f2 41 0f 5c df              	(arith) 	subsd	%xmm15,%xmm3
  407726:	f2 0f 11 9a f8 a3 00 00     	(move)  	movsd	%xmm3,0xa3f8(%rdx)
/home/jcsalinas/Documents/pruebas/inst_estimation_module/BT/x_solve.f:177
  40772e:	66 0f 28 d9                 	(move)  	movapd	%xmm1,%xmm3
  407732:	f2 0f 59 58 18              	(arith) 	mulsd	0x18(%rax),%xmm3
  407737:	66 0f 57 1d 31 77 00 00     	(logic) 	xorpd	0x7731(%rip),%xmm3
  40773f:	66 44 0f 28 f8              	(move)  	movapd	%xmm0,%xmm15
  407744:	f2 44 0f 59 b8 90 50 00 00  	(arith) 	mulsd	0x5090(%rax),%xmm15
  40774d:	f2 41 0f 5c df              	(arith) 	subsd	%xmm15,%xmm3
  407752:	f2 0f 11 9a 60 a3 00 00     	(move)  	movsd	%xmm3,0xa360(%rdx)
/home/jcsalinas/Documents/pruebas/inst_estimation_module/BT/x_solve.f:179
  40775a:	66 0f 28 d9                 	(move)  	movapd	%xmm1,%xmm3
  40775e:	f2 0f 59 58 40              	(arith) 	mulsd	0x40(%rax),%xmm3
  407763:	66 0f 57 1d 05 77 00 00     	(logic) 	xorpd	0x7705(%rip),%xmm3
  40776b:	66 44 0f 28 f8              	(move)  	movapd	%xmm0,%xmm15
  407770:	f2 44 0f 59 b8 b8 50 00 00  	(arith) 	mulsd	0x50b8(%rax),%xmm15
  407779:	f2 41 0f 5c df              	(arith) 	subsd	%xmm15,%xmm3
  40777e:	f2 0f 11 9a 88 a3 00 00     	(move)  	movsd	%xmm3,0xa388(%rdx)
/home/jcsalinas/Documents/pruebas/inst_estimation_module/BT/x_solve.f:181
  407786:	66 0f 28 d9                 	(move)  	movapd	%xmm1,%xmm3
  40778a:	f2 0f 59 58 68              	(arith) 	mulsd	0x68(%rax),%xmm3
  40778f:	66 0f 57 1d d9 76 00 00     	(logic) 	xorpd	0x76d9(%rip),%xmm3
  407797:	66 44 0f 28 f8              	(move)  	movapd	%xmm0,%xmm15
  40779c:	f2 44 0f 59 b8 e0 50 00 00  	(arith) 	mulsd	0x50e0(%rax),%xmm15
  4077a5:	f2 41 0f 5c df              	(arith) 	subsd	%xmm15,%xmm3
  4077aa:	f2 0f 11 9a b0 a3 00 00     	(move)  	movsd	%xmm3,0xa3b0(%rdx)
/home/jcsalinas/Documents/pruebas/inst_estimation_module/BT/x_solve.f:184
  4077b2:	66 0f 28 d9                 	(move)  	movapd	%xmm1,%xmm3
  4077b6:	f2 0f 59 98 90 00 00 00     	(arith) 	mulsd	0x90(%rax),%xmm3
  4077be:	66 0f 57 1d aa 76 00 00     	(logic) 	xorpd	0x76aa(%rip),%xmm3
  4077c6:	66 44 0f 28 f8              	(move)  	movapd	%xmm0,%xmm15
  4077cb:	f2 44 0f 59 b8 08 51 00 00  	(arith) 	mulsd	0x5108(%rax),%xmm15
  4077d4:	f2 41 0f 5c df              	(arith) 	subsd	%xmm15,%xmm3
  4077d9:	f2 0f 5c de                 	(arith) 	subsd	%xmm6,%xmm3
  4077dd:	f2 0f 11 9a d8 a3 00 00     	(move)  	movsd	%xmm3,0xa3d8(%rdx)
/home/jcsalinas/Documents/pruebas/inst_estimation_module/BT/x_solve.f:186
  4077e5:	66 0f 28 d9                 	(move)  	movapd	%xmm1,%xmm3
  4077e9:	f2 0f 59 98 b8 00 00 00     	(arith) 	mulsd	0xb8(%rax),%xmm3
  4077f1:	66 0f 57 1d 77 76 00 00     	(logic) 	xorpd	0x7677(%rip),%xmm3
  4077f9:	66 44 0f 28 f8              	(move)  	movapd	%xmm0,%xmm15
  4077fe:	f2 44 0f 59 b8 30 51 00 00  	(arith) 	mulsd	0x5130(%rax),%xmm15
  407807:	f2 41 0f 5c df              	(arith) 	subsd	%xmm15,%xmm3
  40780c:	f2 0f 11 9a 00 a4 00 00     	(move)  	movsd	%xmm3,0xa400(%rdx)
/home/jcsalinas/Documents/pruebas/inst_estimation_module/BT/x_solve.f:189
  407814:	66 0f 28 d9                 	(move)  	movapd	%xmm1,%xmm3
  407818:	f2 0f 59 58 20              	(arith) 	mulsd	0x20(%rax),%xmm3
  40781d:	66 0f 57 1d 4b 76 00 00     	(logic) 	xorpd	0x764b(%rip),%xmm3
  407825:	66 44 0f 28 f8              	(move)  	movapd	%xmm0,%xmm15
  40782a:	f2 44 0f 59 b8 98 50 00 00  	(arith) 	mulsd	0x5098(%rax),%xmm15
  407833:	f2 41 0f 5c df              	(arith) 	subsd	%xmm15,%xmm3
  407838:	f2 0f 11 9a 68 a3 00 00     	(move)  	movsd	%xmm3,0xa368(%rdx)
/home/jcsalinas/Documents/pruebas/inst_estimation_module/BT/x_solve.f:191
  407840:	66 0f 28 d9                 	(move)  	movapd	%xmm1,%xmm3
  407844:	f2 0f 59 58 48              	(arith) 	mulsd	0x48(%rax),%xmm3
  407849:	66 0f 57 1d 1f 76 00 00     	(logic) 	xorpd	0x761f(%rip),%xmm3
  407851:	66 44 0f 28 f8              	(move)  	movapd	%xmm0,%xmm15
  407856:	f2 44 0f 59 b8 c0 50 00 00  	(arith) 	mulsd	0x50c0(%rax),%xmm15
  40785f:	f2 41 0f 5c df              	(arith) 	subsd	%xmm15,%xmm3
  407864:	f2 0f 11 9a 90 a3 00 00     	(move)  	movsd	%xmm3,0xa390(%rdx)
/home/jcsalinas/Documents/pruebas/inst_estimation_module/BT/x_solve.f:193
  40786c:	66 0f 28 d9                 	(move)  	movapd	%xmm1,%xmm3
  407870:	f2 0f 59 58 70              	(arith) 	mulsd	0x70(%rax),%xmm3
  407875:	66 0f 57 1d f3 75 00 00     	(logic) 	xorpd	0x75f3(%rip),%xmm3
  40787d:	66 44 0f 28 f8              	(move)  	movapd	%xmm0,%xmm15
  407882:	f2 44 0f 59 b8 e8 50 00 00  	(arith) 	mulsd	0x50e8(%rax),%xmm15
  40788b:	f2 41 0f 5c df              	(arith) 	subsd	%xmm15,%xmm3
  407890:	f2 0f 11 9a b8 a3 00 00     	(move)  	movsd	%xmm3,0xa3b8(%rdx)
/home/jcsalinas/Documents/pruebas/inst_estimation_module/BT/x_solve.f:195
  407898:	66 0f 28 d9                 	(move)  	movapd	%xmm1,%xmm3
  40789c:	f2 0f 59 98 98 00 00 00     	(arith) 	mulsd	0x98(%rax),%xmm3
  4078a4:	66 0f 57 1d c4 75 00 00     	(logic) 	xorpd	0x75c4(%rip),%xmm3
  4078ac:	66 44 0f 28 f8              	(move)  	movapd	%xmm0,%xmm15
  4078b1:	f2 44 0f 59 b8 10 51 00 00  	(arith) 	mulsd	0x5110(%rax),%xmm15
  4078ba:	f2 41 0f 5c df              	(arith) 	subsd	%xmm15,%xmm3
  4078bf:	f2 0f 11 9a e0 a3 00 00     	(move)  	movsd	%xmm3,0xa3e0(%rdx)
/home/jcsalinas/Documents/pruebas/inst_estimation_module/BT/x_solve.f:198
  4078c7:	66 0f 28 d9                 	(move)  	movapd	%xmm1,%xmm3
  4078cb:	f2 0f 59 98 c0 00 00 00     	(arith) 	mulsd	0xc0(%rax),%xmm3
  4078d3:	66 0f 57 1d 95 75 00 00     	(logic) 	xorpd	0x7595(%rip),%xmm3
  4078db:	66 44 0f 28 f8              	(move)  	movapd	%xmm0,%xmm15
  4078e0:	f2 44 0f 59 b8 38 51 00 00  	(arith) 	mulsd	0x5138(%rax),%xmm15
  4078e9:	f2 41 0f 5c df              	(arith) 	subsd	%xmm15,%xmm3
  4078ee:	f2 0f 5c dd                 	(arith) 	subsd	%xmm5,%xmm3
  4078f2:	f2 0f 11 9a 08 a4 00 00     	(move)  	movsd	%xmm3,0xa408(%rdx)
/home/jcsalinas/Documents/pruebas/inst_estimation_module/BT/x_solve.f:202
  4078fa:	66 0f 28 da                 	(move)  	movapd	%xmm2,%xmm3
  4078fe:	f2 0f 59 98 40 51 00 00     	(arith) 	mulsd	0x5140(%rax),%xmm3
  407906:	f2 0f 58 dc                 	(arith) 	addsd	%xmm4,%xmm3
  40790a:	f2 41 0f 58 de              	(arith) 	addsd	%xmm14,%xmm3
  40790f:	f2 0f 11 9a 10 a4 00 00     	(move)  	movsd	%xmm3,0xa410(%rdx)
/home/jcsalinas/Documents/pruebas/inst_estimation_module/BT/x_solve.f:203
  407917:	66 0f 28 da                 	(move)  	movapd	%xmm2,%xmm3
  40791b:	f2 0f 59 98 68 51 00 00     	(arith) 	mulsd	0x5168(%rax),%xmm3
  407923:	f2 0f 11 9a 38 a4 00 00     	(move)  	movsd	%xmm3,0xa438(%rdx)
/home/jcsalinas/Documents/pruebas/inst_estimation_module/BT/x_solve.f:204
  40792b:	66 0f 28 da                 	(move)  	movapd	%xmm2,%xmm3
  40792f:	f2 0f 59 98 90 51 00 00     	(arith) 	mulsd	0x5190(%rax),%xmm3
  407937:	f2 0f 11 9a 60 a4 00 00     	(move)  	movsd	%xmm3,0xa460(%rdx)
/home/jcsalinas/Documents/pruebas/inst_estimation_module/BT/x_solve.f:205
  40793f:	66 0f 28 da                 	(move)  	movapd	%xmm2,%xmm3
  407943:	f2 0f 59 98 b8 51 00 00     	(arith) 	mulsd	0x51b8(%rax),%xmm3
  40794b:	f2 0f 11 9a 88 a4 00 00     	(move)  	movsd	%xmm3,0xa488(%rdx)
/home/jcsalinas/Documents/pruebas/inst_estimation_module/BT/x_solve.f:206
  407953:	66 0f 28 da                 	(move)  	movapd	%xmm2,%xmm3
  407957:	f2 0f 59 98 e0 51 00 00     	(arith) 	mulsd	0x51e0(%rax),%xmm3
  40795f:	f2 0f 11 9a b0 a4 00 00     	(move)  	movsd	%xmm3,0xa4b0(%rdx)
/home/jcsalinas/Documents/pruebas/inst_estimation_module/BT/x_solve.f:208
  407967:	66 0f 28 da                 	(move)  	movapd	%xmm2,%xmm3
  40796b:	f2 0f 59 98 48 51 00 00     	(arith) 	mulsd	0x5148(%rax),%xmm3
  407973:	f2 0f 11 9a 18 a4 00 00     	(move)  	movsd	%xmm3,0xa418(%rdx)
/home/jcsalinas/Documents/pruebas/inst_estimation_module/BT/x_solve.f:211
  40797b:	66 0f 28 da                 	(move)  	movapd	%xmm2,%xmm3
  40797f:	f2 0f 59 98 70 51 00 00     	(arith) 	mulsd	0x5170(%rax),%xmm3
  407987:	f2 0f 58 dc                 	(arith) 	addsd	%xmm4,%xmm3
  40798b:	f2 41 0f 58 dd              	(arith) 	addsd	%xmm13,%xmm3
  407990:	f2 0f 11 9a 40 a4 00 00     	(move)  	movsd	%xmm3,0xa440(%rdx)
/home/jcsalinas/Documents/pruebas/inst_estimation_module/BT/x_solve.f:212
  407998:	66 0f 28 da                 	(move)  	movapd	%xmm2,%xmm3
  40799c:	f2 0f 59 98 98 51 00 00     	(arith) 	mulsd	0x5198(%rax),%xmm3
  4079a4:	f2 0f 11 9a 68 a4 00 00     	(move)  	movsd	%xmm3,0xa468(%rdx)
/home/jcsalinas/Documents/pruebas/inst_estimation_module/BT/x_solve.f:213
  4079ac:	66 0f 28 da                 	(move)  	movapd	%xmm2,%xmm3
  4079b0:	f2 0f 59 98 c0 51 00 00     	(arith) 	mulsd	0x51c0(%rax),%xmm3
  4079b8:	f2 0f 11 9a 90 a4 00 00     	(move)  	movsd	%xmm3,0xa490(%rdx)
/home/jcsalinas/Documents/pruebas/inst_estimation_module/BT/x_solve.f:214
  4079c0:	66 0f 28 da                 	(move)  	movapd	%xmm2,%xmm3
  4079c4:	f2 0f 59 98 e8 51 00 00     	(arith) 	mulsd	0x51e8(%rax),%xmm3
  4079cc:	f2 0f 11 9a b8 a4 00 00     	(move)  	movsd	%xmm3,0xa4b8(%rdx)
/home/jcsalinas/Documents/pruebas/inst_estimation_module/BT/x_solve.f:216
  4079d4:	66 0f 28 da                 	(move)  	movapd	%xmm2,%xmm3
  4079d8:	f2 0f 59 98 50 51 00 00     	(arith) 	mulsd	0x5150(%rax),%xmm3
  4079e0:	f2 0f 11 9a 20 a4 00 00     	(move)  	movsd	%xmm3,0xa420(%rdx)
/home/jcsalinas/Documents/pruebas/inst_estimation_module/BT/x_solve.f:217
  4079e8:	66 0f 28 da                 	(move)  	movapd	%xmm2,%xmm3
  4079ec:	f2 0f 59 98 78 51 00 00     	(arith) 	mulsd	0x5178(%rax),%xmm3
  4079f4:	f2 0f 11 9a 48 a4 00 00     	(move)  	movsd	%xmm3,0xa448(%rdx)
/home/jcsalinas/Documents/pruebas/inst_estimation_module/BT/x_solve.f:220
  4079fc:	66 0f 28 da                 	(move)  	movapd	%xmm2,%xmm3
  407a00:	f2 0f 59 98 a0 51 00 00     	(arith) 	mulsd	0x51a0(%rax),%xmm3
  407a08:	f2 0f 58 dc                 	(arith) 	addsd	%xmm4,%xmm3
  407a0c:	f2 41 0f 58 dc              	(arith) 	addsd	%xmm12,%xmm3
  407a11:	f2 0f 11 9a 70 a4 00 00     	(move)  	movsd	%xmm3,0xa470(%rdx)
/home/jcsalinas/Documents/pruebas/inst_estimation_module/BT/x_solve.f:221
  407a19:	66 0f 28 da                 	(move)  	movapd	%xmm2,%xmm3
  407a1d:	f2 0f 59 98 c8 51 00 00     	(arith) 	mulsd	0x51c8(%rax),%xmm3
  407a25:	f2 0f 11 9a 98 a4 00 00     	(move)  	movsd	%xmm3,0xa498(%rdx)
/home/jcsalinas/Documents/pruebas/inst_estimation_module/BT/x_solve.f:222
  407a2d:	66 0f 28 da                 	(move)  	movapd	%xmm2,%xmm3
  407a31:	f2 0f 59 98 f0 51 00 00     	(arith) 	mulsd	0x51f0(%rax),%xmm3
  407a39:	f2 0f 11 9a c0 a4 00 00     	(move)  	movsd	%xmm3,0xa4c0(%rdx)
/home/jcsalinas/Documents/pruebas/inst_estimation_module/BT/x_solve.f:224
  407a41:	66 0f 28 da                 	(move)  	movapd	%xmm2,%xmm3
  407a45:	f2 0f 59 98 58 51 00 00     	(arith) 	mulsd	0x5158(%rax),%xmm3
  407a4d:	f2 0f 11 9a 28 a4 00 00     	(move)  	movsd	%xmm3,0xa428(%rdx)
/home/jcsalinas/Documents/pruebas/inst_estimation_module/BT/x_solve.f:225
  407a55:	66 0f 28 da                 	(move)  	movapd	%xmm2,%xmm3
  407a59:	f2 0f 59 98 80 51 00 00     	(arith) 	mulsd	0x5180(%rax),%xmm3
  407a61:	f2 0f 11 9a 50 a4 00 00     	(move)  	movsd	%xmm3,0xa450(%rdx)
/home/jcsalinas/Documents/pruebas/inst_estimation_module/BT/x_solve.f:226
  407a69:	66 0f 28 da                 	(move)  	movapd	%xmm2,%xmm3
  407a6d:	f2 0f 59 98 a8 51 00 00     	(arith) 	mulsd	0x51a8(%rax),%xmm3
  407a75:	f2 0f 11 9a 78 a4 00 00     	(move)  	movsd	%xmm3,0xa478(%rdx)
/home/jcsalinas/Documents/pruebas/inst_estimation_module/BT/x_solve.f:229
  407a7d:	66 0f 28 da                 	(move)  	movapd	%xmm2,%xmm3
  407a81:	f2 0f 59 98 d0 51 00 00     	(arith) 	mulsd	0x51d0(%rax),%xmm3
  407a89:	f2 0f 58 dc                 	(arith) 	addsd	%xmm4,%xmm3
  407a8d:	f2 41 0f 58 db              	(arith) 	addsd	%xmm11,%xmm3
  407a92:	f2 0f 11 9a a0 a4 00 00     	(move)  	movsd	%xmm3,0xa4a0(%rdx)
/home/jcsalinas/Documents/pruebas/inst_estimation_module/BT/x_solve.f:230
  407a9a:	66 0f 28 da                 	(move)  	movapd	%xmm2,%xmm3
  407a9e:	f2 0f 59 98 f8 51 00 00     	(arith) 	mulsd	0x51f8(%rax),%xmm3
  407aa6:	f2 0f 11 9a c8 a4 00 00     	(move)  	movsd	%xmm3,0xa4c8(%rdx)
/home/jcsalinas/Documents/pruebas/inst_estimation_module/BT/x_solve.f:232
  407aae:	66 0f 28 da                 	(move)  	movapd	%xmm2,%xmm3
  407ab2:	f2 0f 59 98 60 51 00 00     	(arith) 	mulsd	0x5160(%rax),%xmm3
  407aba:	f2 0f 11 9a 30 a4 00 00     	(move)  	movsd	%xmm3,0xa430(%rdx)
/home/jcsalinas/Documents/pruebas/inst_estimation_module/BT/x_solve.f:233
  407ac2:	66 0f 28 da                 	(move)  	movapd	%xmm2,%xmm3
  407ac6:	f2 0f 59 98 88 51 00 00     	(arith) 	mulsd	0x5188(%rax),%xmm3
  407ace:	f2 0f 11 9a 58 a4 00 00     	(move)  	movsd	%xmm3,0xa458(%rdx)
/home/jcsalinas/Documents/pruebas/inst_estimation_module/BT/x_solve.f:234
  407ad6:	66 0f 28 da                 	(move)  	movapd	%xmm2,%xmm3
  407ada:	f2 0f 59 98 b0 51 00 00     	(arith) 	mulsd	0x51b0(%rax),%xmm3
  407ae2:	f2 0f 11 9a 80 a4 00 00     	(move)  	movsd	%xmm3,0xa480(%rdx)
/home/jcsalinas/Documents/pruebas/inst_estimation_module/BT/x_solve.f:235
  407aea:	66 0f 28 da                 	(move)  	movapd	%xmm2,%xmm3
  407aee:	f2 0f 59 98 d8 51 00 00     	(arith) 	mulsd	0x51d8(%rax),%xmm3
  407af6:	f2 0f 11 9a a8 a4 00 00     	(move)  	movsd	%xmm3,0xa4a8(%rdx)
/home/jcsalinas/Documents/pruebas/inst_estimation_module/BT/x_solve.f:238
  407afe:	66 0f 28 da                 	(move)  	movapd	%xmm2,%xmm3
  407b02:	f2 0f 59 98 00 52 00 00     	(arith) 	mulsd	0x5200(%rax),%xmm3
  407b0a:	f2 0f 58 dc                 	(arith) 	addsd	%xmm4,%xmm3
  407b0e:	f2 41 0f 58 da              	(arith) 	addsd	%xmm10,%xmm3
  407b13:	f2 0f 11 9a d0 a4 00 00     	(move)  	movsd	%xmm3,0xa4d0(%rdx)
/home/jcsalinas/Documents/pruebas/inst_estimation_module/BT/x_solve.f:242
  407b1b:	83 c1 01                    	(arith) 	add	$0x1,%ecx
  407b1e:	66 0f 28 d9                 	(move)  	movapd	%xmm1,%xmm3
  407b22:	f2 0f 59 98 90 01 00 00     	(arith) 	mulsd	0x190(%rax),%xmm3
  407b2a:	66 44 0f 28 f8              	(move)  	movapd	%xmm0,%xmm15
  407b2f:	f2 44 0f 59 b8 08 52 00 00  	(arith) 	mulsd	0x5208(%rax),%xmm15
  407b38:	f2 41 0f 5c df              	(arith) 	subsd	%xmm15,%xmm3
  407b3d:	f2 41 0f 5c d9              	(arith) 	subsd	%xmm9,%xmm3
  407b42:	f2 0f 11 9a d8 a4 00 00     	(move)  	movsd	%xmm3,0xa4d8(%rdx)
/home/jcsalinas/Documents/pruebas/inst_estimation_module/BT/x_solve.f:244
  407b4a:	66 0f 28 d9                 	(move)  	movapd	%xmm1,%xmm3
  407b4e:	f2 0f 59 98 b8 01 00 00     	(arith) 	mulsd	0x1b8(%rax),%xmm3
  407b56:	66 44 0f 28 f8              	(move)  	movapd	%xmm0,%xmm15
  407b5b:	f2 44 0f 59 b8 30 52 00 00  	(arith) 	mulsd	0x5230(%rax),%xmm15
  407b64:	f2 41 0f 5c df              	(arith) 	subsd	%xmm15,%xmm3
  407b69:	f2 0f 11 9a 00 a5 00 00     	(move)  	movsd	%xmm3,0xa500(%rdx)
/home/jcsalinas/Documents/pruebas/inst_estimation_module/BT/x_solve.f:246
  407b71:	66 0f 28 d9                 	(move)  	movapd	%xmm1,%xmm3
  407b75:	f2 0f 59 98 e0 01 00 00     	(arith) 	mulsd	0x1e0(%rax),%xmm3
  407b7d:	66 44 0f 28 f8              	(move)  	movapd	%xmm0,%xmm15
  407b82:	f2 44 0f 59 b8 58 52 00 00  	(arith) 	mulsd	0x5258(%rax),%xmm15
  407b8b:	f2 41 0f 5c df              	(arith) 	subsd	%xmm15,%xmm3
  407b90:	f2 0f 11 9a 28 a5 00 00     	(move)  	movsd	%xmm3,0xa528(%rdx)
/home/jcsalinas/Documents/pruebas/inst_estimation_module/BT/x_solve.f:248
  407b98:	66 0f 28 d9                 	(move)  	movapd	%xmm1,%xmm3
  407b9c:	f2 0f 59 98 08 02 00 00     	(arith) 	mulsd	0x208(%rax),%xmm3
  407ba4:	66 44 0f 28 f8              	(move)  	movapd	%xmm0,%xmm15
  407ba9:	f2 44 0f 59 b8 80 52 00 00  	(arith) 	mulsd	0x5280(%rax),%xmm15
  407bb2:	f2 41 0f 5c df              	(arith) 	subsd	%xmm15,%xmm3
  407bb7:	f2 0f 11 9a 50 a5 00 00     	(move)  	movsd	%xmm3,0xa550(%rdx)
/home/jcsalinas/Documents/pruebas/inst_estimation_module/BT/x_solve.f:250
  407bbf:	66 0f 28 d9                 	(move)  	movapd	%xmm1,%xmm3
  407bc3:	f2 0f 59 98 30 02 00 00     	(arith) 	mulsd	0x230(%rax),%xmm3
  407bcb:	66 44 0f 28 f8              	(move)  	movapd	%xmm0,%xmm15
  407bd0:	f2 44 0f 59 b8 a8 52 00 00  	(arith) 	mulsd	0x52a8(%rax),%xmm15
  407bd9:	f2 41 0f 5c df              	(arith) 	subsd	%xmm15,%xmm3
  407bde:	f2 0f 11 9a 78 a5 00 00     	(move)  	movsd	%xmm3,0xa578(%rdx)
/home/jcsalinas/Documents/pruebas/inst_estimation_module/BT/x_solve.f:253
  407be6:	66 0f 28 d9                 	(move)  	movapd	%xmm1,%xmm3
  407bea:	f2 0f 59 98 98 01 00 00     	(arith) 	mulsd	0x198(%rax),%xmm3
  407bf2:	66 44 0f 28 f8              	(move)  	movapd	%xmm0,%xmm15
  407bf7:	f2 44 0f 59 b8 10 52 00 00  	(arith) 	mulsd	0x5210(%rax),%xmm15
  407c00:	f2 41 0f 5c df              	(arith) 	subsd	%xmm15,%xmm3
  407c05:	f2 0f 11 9a e0 a4 00 00     	(move)  	movsd	%xmm3,0xa4e0(%rdx)
/home/jcsalinas/Documents/pruebas/inst_estimation_module/BT/x_solve.f:256
  407c0d:	66 0f 28 d9                 	(move)  	movapd	%xmm1,%xmm3
  407c11:	f2 0f 59 98 c0 01 00 00     	(arith) 	mulsd	0x1c0(%rax),%xmm3
  407c19:	66 44 0f 28 f8              	(move)  	movapd	%xmm0,%xmm15
  407c1e:	f2 44 0f 59 b8 38 52 00 00  	(arith) 	mulsd	0x5238(%rax),%xmm15
  407c27:	f2 41 0f 5c df              	(arith) 	subsd	%xmm15,%xmm3
  407c2c:	f2 41 0f 5c d8              	(arith) 	subsd	%xmm8,%xmm3
  407c31:	f2 0f 11 9a 08 a5 00 00     	(move)  	movsd	%xmm3,0xa508(%rdx)
/home/jcsalinas/Documents/pruebas/inst_estimation_module/BT/x_solve.f:258
  407c39:	66 0f 28 d9                 	(move)  	movapd	%xmm1,%xmm3
  407c3d:	f2 0f 59 98 e8 01 00 00     	(arith) 	mulsd	0x1e8(%rax),%xmm3
  407c45:	66 44 0f 28 f8              	(move)  	movapd	%xmm0,%xmm15
  407c4a:	f2 44 0f 59 b8 60 52 00 00  	(arith) 	mulsd	0x5260(%rax),%xmm15
  407c53:	f2 41 0f 5c df              	(arith) 	subsd	%xmm15,%xmm3
  407c58:	f2 0f 11 9a 30 a5 00 00     	(move)  	movsd	%xmm3,0xa530(%rdx)
/home/jcsalinas/Documents/pruebas/inst_estimation_module/BT/x_solve.f:260
  407c60:	66 0f 28 d9                 	(move)  	movapd	%xmm1,%xmm3
  407c64:	f2 0f 59 98 10 02 00 00     	(arith) 	mulsd	0x210(%rax),%xmm3
  407c6c:	66 44 0f 28 f8              	(move)  	movapd	%xmm0,%xmm15
  407c71:	f2 44 0f 59 b8 88 52 00 00  	(arith) 	mulsd	0x5288(%rax),%xmm15
  407c7a:	f2 41 0f 5c df              	(arith) 	subsd	%xmm15,%xmm3
  407c7f:	f2 0f 11 9a 58 a5 00 00     	(move)  	movsd	%xmm3,0xa558(%rdx)
/home/jcsalinas/Documents/pruebas/inst_estimation_module/BT/x_solve.f:262
  407c87:	66 0f 28 d9                 	(move)  	movapd	%xmm1,%xmm3
  407c8b:	f2 0f 59 98 38 02 00 00     	(arith) 	mulsd	0x238(%rax),%xmm3
  407c93:	66 44 0f 28 f8              	(move)  	movapd	%xmm0,%xmm15
  407c98:	f2 44 0f 59 b8 b0 52 00 00  	(arith) 	mulsd	0x52b0(%rax),%xmm15
  407ca1:	f2 41 0f 5c df              	(arith) 	subsd	%xmm15,%xmm3
  407ca6:	f2 0f 11 9a 80 a5 00 00     	(move)  	movsd	%xmm3,0xa580(%rdx)
/home/jcsalinas/Documents/pruebas/inst_estimation_module/BT/x_solve.f:265
  407cae:	66 0f 28 d9                 	(move)  	movapd	%xmm1,%xmm3
  407cb2:	f2 0f 59 98 a0 01 00 00     	(arith) 	mulsd	0x1a0(%rax),%xmm3
  407cba:	66 44 0f 28 f8              	(move)  	movapd	%xmm0,%xmm15
  407cbf:	f2 44 0f 59 b8 18 52 00 00  	(arith) 	mulsd	0x5218(%rax),%xmm15
  407cc8:	f2 41 0f 5c df              	(arith) 	subsd	%xmm15,%xmm3
  407ccd:	f2 0f 11 9a e8 a4 00 00     	(move)  	movsd	%xmm3,0xa4e8(%rdx)
/home/jcsalinas/Documents/pruebas/inst_estimation_module/BT/x_solve.f:267
  407cd5:	66 0f 28 d9                 	(move)  	movapd	%xmm1,%xmm3
  407cd9:	f2 0f 59 98 c8 01 00 00     	(arith) 	mulsd	0x1c8(%rax),%xmm3
  407ce1:	66 44 0f 28 f8              	(move)  	movapd	%xmm0,%xmm15
  407ce6:	f2 44 0f 59 b8 40 52 00 00  	(arith) 	mulsd	0x5240(%rax),%xmm15
  407cef:	f2 41 0f 5c df              	(arith) 	subsd	%xmm15,%xmm3
  407cf4:	f2 0f 11 9a 10 a5 00 00     	(move)  	movsd	%xmm3,0xa510(%rdx)
/home/jcsalinas/Documents/pruebas/inst_estimation_module/BT/x_solve.f:270
  407cfc:	66 0f 28 d9                 	(move)  	movapd	%xmm1,%xmm3
  407d00:	f2 0f 59 98 f0 01 00 00     	(arith) 	mulsd	0x1f0(%rax),%xmm3
  407d08:	66 44 0f 28 f8              	(move)  	movapd	%xmm0,%xmm15
  407d0d:	f2 44 0f 59 b8 68 52 00 00  	(arith) 	mulsd	0x5268(%rax),%xmm15
  407d16:	f2 41 0f 5c df              	(arith) 	subsd	%xmm15,%xmm3
  407d1b:	f2 0f 5c df                 	(arith) 	subsd	%xmm7,%xmm3
  407d1f:	f2 0f 11 9a 38 a5 00 00     	(move)  	movsd	%xmm3,0xa538(%rdx)
/home/jcsalinas/Documents/pruebas/inst_estimation_module/BT/x_solve.f:272
  407d27:	66 0f 28 d9                 	(move)  	movapd	%xmm1,%xmm3
  407d2b:	f2 0f 59 98 18 02 00 00     	(arith) 	mulsd	0x218(%rax),%xmm3
  407d33:	66 44 0f 28 f8              	(move)  	movapd	%xmm0,%xmm15
  407d38:	f2 44 0f 59 b8 90 52 00 00  	(arith) 	mulsd	0x5290(%rax),%xmm15
  407d41:	f2 41 0f 5c df              	(arith) 	subsd	%xmm15,%xmm3
  407d46:	f2 0f 11 9a 60 a5 00 00     	(move)  	movsd	%xmm3,0xa560(%rdx)
/home/jcsalinas/Documents/pruebas/inst_estimation_module/BT/x_solve.f:274
  407d4e:	66 0f 28 d9                 	(move)  	movapd	%xmm1,%xmm3
  407d52:	f2 0f 59 98 40 02 00 00     	(arith) 	mulsd	0x240(%rax),%xmm3
  407d5a:	66 44 0f 28 f8              	(move)  	movapd	%xmm0,%xmm15
  407d5f:	f2 44 0f 59 b8 b8 52 00 00  	(arith) 	mulsd	0x52b8(%rax),%xmm15
  407d68:	f2 41 0f 5c df              	(arith) 	subsd	%xmm15,%xmm3
  407d6d:	f2 0f 11 9a 88 a5 00 00     	(move)  	movsd	%xmm3,0xa588(%rdx)
/home/jcsalinas/Documents/pruebas/inst_estimation_module/BT/x_solve.f:277
  407d75:	66 0f 28 d9                 	(move)  	movapd	%xmm1,%xmm3
  407d79:	f2 0f 59 98 a8 01 00 00     	(arith) 	mulsd	0x1a8(%rax),%xmm3
  407d81:	66 44 0f 28 f8              	(move)  	movapd	%xmm0,%xmm15
  407d86:	f2 44 0f 59 b8 20 52 00 00  	(arith) 	mulsd	0x5220(%rax),%xmm15
  407d8f:	f2 41 0f 5c df              	(arith) 	subsd	%xmm15,%xmm3
  407d94:	f2 0f 11 9a f0 a4 00 00     	(move)  	movsd	%xmm3,0xa4f0(%rdx)
/home/jcsalinas/Documents/pruebas/inst_estimation_module/BT/x_solve.f:279
  407d9c:	66 0f 28 d9                 	(move)  	movapd	%xmm1,%xmm3
  407da0:	f2 0f 59 98 d0 01 00 00     	(arith) 	mulsd	0x1d0(%rax),%xmm3
  407da8:	66 44 0f 28 f8              	(move)  	movapd	%xmm0,%xmm15
  407dad:	f2 44 0f 59 b8 48 52 00 00  	(arith) 	mulsd	0x5248(%rax),%xmm15
  407db6:	f2 41 0f 5c df              	(arith) 	subsd	%xmm15,%xmm3
  407dbb:	f2 0f 11 9a 18 a5 00 00     	(move)  	movsd	%xmm3,0xa518(%rdx)
/home/jcsalinas/Documents/pruebas/inst_estimation_module/BT/x_solve.f:281
  407dc3:	66 0f 28 d9                 	(move)  	movapd	%xmm1,%xmm3
  407dc7:	f2 0f 59 98 f8 01 00 00     	(arith) 	mulsd	0x1f8(%rax),%xmm3
  407dcf:	66 44 0f 28 f8              	(move)  	movapd	%xmm0,%xmm15
  407dd4:	f2 44 0f 59 b8 70 52 00 00  	(arith) 	mulsd	0x5270(%rax),%xmm15
  407ddd:	f2 41 0f 5c df              	(arith) 	subsd	%xmm15,%xmm3
  407de2:	f2 0f 11 9a 40 a5 00 00     	(move)  	movsd	%xmm3,0xa540(%rdx)
/home/jcsalinas/Documents/pruebas/inst_estimation_module/BT/x_solve.f:284
  407dea:	66 0f 28 d9                 	(move)  	movapd	%xmm1,%xmm3
  407dee:	f2 0f 59 98 20 02 00 00     	(arith) 	mulsd	0x220(%rax),%xmm3
  407df6:	66 44 0f 28 f8              	(move)  	movapd	%xmm0,%xmm15
  407dfb:	f2 44 0f 59 b8 98 52 00 00  	(arith) 	mulsd	0x5298(%rax),%xmm15
  407e04:	f2 41 0f 5c df              	(arith) 	subsd	%xmm15,%xmm3
  407e09:	f2 0f 5c de                 	(arith) 	subsd	%xmm6,%xmm3
  407e0d:	f2 0f 11 9a 68 a5 00 00     	(move)  	movsd	%xmm3,0xa568(%rdx)
/home/jcsalinas/Documents/pruebas/inst_estimation_module/BT/x_solve.f:286
  407e15:	66 0f 28 d9                 	(move)  	movapd	%xmm1,%xmm3
  407e19:	f2 0f 59 98 48 02 00 00     	(arith) 	mulsd	0x248(%rax),%xmm3
  407e21:	66 44 0f 28 f8              	(move)  	movapd	%xmm0,%xmm15
  407e26:	f2 44 0f 59 b8 c0 52 00 00  	(arith) 	mulsd	0x52c0(%rax),%xmm15
  407e2f:	f2 41 0f 5c df              	(arith) 	subsd	%xmm15,%xmm3
  407e34:	f2 0f 11 9a 90 a5 00 00     	(move)  	movsd	%xmm3,0xa590(%rdx)
/home/jcsalinas/Documents/pruebas/inst_estimation_module/BT/x_solve.f:289
  407e3c:	66 0f 28 d9                 	(move)  	movapd	%xmm1,%xmm3
  407e40:	f2 0f 59 98 b0 01 00 00     	(arith) 	mulsd	0x1b0(%rax),%xmm3
  407e48:	66 44 0f 28 f8              	(move)  	movapd	%xmm0,%xmm15
  407e4d:	f2 44 0f 59 b8 28 52 00 00  	(arith) 	mulsd	0x5228(%rax),%xmm15
  407e56:	f2 41 0f 5c df              	(arith) 	subsd	%xmm15,%xmm3
  407e5b:	f2 0f 11 9a f8 a4 00 00     	(move)  	movsd	%xmm3,0xa4f8(%rdx)
/home/jcsalinas/Documents/pruebas/inst_estimation_module/BT/x_solve.f:291
  407e63:	66 0f 28 d9                 	(move)  	movapd	%xmm1,%xmm3
  407e67:	f2 0f 59 98 d8 01 00 00     	(arith) 	mulsd	0x1d8(%rax),%xmm3
  407e6f:	66 44 0f 28 f8              	(move)  	movapd	%xmm0,%xmm15
  407e74:	f2 44 0f 59 b8 50 52 00 00  	(arith) 	mulsd	0x5250(%rax),%xmm15
  407e7d:	f2 41 0f 5c df              	(arith) 	subsd	%xmm15,%xmm3
  407e82:	f2 0f 11 9a 20 a5 00 00     	(move)  	movsd	%xmm3,0xa520(%rdx)
/home/jcsalinas/Documents/pruebas/inst_estimation_module/BT/x_solve.f:293
  407e8a:	66 0f 28 d9                 	(move)  	movapd	%xmm1,%xmm3
  407e8e:	f2 0f 59 98 00 02 00 00     	(arith) 	mulsd	0x200(%rax),%xmm3
  407e96:	66 44 0f 28 f8              	(move)  	movapd	%xmm0,%xmm15
  407e9b:	f2 44 0f 59 b8 78 52 00 00  	(arith) 	mulsd	0x5278(%rax),%xmm15
  407ea4:	f2 41 0f 5c df              	(arith) 	subsd	%xmm15,%xmm3
  407ea9:	f2 0f 11 9a 48 a5 00 00     	(move)  	movsd	%xmm3,0xa548(%rdx)
/home/jcsalinas/Documents/pruebas/inst_estimation_module/BT/x_solve.f:295
  407eb1:	66 0f 28 d9                 	(move)  	movapd	%xmm1,%xmm3
  407eb5:	f2 0f 59 98 28 02 00 00     	(arith) 	mulsd	0x228(%rax),%xmm3
  407ebd:	66 44 0f 28 f8              	(move)  	movapd	%xmm0,%xmm15
  407ec2:	f2 44 0f 59 b8 a0 52 00 00  	(arith) 	mulsd	0x52a0(%rax),%xmm15
  407ecb:	f2 41 0f 5c df              	(arith) 	subsd	%xmm15,%xmm3
  407ed0:	f2 0f 11 9a 70 a5 00 00     	(move)  	movsd	%xmm3,0xa570(%rdx)
/home/jcsalinas/Documents/pruebas/inst_estimation_module/BT/x_solve.f:298
  407ed8:	66 0f 28 d9                 	(move)  	movapd	%xmm1,%xmm3
  407edc:	f2 0f 59 98 50 02 00 00     	(arith) 	mulsd	0x250(%rax),%xmm3
  407ee4:	66 44 0f 28 f8              	(move)  	movapd	%xmm0,%xmm15
  407ee9:	f2 44 0f 59 b8 c8 52 00 00  	(arith) 	mulsd	0x52c8(%rax),%xmm15
  407ef2:	f2 41 0f 5c df              	(arith) 	subsd	%xmm15,%xmm3
  407ef7:	f2 0f 5c dd                 	(arith) 	subsd	%xmm5,%xmm3
  407efb:	f2 0f 11 9a 98 a5 00 00     	(move)  	movsd	%xmm3,0xa598(%rdx)
  407f03:	48 05 c8 00 00 00           	(arith) 	add	$0xc8,%rax
  407f09:	48 81 c2 58 02 00 00        	(arith) 	add	$0x258,%rdx
/home/jcsalinas/Documents/pruebas/inst_estimation_module/BT/x_solve.f:135
  407f10:	39 ce                       	(arith) 	cmp	%ecx,%esi
  407f12:	0f 85 66 f5 ff ff           	(control)	jne	40747e <x_solve_+0x6aa>	; ↰ label 576 (loop 136)
; ------- Loop 136 exit
577:	
  407f18:	f2 0f 11 05 d8 4b f8 0a     	(move)  	movsd	%xmm0,0xaf84bd8(%rip)
  407f20:	f2 0f 11 0d d8 4b f8 0a     	(move)  	movsd	%xmm1,0xaf84bd8(%rip)
574:	
/home/jcsalinas/Documents/pruebas/inst_estimation_module/BT/x_solve.f:325
  407f28:	48 63 44 24 58              	(move)  	movsxd	0x58(%rsp),%rax
  407f2d:	48 89 c2                    	(move)  	mov	%rax,%rdx
  407f30:	48 c1 e2 08                 	(logic) 	sal	$0x8,%rdx
  407f34:	48 01 c2                    	(arith) 	add	%rax,%rdx
  407f37:	4c 8d 24 50                 	(arith) 	lea	(%rax,%rdx,2),%r12
  407f3b:	4c 03 64 24 50              	(arith) 	add	0x50(%rsp),%r12
  407f40:	4a 8d 14 e5 10 0a ad 05     	(arith) 	lea	0x5ad0a10(,%r12,8),%rdx
  407f48:	48 81 c2 00 16 61 00        	(arith) 	add	$0x611600,%rdx
  407f4f:	be 20 db 37 0b              	(move)  	mov	$0xb37db20,%esi
  407f54:	bf 58 da 37 0b              	(move)  	mov	$0xb37da58,%edi
  407f59:	b8 00 00 00 00              	(move)  	mov	$0,%eax
  407f5e:	e8 9f 22 00 00              	(control)	call	40a202 <binvcrhs_>	; ⇄ binvcrhs
579:	
/home/jcsalinas/Documents/pruebas/inst_estimation_module/BT/x_solve.f:331
  407f63:	8b 44 24 7c                 	(move)  	mov	0x7c(%rsp),%eax
  407f67:	89 44 24 18                 	(move)  	mov	%eax,0x18(%rsp)
  407f6b:	83 e8 01                    	(arith) 	sub	$0x1,%eax
  407f6e:	85 c0                       	(arith) 	test	%eax,%eax
  407f70:	0f 8e ba 00 00 00           	(control)	jle	408030 <x_solve_+0x125c>	; ↲ label 580
581:	
  407f76:	4a 8d 04 e5 10 0a ad 05     	(arith) 	lea	0x5ad0a10(,%r12,8),%rax
  407f7e:	48 05 00 16 61 00           	(arith) 	add	$0x611600,%rax
  407f84:	48 89 44 24 08              	(move)  	mov	%rax,0x8(%rsp)
  407f89:	b8 20 db 37 0b              	(move)  	mov	$0xb37db20,%eax
  407f8e:	bd 01 00 00 00              	(move)  	mov	$0x1,%ebp
  407f93:	4c 89 64 24 10              	(move)  	mov	%r12,0x10(%rsp)
  407f98:	49 89 c4                    	(move)  	mov	%rax,%r12
; ------- Loop 135 entry
582 (loop 135):	
/home/jcsalinas/Documents/pruebas/inst_estimation_module/BT/x_solve.f:337
  407f9b:	48 63 c5                    	(move)  	movsxd	%ebp,%rax
  407f9e:	48 8d 04 80                 	(arith) 	lea	(%rax,%rax,4),%rax
  407fa2:	48 8b 5c 24 10              	(move)  	mov	0x10(%rsp),%rbx
  407fa7:	48 8d 94 03 42 a1 b5 00     	(arith) 	lea	0xb5a142(%rbx,%rax,1),%rdx
  407faf:	4c 8d 34 d5 00 16 61 00     	(arith) 	lea	0x611600(,%rdx,8),%r14
  407fb7:	48 89 c3                    	(move)  	mov	%rax,%rbx
  407fba:	48 c1 e3 04                 	(logic) 	sal	$0x4,%rbx
  407fbe:	48 29 c3                    	(arith) 	sub	%rax,%rbx
  407fc1:	4c 8d 3c dd 90 d9 37 0b     	(arith) 	lea	0xb37d990(,%rbx,8),%r15
  407fc9:	4c 89 f2                    	(move)  	mov	%r14,%rdx
  407fcc:	48 8b 74 24 08              	(move)  	mov	0x8(%rsp),%rsi
  407fd1:	4c 89 ff                    	(move)  	mov	%r15,%rdi
  407fd4:	b8 00 00 00 00              	(move)  	mov	$0,%eax
  407fd9:	e8 4a 16 00 00              	(control)	call	409628 <matvec_sub_>	; ⇄ matvec_sub
584:	
/home/jcsalinas/Documents/pruebas/inst_estimation_module/BT/x_solve.f:344
  407fde:	4c 8d 2c dd 58 da 37 0b     	(arith) 	lea	0xb37da58(,%rbx,8),%r13
  407fe6:	4c 89 ea                    	(move)  	mov	%r13,%rdx
  407fe9:	4c 89 e6                    	(move)  	mov	%r12,%rsi
  407fec:	4c 89 ff                    	(move)  	mov	%r15,%rdi
  407fef:	b8 00 00 00 00              	(move)  	mov	$0,%eax
  407ff4:	e8 c3 17 00 00              	(control)	call	4097bc <matmul_sub_>	; ⇄ matmul_sub
586:	
/home/jcsalinas/Documents/pruebas/inst_estimation_module/BT/x_solve.f:353
  407ff9:	48 8d 34 dd 20 db 37 0b     	(arith) 	lea	0xb37db20(,%rbx,8),%rsi
  408001:	4c 89 f2                    	(move)  	mov	%r14,%rdx
  408004:	4c 89 ef                    	(move)  	mov	%r13,%rdi
  408007:	b8 00 00 00 00              	(move)  	mov	$0,%eax
  40800c:	e8 f1 21 00 00              	(control)	call	40a202 <binvcrhs_>	; ⇄ binvcrhs
587:	
/home/jcsalinas/Documents/pruebas/inst_estimation_module/BT/x_solve.f:331
  408011:	83 c5 01                    	(arith) 	add	$0x1,%ebp
  408014:	48 83 44 24 08 28           	(arith) 	addq	$0x28,0x8(%rsp)
  40801a:	49 81 c4 58 02 00 00        	(arith) 	add	$0x258,%r12
  408021:	39 6c 24 18                 	(arith) 	cmp	%ebp,0x18(%rsp)
  408025:	0f 85 70 ff ff ff           	(control)	jne	407f9b <x_solve_+0x11c7>	; ↰ label 582 (loop 135)
; ------- Loop 135 exit
588:	
  40802b:	4c 8b 64 24 10              	(move)  	mov	0x10(%rsp),%r12
580:	
/home/jcsalinas/Documents/pruebas/inst_estimation_module/BT/x_solve.f:361
  408030:	48 63 44 24 7c              	(move)  	movsxd	0x7c(%rsp),%rax
  408035:	48 8d 04 80                 	(arith) 	lea	(%rax,%rax,4),%rax
  408039:	49 8d 94 04 42 a1 b5 00     	(arith) 	lea	0xb5a142(%r12,%rax,1),%rdx
  408041:	48 8d 14 d5 00 16 61 00     	(arith) 	lea	0x611600(,%rdx,8),%rdx
  408049:	49 8d 8c 04 3d a1 b5 00     	(arith) 	lea	0xb5a13d(%r12,%rax,1),%rcx
  408051:	48 8d 34 cd 00 16 61 00     	(arith) 	lea	0x611600(,%rcx,8),%rsi
  408059:	48 89 c1                    	(move)  	mov	%rax,%rcx
  40805c:	48 c1 e1 04                 	(logic) 	sal	$0x4,%rcx
  408060:	48 29 c1                    	(arith) 	sub	%rax,%rcx
  408063:	48 8d 3c cd 90 d9 37 0b     	(arith) 	lea	0xb37d990(,%rcx,8),%rdi
  40806b:	b8 00 00 00 00              	(move)  	mov	$0,%eax
  408070:	e8 b3 15 00 00              	(control)	call	409628 <matvec_sub_>	; ⇄ matvec_sub
589:	
/home/jcsalinas/Documents/pruebas/inst_estimation_module/BT/x_solve.f:368
  408075:	48 63 44 24 7c              	(move)  	movsxd	0x7c(%rsp),%rax
  40807a:	48 8d 14 80                 	(arith) 	lea	(%rax,%rax,4),%rdx
  40807e:	48 89 d0                    	(move)  	mov	%rdx,%rax
  408081:	48 c1 e0 04                 	(logic) 	sal	$0x4,%rax
  408085:	48 29 d0                    	(arith) 	sub	%rdx,%rax
  408088:	48 8d 14 c5 58 da 37 0b     	(arith) 	lea	0xb37da58(,%rax,8),%rdx
  408090:	48 8d 34 c5 c8 d8 37 0b     	(arith) 	lea	0xb37d8c8(,%rax,8),%rsi
  408098:	48 8d 3c c5 90 d9 37 0b     	(arith) 	lea	0xb37d990(,%rax,8),%rdi
  4080a0:	b8 00 00 00 00              	(move)  	mov	$0,%eax
  4080a5:	e8 12 17 00 00              	(control)	call	4097bc <matmul_sub_>	; ⇄ matmul_sub
590:	
/home/jcsalinas/Documents/pruebas/inst_estimation_module/BT/x_solve.f:374
  4080aa:	48 63 44 24 7c              	(move)  	movsxd	0x7c(%rsp),%rax
  4080af:	48 8d 14 80                 	(arith) 	lea	(%rax,%rax,4),%rdx
  4080b3:	49 8d 84 14 42 a1 b5 00     	(arith) 	lea	0xb5a142(%r12,%rdx,1),%rax
  4080bb:	48 8d 34 c5 00 16 61 00     	(arith) 	lea	0x611600(,%rax,8),%rsi
  4080c3:	48 89 d0                    	(move)  	mov	%rdx,%rax
  4080c6:	48 c1 e0 04                 	(logic) 	sal	$0x4,%rax
  4080ca:	48 29 d0                    	(arith) 	sub	%rdx,%rax
  4080cd:	48 8d 3c c5 58 da 37 0b     	(arith) 	lea	0xb37da58(,%rax,8),%rdi
  4080d5:	b8 00 00 00 00              	(move)  	mov	$0,%eax
  4080da:	e8 88 32 00 00              	(control)	call	40b367 <binvrhs_>	; ⇄ binvrhs
592:	
/home/jcsalinas/Documents/pruebas/inst_estimation_module/BT/x_solve.f:384
  4080df:	44 8b 5c 24 7c              	(move)  	mov	0x7c(%rsp),%r11d
  4080e4:	41 83 eb 01                 	(arith) 	sub	$0x1,%r11d
  4080e8:	0f 88 a0 00 00 00           	(control)	js	40818e <x_solve_+0x13ba>	; ↲ label 593
; ------- Loop 134 entry
594 (loop 134):	
/home/jcsalinas/Documents/pruebas/inst_estimation_module/BT/x_solve.f:388
  4080ee:	49 63 c3                    	(move)  	movsxd	%r11d,%rax
  4080f1:	48 8d 34 80                 	(arith) 	lea	(%rax,%rax,4),%rsi
  4080f5:	48 89 f2                    	(move)  	mov	%rsi,%rdx
  4080f8:	48 c1 e2 04                 	(logic) 	sal	$0x4,%rdx
  4080fc:	48 29 f2                    	(arith) 	sub	%rsi,%rdx
  4080ff:	4c 01 e6                    	(arith) 	add	%r12,%rsi
  408102:	48 c1 e6 03                 	(logic) 	sal	$0x3,%rsi
  408106:	41 8d 43 01                 	(arith) 	lea	0x1(%r11),%eax
  40810a:	48 98                       	(conv)  	cltq
  40810c:	4c 8d 0c 80                 	(arith) 	lea	(%rax,%rax,4),%r9
  408110:	4d 01 e1                    	(arith) 	add	%r12,%r9
  408113:	49 c1 e1 03                 	(logic) 	sal	$0x3,%r9
  408117:	41 b8 00 00 00 00           	(move)  	mov	$0,%r8d
  40811d:	4c 8d 14 d5 08 00 00 00     	(arith) 	lea	0x8(,%rdx,8),%r10
; ------- Loop 133 entry
595 (loop 133):	
  408125:	4b 8d 94 10 a0 38 37 0b     	(arith) 	lea	0xb3738a0(%r8,%r10,1),%rdx
  40812d:	b8 00 00 00 00              	(move)  	mov	$0,%eax
; ------- Loop 132 entry
596 (loop 132):	
  408132:	49 8d 88 00 16 61 00        	(arith) 	lea	0x611600(%r8),%rcx
  408139:	48 8d b8 00 16 61 00        	(arith) 	lea	0x611600(%rax),%rdi
  408140:	f2 42 0f 10 8c 0f 10 0a ad 05	(move)  	movsd	0x5ad0a10(%rdi,%r9,1),%xmm1
  40814a:	f2 0f 59 8a 78 a2 00 00     	(arith) 	mulsd	0xa278(%rdx),%xmm1
  408152:	f2 0f 10 84 31 10 0a ad 05  	(move)  	movsd	0x5ad0a10(%rcx,%rsi,1),%xmm0
  40815b:	f2 0f 5c c1                 	(arith) 	subsd	%xmm1,%xmm0
  40815f:	f2 0f 11 84 31 10 0a ad 05  	(move)  	movsd	%xmm0,0x5ad0a10(%rcx,%rsi,1)
  408168:	48 83 c2 28                 	(arith) 	add	$0x28,%rdx
  40816c:	48 83 c0 08                 	(arith) 	add	$0x8,%rax
/home/jcsalinas/Documents/pruebas/inst_estimation_module/BT/x_solve.f:386
  408170:	48 83 f8 28                 	(arith) 	cmp	$0x28,%rax
  408174:	75 bc                       	(control)	jne	408132 <x_solve_+0x135e>	; ↰ label 596 (loop 132)
; ------- Loop 132 exit
597:	
  408176:	49 83 c0 08                 	(arith) 	add	$0x8,%r8
/home/jcsalinas/Documents/pruebas/inst_estimation_module/BT/x_solve.f:385
  40817a:	49 83 f8 28                 	(arith) 	cmp	$0x28,%r8
  40817e:	75 a5                       	(control)	jne	408125 <x_solve_+0x1351>	; ↰ label 595 (loop 133)
; ------- Loop 133 exit
598:	
/home/jcsalinas/Documents/pruebas/inst_estimation_module/BT/x_solve.f:384
  408180:	41 83 eb 01                 	(arith) 	sub	$0x1,%r11d
  408184:	41 83 fb ff                 	(arith) 	cmp	$-0x1,%r11d
  408188:	0f 85 60 ff ff ff           	(control)	jne	4080ee <x_solve_+0x131a>	; ↰ label 594 (loop 134)
; ------- Loop 134 exit
593:	
/home/jcsalinas/Documents/pruebas/inst_estimation_module/BT/x_solve.f:45
  40818e:	83 44 24 58 01              	(arith) 	addl	$0x1,0x58(%rsp)
  408193:	8b 44 24 58                 	(move)  	mov	0x58(%rsp),%eax
  408197:	39 44 24 68                 	(arith) 	cmp	%eax,0x68(%rsp)
  40819b:	0f 85 c6 ec ff ff           	(control)	jne	406e67 <x_solve_+0x93>	; ↰ label 568 (loop 131)
; ------- Loop 131 exit
566:	
/home/jcsalinas/Documents/pruebas/inst_estimation_module/BT/x_solve.f:44
  4081a1:	83 44 24 5c 01              	(arith) 	addl	$0x1,0x5c(%rsp)
  4081a6:	8b 44 24 5c                 	(move)  	mov	0x5c(%rsp),%eax
  4081aa:	39 44 24 6c                 	(arith) 	cmp	%eax,0x6c(%rsp)
  4081ae:	0f 85 76 ec ff ff           	(control)	jne	406e2a <x_solve_+0x56>	; ↰ label 565 (loop 130)
; ------- Loop 130 exit
563:	
/home/jcsalinas/Documents/pruebas/inst_estimation_module/BT/x_solve.f:395
  4081b4:	83 3d 39 94 20 00 00        	(arith) 	cmpl	$0,0x209439(%rip)
  4081bb:	74 0f                       	(control)	je	4081cc <x_solve_+0x13f8>	; ↲ label 599
600:	
/home/jcsalinas/Documents/pruebas/inst_estimation_module/BT/x_solve.f:398
  4081bd:	bf 40 ef 40 00              	(move)  	mov	$0x40ef40,%edi
  4081c2:	b8 00 00 00 00              	(move)  	mov	$0,%eax
  4081c7:	e8 6f 68 00 00              	(control)	call	40ea3b <timer_stop_>	; ⇄ timer_stop
599:	
/home/jcsalinas/Documents/pruebas/inst_estimation_module/BT/x_solve.f:398
  4081cc:	48 81 c4 88 00 00 00        	(arith) 	add	$0x88,%rsp
  4081d3:	5b                          	(move)  	pop	%rbx
  4081d4:	5d                          	(move)  	pop	%rbp
  4081d5:	41 5c                       	(move)  	pop	%r12
  4081d7:	41 5d                       	(move)  	pop	%r13
  4081d9:	41 5e                       	(move)  	pop	%r14
  4081db:	41 5f                       	(move)  	pop	%r15
  4081dd:	c3                          	(control)	ret


00000000004081de <y_solve>:
378 (function y_solve_):	
/home/jcsalinas/Documents/pruebas/inst_estimation_module/BT/y_solve.f:4
  4081de:	41 57                       	(move)  	push	%r15
  4081e0:	41 56                       	(move)  	push	%r14
  4081e2:	41 55                       	(move)  	push	%r13
  4081e4:	41 54                       	(move)  	push	%r12
  4081e6:	55                          	(move)  	push	%rbp
  4081e7:	53                          	(move)  	push	%rbx
  4081e8:	48 83 ec 78                 	(arith) 	sub	$0x78,%rsp
/home/jcsalinas/Documents/pruebas/inst_estimation_module/BT/y_solve.f:27
  4081ec:	83 3d 01 94 20 00 00        	(arith) 	cmpl	$0,0x209401(%rip)
  4081f3:	74 0f                       	(control)	je	408204 <y_solve_+0x26>	; ↲ label 601
602:	
/home/jcsalinas/Documents/pruebas/inst_estimation_module/BT/y_solve.f:36
  4081f5:	bf 44 ef 40 00              	(move)  	mov	$0x40ef44,%edi
  4081fa:	b8 00 00 00 00              	(move)  	mov	$0,%eax
  4081ff:	e8 1f 68 00 00              	(control)	call	40ea23 <timer_start_>	; ⇄ timer_start
601:	
/home/jcsalinas/Documents/pruebas/inst_estimation_module/BT/y_solve.f:36
  408204:	8b 05 e2 93 20 00           	(move)  	mov	0x2093e2(%rip),%eax
  40820a:	83 e8 01                    	(arith) 	sub	$0x1,%eax
  40820d:	89 44 24 6c                 	(move)  	mov	%eax,0x6c(%rsp)
/home/jcsalinas/Documents/pruebas/inst_estimation_module/BT/y_solve.f:42
  408211:	8b 05 d9 93 20 00           	(move)  	mov	0x2093d9(%rip),%eax
  408217:	8d 50 fe                    	(arith) 	lea	-0x2(%rax),%edx
  40821a:	85 d2                       	(arith) 	test	%edx,%edx
  40821c:	0f 8e df 13 00 00           	(control)	jle	409601 <y_solve_+0x1423>	; ↲ label 603
604:	
  408222:	83 e8 01                    	(arith) 	sub	$0x1,%eax
  408225:	89 44 24 5c                 	(move)  	mov	%eax,0x5c(%rsp)
  408229:	c7 44 24 4c 01 00 00 00     	(move)  	movl	$0x1,0x4c(%rsp)
; ------- Loop 138 entry
605 (loop 138):	
/home/jcsalinas/Documents/pruebas/inst_estimation_module/BT/y_solve.f:43
  408231:	8b 05 b1 93 20 00           	(move)  	mov	0x2093b1(%rip),%eax
  408237:	8d 50 fe                    	(arith) 	lea	-0x2(%rax),%edx
  40823a:	85 d2                       	(arith) 	test	%edx,%edx
  40823c:	0f 8e ac 13 00 00           	(control)	jle	4095ee <y_solve_+0x1410>	; ↲ label 606
607:	
/home/jcsalinas/Documents/pruebas/inst_estimation_module/BT/y_solve.f:46
  408242:	48 63 54 24 4c              	(move)  	movsxd	0x4c(%rsp),%rdx
  408247:	48 69 da 71 29 00 00        	(arith) 	imul	$0x2971,%rdx,%rbx
  40824e:	48 89 5c 24 50              	(move)  	mov	%rbx,0x50(%rsp)
/home/jcsalinas/Documents/pruebas/inst_estimation_module/BT/y_solve.f:57
  408253:	4c 69 ea 35 cf 00 00        	(arith) 	imul	$0xcf35,%rdx,%r13
  40825a:	83 e8 01                    	(arith) 	sub	$0x1,%eax
  40825d:	89 44 24 58                 	(move)  	mov	%eax,0x58(%rsp)
  408261:	c7 44 24 48 01 00 00 00     	(move)  	movl	$0x1,0x48(%rsp)
/home/jcsalinas/Documents/pruebas/inst_estimation_module/BT/y_solve.f:133
  408269:	4d 89 ec                    	(move)  	mov	%r13,%r12
; ------- Loop 139 entry
608 (loop 139):	
/home/jcsalinas/Documents/pruebas/inst_estimation_module/BT/y_solve.f:44
  40826c:	8b 7c 24 6c                 	(move)  	mov	0x6c(%rsp),%edi
  408270:	85 ff                       	(arith) 	test	%edi,%edi
  408272:	0f 88 1a 05 00 00           	(control)	js	408792 <y_solve_+0x5b4>	; ↲ label 609
610:	
/home/jcsalinas/Documents/pruebas/inst_estimation_module/BT/y_solve.f:46
  408278:	4c 63 44 24 48              	(move)  	movsxd	0x48(%rsp),%r8
/home/jcsalinas/Documents/pruebas/inst_estimation_module/BT/y_solve.f:57
  40827d:	4f 8d 14 80                 	(arith) 	lea	(%r8,%r8,4),%r10
/home/jcsalinas/Documents/pruebas/inst_estimation_module/BT/y_solve.f:4
  408281:	f2 44 0f 10 2d 7e 92 20 00  	(move)  	movsd	0x20927e(%rip),%xmm13
/home/jcsalinas/Documents/pruebas/inst_estimation_module/BT/y_solve.f:67
  40828a:	f2 0f 10 05 ee 6b 00 00     	(move)  	movsd	0x6bee(%rip),%xmm0
  408292:	f2 41 0f 5c c5              	(arith) 	subsd	%xmm13,%xmm0
  408297:	f2 0f 11 44 24 08           	(move)  	movsd	%xmm0,0x8(%rsp)
/home/jcsalinas/Documents/pruebas/inst_estimation_module/BT/y_solve.f:80
  40829d:	66 41 0f 28 f5              	(move)  	movapd	%xmm13,%xmm6
  4082a2:	f2 41 0f 58 f5              	(arith) 	addsd	%xmm13,%xmm6
  4082a7:	f2 0f 11 74 24 10           	(move)  	movsd	%xmm6,0x10(%rsp)
/home/jcsalinas/Documents/pruebas/inst_estimation_module/BT/y_solve.f:4
  4082ad:	f2 0f 10 35 4b 92 20 00     	(move)  	movsd	0x20924b(%rip),%xmm6
  4082b5:	f2 0f 11 34 24              	(move)  	movsd	%xmm6,(%rsp)
  4082ba:	f2 0f 10 35 26 92 20 00     	(move)  	movsd	0x209226(%rip),%xmm6
  4082c2:	66 0f 28 fe                 	(move)  	movapd	%xmm6,%xmm7
  4082c6:	f2 0f 11 74 24 18           	(move)  	movsd	%xmm6,0x18(%rsp)
/home/jcsalinas/Documents/pruebas/inst_estimation_module/BT/y_solve.f:103
  4082cc:	f2 0f 59 35 f4 92 20 00     	(arith) 	mulsd	0x2092f4(%rip),%xmm6
  4082d4:	f2 0f 11 74 24 20           	(move)  	movsd	%xmm6,0x20(%rsp)
/home/jcsalinas/Documents/pruebas/inst_estimation_module/BT/y_solve.f:4
  4082da:	f2 0f 10 2d 0e 92 20 00     	(move)  	movsd	0x20920e(%rip),%xmm5
  4082e2:	f2 0f 11 6c 24 28           	(move)  	movsd	%xmm5,0x28(%rsp)
/home/jcsalinas/Documents/pruebas/inst_estimation_module/BT/y_solve.f:120
  4082e8:	f2 0f 5c fd                 	(arith) 	subsd	%xmm5,%xmm7
  4082ec:	f2 0f 11 7c 24 30           	(move)  	movsd	%xmm7,0x30(%rsp)
  4082f2:	f2 0f 5c f5                 	(arith) 	subsd	%xmm5,%xmm6
  4082f6:	f2 0f 11 74 24 38           	(move)  	movsd	%xmm6,0x38(%rsp)
/home/jcsalinas/Documents/pruebas/inst_estimation_module/BT/y_solve.f:126
  4082fc:	f2 0f 11 6c 24 40           	(move)  	movsd	%xmm5,0x40(%rsp)
  408302:	83 c7 01                    	(arith) 	add	$0x1,%edi
  408305:	be 00 00 00 00              	(move)  	mov	$0,%esi
/home/jcsalinas/Documents/pruebas/inst_estimation_module/BT/y_solve.f:50
  40830a:	66 45 0f ef ff              	(logic) 	pxor	%xmm15,%xmm15
/home/jcsalinas/Documents/pruebas/inst_estimation_module/BT/y_solve.f:52
  40830f:	49 b9 00 00 00 00 00 00 f0 3f	(move)  	mov	$0x3ff0000000000000,%r9
  408319:	4c 8b 5c 24 50              	(move)  	mov	0x50(%rsp),%r11
; ------- Loop 145 entry
611 (loop 145):	
/home/jcsalinas/Documents/pruebas/inst_estimation_module/BT/y_solve.f:46
  40831e:	48 63 ce                    	(move)  	movsxd	%esi,%rcx
  408321:	48 6b d1 67                 	(arith) 	imul	$0x67,%rcx,%rdx
  408325:	4c 01 da                    	(arith) 	add	%r11,%rdx
  408328:	4c 01 c2                    	(arith) 	add	%r8,%rdx
  40832b:	48 8d 82 36 9b 94 00        	(arith) 	lea	0x949b36(%rdx),%rax
  408332:	f2 0f 10 0c c5 00 16 61 00  	(move)  	movsd	0x611600(,%rax,8),%xmm1
/home/jcsalinas/Documents/pruebas/inst_estimation_module/BT/y_solve.f:47
  40833b:	66 0f 28 d1                 	(move)  	movapd	%xmm1,%xmm2
  40833f:	f2 0f 59 d1                 	(arith) 	mulsd	%xmm1,%xmm2
/home/jcsalinas/Documents/pruebas/inst_estimation_module/BT/y_solve.f:48
  408343:	66 44 0f 28 f1              	(move)  	movapd	%xmm1,%xmm14
  408348:	f2 44 0f 59 f2              	(arith) 	mulsd	%xmm2,%xmm14
/home/jcsalinas/Documents/pruebas/inst_estimation_module/BT/y_solve.f:50
  40834d:	48 8d 04 89                 	(arith) 	lea	(%rcx,%rcx,4),%rax
  408351:	48 8d 04 80                 	(arith) 	lea	(%rax,%rax,4),%rax
  408355:	f2 44 0f 11 3c c5 a0 38 37 0b	(move)  	movsd	%xmm15,0xb3738a0(,%rax,8)
/home/jcsalinas/Documents/pruebas/inst_estimation_module/BT/y_solve.f:51
  40835f:	f2 44 0f 11 3c c5 c8 38 37 0b	(move)  	movsd	%xmm15,0xb3738c8(,%rax,8)
/home/jcsalinas/Documents/pruebas/inst_estimation_module/BT/y_solve.f:52
  408369:	4c 89 0c c5 f0 38 37 0b     	(move)  	mov	%r9,0xb3738f0(,%rax,8)
/home/jcsalinas/Documents/pruebas/inst_estimation_module/BT/y_solve.f:53
  408371:	f2 44 0f 11 3c c5 18 39 37 0b	(move)  	movsd	%xmm15,0xb373918(,%rax,8)
/home/jcsalinas/Documents/pruebas/inst_estimation_module/BT/y_solve.f:54
  40837b:	f2 44 0f 11 3c c5 40 39 37 0b	(move)  	movsd	%xmm15,0xb373940(,%rax,8)
/home/jcsalinas/Documents/pruebas/inst_estimation_module/BT/y_solve.f:57
  408385:	48 89 cb                    	(move)  	mov	%rcx,%rbx
  408388:	48 c1 e3 08                 	(logic) 	sal	$0x8,%rbx
  40838c:	48 01 cb                    	(arith) 	add	%rcx,%rbx
  40838f:	48 8d 0c 59                 	(arith) 	lea	(%rcx,%rbx,2),%rcx
  408393:	4c 01 e1                    	(arith) 	add	%r12,%rcx
  408396:	4c 01 d1                    	(arith) 	add	%r10,%rcx
  408399:	f2 0f 10 1c cd 08 16 61 00  	(move)  	movsd	0x611608(,%rcx,8),%xmm3
  4083a2:	f2 0f 10 04 cd 10 16 61 00  	(move)  	movsd	0x611610(,%rcx,8),%xmm0
  4083ab:	66 0f 28 e3                 	(move)  	movapd	%xmm3,%xmm4
  4083af:	f2 0f 59 e0                 	(arith) 	mulsd	%xmm0,%xmm4
  4083b3:	f2 0f 59 e2                 	(arith) 	mulsd	%xmm2,%xmm4
  4083b7:	66 0f 57 25 b1 6a 00 00     	(logic) 	xorpd	0x6ab1(%rip),%xmm4
  4083bf:	f2 0f 11 24 c5 a8 38 37 0b  	(move)  	movsd	%xmm4,0xb3738a8(,%rax,8)
/home/jcsalinas/Documents/pruebas/inst_estimation_module/BT/y_solve.f:58
  4083c8:	66 44 0f 28 c1              	(move)  	movapd	%xmm1,%xmm8
  4083cd:	f2 44 0f 59 c0              	(arith) 	mulsd	%xmm0,%xmm8
  4083d2:	f2 44 0f 11 04 c5 d0 38 37 0b	(move)  	movsd	%xmm8,0xb3738d0(,%rax,8)
/home/jcsalinas/Documents/pruebas/inst_estimation_module/BT/y_solve.f:59
  4083dc:	66 0f 28 e1                 	(move)  	movapd	%xmm1,%xmm4
  4083e0:	f2 0f 59 e3                 	(arith) 	mulsd	%xmm3,%xmm4
  4083e4:	f2 0f 11 24 c5 f8 38 37 0b  	(move)  	movsd	%xmm4,0xb3738f8(,%rax,8)
/home/jcsalinas/Documents/pruebas/inst_estimation_module/BT/y_solve.f:60
  4083ed:	f2 44 0f 11 3c c5 20 39 37 0b	(move)  	movsd	%xmm15,0xb373920(,%rax,8)
/home/jcsalinas/Documents/pruebas/inst_estimation_module/BT/y_solve.f:61
  4083f7:	f2 44 0f 11 3c c5 48 39 37 0b	(move)  	movsd	%xmm15,0xb373948(,%rax,8)
/home/jcsalinas/Documents/pruebas/inst_estimation_module/BT/y_solve.f:64
  408401:	48 8d 9a 30 18 84 00        	(arith) 	lea	0x841830(%rdx),%rbx
  408408:	f2 44 0f 10 24 dd 00 16 61 00	(move)  	movsd	0x611600(,%rbx,8),%xmm12
  408412:	66 44 0f 28 d8              	(move)  	movapd	%xmm0,%xmm11
  408417:	f2 44 0f 59 d8              	(arith) 	mulsd	%xmm0,%xmm11
  40841c:	66 44 0f 28 ca              	(move)  	movapd	%xmm2,%xmm9
  408421:	f2 45 0f 59 cb              	(arith) 	mulsd	%xmm11,%xmm9
  408426:	66 41 0f 28 e4              	(move)  	movapd	%xmm12,%xmm4
  40842b:	f2 41 0f 59 e5              	(arith) 	mulsd	%xmm13,%xmm4
  408430:	f2 41 0f 5c e1              	(arith) 	subsd	%xmm9,%xmm4
  408435:	f2 0f 11 24 c5 b0 38 37 0b  	(move)  	movsd	%xmm4,0xb3738b0(,%rax,8)
/home/jcsalinas/Documents/pruebas/inst_estimation_module/BT/y_solve.f:65
  40843e:	66 0f 28 eb                 	(move)  	movapd	%xmm3,%xmm5
  408442:	f2 41 0f 59 ed              	(arith) 	mulsd	%xmm13,%xmm5
  408447:	66 0f 28 e1                 	(move)  	movapd	%xmm1,%xmm4
  40844b:	f2 0f 59 e5                 	(arith) 	mulsd	%xmm5,%xmm4
  40844f:	66 0f 57 25 19 6a 00 00     	(logic) 	xorpd	0x6a19(%rip),%xmm4
  408457:	f2 0f 11 24 c5 d8 38 37 0b  	(move)  	movsd	%xmm4,0xb3738d8(,%rax,8)
/home/jcsalinas/Documents/pruebas/inst_estimation_module/BT/y_solve.f:67
  408460:	f2 0f 10 64 24 08           	(move)  	movsd	0x8(%rsp),%xmm4
  408466:	f2 0f 59 e0                 	(arith) 	mulsd	%xmm0,%xmm4
  40846a:	f2 0f 59 e1                 	(arith) 	mulsd	%xmm1,%xmm4
  40846e:	f2 0f 11 24 c5 00 39 37 0b  	(move)  	movsd	%xmm4,0xb373900(,%rax,8)
/home/jcsalinas/Documents/pruebas/inst_estimation_module/BT/y_solve.f:68
  408477:	f2 0f 10 34 cd 18 16 61 00  	(move)  	movsd	0x611618(,%rcx,8),%xmm6
  408480:	66 41 0f 28 e5              	(move)  	movapd	%xmm13,%xmm4
  408485:	f2 0f 59 e6                 	(arith) 	mulsd	%xmm6,%xmm4
  408489:	f2 0f 59 e1                 	(arith) 	mulsd	%xmm1,%xmm4
  40848d:	66 0f 57 25 db 69 00 00     	(logic) 	xorpd	0x69db(%rip),%xmm4
  408495:	f2 0f 11 24 c5 28 39 37 0b  	(move)  	movsd	%xmm4,0xb373928(,%rax,8)
/home/jcsalinas/Documents/pruebas/inst_estimation_module/BT/y_solve.f:69
  40849e:	f2 44 0f 11 2c c5 50 39 37 0b	(move)  	movsd	%xmm13,0xb373950(,%rax,8)
/home/jcsalinas/Documents/pruebas/inst_estimation_module/BT/y_solve.f:72
  4084a8:	66 0f 28 e0                 	(move)  	movapd	%xmm0,%xmm4
  4084ac:	f2 0f 59 e6                 	(arith) 	mulsd	%xmm6,%xmm4
  4084b0:	66 0f 28 fa                 	(move)  	movapd	%xmm2,%xmm7
  4084b4:	f2 0f 59 fc                 	(arith) 	mulsd	%xmm4,%xmm7
  4084b8:	66 0f 57 3d b0 69 00 00     	(logic) 	xorpd	0x69b0(%rip),%xmm7
  4084c0:	f2 0f 11 3c c5 b8 38 37 0b  	(move)  	movsd	%xmm7,0xb3738b8(,%rax,8)
/home/jcsalinas/Documents/pruebas/inst_estimation_module/BT/y_solve.f:73
  4084c9:	f2 44 0f 11 3c c5 e0 38 37 0b	(move)  	movsd	%xmm15,0xb3738e0(,%rax,8)
/home/jcsalinas/Documents/pruebas/inst_estimation_module/BT/y_solve.f:74
  4084d3:	66 0f 28 f9                 	(move)  	movapd	%xmm1,%xmm7
  4084d7:	f2 0f 59 fe                 	(arith) 	mulsd	%xmm6,%xmm7
  4084db:	f2 0f 11 3c c5 08 39 37 0b  	(move)  	movsd	%xmm7,0xb373908(,%rax,8)
/home/jcsalinas/Documents/pruebas/inst_estimation_module/BT/y_solve.f:75
  4084e4:	f2 44 0f 11 04 c5 30 39 37 0b	(move)  	movsd	%xmm8,0xb373930(,%rax,8)
/home/jcsalinas/Documents/pruebas/inst_estimation_module/BT/y_solve.f:76
  4084ee:	f2 44 0f 11 3c c5 58 39 37 0b	(move)  	movsd	%xmm15,0xb373958(,%rax,8)
/home/jcsalinas/Documents/pruebas/inst_estimation_module/BT/y_solve.f:80
  4084f8:	f2 44 0f 10 14 cd 20 16 61 00	(move)  	movsd	0x611620(,%rcx,8),%xmm10
  408502:	f2 44 0f 10 04 24           	(move)  	movsd	(%rsp),%xmm8
  408508:	f2 45 0f 59 c2              	(arith) 	mulsd	%xmm10,%xmm8
  40850d:	48 81 c2 3c 1e a5 00        	(arith) 	add	$0xa51e3c,%rdx
  408514:	f2 0f 10 7c 24 10           	(move)  	movsd	0x10(%rsp),%xmm7
  40851a:	f2 0f 59 3c d5 00 16 61 00  	(arith) 	mulsd	0x611600(,%rdx,8),%xmm7
  408523:	f2 41 0f 5c f8              	(arith) 	subsd	%xmm8,%xmm7
  408528:	f2 0f 59 f8                 	(arith) 	mulsd	%xmm0,%xmm7
  40852c:	f2 0f 59 fa                 	(arith) 	mulsd	%xmm2,%xmm7
  408530:	f2 0f 11 3c c5 c0 38 37 0b  	(move)  	movsd	%xmm7,0xb3738c0(,%rax,8)
/home/jcsalinas/Documents/pruebas/inst_estimation_module/BT/y_solve.f:82
  408539:	f2 0f 59 e8                 	(arith) 	mulsd	%xmm0,%xmm5
  40853d:	f2 0f 59 ea                 	(arith) 	mulsd	%xmm2,%xmm5
  408541:	66 0f 57 2d 27 69 00 00     	(logic) 	xorpd	0x6927(%rip),%xmm5
  408549:	f2 0f 11 2c c5 e8 38 37 0b  	(move)  	movsd	%xmm5,0xb3738e8(,%rax,8)
/home/jcsalinas/Documents/pruebas/inst_estimation_module/BT/y_solve.f:86
  408552:	f2 44 0f 59 c1              	(arith) 	mulsd	%xmm1,%xmm8
  408557:	f2 45 0f 58 cc              	(arith) 	addsd	%xmm12,%xmm9
  40855c:	f2 45 0f 59 cd              	(arith) 	mulsd	%xmm13,%xmm9
  408561:	f2 45 0f 5c c1              	(arith) 	subsd	%xmm9,%xmm8
  408566:	f2 44 0f 11 04 c5 10 39 37 0b	(move)  	movsd	%xmm8,0xb373910(,%rax,8)
/home/jcsalinas/Documents/pruebas/inst_estimation_module/BT/y_solve.f:88
  408570:	f2 41 0f 59 e5              	(arith) 	mulsd	%xmm13,%xmm4
  408575:	f2 0f 59 e2                 	(arith) 	mulsd	%xmm2,%xmm4
  408579:	66 0f 57 25 ef 68 00 00     	(logic) 	xorpd	0x68ef(%rip),%xmm4
  408581:	f2 0f 11 24 c5 38 39 37 0b  	(move)  	movsd	%xmm4,0xb373938(,%rax,8)
/home/jcsalinas/Documents/pruebas/inst_estimation_module/BT/y_solve.f:89
  40858a:	f2 0f 10 24 24              	(move)  	movsd	(%rsp),%xmm4
  40858f:	f2 0f 59 e0                 	(arith) 	mulsd	%xmm0,%xmm4
  408593:	f2 0f 59 e1                 	(arith) 	mulsd	%xmm1,%xmm4
  408597:	f2 0f 11 24 c5 60 39 37 0b  	(move)  	movsd	%xmm4,0xb373960(,%rax,8)
/home/jcsalinas/Documents/pruebas/inst_estimation_module/BT/y_solve.f:91
  4085a0:	f2 44 0f 11 3c c5 18 89 37 0b	(move)  	movsd	%xmm15,0xb378918(,%rax,8)
/home/jcsalinas/Documents/pruebas/inst_estimation_module/BT/y_solve.f:92
  4085aa:	f2 44 0f 11 3c c5 40 89 37 0b	(move)  	movsd	%xmm15,0xb378940(,%rax,8)
/home/jcsalinas/Documents/pruebas/inst_estimation_module/BT/y_solve.f:93
  4085b4:	f2 44 0f 11 3c c5 68 89 37 0b	(move)  	movsd	%xmm15,0xb378968(,%rax,8)
/home/jcsalinas/Documents/pruebas/inst_estimation_module/BT/y_solve.f:94
  4085be:	f2 44 0f 11 3c c5 90 89 37 0b	(move)  	movsd	%xmm15,0xb378990(,%rax,8)
/home/jcsalinas/Documents/pruebas/inst_estimation_module/BT/y_solve.f:95
  4085c8:	f2 44 0f 11 3c c5 b8 89 37 0b	(move)  	movsd	%xmm15,0xb3789b8(,%rax,8)
/home/jcsalinas/Documents/pruebas/inst_estimation_module/BT/y_solve.f:97
  4085d2:	f2 0f 10 7c 24 18           	(move)  	movsd	0x18(%rsp),%xmm7
  4085d8:	66 0f 28 e7                 	(move)  	movapd	%xmm7,%xmm4
  4085dc:	f2 0f 59 e2                 	(arith) 	mulsd	%xmm2,%xmm4
  4085e0:	66 0f 28 eb                 	(move)  	movapd	%xmm3,%xmm5
  4085e4:	f2 0f 59 ec                 	(arith) 	mulsd	%xmm4,%xmm5
  4085e8:	66 0f 57 2d 80 68 00 00     	(logic) 	xorpd	0x6880(%rip),%xmm5
  4085f0:	f2 0f 11 2c c5 20 89 37 0b  	(move)  	movsd	%xmm5,0xb378920(,%rax,8)
/home/jcsalinas/Documents/pruebas/inst_estimation_module/BT/y_solve.f:98
  4085f9:	f2 0f 59 f9                 	(arith) 	mulsd	%xmm1,%xmm7
  4085fd:	f2 0f 11 3c c5 48 89 37 0b  	(move)  	movsd	%xmm7,0xb378948(,%rax,8)
/home/jcsalinas/Documents/pruebas/inst_estimation_module/BT/y_solve.f:99
  408606:	f2 44 0f 11 3c c5 70 89 37 0b	(move)  	movsd	%xmm15,0xb378970(,%rax,8)
/home/jcsalinas/Documents/pruebas/inst_estimation_module/BT/y_solve.f:100
  408610:	f2 44 0f 11 3c c5 98 89 37 0b	(move)  	movsd	%xmm15,0xb378998(,%rax,8)
/home/jcsalinas/Documents/pruebas/inst_estimation_module/BT/y_solve.f:101
  40861a:	f2 44 0f 11 3c c5 c0 89 37 0b	(move)  	movsd	%xmm15,0xb3789c0(,%rax,8)
/home/jcsalinas/Documents/pruebas/inst_estimation_module/BT/y_solve.f:103
  408624:	f2 44 0f 10 64 24 20        	(move)  	movsd	0x20(%rsp),%xmm12
  40862b:	66 41 0f 28 ec              	(move)  	movapd	%xmm12,%xmm5
  408630:	f2 0f 59 ea                 	(arith) 	mulsd	%xmm2,%xmm5
  408634:	f2 0f 59 e8                 	(arith) 	mulsd	%xmm0,%xmm5
  408638:	66 0f 57 2d 30 68 00 00     	(logic) 	xorpd	0x6830(%rip),%xmm5
  408640:	f2 0f 11 2c c5 28 89 37 0b  	(move)  	movsd	%xmm5,0xb378928(,%rax,8)
/home/jcsalinas/Documents/pruebas/inst_estimation_module/BT/y_solve.f:104
  408649:	f2 44 0f 11 3c c5 50 89 37 0b	(move)  	movsd	%xmm15,0xb378950(,%rax,8)
/home/jcsalinas/Documents/pruebas/inst_estimation_module/BT/y_solve.f:105
  408653:	66 41 0f 28 ec              	(move)  	movapd	%xmm12,%xmm5
  408658:	f2 0f 59 e9                 	(arith) 	mulsd	%xmm1,%xmm5
  40865c:	f2 0f 11 2c c5 78 89 37 0b  	(move)  	movsd	%xmm5,0xb378978(,%rax,8)
/home/jcsalinas/Documents/pruebas/inst_estimation_module/BT/y_solve.f:106
  408665:	f2 44 0f 11 3c c5 a0 89 37 0b	(move)  	movsd	%xmm15,0xb3789a0(,%rax,8)
/home/jcsalinas/Documents/pruebas/inst_estimation_module/BT/y_solve.f:107
  40866f:	f2 44 0f 11 3c c5 c8 89 37 0b	(move)  	movsd	%xmm15,0xb3789c8(,%rax,8)
/home/jcsalinas/Documents/pruebas/inst_estimation_module/BT/y_solve.f:109
  408679:	f2 0f 59 e6                 	(arith) 	mulsd	%xmm6,%xmm4
  40867d:	66 0f 57 25 eb 67 00 00     	(logic) 	xorpd	0x67eb(%rip),%xmm4
  408685:	f2 0f 11 24 c5 30 89 37 0b  	(move)  	movsd	%xmm4,0xb378930(,%rax,8)
/home/jcsalinas/Documents/pruebas/inst_estimation_module/BT/y_solve.f:110
  40868e:	f2 44 0f 11 3c c5 58 89 37 0b	(move)  	movsd	%xmm15,0xb378958(,%rax,8)
/home/jcsalinas/Documents/pruebas/inst_estimation_module/BT/y_solve.f:111
  408698:	f2 44 0f 11 3c c5 80 89 37 0b	(move)  	movsd	%xmm15,0xb378980(,%rax,8)
/home/jcsalinas/Documents/pruebas/inst_estimation_module/BT/y_solve.f:112
  4086a2:	f2 0f 11 3c c5 a8 89 37 0b  	(move)  	movsd	%xmm7,0xb3789a8(,%rax,8)
/home/jcsalinas/Documents/pruebas/inst_estimation_module/BT/y_solve.f:113
  4086ab:	f2 44 0f 11 3c c5 d0 89 37 0b	(move)  	movsd	%xmm15,0xb3789d0(,%rax,8)
/home/jcsalinas/Documents/pruebas/inst_estimation_module/BT/y_solve.f:120
  4086b5:	f2 44 0f 10 64 24 30        	(move)  	movsd	0x30(%rsp),%xmm12
  4086bc:	66 41 0f 28 ec              	(move)  	movapd	%xmm12,%xmm5
  4086c1:	f2 41 0f 59 ee              	(arith) 	mulsd	%xmm14,%xmm5
  4086c6:	66 0f 28 e3                 	(move)  	movapd	%xmm3,%xmm4
  4086ca:	f2 0f 59 e3                 	(arith) 	mulsd	%xmm3,%xmm4
  4086ce:	f2 0f 59 e5                 	(arith) 	mulsd	%xmm5,%xmm4
  4086d2:	66 0f 57 25 96 67 00 00     	(logic) 	xorpd	0x6796(%rip),%xmm4
  4086da:	f2 44 0f 10 4c 24 38        	(move)  	movsd	0x38(%rsp),%xmm9
  4086e1:	66 41 0f 28 f9              	(move)  	movapd	%xmm9,%xmm7
  4086e6:	f2 41 0f 59 fe              	(arith) 	mulsd	%xmm14,%xmm7
  4086eb:	f2 44 0f 59 df              	(arith) 	mulsd	%xmm7,%xmm11
  4086f0:	f2 41 0f 5c e3              	(arith) 	subsd	%xmm11,%xmm4
  4086f5:	66 0f 28 fe                 	(move)  	movapd	%xmm6,%xmm7
  4086f9:	f2 0f 59 fe                 	(arith) 	mulsd	%xmm6,%xmm7
  4086fd:	f2 0f 59 ef                 	(arith) 	mulsd	%xmm7,%xmm5
  408701:	f2 0f 5c e5                 	(arith) 	subsd	%xmm5,%xmm4
  408705:	f2 0f 10 6c 24 28           	(move)  	movsd	0x28(%rsp),%xmm5
  40870b:	f2 0f 59 ea                 	(arith) 	mulsd	%xmm2,%xmm5
  40870f:	f2 44 0f 59 d5              	(arith) 	mulsd	%xmm5,%xmm10
  408714:	f2 41 0f 5c e2              	(arith) 	subsd	%xmm10,%xmm4
  408719:	f2 0f 11 24 c5 38 89 37 0b  	(move)  	movsd	%xmm4,0xb378938(,%rax,8)
/home/jcsalinas/Documents/pruebas/inst_estimation_module/BT/y_solve.f:122
  408722:	66 41 0f 28 e4              	(move)  	movapd	%xmm12,%xmm4
  408727:	f2 0f 59 e2                 	(arith) 	mulsd	%xmm2,%xmm4
  40872b:	f2 0f 59 dc                 	(arith) 	mulsd	%xmm4,%xmm3
  40872f:	f2 0f 11 1c c5 60 89 37 0b  	(move)  	movsd	%xmm3,0xb378960(,%rax,8)
/home/jcsalinas/Documents/pruebas/inst_estimation_module/BT/y_solve.f:124
  408738:	66 41 0f 28 d9              	(move)  	movapd	%xmm9,%xmm3
  40873d:	f2 0f 59 da                 	(arith) 	mulsd	%xmm2,%xmm3
  408741:	f2 0f 59 c3                 	(arith) 	mulsd	%xmm3,%xmm0
  408745:	f2 0f 11 04 c5 88 89 37 0b  	(move)  	movsd	%xmm0,0xb378988(,%rax,8)
/home/jcsalinas/Documents/pruebas/inst_estimation_module/BT/y_solve.f:125
  40874e:	f2 0f 59 f4                 	(arith) 	mulsd	%xmm4,%xmm6
  408752:	f2 0f 11 34 c5 b0 89 37 0b  	(move)  	movsd	%xmm6,0xb3789b0(,%rax,8)
/home/jcsalinas/Documents/pruebas/inst_estimation_module/BT/y_solve.f:126
  40875b:	f2 0f 10 44 24 40           	(move)  	movsd	0x40(%rsp),%xmm0
  408761:	f2 0f 59 c1                 	(arith) 	mulsd	%xmm1,%xmm0
  408765:	f2 0f 11 04 c5 d8 89 37 0b  	(move)  	movsd	%xmm0,0xb3789d8(,%rax,8)
/home/jcsalinas/Documents/pruebas/inst_estimation_module/BT/y_solve.f:44
  40876e:	83 c6 01                    	(arith) 	add	$0x1,%esi
  408771:	39 fe                       	(arith) 	cmp	%edi,%esi
  408773:	0f 85 a5 fb ff ff           	(control)	jne	40831e <y_solve_+0x140>	; ↰ label 611 (loop 145)
; ------- Loop 145 exit
612:	
  408779:	f2 0f 11 0d 77 43 f8 0a     	(move)  	movsd	%xmm1,0xaf84377(%rip)
  408781:	f2 0f 11 15 77 43 f8 0a     	(move)  	movsd	%xmm2,0xaf84377(%rip)
  408789:	f2 44 0f 11 35 76 43 f8 0a  	(move)  	movsd	%xmm14,0xaf84376(%rip)
609:	
/home/jcsalinas/Documents/pruebas/inst_estimation_module/BT/y_solve.f:133
  408792:	48 8d 74 24 6c              	(arith) 	lea	0x6c(%rsp),%rsi
  408797:	bf 90 d9 37 0b              	(move)  	mov	$0xb37d990,%edi
  40879c:	b8 00 00 00 00              	(move)  	mov	$0,%eax
  4087a1:	e8 f9 9b ff ff              	(control)	call	40239f <lhsinit_>	; ⇄ lhsinit
613:	
/home/jcsalinas/Documents/pruebas/inst_estimation_module/BT/y_solve.f:134
  4087a6:	8b 74 24 6c                 	(move)  	mov	0x6c(%rsp),%esi
  4087aa:	8d 46 ff                    	(arith) 	lea	-0x1(%rsi),%eax
  4087ad:	85 c0                       	(arith) 	test	%eax,%eax
  4087af:	0f 8e 58 0b 00 00           	(control)	jle	40930d <y_solve_+0x112f>	; ↲ label 614
615:	
/home/jcsalinas/Documents/pruebas/inst_estimation_module/BT/y_solve.f:4
  4087b5:	f2 0f 10 0d eb 89 20 00     	(move)  	movsd	0x2089eb(%rip),%xmm1
/home/jcsalinas/Documents/pruebas/inst_estimation_module/BT/y_solve.f:136
  4087bd:	66 0f 28 c1                 	(move)  	movapd	%xmm1,%xmm0
  4087c1:	f2 0f 59 05 2f 89 20 00     	(arith) 	mulsd	0x20892f(%rip),%xmm0
/home/jcsalinas/Documents/pruebas/inst_estimation_module/BT/y_solve.f:137
  4087c9:	f2 0f 59 0d 2f 89 20 00     	(arith) 	mulsd	0x20892f(%rip),%xmm1
/home/jcsalinas/Documents/pruebas/inst_estimation_module/BT/y_solve.f:4
  4087d1:	f2 44 0f 10 35 76 89 20 00  	(move)  	movsd	0x208976(%rip),%xmm14
/home/jcsalinas/Documents/pruebas/inst_estimation_module/BT/y_solve.f:141
  4087da:	66 44 0f 28 c8              	(move)  	movapd	%xmm0,%xmm9
  4087df:	f2 45 0f 59 ce              	(arith) 	mulsd	%xmm14,%xmm9
/home/jcsalinas/Documents/pruebas/inst_estimation_module/BT/y_solve.f:4
  4087e4:	f2 44 0f 10 2d 6b 89 20 00  	(move)  	movsd	0x20896b(%rip),%xmm13
/home/jcsalinas/Documents/pruebas/inst_estimation_module/BT/y_solve.f:155
  4087ed:	66 44 0f 28 c0              	(move)  	movapd	%xmm0,%xmm8
  4087f2:	f2 45 0f 59 c5              	(arith) 	mulsd	%xmm13,%xmm8
/home/jcsalinas/Documents/pruebas/inst_estimation_module/BT/y_solve.f:4
  4087f7:	f2 44 0f 10 25 60 89 20 00  	(move)  	movsd	0x208960(%rip),%xmm12
/home/jcsalinas/Documents/pruebas/inst_estimation_module/BT/y_solve.f:169
  408800:	66 0f 28 f8                 	(move)  	movapd	%xmm0,%xmm7
  408804:	f2 41 0f 59 fc              	(arith) 	mulsd	%xmm12,%xmm7
/home/jcsalinas/Documents/pruebas/inst_estimation_module/BT/y_solve.f:4
  408809:	f2 44 0f 10 1d 56 89 20 00  	(move)  	movsd	0x208956(%rip),%xmm11
/home/jcsalinas/Documents/pruebas/inst_estimation_module/BT/y_solve.f:183
  408812:	66 0f 28 f0                 	(move)  	movapd	%xmm0,%xmm6
  408816:	f2 41 0f 59 f3              	(arith) 	mulsd	%xmm11,%xmm6
/home/jcsalinas/Documents/pruebas/inst_estimation_module/BT/y_solve.f:4
  40881b:	f2 44 0f 10 15 4c 89 20 00  	(move)  	movsd	0x20894c(%rip),%xmm10
/home/jcsalinas/Documents/pruebas/inst_estimation_module/BT/y_solve.f:197
  408824:	66 0f 28 e8                 	(move)  	movapd	%xmm0,%xmm5
  408828:	f2 41 0f 59 ea              	(arith) 	mulsd	%xmm10,%xmm5
/home/jcsalinas/Documents/pruebas/inst_estimation_module/BT/y_solve.f:201
  40882d:	66 0f 28 d0                 	(move)  	movapd	%xmm0,%xmm2
  408831:	f2 0f 58 d0                 	(arith) 	addsd	%xmm0,%xmm2
  408835:	f2 44 0f 59 f2              	(arith) 	mulsd	%xmm2,%xmm14
/home/jcsalinas/Documents/pruebas/inst_estimation_module/BT/y_solve.f:210
  40883a:	f2 44 0f 59 ea              	(arith) 	mulsd	%xmm2,%xmm13
/home/jcsalinas/Documents/pruebas/inst_estimation_module/BT/y_solve.f:219
  40883f:	f2 44 0f 59 e2              	(arith) 	mulsd	%xmm2,%xmm12
/home/jcsalinas/Documents/pruebas/inst_estimation_module/BT/y_solve.f:228
  408844:	f2 44 0f 59 da              	(arith) 	mulsd	%xmm2,%xmm11
/home/jcsalinas/Documents/pruebas/inst_estimation_module/BT/y_solve.f:237
  408849:	f2 44 0f 59 d2              	(arith) 	mulsd	%xmm2,%xmm10
  40884e:	b8 a0 38 37 0b              	(move)  	mov	$0xb3738a0,%eax
  408853:	48 89 c2                    	(move)  	mov	%rax,%rdx
  408856:	b9 01 00 00 00              	(move)  	mov	$0x1,%ecx
/home/jcsalinas/Documents/pruebas/inst_estimation_module/BT/y_solve.f:201
  40885b:	f2 0f 10 25 cd 65 00 00     	(move)  	movsd	0x65cd(%rip),%xmm4
; ------- Loop 144 entry
616 (loop 144):	
/home/jcsalinas/Documents/pruebas/inst_estimation_module/BT/y_solve.f:141
  408863:	66 0f 28 d9                 	(move)  	movapd	%xmm1,%xmm3
  408867:	f2 0f 59 18                 	(arith) 	mulsd	(%rax),%xmm3
  40886b:	66 0f 57 1d fd 65 00 00     	(logic) 	xorpd	0x65fd(%rip),%xmm3
  408873:	66 44 0f 28 f8              	(move)  	movapd	%xmm0,%xmm15
  408878:	f2 44 0f 59 b8 78 50 00 00  	(arith) 	mulsd	0x5078(%rax),%xmm15
  408881:	f2 41 0f 5c df              	(arith) 	subsd	%xmm15,%xmm3
  408886:	f2 41 0f 5c d9              	(arith) 	subsd	%xmm9,%xmm3
  40888b:	f2 0f 11 9a 48 a3 00 00     	(move)  	movsd	%xmm3,0xa348(%rdx)
/home/jcsalinas/Documents/pruebas/inst_estimation_module/BT/y_solve.f:143
  408893:	66 0f 28 d9                 	(move)  	movapd	%xmm1,%xmm3
  408897:	f2 0f 59 58 28              	(arith) 	mulsd	0x28(%rax),%xmm3
  40889c:	66 0f 57 1d cc 65 00 00     	(logic) 	xorpd	0x65cc(%rip),%xmm3
  4088a4:	66 44 0f 28 f8              	(move)  	movapd	%xmm0,%xmm15
  4088a9:	f2 44 0f 59 b8 a0 50 00 00  	(arith) 	mulsd	0x50a0(%rax),%xmm15
  4088b2:	f2 41 0f 5c df              	(arith) 	subsd	%xmm15,%xmm3
  4088b7:	f2 0f 11 9a 70 a3 00 00     	(move)  	movsd	%xmm3,0xa370(%rdx)
/home/jcsalinas/Documents/pruebas/inst_estimation_module/BT/y_solve.f:145
  4088bf:	66 0f 28 d9                 	(move)  	movapd	%xmm1,%xmm3
  4088c3:	f2 0f 59 58 50              	(arith) 	mulsd	0x50(%rax),%xmm3
  4088c8:	66 0f 57 1d a0 65 00 00     	(logic) 	xorpd	0x65a0(%rip),%xmm3
  4088d0:	66 44 0f 28 f8              	(move)  	movapd	%xmm0,%xmm15
  4088d5:	f2 44 0f 59 b8 c8 50 00 00  	(arith) 	mulsd	0x50c8(%rax),%xmm15
  4088de:	f2 41 0f 5c df              	(arith) 	subsd	%xmm15,%xmm3
  4088e3:	f2 0f 11 9a 98 a3 00 00     	(move)  	movsd	%xmm3,0xa398(%rdx)
/home/jcsalinas/Documents/pruebas/inst_estimation_module/BT/y_solve.f:147
  4088eb:	66 0f 28 d9                 	(move)  	movapd	%xmm1,%xmm3
  4088ef:	f2 0f 59 58 78              	(arith) 	mulsd	0x78(%rax),%xmm3
  4088f4:	66 0f 57 1d 74 65 00 00     	(logic) 	xorpd	0x6574(%rip),%xmm3
  4088fc:	66 44 0f 28 f8              	(move)  	movapd	%xmm0,%xmm15
  408901:	f2 44 0f 59 b8 f0 50 00 00  	(arith) 	mulsd	0x50f0(%rax),%xmm15
  40890a:	f2 41 0f 5c df              	(arith) 	subsd	%xmm15,%xmm3
  40890f:	f2 0f 11 9a c0 a3 00 00     	(move)  	movsd	%xmm3,0xa3c0(%rdx)
/home/jcsalinas/Documents/pruebas/inst_estimation_module/BT/y_solve.f:149
  408917:	66 0f 28 d9                 	(move)  	movapd	%xmm1,%xmm3
  40891b:	f2 0f 59 98 a0 00 00 00     	(arith) 	mulsd	0xa0(%rax),%xmm3
  408923:	66 0f 57 1d 45 65 00 00     	(logic) 	xorpd	0x6545(%rip),%xmm3
  40892b:	66 44 0f 28 f8              	(move)  	movapd	%xmm0,%xmm15
  408930:	f2 44 0f 59 b8 18 51 00 00  	(arith) 	mulsd	0x5118(%rax),%xmm15
  408939:	f2 41 0f 5c df              	(arith) 	subsd	%xmm15,%xmm3
  40893e:	f2 0f 11 9a e8 a3 00 00     	(move)  	movsd	%xmm3,0xa3e8(%rdx)
/home/jcsalinas/Documents/pruebas/inst_estimation_module/BT/y_solve.f:152
  408946:	66 0f 28 d9                 	(move)  	movapd	%xmm1,%xmm3
  40894a:	f2 0f 59 58 08              	(arith) 	mulsd	0x8(%rax),%xmm3
  40894f:	66 0f 57 1d 19 65 00 00     	(logic) 	xorpd	0x6519(%rip),%xmm3
  408957:	66 44 0f 28 f8              	(move)  	movapd	%xmm0,%xmm15
  40895c:	f2 44 0f 59 b8 80 50 00 00  	(arith) 	mulsd	0x5080(%rax),%xmm15
  408965:	f2 41 0f 5c df              	(arith) 	subsd	%xmm15,%xmm3
  40896a:	f2 0f 11 9a 50 a3 00 00     	(move)  	movsd	%xmm3,0xa350(%rdx)
/home/jcsalinas/Documents/pruebas/inst_estimation_module/BT/y_solve.f:155
  408972:	66 0f 28 d9                 	(move)  	movapd	%xmm1,%xmm3
  408976:	f2 0f 59 58 30              	(arith) 	mulsd	0x30(%rax),%xmm3
  40897b:	66 0f 57 1d ed 64 00 00     	(logic) 	xorpd	0x64ed(%rip),%xmm3
  408983:	66 44 0f 28 f8              	(move)  	movapd	%xmm0,%xmm15
  408988:	f2 44 0f 59 b8 a8 50 00 00  	(arith) 	mulsd	0x50a8(%rax),%xmm15
  408991:	f2 41 0f 5c df              	(arith) 	subsd	%xmm15,%xmm3
  408996:	f2 41 0f 5c d8              	(arith) 	subsd	%xmm8,%xmm3
  40899b:	f2 0f 11 9a 78 a3 00 00     	(move)  	movsd	%xmm3,0xa378(%rdx)
/home/jcsalinas/Documents/pruebas/inst_estimation_module/BT/y_solve.f:157
  4089a3:	66 0f 28 d9                 	(move)  	movapd	%xmm1,%xmm3
  4089a7:	f2 0f 59 58 58              	(arith) 	mulsd	0x58(%rax),%xmm3
  4089ac:	66 0f 57 1d bc 64 00 00     	(logic) 	xorpd	0x64bc(%rip),%xmm3
  4089b4:	66 44 0f 28 f8              	(move)  	movapd	%xmm0,%xmm15
  4089b9:	f2 44 0f 59 b8 d0 50 00 00  	(arith) 	mulsd	0x50d0(%rax),%xmm15
  4089c2:	f2 41 0f 5c df              	(arith) 	subsd	%xmm15,%xmm3
  4089c7:	f2 0f 11 9a a0 a3 00 00     	(move)  	movsd	%xmm3,0xa3a0(%rdx)
/home/jcsalinas/Documents/pruebas/inst_estimation_module/BT/y_solve.f:159
  4089cf:	66 0f 28 d9                 	(move)  	movapd	%xmm1,%xmm3
  4089d3:	f2 0f 59 98 80 00 00 00     	(arith) 	mulsd	0x80(%rax),%xmm3
  4089db:	66 0f 57 1d 8d 64 00 00     	(logic) 	xorpd	0x648d(%rip),%xmm3
  4089e3:	66 44 0f 28 f8              	(move)  	movapd	%xmm0,%xmm15
  4089e8:	f2 44 0f 59 b8 f8 50 00 00  	(arith) 	mulsd	0x50f8(%rax),%xmm15
  4089f1:	f2 41 0f 5c df              	(arith) 	subsd	%xmm15,%xmm3
  4089f6:	f2 0f 11 9a c8 a3 00 00     	(move)  	movsd	%xmm3,0xa3c8(%rdx)
/home/jcsalinas/Documents/pruebas/inst_estimation_module/BT/y_solve.f:161
  4089fe:	66 0f 28 d9                 	(move)  	movapd	%xmm1,%xmm3
  408a02:	f2 0f 59 98 a8 00 00 00     	(arith) 	mulsd	0xa8(%rax),%xmm3
  408a0a:	66 0f 57 1d 5e 64 00 00     	(logic) 	xorpd	0x645e(%rip),%xmm3
  408a12:	66 44 0f 28 f8              	(move)  	movapd	%xmm0,%xmm15
  408a17:	f2 44 0f 59 b8 20 51 00 00  	(arith) 	mulsd	0x5120(%rax),%xmm15
  408a20:	f2 41 0f 5c df              	(arith) 	subsd	%xmm15,%xmm3
  408a25:	f2 0f 11 9a f0 a3 00 00     	(move)  	movsd	%xmm3,0xa3f0(%rdx)
/home/jcsalinas/Documents/pruebas/inst_estimation_module/BT/y_solve.f:164
  408a2d:	66 0f 28 d9                 	(move)  	movapd	%xmm1,%xmm3
  408a31:	f2 0f 59 58 10              	(arith) 	mulsd	0x10(%rax),%xmm3
  408a36:	66 0f 57 1d 32 64 00 00     	(logic) 	xorpd	0x6432(%rip),%xmm3
  408a3e:	66 44 0f 28 f8              	(move)  	movapd	%xmm0,%xmm15
  408a43:	f2 44 0f 59 b8 88 50 00 00  	(arith) 	mulsd	0x5088(%rax),%xmm15
  408a4c:	f2 41 0f 5c df              	(arith) 	subsd	%xmm15,%xmm3
  408a51:	f2 0f 11 9a 58 a3 00 00     	(move)  	movsd	%xmm3,0xa358(%rdx)
/home/jcsalinas/Documents/pruebas/inst_estimation_module/BT/y_solve.f:166
  408a59:	66 0f 28 d9                 	(move)  	movapd	%xmm1,%xmm3
  408a5d:	f2 0f 59 58 38              	(arith) 	mulsd	0x38(%rax),%xmm3
  408a62:	66 0f 57 1d 06 64 00 00     	(logic) 	xorpd	0x6406(%rip),%xmm3
  408a6a:	66 44 0f 28 f8              	(move)  	movapd	%xmm0,%xmm15
  408a6f:	f2 44 0f 59 b8 b0 50 00 00  	(arith) 	mulsd	0x50b0(%rax),%xmm15
  408a78:	f2 41 0f 5c df              	(arith) 	subsd	%xmm15,%xmm3
  408a7d:	f2 0f 11 9a 80 a3 00 00     	(move)  	movsd	%xmm3,0xa380(%rdx)
/home/jcsalinas/Documents/pruebas/inst_estimation_module/BT/y_solve.f:169
  408a85:	66 0f 28 d9                 	(move)  	movapd	%xmm1,%xmm3
  408a89:	f2 0f 59 58 60              	(arith) 	mulsd	0x60(%rax),%xmm3
  408a8e:	66 0f 57 1d da 63 00 00     	(logic) 	xorpd	0x63da(%rip),%xmm3
  408a96:	66 44 0f 28 f8              	(move)  	movapd	%xmm0,%xmm15
  408a9b:	f2 44 0f 59 b8 d8 50 00 00  	(arith) 	mulsd	0x50d8(%rax),%xmm15
  408aa4:	f2 41 0f 5c df              	(arith) 	subsd	%xmm15,%xmm3
  408aa9:	f2 0f 5c df                 	(arith) 	subsd	%xmm7,%xmm3
  408aad:	f2 0f 11 9a a8 a3 00 00     	(move)  	movsd	%xmm3,0xa3a8(%rdx)
/home/jcsalinas/Documents/pruebas/inst_estimation_module/BT/y_solve.f:171
  408ab5:	66 0f 28 d9                 	(move)  	movapd	%xmm1,%xmm3
  408ab9:	f2 0f 59 98 88 00 00 00     	(arith) 	mulsd	0x88(%rax),%xmm3
  408ac1:	66 0f 57 1d a7 63 00 00     	(logic) 	xorpd	0x63a7(%rip),%xmm3
  408ac9:	66 44 0f 28 f8              	(move)  	movapd	%xmm0,%xmm15
  408ace:	f2 44 0f 59 b8 00 51 00 00  	(arith) 	mulsd	0x5100(%rax),%xmm15
  408ad7:	f2 41 0f 5c df              	(arith) 	subsd	%xmm15,%xmm3
  408adc:	f2 0f 11 9a d0 a3 00 00     	(move)  	movsd	%xmm3,0xa3d0(%rdx)
/home/jcsalinas/Documents/pruebas/inst_estimation_module/BT/y_solve.f:173
  408ae4:	66 0f 28 d9                 	(move)  	movapd	%xmm1,%xmm3
  408ae8:	f2 0f 59 98 b0 00 00 00     	(arith) 	mulsd	0xb0(%rax),%xmm3
  408af0:	66 0f 57 1d 78 63 00 00     	(logic) 	xorpd	0x6378(%rip),%xmm3
  408af8:	66 44 0f 28 f8              	(move)  	movapd	%xmm0,%xmm15
  408afd:	f2 44 0f 59 b8 28 51 00 00  	(arith) 	mulsd	0x5128(%rax),%xmm15
  408b06:	f2 41 0f 5c df              	(arith) 	subsd	%xmm15,%xmm3
  408b0b:	f2 0f 11 9a f8 a3 00 00     	(move)  	movsd	%xmm3,0xa3f8(%rdx)
/home/jcsalinas/Documents/pruebas/inst_estimation_module/BT/y_solve.f:176
  408b13:	66 0f 28 d9                 	(move)  	movapd	%xmm1,%xmm3
  408b17:	f2 0f 59 58 18              	(arith) 	mulsd	0x18(%rax),%xmm3
  408b1c:	66 0f 57 1d 4c 63 00 00     	(logic) 	xorpd	0x634c(%rip),%xmm3
  408b24:	66 44 0f 28 f8              	(move)  	movapd	%xmm0,%xmm15
  408b29:	f2 44 0f 59 b8 90 50 00 00  	(arith) 	mulsd	0x5090(%rax),%xmm15
  408b32:	f2 41 0f 5c df              	(arith) 	subsd	%xmm15,%xmm3
  408b37:	f2 0f 11 9a 60 a3 00 00     	(move)  	movsd	%xmm3,0xa360(%rdx)
/home/jcsalinas/Documents/pruebas/inst_estimation_module/BT/y_solve.f:178
  408b3f:	66 0f 28 d9                 	(move)  	movapd	%xmm1,%xmm3
  408b43:	f2 0f 59 58 40              	(arith) 	mulsd	0x40(%rax),%xmm3
  408b48:	66 0f 57 1d 20 63 00 00     	(logic) 	xorpd	0x6320(%rip),%xmm3
  408b50:	66 44 0f 28 f8              	(move)  	movapd	%xmm0,%xmm15
  408b55:	f2 44 0f 59 b8 b8 50 00 00  	(arith) 	mulsd	0x50b8(%rax),%xmm15
  408b5e:	f2 41 0f 5c df              	(arith) 	subsd	%xmm15,%xmm3
  408b63:	f2 0f 11 9a 88 a3 00 00     	(move)  	movsd	%xmm3,0xa388(%rdx)
/home/jcsalinas/Documents/pruebas/inst_estimation_module/BT/y_solve.f:180
  408b6b:	66 0f 28 d9                 	(move)  	movapd	%xmm1,%xmm3
  408b6f:	f2 0f 59 58 68              	(arith) 	mulsd	0x68(%rax),%xmm3
  408b74:	66 0f 57 1d f4 62 00 00     	(logic) 	xorpd	0x62f4(%rip),%xmm3
  408b7c:	66 44 0f 28 f8              	(move)  	movapd	%xmm0,%xmm15
  408b81:	f2 44 0f 59 b8 e0 50 00 00  	(arith) 	mulsd	0x50e0(%rax),%xmm15
  408b8a:	f2 41 0f 5c df              	(arith) 	subsd	%xmm15,%xmm3
  408b8f:	f2 0f 11 9a b0 a3 00 00     	(move)  	movsd	%xmm3,0xa3b0(%rdx)
/home/jcsalinas/Documents/pruebas/inst_estimation_module/BT/y_solve.f:183
  408b97:	66 0f 28 d9                 	(move)  	movapd	%xmm1,%xmm3
  408b9b:	f2 0f 59 98 90 00 00 00     	(arith) 	mulsd	0x90(%rax),%xmm3
  408ba3:	66 0f 57 1d c5 62 00 00     	(logic) 	xorpd	0x62c5(%rip),%xmm3
  408bab:	66 44 0f 28 f8              	(move)  	movapd	%xmm0,%xmm15
  408bb0:	f2 44 0f 59 b8 08 51 00 00  	(arith) 	mulsd	0x5108(%rax),%xmm15
  408bb9:	f2 41 0f 5c df              	(arith) 	subsd	%xmm15,%xmm3
  408bbe:	f2 0f 5c de                 	(arith) 	subsd	%xmm6,%xmm3
  408bc2:	f2 0f 11 9a d8 a3 00 00     	(move)  	movsd	%xmm3,0xa3d8(%rdx)
/home/jcsalinas/Documents/pruebas/inst_estimation_module/BT/y_solve.f:185
  408bca:	66 0f 28 d9                 	(move)  	movapd	%xmm1,%xmm3
  408bce:	f2 0f 59 98 b8 00 00 00     	(arith) 	mulsd	0xb8(%rax),%xmm3
  408bd6:	66 0f 57 1d 92 62 00 00     	(logic) 	xorpd	0x6292(%rip),%xmm3
  408bde:	66 44 0f 28 f8              	(move)  	movapd	%xmm0,%xmm15
  408be3:	f2 44 0f 59 b8 30 51 00 00  	(arith) 	mulsd	0x5130(%rax),%xmm15
  408bec:	f2 41 0f 5c df              	(arith) 	subsd	%xmm15,%xmm3
  408bf1:	f2 0f 11 9a 00 a4 00 00     	(move)  	movsd	%xmm3,0xa400(%rdx)
/home/jcsalinas/Documents/pruebas/inst_estimation_module/BT/y_solve.f:188
  408bf9:	66 0f 28 d9                 	(move)  	movapd	%xmm1,%xmm3
  408bfd:	f2 0f 59 58 20              	(arith) 	mulsd	0x20(%rax),%xmm3
  408c02:	66 0f 57 1d 66 62 00 00     	(logic) 	xorpd	0x6266(%rip),%xmm3
  408c0a:	66 44 0f 28 f8              	(move)  	movapd	%xmm0,%xmm15
  408c0f:	f2 44 0f 59 b8 98 50 00 00  	(arith) 	mulsd	0x5098(%rax),%xmm15
  408c18:	f2 41 0f 5c df              	(arith) 	subsd	%xmm15,%xmm3
  408c1d:	f2 0f 11 9a 68 a3 00 00     	(move)  	movsd	%xmm3,0xa368(%rdx)
/home/jcsalinas/Documents/pruebas/inst_estimation_module/BT/y_solve.f:190
  408c25:	66 0f 28 d9                 	(move)  	movapd	%xmm1,%xmm3
  408c29:	f2 0f 59 58 48              	(arith) 	mulsd	0x48(%rax),%xmm3
  408c2e:	66 0f 57 1d 3a 62 00 00     	(logic) 	xorpd	0x623a(%rip),%xmm3
  408c36:	66 44 0f 28 f8              	(move)  	movapd	%xmm0,%xmm15
  408c3b:	f2 44 0f 59 b8 c0 50 00 00  	(arith) 	mulsd	0x50c0(%rax),%xmm15
  408c44:	f2 41 0f 5c df              	(arith) 	subsd	%xmm15,%xmm3
  408c49:	f2 0f 11 9a 90 a3 00 00     	(move)  	movsd	%xmm3,0xa390(%rdx)
/home/jcsalinas/Documents/pruebas/inst_estimation_module/BT/y_solve.f:192
  408c51:	66 0f 28 d9                 	(move)  	movapd	%xmm1,%xmm3
  408c55:	f2 0f 59 58 70              	(arith) 	mulsd	0x70(%rax),%xmm3
  408c5a:	66 0f 57 1d 0e 62 00 00     	(logic) 	xorpd	0x620e(%rip),%xmm3
  408c62:	66 44 0f 28 f8              	(move)  	movapd	%xmm0,%xmm15
  408c67:	f2 44 0f 59 b8 e8 50 00 00  	(arith) 	mulsd	0x50e8(%rax),%xmm15
  408c70:	f2 41 0f 5c df              	(arith) 	subsd	%xmm15,%xmm3
  408c75:	f2 0f 11 9a b8 a3 00 00     	(move)  	movsd	%xmm3,0xa3b8(%rdx)
/home/jcsalinas/Documents/pruebas/inst_estimation_module/BT/y_solve.f:194
  408c7d:	66 0f 28 d9                 	(move)  	movapd	%xmm1,%xmm3
  408c81:	f2 0f 59 98 98 00 00 00     	(arith) 	mulsd	0x98(%rax),%xmm3
  408c89:	66 0f 57 1d df 61 00 00     	(logic) 	xorpd	0x61df(%rip),%xmm3
  408c91:	66 44 0f 28 f8              	(move)  	movapd	%xmm0,%xmm15
  408c96:	f2 44 0f 59 b8 10 51 00 00  	(arith) 	mulsd	0x5110(%rax),%xmm15
  408c9f:	f2 41 0f 5c df              	(arith) 	subsd	%xmm15,%xmm3
  408ca4:	f2 0f 11 9a e0 a3 00 00     	(move)  	movsd	%xmm3,0xa3e0(%rdx)
/home/jcsalinas/Documents/pruebas/inst_estimation_module/BT/y_solve.f:197
  408cac:	66 0f 28 d9                 	(move)  	movapd	%xmm1,%xmm3
  408cb0:	f2 0f 59 98 c0 00 00 00     	(arith) 	mulsd	0xc0(%rax),%xmm3
  408cb8:	66 0f 57 1d b0 61 00 00     	(logic) 	xorpd	0x61b0(%rip),%xmm3
  408cc0:	66 44 0f 28 f8              	(move)  	movapd	%xmm0,%xmm15
  408cc5:	f2 44 0f 59 b8 38 51 00 00  	(arith) 	mulsd	0x5138(%rax),%xmm15
  408cce:	f2 41 0f 5c df              	(arith) 	subsd	%xmm15,%xmm3
  408cd3:	f2 0f 5c dd                 	(arith) 	subsd	%xmm5,%xmm3
  408cd7:	f2 0f 11 9a 08 a4 00 00     	(move)  	movsd	%xmm3,0xa408(%rdx)
/home/jcsalinas/Documents/pruebas/inst_estimation_module/BT/y_solve.f:201
  408cdf:	66 0f 28 da                 	(move)  	movapd	%xmm2,%xmm3
  408ce3:	f2 0f 59 98 40 51 00 00     	(arith) 	mulsd	0x5140(%rax),%xmm3
  408ceb:	f2 0f 58 dc                 	(arith) 	addsd	%xmm4,%xmm3
  408cef:	f2 41 0f 58 de              	(arith) 	addsd	%xmm14,%xmm3
  408cf4:	f2 0f 11 9a 10 a4 00 00     	(move)  	movsd	%xmm3,0xa410(%rdx)
/home/jcsalinas/Documents/pruebas/inst_estimation_module/BT/y_solve.f:202
  408cfc:	66 0f 28 da                 	(move)  	movapd	%xmm2,%xmm3
  408d00:	f2 0f 59 98 68 51 00 00     	(arith) 	mulsd	0x5168(%rax),%xmm3
  408d08:	f2 0f 11 9a 38 a4 00 00     	(move)  	movsd	%xmm3,0xa438(%rdx)
/home/jcsalinas/Documents/pruebas/inst_estimation_module/BT/y_solve.f:203
  408d10:	66 0f 28 da                 	(move)  	movapd	%xmm2,%xmm3
  408d14:	f2 0f 59 98 90 51 00 00     	(arith) 	mulsd	0x5190(%rax),%xmm3
  408d1c:	f2 0f 11 9a 60 a4 00 00     	(move)  	movsd	%xmm3,0xa460(%rdx)
/home/jcsalinas/Documents/pruebas/inst_estimation_module/BT/y_solve.f:204
  408d24:	66 0f 28 da                 	(move)  	movapd	%xmm2,%xmm3
  408d28:	f2 0f 59 98 b8 51 00 00     	(arith) 	mulsd	0x51b8(%rax),%xmm3
  408d30:	f2 0f 11 9a 88 a4 00 00     	(move)  	movsd	%xmm3,0xa488(%rdx)
/home/jcsalinas/Documents/pruebas/inst_estimation_module/BT/y_solve.f:205
  408d38:	66 0f 28 da                 	(move)  	movapd	%xmm2,%xmm3
  408d3c:	f2 0f 59 98 e0 51 00 00     	(arith) 	mulsd	0x51e0(%rax),%xmm3
  408d44:	f2 0f 11 9a b0 a4 00 00     	(move)  	movsd	%xmm3,0xa4b0(%rdx)
/home/jcsalinas/Documents/pruebas/inst_estimation_module/BT/y_solve.f:207
  408d4c:	66 0f 28 da                 	(move)  	movapd	%xmm2,%xmm3
  408d50:	f2 0f 59 98 48 51 00 00     	(arith) 	mulsd	0x5148(%rax),%xmm3
  408d58:	f2 0f 11 9a 18 a4 00 00     	(move)  	movsd	%xmm3,0xa418(%rdx)
/home/jcsalinas/Documents/pruebas/inst_estimation_module/BT/y_solve.f:210
  408d60:	66 0f 28 da                 	(move)  	movapd	%xmm2,%xmm3
  408d64:	f2 0f 59 98 70 51 00 00     	(arith) 	mulsd	0x5170(%rax),%xmm3
  408d6c:	f2 0f 58 dc                 	(arith) 	addsd	%xmm4,%xmm3
  408d70:	f2 41 0f 58 dd              	(arith) 	addsd	%xmm13,%xmm3
  408d75:	f2 0f 11 9a 40 a4 00 00     	(move)  	movsd	%xmm3,0xa440(%rdx)
/home/jcsalinas/Documents/pruebas/inst_estimation_module/BT/y_solve.f:211
  408d7d:	66 0f 28 da                 	(move)  	movapd	%xmm2,%xmm3
  408d81:	f2 0f 59 98 98 51 00 00     	(arith) 	mulsd	0x5198(%rax),%xmm3
  408d89:	f2 0f 11 9a 68 a4 00 00     	(move)  	movsd	%xmm3,0xa468(%rdx)
/home/jcsalinas/Documents/pruebas/inst_estimation_module/BT/y_solve.f:212
  408d91:	66 0f 28 da                 	(move)  	movapd	%xmm2,%xmm3
  408d95:	f2 0f 59 98 c0 51 00 00     	(arith) 	mulsd	0x51c0(%rax),%xmm3
  408d9d:	f2 0f 11 9a 90 a4 00 00     	(move)  	movsd	%xmm3,0xa490(%rdx)
/home/jcsalinas/Documents/pruebas/inst_estimation_module/BT/y_solve.f:213
  408da5:	66 0f 28 da                 	(move)  	movapd	%xmm2,%xmm3
  408da9:	f2 0f 59 98 e8 51 00 00     	(arith) 	mulsd	0x51e8(%rax),%xmm3
  408db1:	f2 0f 11 9a b8 a4 00 00     	(move)  	movsd	%xmm3,0xa4b8(%rdx)
/home/jcsalinas/Documents/pruebas/inst_estimation_module/BT/y_solve.f:215
  408db9:	66 0f 28 da                 	(move)  	movapd	%xmm2,%xmm3
  408dbd:	f2 0f 59 98 50 51 00 00     	(arith) 	mulsd	0x5150(%rax),%xmm3
  408dc5:	f2 0f 11 9a 20 a4 00 00     	(move)  	movsd	%xmm3,0xa420(%rdx)
/home/jcsalinas/Documents/pruebas/inst_estimation_module/BT/y_solve.f:216
  408dcd:	66 0f 28 da                 	(move)  	movapd	%xmm2,%xmm3
  408dd1:	f2 0f 59 98 78 51 00 00     	(arith) 	mulsd	0x5178(%rax),%xmm3
  408dd9:	f2 0f 11 9a 48 a4 00 00     	(move)  	movsd	%xmm3,0xa448(%rdx)
/home/jcsalinas/Documents/pruebas/inst_estimation_module/BT/y_solve.f:219
  408de1:	66 0f 28 da                 	(move)  	movapd	%xmm2,%xmm3
  408de5:	f2 0f 59 98 a0 51 00 00     	(arith) 	mulsd	0x51a0(%rax),%xmm3
  408ded:	f2 0f 58 dc                 	(arith) 	addsd	%xmm4,%xmm3
  408df1:	f2 41 0f 58 dc              	(arith) 	addsd	%xmm12,%xmm3
  408df6:	f2 0f 11 9a 70 a4 00 00     	(move)  	movsd	%xmm3,0xa470(%rdx)
/home/jcsalinas/Documents/pruebas/inst_estimation_module/BT/y_solve.f:220
  408dfe:	66 0f 28 da                 	(move)  	movapd	%xmm2,%xmm3
  408e02:	f2 0f 59 98 c8 51 00 00     	(arith) 	mulsd	0x51c8(%rax),%xmm3
  408e0a:	f2 0f 11 9a 98 a4 00 00     	(move)  	movsd	%xmm3,0xa498(%rdx)
/home/jcsalinas/Documents/pruebas/inst_estimation_module/BT/y_solve.f:221
  408e12:	66 0f 28 da                 	(move)  	movapd	%xmm2,%xmm3
  408e16:	f2 0f 59 98 f0 51 00 00     	(arith) 	mulsd	0x51f0(%rax),%xmm3
  408e1e:	f2 0f 11 9a c0 a4 00 00     	(move)  	movsd	%xmm3,0xa4c0(%rdx)
/home/jcsalinas/Documents/pruebas/inst_estimation_module/BT/y_solve.f:223
  408e26:	66 0f 28 da                 	(move)  	movapd	%xmm2,%xmm3
  408e2a:	f2 0f 59 98 58 51 00 00     	(arith) 	mulsd	0x5158(%rax),%xmm3
  408e32:	f2 0f 11 9a 28 a4 00 00     	(move)  	movsd	%xmm3,0xa428(%rdx)
/home/jcsalinas/Documents/pruebas/inst_estimation_module/BT/y_solve.f:224
  408e3a:	66 0f 28 da                 	(move)  	movapd	%xmm2,%xmm3
  408e3e:	f2 0f 59 98 80 51 00 00     	(arith) 	mulsd	0x5180(%rax),%xmm3
  408e46:	f2 0f 11 9a 50 a4 00 00     	(move)  	movsd	%xmm3,0xa450(%rdx)
/home/jcsalinas/Documents/pruebas/inst_estimation_module/BT/y_solve.f:225
  408e4e:	66 0f 28 da                 	(move)  	movapd	%xmm2,%xmm3
  408e52:	f2 0f 59 98 a8 51 00 00     	(arith) 	mulsd	0x51a8(%rax),%xmm3
  408e5a:	f2 0f 11 9a 78 a4 00 00     	(move)  	movsd	%xmm3,0xa478(%rdx)
/home/jcsalinas/Documents/pruebas/inst_estimation_module/BT/y_solve.f:228
  408e62:	66 0f 28 da                 	(move)  	movapd	%xmm2,%xmm3
  408e66:	f2 0f 59 98 d0 51 00 00     	(arith) 	mulsd	0x51d0(%rax),%xmm3
  408e6e:	f2 0f 58 dc                 	(arith) 	addsd	%xmm4,%xmm3
  408e72:	f2 41 0f 58 db              	(arith) 	addsd	%xmm11,%xmm3
  408e77:	f2 0f 11 9a a0 a4 00 00     	(move)  	movsd	%xmm3,0xa4a0(%rdx)
/home/jcsalinas/Documents/pruebas/inst_estimation_module/BT/y_solve.f:229
  408e7f:	66 0f 28 da                 	(move)  	movapd	%xmm2,%xmm3
  408e83:	f2 0f 59 98 f8 51 00 00     	(arith) 	mulsd	0x51f8(%rax),%xmm3
  408e8b:	f2 0f 11 9a c8 a4 00 00     	(move)  	movsd	%xmm3,0xa4c8(%rdx)
/home/jcsalinas/Documents/pruebas/inst_estimation_module/BT/y_solve.f:231
  408e93:	66 0f 28 da                 	(move)  	movapd	%xmm2,%xmm3
  408e97:	f2 0f 59 98 60 51 00 00     	(arith) 	mulsd	0x5160(%rax),%xmm3
  408e9f:	f2 0f 11 9a 30 a4 00 00     	(move)  	movsd	%xmm3,0xa430(%rdx)
/home/jcsalinas/Documents/pruebas/inst_estimation_module/BT/y_solve.f:232
  408ea7:	66 0f 28 da                 	(move)  	movapd	%xmm2,%xmm3
  408eab:	f2 0f 59 98 88 51 00 00     	(arith) 	mulsd	0x5188(%rax),%xmm3
  408eb3:	f2 0f 11 9a 58 a4 00 00     	(move)  	movsd	%xmm3,0xa458(%rdx)
/home/jcsalinas/Documents/pruebas/inst_estimation_module/BT/y_solve.f:233
  408ebb:	66 0f 28 da                 	(move)  	movapd	%xmm2,%xmm3
  408ebf:	f2 0f 59 98 b0 51 00 00     	(arith) 	mulsd	0x51b0(%rax),%xmm3
  408ec7:	f2 0f 11 9a 80 a4 00 00     	(move)  	movsd	%xmm3,0xa480(%rdx)
/home/jcsalinas/Documents/pruebas/inst_estimation_module/BT/y_solve.f:234
  408ecf:	66 0f 28 da                 	(move)  	movapd	%xmm2,%xmm3
  408ed3:	f2 0f 59 98 d8 51 00 00     	(arith) 	mulsd	0x51d8(%rax),%xmm3
  408edb:	f2 0f 11 9a a8 a4 00 00     	(move)  	movsd	%xmm3,0xa4a8(%rdx)
/home/jcsalinas/Documents/pruebas/inst_estimation_module/BT/y_solve.f:237
  408ee3:	66 0f 28 da                 	(move)  	movapd	%xmm2,%xmm3
  408ee7:	f2 0f 59 98 00 52 00 00     	(arith) 	mulsd	0x5200(%rax),%xmm3
  408eef:	f2 0f 58 dc                 	(arith) 	addsd	%xmm4,%xmm3
  408ef3:	f2 41 0f 58 da              	(arith) 	addsd	%xmm10,%xmm3
  408ef8:	f2 0f 11 9a d0 a4 00 00     	(move)  	movsd	%xmm3,0xa4d0(%rdx)
/home/jcsalinas/Documents/pruebas/inst_estimation_module/BT/y_solve.f:241
  408f00:	83 c1 01                    	(arith) 	add	$0x1,%ecx
  408f03:	66 0f 28 d9                 	(move)  	movapd	%xmm1,%xmm3
  408f07:	f2 0f 59 98 90 01 00 00     	(arith) 	mulsd	0x190(%rax),%xmm3
  408f0f:	66 44 0f 28 f8              	(move)  	movapd	%xmm0,%xmm15
  408f14:	f2 44 0f 59 b8 08 52 00 00  	(arith) 	mulsd	0x5208(%rax),%xmm15
  408f1d:	f2 41 0f 5c df              	(arith) 	subsd	%xmm15,%xmm3
  408f22:	f2 41 0f 5c d9              	(arith) 	subsd	%xmm9,%xmm3
  408f27:	f2 0f 11 9a d8 a4 00 00     	(move)  	movsd	%xmm3,0xa4d8(%rdx)
/home/jcsalinas/Documents/pruebas/inst_estimation_module/BT/y_solve.f:243
  408f2f:	66 0f 28 d9                 	(move)  	movapd	%xmm1,%xmm3
  408f33:	f2 0f 59 98 b8 01 00 00     	(arith) 	mulsd	0x1b8(%rax),%xmm3
  408f3b:	66 44 0f 28 f8              	(move)  	movapd	%xmm0,%xmm15
  408f40:	f2 44 0f 59 b8 30 52 00 00  	(arith) 	mulsd	0x5230(%rax),%xmm15
  408f49:	f2 41 0f 5c df              	(arith) 	subsd	%xmm15,%xmm3
  408f4e:	f2 0f 11 9a 00 a5 00 00     	(move)  	movsd	%xmm3,0xa500(%rdx)
/home/jcsalinas/Documents/pruebas/inst_estimation_module/BT/y_solve.f:245
  408f56:	66 0f 28 d9                 	(move)  	movapd	%xmm1,%xmm3
  408f5a:	f2 0f 59 98 e0 01 00 00     	(arith) 	mulsd	0x1e0(%rax),%xmm3
  408f62:	66 44 0f 28 f8              	(move)  	movapd	%xmm0,%xmm15
  408f67:	f2 44 0f 59 b8 58 52 00 00  	(arith) 	mulsd	0x5258(%rax),%xmm15
  408f70:	f2 41 0f 5c df              	(arith) 	subsd	%xmm15,%xmm3
  408f75:	f2 0f 11 9a 28 a5 00 00     	(move)  	movsd	%xmm3,0xa528(%rdx)
/home/jcsalinas/Documents/pruebas/inst_estimation_module/BT/y_solve.f:247
  408f7d:	66 0f 28 d9                 	(move)  	movapd	%xmm1,%xmm3
  408f81:	f2 0f 59 98 08 02 00 00     	(arith) 	mulsd	0x208(%rax),%xmm3
  408f89:	66 44 0f 28 f8              	(move)  	movapd	%xmm0,%xmm15
  408f8e:	f2 44 0f 59 b8 80 52 00 00  	(arith) 	mulsd	0x5280(%rax),%xmm15
  408f97:	f2 41 0f 5c df              	(arith) 	subsd	%xmm15,%xmm3
  408f9c:	f2 0f 11 9a 50 a5 00 00     	(move)  	movsd	%xmm3,0xa550(%rdx)
/home/jcsalinas/Documents/pruebas/inst_estimation_module/BT/y_solve.f:249
  408fa4:	66 0f 28 d9                 	(move)  	movapd	%xmm1,%xmm3
  408fa8:	f2 0f 59 98 30 02 00 00     	(arith) 	mulsd	0x230(%rax),%xmm3
  408fb0:	66 44 0f 28 f8              	(move)  	movapd	%xmm0,%xmm15
  408fb5:	f2 44 0f 59 b8 a8 52 00 00  	(arith) 	mulsd	0x52a8(%rax),%xmm15
  408fbe:	f2 41 0f 5c df              	(arith) 	subsd	%xmm15,%xmm3
  408fc3:	f2 0f 11 9a 78 a5 00 00     	(move)  	movsd	%xmm3,0xa578(%rdx)
/home/jcsalinas/Documents/pruebas/inst_estimation_module/BT/y_solve.f:252
  408fcb:	66 0f 28 d9                 	(move)  	movapd	%xmm1,%xmm3
  408fcf:	f2 0f 59 98 98 01 00 00     	(arith) 	mulsd	0x198(%rax),%xmm3
  408fd7:	66 44 0f 28 f8              	(move)  	movapd	%xmm0,%xmm15
  408fdc:	f2 44 0f 59 b8 10 52 00 00  	(arith) 	mulsd	0x5210(%rax),%xmm15
  408fe5:	f2 41 0f 5c df              	(arith) 	subsd	%xmm15,%xmm3
  408fea:	f2 0f 11 9a e0 a4 00 00     	(move)  	movsd	%xmm3,0xa4e0(%rdx)
/home/jcsalinas/Documents/pruebas/inst_estimation_module/BT/y_solve.f:255
  408ff2:	66 0f 28 d9                 	(move)  	movapd	%xmm1,%xmm3
  408ff6:	f2 0f 59 98 c0 01 00 00     	(arith) 	mulsd	0x1c0(%rax),%xmm3
  408ffe:	66 44 0f 28 f8              	(move)  	movapd	%xmm0,%xmm15
  409003:	f2 44 0f 59 b8 38 52 00 00  	(arith) 	mulsd	0x5238(%rax),%xmm15
  40900c:	f2 41 0f 5c df              	(arith) 	subsd	%xmm15,%xmm3
  409011:	f2 41 0f 5c d8              	(arith) 	subsd	%xmm8,%xmm3
  409016:	f2 0f 11 9a 08 a5 00 00     	(move)  	movsd	%xmm3,0xa508(%rdx)
/home/jcsalinas/Documents/pruebas/inst_estimation_module/BT/y_solve.f:257
  40901e:	66 0f 28 d9                 	(move)  	movapd	%xmm1,%xmm3
  409022:	f2 0f 59 98 e8 01 00 00     	(arith) 	mulsd	0x1e8(%rax),%xmm3
  40902a:	66 44 0f 28 f8              	(move)  	movapd	%xmm0,%xmm15
  40902f:	f2 44 0f 59 b8 60 52 00 00  	(arith) 	mulsd	0x5260(%rax),%xmm15
  409038:	f2 41 0f 5c df              	(arith) 	subsd	%xmm15,%xmm3
  40903d:	f2 0f 11 9a 30 a5 00 00     	(move)  	movsd	%xmm3,0xa530(%rdx)
/home/jcsalinas/Documents/pruebas/inst_estimation_module/BT/y_solve.f:259
  409045:	66 0f 28 d9                 	(move)  	movapd	%xmm1,%xmm3
  409049:	f2 0f 59 98 10 02 00 00     	(arith) 	mulsd	0x210(%rax),%xmm3
  409051:	66 44 0f 28 f8              	(move)  	movapd	%xmm0,%xmm15
  409056:	f2 44 0f 59 b8 88 52 00 00  	(arith) 	mulsd	0x5288(%rax),%xmm15
  40905f:	f2 41 0f 5c df              	(arith) 	subsd	%xmm15,%xmm3
  409064:	f2 0f 11 9a 58 a5 00 00     	(move)  	movsd	%xmm3,0xa558(%rdx)
/home/jcsalinas/Documents/pruebas/inst_estimation_module/BT/y_solve.f:261
  40906c:	66 0f 28 d9                 	(move)  	movapd	%xmm1,%xmm3
  409070:	f2 0f 59 98 38 02 00 00     	(arith) 	mulsd	0x238(%rax),%xmm3
  409078:	66 44 0f 28 f8              	(move)  	movapd	%xmm0,%xmm15
  40907d:	f2 44 0f 59 b8 b0 52 00 00  	(arith) 	mulsd	0x52b0(%rax),%xmm15
  409086:	f2 41 0f 5c df              	(arith) 	subsd	%xmm15,%xmm3
  40908b:	f2 0f 11 9a 80 a5 00 00     	(move)  	movsd	%xmm3,0xa580(%rdx)
/home/jcsalinas/Documents/pruebas/inst_estimation_module/BT/y_solve.f:264
  409093:	66 0f 28 d9                 	(move)  	movapd	%xmm1,%xmm3
  409097:	f2 0f 59 98 a0 01 00 00     	(arith) 	mulsd	0x1a0(%rax),%xmm3
  40909f:	66 44 0f 28 f8              	(move)  	movapd	%xmm0,%xmm15
  4090a4:	f2 44 0f 59 b8 18 52 00 00  	(arith) 	mulsd	0x5218(%rax),%xmm15
  4090ad:	f2 41 0f 5c df              	(arith) 	subsd	%xmm15,%xmm3
  4090b2:	f2 0f 11 9a e8 a4 00 00     	(move)  	movsd	%xmm3,0xa4e8(%rdx)
/home/jcsalinas/Documents/pruebas/inst_estimation_module/BT/y_solve.f:266
  4090ba:	66 0f 28 d9                 	(move)  	movapd	%xmm1,%xmm3
  4090be:	f2 0f 59 98 c8 01 00 00     	(arith) 	mulsd	0x1c8(%rax),%xmm3
  4090c6:	66 44 0f 28 f8              	(move)  	movapd	%xmm0,%xmm15
  4090cb:	f2 44 0f 59 b8 40 52 00 00  	(arith) 	mulsd	0x5240(%rax),%xmm15
  4090d4:	f2 41 0f 5c df              	(arith) 	subsd	%xmm15,%xmm3
  4090d9:	f2 0f 11 9a 10 a5 00 00     	(move)  	movsd	%xmm3,0xa510(%rdx)
/home/jcsalinas/Documents/pruebas/inst_estimation_module/BT/y_solve.f:269
  4090e1:	66 0f 28 d9                 	(move)  	movapd	%xmm1,%xmm3
  4090e5:	f2 0f 59 98 f0 01 00 00     	(arith) 	mulsd	0x1f0(%rax),%xmm3
  4090ed:	66 44 0f 28 f8              	(move)  	movapd	%xmm0,%xmm15
  4090f2:	f2 44 0f 59 b8 68 52 00 00  	(arith) 	mulsd	0x5268(%rax),%xmm15
  4090fb:	f2 41 0f 5c df              	(arith) 	subsd	%xmm15,%xmm3
  409100:	f2 0f 5c df                 	(arith) 	subsd	%xmm7,%xmm3
  409104:	f2 0f 11 9a 38 a5 00 00     	(move)  	movsd	%xmm3,0xa538(%rdx)
/home/jcsalinas/Documents/pruebas/inst_estimation_module/BT/y_solve.f:271
  40910c:	66 0f 28 d9                 	(move)  	movapd	%xmm1,%xmm3
  409110:	f2 0f 59 98 18 02 00 00     	(arith) 	mulsd	0x218(%rax),%xmm3
  409118:	66 44 0f 28 f8              	(move)  	movapd	%xmm0,%xmm15
  40911d:	f2 44 0f 59 b8 90 52 00 00  	(arith) 	mulsd	0x5290(%rax),%xmm15
  409126:	f2 41 0f 5c df              	(arith) 	subsd	%xmm15,%xmm3
  40912b:	f2 0f 11 9a 60 a5 00 00     	(move)  	movsd	%xmm3,0xa560(%rdx)
/home/jcsalinas/Documents/pruebas/inst_estimation_module/BT/y_solve.f:273
  409133:	66 0f 28 d9                 	(move)  	movapd	%xmm1,%xmm3
  409137:	f2 0f 59 98 40 02 00 00     	(arith) 	mulsd	0x240(%rax),%xmm3
  40913f:	66 44 0f 28 f8              	(move)  	movapd	%xmm0,%xmm15
  409144:	f2 44 0f 59 b8 b8 52 00 00  	(arith) 	mulsd	0x52b8(%rax),%xmm15
  40914d:	f2 41 0f 5c df              	(arith) 	subsd	%xmm15,%xmm3
  409152:	f2 0f 11 9a 88 a5 00 00     	(move)  	movsd	%xmm3,0xa588(%rdx)
/home/jcsalinas/Documents/pruebas/inst_estimation_module/BT/y_solve.f:276
  40915a:	66 0f 28 d9                 	(move)  	movapd	%xmm1,%xmm3
  40915e:	f2 0f 59 98 a8 01 00 00     	(arith) 	mulsd	0x1a8(%rax),%xmm3
  409166:	66 44 0f 28 f8              	(move)  	movapd	%xmm0,%xmm15
  40916b:	f2 44 0f 59 b8 20 52 00 00  	(arith) 	mulsd	0x5220(%rax),%xmm15
  409174:	f2 41 0f 5c df              	(arith) 	subsd	%xmm15,%xmm3
  409179:	f2 0f 11 9a f0 a4 00 00     	(move)  	movsd	%xmm3,0xa4f0(%rdx)
/home/jcsalinas/Documents/pruebas/inst_estimation_module/BT/y_solve.f:278
  409181:	66 0f 28 d9                 	(move)  	movapd	%xmm1,%xmm3
  409185:	f2 0f 59 98 d0 01 00 00     	(arith) 	mulsd	0x1d0(%rax),%xmm3
  40918d:	66 44 0f 28 f8              	(move)  	movapd	%xmm0,%xmm15
  409192:	f2 44 0f 59 b8 48 52 00 00  	(arith) 	mulsd	0x5248(%rax),%xmm15
  40919b:	f2 41 0f 5c df              	(arith) 	subsd	%xmm15,%xmm3
  4091a0:	f2 0f 11 9a 18 a5 00 00     	(move)  	movsd	%xmm3,0xa518(%rdx)
/home/jcsalinas/Documents/pruebas/inst_estimation_module/BT/y_solve.f:280
  4091a8:	66 0f 28 d9                 	(move)  	movapd	%xmm1,%xmm3
  4091ac:	f2 0f 59 98 f8 01 00 00     	(arith) 	mulsd	0x1f8(%rax),%xmm3
  4091b4:	66 44 0f 28 f8              	(move)  	movapd	%xmm0,%xmm15
  4091b9:	f2 44 0f 59 b8 70 52 00 00  	(arith) 	mulsd	0x5270(%rax),%xmm15
  4091c2:	f2 41 0f 5c df              	(arith) 	subsd	%xmm15,%xmm3
  4091c7:	f2 0f 11 9a 40 a5 00 00     	(move)  	movsd	%xmm3,0xa540(%rdx)
/home/jcsalinas/Documents/pruebas/inst_estimation_module/BT/y_solve.f:283
  4091cf:	66 0f 28 d9                 	(move)  	movapd	%xmm1,%xmm3
  4091d3:	f2 0f 59 98 20 02 00 00     	(arith) 	mulsd	0x220(%rax),%xmm3
  4091db:	66 44 0f 28 f8              	(move)  	movapd	%xmm0,%xmm15
  4091e0:	f2 44 0f 59 b8 98 52 00 00  	(arith) 	mulsd	0x5298(%rax),%xmm15
  4091e9:	f2 41 0f 5c df              	(arith) 	subsd	%xmm15,%xmm3
  4091ee:	f2 0f 5c de                 	(arith) 	subsd	%xmm6,%xmm3
  4091f2:	f2 0f 11 9a 68 a5 00 00     	(move)  	movsd	%xmm3,0xa568(%rdx)
/home/jcsalinas/Documents/pruebas/inst_estimation_module/BT/y_solve.f:285
  4091fa:	66 0f 28 d9                 	(move)  	movapd	%xmm1,%xmm3
  4091fe:	f2 0f 59 98 48 02 00 00     	(arith) 	mulsd	0x248(%rax),%xmm3
  409206:	66 44 0f 28 f8              	(move)  	movapd	%xmm0,%xmm15
  40920b:	f2 44 0f 59 b8 c0 52 00 00  	(arith) 	mulsd	0x52c0(%rax),%xmm15
  409214:	f2 41 0f 5c df              	(arith) 	subsd	%xmm15,%xmm3
  409219:	f2 0f 11 9a 90 a5 00 00     	(move)  	movsd	%xmm3,0xa590(%rdx)
/home/jcsalinas/Documents/pruebas/inst_estimation_module/BT/y_solve.f:288
  409221:	66 0f 28 d9                 	(move)  	movapd	%xmm1,%xmm3
  409225:	f2 0f 59 98 b0 01 00 00     	(arith) 	mulsd	0x1b0(%rax),%xmm3
  40922d:	66 44 0f 28 f8              	(move)  	movapd	%xmm0,%xmm15
  409232:	f2 44 0f 59 b8 28 52 00 00  	(arith) 	mulsd	0x5228(%rax),%xmm15
  40923b:	f2 41 0f 5c df              	(arith) 	subsd	%xmm15,%xmm3
  409240:	f2 0f 11 9a f8 a4 00 00     	(move)  	movsd	%xmm3,0xa4f8(%rdx)
/home/jcsalinas/Documents/pruebas/inst_estimation_module/BT/y_solve.f:290
  409248:	66 0f 28 d9                 	(move)  	movapd	%xmm1,%xmm3
  40924c:	f2 0f 59 98 d8 01 00 00     	(arith) 	mulsd	0x1d8(%rax),%xmm3
  409254:	66 44 0f 28 f8              	(move)  	movapd	%xmm0,%xmm15
  409259:	f2 44 0f 59 b8 50 52 00 00  	(arith) 	mulsd	0x5250(%rax),%xmm15
  409262:	f2 41 0f 5c df              	(arith) 	subsd	%xmm15,%xmm3
  409267:	f2 0f 11 9a 20 a5 00 00     	(move)  	movsd	%xmm3,0xa520(%rdx)
/home/jcsalinas/Documents/pruebas/inst_estimation_module/BT/y_solve.f:292
  40926f:	66 0f 28 d9                 	(move)  	movapd	%xmm1,%xmm3
  409273:	f2 0f 59 98 00 02 00 00     	(arith) 	mulsd	0x200(%rax),%xmm3
  40927b:	66 44 0f 28 f8              	(move)  	movapd	%xmm0,%xmm15
  409280:	f2 44 0f 59 b8 78 52 00 00  	(arith) 	mulsd	0x5278(%rax),%xmm15
  409289:	f2 41 0f 5c df              	(arith) 	subsd	%xmm15,%xmm3
  40928e:	f2 0f 11 9a 48 a5 00 00     	(move)  	movsd	%xmm3,0xa548(%rdx)
/home/jcsalinas/Documents/pruebas/inst_estimation_module/BT/y_solve.f:294
  409296:	66 0f 28 d9                 	(move)  	movapd	%xmm1,%xmm3
  40929a:	f2 0f 59 98 28 02 00 00     	(arith) 	mulsd	0x228(%rax),%xmm3
  4092a2:	66 44 0f 28 f8              	(move)  	movapd	%xmm0,%xmm15
  4092a7:	f2 44 0f 59 b8 a0 52 00 00  	(arith) 	mulsd	0x52a0(%rax),%xmm15
  4092b0:	f2 41 0f 5c df              	(arith) 	subsd	%xmm15,%xmm3
  4092b5:	f2 0f 11 9a 70 a5 00 00     	(move)  	movsd	%xmm3,0xa570(%rdx)
/home/jcsalinas/Documents/pruebas/inst_estimation_module/BT/y_solve.f:297
  4092bd:	66 0f 28 d9                 	(move)  	movapd	%xmm1,%xmm3
  4092c1:	f2 0f 59 98 50 02 00 00     	(arith) 	mulsd	0x250(%rax),%xmm3
  4092c9:	66 44 0f 28 f8              	(move)  	movapd	%xmm0,%xmm15
  4092ce:	f2 44 0f 59 b8 c8 52 00 00  	(arith) 	mulsd	0x52c8(%rax),%xmm15
  4092d7:	f2 41 0f 5c df              	(arith) 	subsd	%xmm15,%xmm3
  4092dc:	f2 0f 5c dd                 	(arith) 	subsd	%xmm5,%xmm3
  4092e0:	f2 0f 11 9a 98 a5 00 00     	(move)  	movsd	%xmm3,0xa598(%rdx)
  4092e8:	48 05 c8 00 00 00           	(arith) 	add	$0xc8,%rax
  4092ee:	48 81 c2 58 02 00 00        	(arith) 	add	$0x258,%rdx
/home/jcsalinas/Documents/pruebas/inst_estimation_module/BT/y_solve.f:134
  4092f5:	39 ce                       	(arith) 	cmp	%ecx,%esi
  4092f7:	0f 85 66 f5 ff ff           	(control)	jne	408863 <y_solve_+0x685>	; ↰ label 616 (loop 144)
; ------- Loop 144 exit
617:	
  4092fd:	f2 0f 11 05 f3 37 f8 0a     	(move)  	movsd	%xmm0,0xaf837f3(%rip)
  409305:	f2 0f 11 0d f3 37 f8 0a     	(move)  	movsd	%xmm1,0xaf837f3(%rip)
614:	
/home/jcsalinas/Documents/pruebas/inst_estimation_module/BT/y_solve.f:320
  40930d:	48 63 44 24 48              	(move)  	movsxd	0x48(%rsp),%rax
  409312:	48 8d 04 80                 	(arith) 	lea	(%rax,%rax,4),%rax
  409316:	48 89 44 24 20              	(move)  	mov	%rax,0x20(%rsp)
  40931b:	49 89 c5                    	(move)  	mov	%rax,%r13
  40931e:	49 8d 1c 04                 	(arith) 	lea	(%r12,%rax,1),%rbx
  409322:	48 8d 14 dd 10 0a ad 05     	(arith) 	lea	0x5ad0a10(,%rbx,8),%rdx
  40932a:	48 81 c2 00 16 61 00        	(arith) 	add	$0x611600,%rdx
  409331:	be 20 db 37 0b              	(move)  	mov	$0xb37db20,%esi
  409336:	bf 58 da 37 0b              	(move)  	mov	$0xb37da58,%edi
  40933b:	b8 00 00 00 00              	(move)  	mov	$0,%eax
  409340:	e8 bd 0e 00 00              	(control)	call	40a202 <binvcrhs_>	; ⇄ binvcrhs
618:	
/home/jcsalinas/Documents/pruebas/inst_estimation_module/BT/y_solve.f:326
  409345:	8b 44 24 6c                 	(move)  	mov	0x6c(%rsp),%eax
  409349:	89 44 24 18                 	(move)  	mov	%eax,0x18(%rsp)
  40934d:	83 e8 01                    	(arith) 	sub	$0x1,%eax
  409350:	85 c0                       	(arith) 	test	%eax,%eax
  409352:	0f 8e d7 00 00 00           	(control)	jle	40942f <y_solve_+0x1251>	; ↲ label 619
620:	
  409358:	48 8d 04 dd 10 0a ad 05     	(arith) 	lea	0x5ad0a10(,%rbx,8),%rax
  409360:	48 05 00 16 61 00           	(arith) 	add	$0x611600,%rax
  409366:	48 89 04 24                 	(move)  	mov	%rax,(%rsp)
  40936a:	b8 20 db 37 0b              	(move)  	mov	$0xb37db20,%eax
  40936f:	bd 01 00 00 00              	(move)  	mov	$0x1,%ebp
  409374:	4c 89 64 24 08              	(move)  	mov	%r12,0x8(%rsp)
  409379:	4c 89 6c 24 10              	(move)  	mov	%r13,0x10(%rsp)
  40937e:	49 89 c4                    	(move)  	mov	%rax,%r12
; ------- Loop 143 entry
621 (loop 143):	
/home/jcsalinas/Documents/pruebas/inst_estimation_module/BT/y_solve.f:334
  409381:	48 63 c5                    	(move)  	movsxd	%ebp,%rax
  409384:	48 89 c2                    	(move)  	mov	%rax,%rdx
  409387:	48 c1 e2 08                 	(logic) 	sal	$0x8,%rdx
  40938b:	48 01 c2                    	(arith) 	add	%rax,%rdx
  40938e:	48 8d 14 50                 	(arith) 	lea	(%rax,%rdx,2),%rdx
  409392:	48 03 54 24 08              	(arith) 	add	0x8(%rsp),%rdx
  409397:	48 8b 5c 24 10              	(move)  	mov	0x10(%rsp),%rbx
  40939c:	48 8d 94 13 42 a1 b5 00     	(arith) 	lea	0xb5a142(%rbx,%rdx,1),%rdx
  4093a4:	4c 8d 34 d5 00 16 61 00     	(arith) 	lea	0x611600(,%rdx,8),%r14
  4093ac:	48 8d 04 80                 	(arith) 	lea	(%rax,%rax,4),%rax
  4093b0:	48 89 c3                    	(move)  	mov	%rax,%rbx
  4093b3:	48 c1 e3 04                 	(logic) 	sal	$0x4,%rbx
  4093b7:	48 29 c3                    	(arith) 	sub	%rax,%rbx
  4093ba:	4c 8d 3c dd 90 d9 37 0b     	(arith) 	lea	0xb37d990(,%rbx,8),%r15
  4093c2:	4c 89 f2                    	(move)  	mov	%r14,%rdx
  4093c5:	48 8b 34 24                 	(move)  	mov	(%rsp),%rsi
  4093c9:	4c 89 ff                    	(move)  	mov	%r15,%rdi
  4093cc:	b8 00 00 00 00              	(move)  	mov	$0,%eax
  4093d1:	e8 52 02 00 00              	(control)	call	409628 <matvec_sub_>	; ⇄ matvec_sub
622:	
/home/jcsalinas/Documents/pruebas/inst_estimation_module/BT/y_solve.f:341
  4093d6:	4c 8d 2c dd 58 da 37 0b     	(arith) 	lea	0xb37da58(,%rbx,8),%r13
  4093de:	4c 89 ea                    	(move)  	mov	%r13,%rdx
  4093e1:	4c 89 e6                    	(move)  	mov	%r12,%rsi
  4093e4:	4c 89 ff                    	(move)  	mov	%r15,%rdi
  4093e7:	b8 00 00 00 00              	(move)  	mov	$0,%eax
  4093ec:	e8 cb 03 00 00              	(control)	call	4097bc <matmul_sub_>	; ⇄ matmul_sub
623:	
/home/jcsalinas/Documents/pruebas/inst_estimation_module/BT/y_solve.f:349
  4093f1:	48 8d 34 dd 20 db 37 0b     	(arith) 	lea	0xb37db20(,%rbx,8),%rsi
  4093f9:	4c 89 f2                    	(move)  	mov	%r14,%rdx
  4093fc:	4c 89 ef                    	(move)  	mov	%r13,%rdi
  4093ff:	b8 00 00 00 00              	(move)  	mov	$0,%eax
  409404:	e8 f9 0d 00 00              	(control)	call	40a202 <binvcrhs_>	; ⇄ binvcrhs
624:	
/home/jcsalinas/Documents/pruebas/inst_estimation_module/BT/y_solve.f:326
  409409:	83 c5 01                    	(arith) 	add	$0x1,%ebp
  40940c:	48 81 04 24 18 10 00 00     	(arith) 	addq	$0x1018,(%rsp)
  409414:	49 81 c4 58 02 00 00        	(arith) 	add	$0x258,%r12
  40941b:	39 6c 24 18                 	(arith) 	cmp	%ebp,0x18(%rsp)
  40941f:	0f 85 5c ff ff ff           	(control)	jne	409381 <y_solve_+0x11a3>	; ↰ label 621 (loop 143)
; ------- Loop 143 exit
625:	
  409425:	4c 8b 64 24 08              	(move)  	mov	0x8(%rsp),%r12
  40942a:	4c 8b 6c 24 10              	(move)  	mov	0x10(%rsp),%r13
619:	
/home/jcsalinas/Documents/pruebas/inst_estimation_module/BT/y_solve.f:358
  40942f:	48 63 44 24 6c              	(move)  	movsxd	0x6c(%rsp),%rax
  409434:	48 89 c2                    	(move)  	mov	%rax,%rdx
  409437:	48 c1 e2 08                 	(logic) 	sal	$0x8,%rdx
  40943b:	48 01 c2                    	(arith) 	add	%rax,%rdx
  40943e:	48 8d 0c 50                 	(arith) 	lea	(%rax,%rdx,2),%rcx
  409442:	49 8d 14 0c                 	(arith) 	lea	(%r12,%rcx,1),%rdx
  409446:	48 8b 5c 24 20              	(move)  	mov	0x20(%rsp),%rbx
  40944b:	48 8d 94 13 42 a1 b5 00     	(arith) 	lea	0xb5a142(%rbx,%rdx,1),%rdx
  409453:	48 8d 14 d5 00 16 61 00     	(arith) 	lea	0x611600(,%rdx,8),%rdx
  40945b:	49 8d 8c 0c fd fd ff ff     	(arith) 	lea	-0x203(%r12,%rcx,1),%rcx
  409463:	48 8d 8c 0b 42 a1 b5 00     	(arith) 	lea	0xb5a142(%rbx,%rcx,1),%rcx
  40946b:	48 8d 34 cd 00 16 61 00     	(arith) 	lea	0x611600(,%rcx,8),%rsi
  409473:	48 8d 0c 80                 	(arith) 	lea	(%rax,%rax,4),%rcx
  409477:	48 89 c8                    	(move)  	mov	%rcx,%rax
  40947a:	48 c1 e0 04                 	(logic) 	sal	$0x4,%rax
  40947e:	48 29 c8                    	(arith) 	sub	%rcx,%rax
  409481:	48 8d 3c c5 90 d9 37 0b     	(arith) 	lea	0xb37d990(,%rax,8),%rdi
  409489:	b8 00 00 00 00              	(move)  	mov	$0,%eax
  40948e:	e8 95 01 00 00              	(control)	call	409628 <matvec_sub_>	; ⇄ matvec_sub
626:	
/home/jcsalinas/Documents/pruebas/inst_estimation_module/BT/y_solve.f:367
  409493:	48 63 44 24 6c              	(move)  	movsxd	0x6c(%rsp),%rax
  409498:	48 8d 14 80                 	(arith) 	lea	(%rax,%rax,4),%rdx
  40949c:	48 89 d0                    	(move)  	mov	%rdx,%rax
  40949f:	48 c1 e0 04                 	(logic) 	sal	$0x4,%rax
  4094a3:	48 29 d0                    	(arith) 	sub	%rdx,%rax
  4094a6:	48 8d 14 c5 58 da 37 0b     	(arith) 	lea	0xb37da58(,%rax,8),%rdx
  4094ae:	48 8d 34 c5 c8 d8 37 0b     	(arith) 	lea	0xb37d8c8(,%rax,8),%rsi
  4094b6:	48 8d 3c c5 90 d9 37 0b     	(arith) 	lea	0xb37d990(,%rax,8),%rdi
  4094be:	b8 00 00 00 00              	(move)  	mov	$0,%eax
  4094c3:	e8 f4 02 00 00              	(control)	call	4097bc <matmul_sub_>	; ⇄ matmul_sub
627:	
/home/jcsalinas/Documents/pruebas/inst_estimation_module/BT/y_solve.f:373
  4094c8:	48 63 44 24 6c              	(move)  	movsxd	0x6c(%rsp),%rax
  4094cd:	48 89 c2                    	(move)  	mov	%rax,%rdx
  4094d0:	48 c1 e2 08                 	(logic) 	sal	$0x8,%rdx
  4094d4:	48 01 c2                    	(arith) 	add	%rax,%rdx
  4094d7:	48 8d 14 50                 	(arith) 	lea	(%rax,%rdx,2),%rdx
  4094db:	4c 01 e2                    	(arith) 	add	%r12,%rdx
  4094de:	48 8d 94 13 42 a1 b5 00     	(arith) 	lea	0xb5a142(%rbx,%rdx,1),%rdx
  4094e6:	48 8d 34 d5 00 16 61 00     	(arith) 	lea	0x611600(,%rdx,8),%rsi
  4094ee:	48 8d 14 80                 	(arith) 	lea	(%rax,%rax,4),%rdx
  4094f2:	48 89 d0                    	(move)  	mov	%rdx,%rax
  4094f5:	48 c1 e0 04                 	(logic) 	sal	$0x4,%rax
  4094f9:	48 29 d0                    	(arith) 	sub	%rdx,%rax
  4094fc:	48 8d 3c c5 58 da 37 0b     	(arith) 	lea	0xb37da58(,%rax,8),%rdi
  409504:	b8 00 00 00 00              	(move)  	mov	$0,%eax
  409509:	e8 59 1e 00 00              	(control)	call	40b367 <binvrhs_>	; ⇄ binvrhs
628:	
/home/jcsalinas/Documents/pruebas/inst_estimation_module/BT/y_solve.f:383
  40950e:	44 8b 5c 24 6c              	(move)  	mov	0x6c(%rsp),%r11d
  409513:	41 83 eb 01                 	(arith) 	sub	$0x1,%r11d
  409517:	0f 88 be 00 00 00           	(control)	js	4095db <y_solve_+0x13fd>	; ↲ label 629
; ------- Loop 142 entry
630 (loop 142):	
/home/jcsalinas/Documents/pruebas/inst_estimation_module/BT/y_solve.f:387
  40951d:	49 63 c3                    	(move)  	movsxd	%r11d,%rax
  409520:	48 8d 0c 80                 	(arith) 	lea	(%rax,%rax,4),%rcx
  409524:	48 89 ca                    	(move)  	mov	%rcx,%rdx
  409527:	48 c1 e2 04                 	(logic) 	sal	$0x4,%rdx
  40952b:	48 29 ca                    	(arith) 	sub	%rcx,%rdx
  40952e:	48 89 c1                    	(move)  	mov	%rax,%rcx
  409531:	48 c1 e1 08                 	(logic) 	sal	$0x8,%rcx
  409535:	48 01 c1                    	(arith) 	add	%rax,%rcx
  409538:	48 8d 34 48                 	(arith) 	lea	(%rax,%rcx,2),%rsi
  40953c:	4c 01 e6                    	(arith) 	add	%r12,%rsi
  40953f:	4c 01 ee                    	(arith) 	add	%r13,%rsi
  409542:	48 c1 e6 03                 	(logic) 	sal	$0x3,%rsi
  409546:	41 8d 43 01                 	(arith) 	lea	0x1(%r11),%eax
  40954a:	48 98                       	(conv)  	cltq
  40954c:	48 89 c1                    	(move)  	mov	%rax,%rcx
  40954f:	48 c1 e1 08                 	(logic) 	sal	$0x8,%rcx
  409553:	48 01 c1                    	(arith) 	add	%rax,%rcx
  409556:	4c 8d 0c 48                 	(arith) 	lea	(%rax,%rcx,2),%r9
  40955a:	4d 01 e1                    	(arith) 	add	%r12,%r9
  40955d:	4d 01 e9                    	(arith) 	add	%r13,%r9
  409560:	49 c1 e1 03                 	(logic) 	sal	$0x3,%r9
  409564:	41 b8 00 00 00 00           	(move)  	mov	$0,%r8d
  40956a:	4c 8d 14 d5 08 00 00 00     	(arith) 	lea	0x8(,%rdx,8),%r10
; ------- Loop 141 entry
631 (loop 141):	
  409572:	4b 8d 94 10 a0 38 37 0b     	(arith) 	lea	0xb3738a0(%r8,%r10,1),%rdx
  40957a:	b8 00 00 00 00              	(move)  	mov	$0,%eax
; ------- Loop 140 entry
632 (loop 140):	
  40957f:	49 8d 88 00 16 61 00        	(arith) 	lea	0x611600(%r8),%rcx
  409586:	48 8d b8 00 16 61 00        	(arith) 	lea	0x611600(%rax),%rdi
  40958d:	f2 42 0f 10 8c 0f 10 0a ad 05	(move)  	movsd	0x5ad0a10(%rdi,%r9,1),%xmm1
  409597:	f2 0f 59 8a 78 a2 00 00     	(arith) 	mulsd	0xa278(%rdx),%xmm1
  40959f:	f2 0f 10 84 31 10 0a ad 05  	(move)  	movsd	0x5ad0a10(%rcx,%rsi,1),%xmm0
  4095a8:	f2 0f 5c c1                 	(arith) 	subsd	%xmm1,%xmm0
  4095ac:	f2 0f 11 84 31 10 0a ad 05  	(move)  	movsd	%xmm0,0x5ad0a10(%rcx,%rsi,1)
  4095b5:	48 83 c2 28                 	(arith) 	add	$0x28,%rdx
  4095b9:	48 83 c0 08                 	(arith) 	add	$0x8,%rax
/home/jcsalinas/Documents/pruebas/inst_estimation_module/BT/y_solve.f:385
  4095bd:	48 83 f8 28                 	(arith) 	cmp	$0x28,%rax
  4095c1:	75 bc                       	(control)	jne	40957f <y_solve_+0x13a1>	; ↰ label 632 (loop 140)
; ------- Loop 140 exit
633:	
  4095c3:	49 83 c0 08                 	(arith) 	add	$0x8,%r8
/home/jcsalinas/Documents/pruebas/inst_estimation_module/BT/y_solve.f:384
  4095c7:	49 83 f8 28                 	(arith) 	cmp	$0x28,%r8
  4095cb:	75 a5                       	(control)	jne	409572 <y_solve_+0x1394>	; ↰ label 631 (loop 141)
; ------- Loop 141 exit
634:	
/home/jcsalinas/Documents/pruebas/inst_estimation_module/BT/y_solve.f:383
  4095cd:	41 83 eb 01                 	(arith) 	sub	$0x1,%r11d
  4095d1:	41 83 fb ff                 	(arith) 	cmp	$-0x1,%r11d
  4095d5:	0f 85 42 ff ff ff           	(control)	jne	40951d <y_solve_+0x133f>	; ↰ label 630 (loop 142)
; ------- Loop 142 exit
629:	
/home/jcsalinas/Documents/pruebas/inst_estimation_module/BT/y_solve.f:43
  4095db:	83 44 24 48 01              	(arith) 	addl	$0x1,0x48(%rsp)
  4095e0:	8b 44 24 48                 	(move)  	mov	0x48(%rsp),%eax
  4095e4:	39 44 24 58                 	(arith) 	cmp	%eax,0x58(%rsp)
  4095e8:	0f 85 7e ec ff ff           	(control)	jne	40826c <y_solve_+0x8e>	; ↰ label 608 (loop 139)
; ------- Loop 139 exit
606:	
/home/jcsalinas/Documents/pruebas/inst_estimation_module/BT/y_solve.f:42
  4095ee:	83 44 24 4c 01              	(arith) 	addl	$0x1,0x4c(%rsp)
  4095f3:	8b 44 24 4c                 	(move)  	mov	0x4c(%rsp),%eax
  4095f7:	39 44 24 5c                 	(arith) 	cmp	%eax,0x5c(%rsp)
  4095fb:	0f 85 30 ec ff ff           	(control)	jne	408231 <y_solve_+0x53>	; ↰ label 605 (loop 138)
; ------- Loop 138 exit
603:	
/home/jcsalinas/Documents/pruebas/inst_estimation_module/BT/y_solve.f:394
  409601:	83 3d ec 7f 20 00 00        	(arith) 	cmpl	$0,0x207fec(%rip)
  409608:	74 0f                       	(control)	je	409619 <y_solve_+0x143b>	; ↲ label 635
636:	
/home/jcsalinas/Documents/pruebas/inst_estimation_module/BT/y_solve.f:397
  40960a:	bf 44 ef 40 00              	(move)  	mov	$0x40ef44,%edi
  40960f:	b8 00 00 00 00              	(move)  	mov	$0,%eax
  409614:	e8 22 54 00 00              	(control)	call	40ea3b <timer_stop_>	; ⇄ timer_stop
635:	
/home/jcsalinas/Documents/pruebas/inst_estimation_module/BT/y_solve.f:397
  409619:	48 83 c4 78                 	(arith) 	add	$0x78,%rsp
  40961d:	5b                          	(move)  	pop	%rbx
  40961e:	5d                          	(move)  	pop	%rbp
  40961f:	41 5c                       	(move)  	pop	%r12
  409621:	41 5d                       	(move)  	pop	%r13
  409623:	41 5e                       	(move)  	pop	%r14
  409625:	41 5f                       	(move)  	pop	%r15
  409627:	c3                          	(control)	ret


0000000000409628 <matvec_sub>:
583 (function matvec_sub_):	
/home/jcsalinas/Documents/pruebas/inst_estimation_module/BT/solve_subs.f:5
  409628:	f2 0f 10 2e                 	(move)  	movsd	(%rsi),%xmm5
/home/jcsalinas/Documents/pruebas/inst_estimation_module/BT/solve_subs.f:27
  40962c:	f2 0f 10 66 08              	(move)  	movsd	0x8(%rsi),%xmm4
  409631:	f2 0f 10 5e 10              	(move)  	movsd	0x10(%rsi),%xmm3
  409636:	f2 0f 10 56 18              	(move)  	movsd	0x18(%rsi),%xmm2
  40963b:	f2 0f 10 4e 20              	(move)  	movsd	0x20(%rsi),%xmm1
  409640:	66 0f 28 f5                 	(move)  	movapd	%xmm5,%xmm6
  409644:	f2 0f 59 37                 	(arith) 	mulsd	(%rdi),%xmm6
  409648:	f2 0f 10 02                 	(move)  	movsd	(%rdx),%xmm0
  40964c:	f2 0f 5c c6                 	(arith) 	subsd	%xmm6,%xmm0
  409650:	66 0f 28 f4                 	(move)  	movapd	%xmm4,%xmm6
  409654:	f2 0f 59 77 28              	(arith) 	mulsd	0x28(%rdi),%xmm6
  409659:	f2 0f 5c c6                 	(arith) 	subsd	%xmm6,%xmm0
  40965d:	66 0f 28 f3                 	(move)  	movapd	%xmm3,%xmm6
  409661:	f2 0f 59 77 50              	(arith) 	mulsd	0x50(%rdi),%xmm6
  409666:	f2 0f 5c c6                 	(arith) 	subsd	%xmm6,%xmm0
  40966a:	66 0f 28 f2                 	(move)  	movapd	%xmm2,%xmm6
  40966e:	f2 0f 59 77 78              	(arith) 	mulsd	0x78(%rdi),%xmm6
  409673:	f2 0f 5c c6                 	(arith) 	subsd	%xmm6,%xmm0
  409677:	66 0f 28 f1                 	(move)  	movapd	%xmm1,%xmm6
  40967b:	f2 0f 59 b7 a0 00 00 00     	(arith) 	mulsd	0xa0(%rdi),%xmm6
  409683:	f2 0f 5c c6                 	(arith) 	subsd	%xmm6,%xmm0
  409687:	f2 0f 11 02                 	(move)  	movsd	%xmm0,(%rdx)
/home/jcsalinas/Documents/pruebas/inst_estimation_module/BT/solve_subs.f:32
  40968b:	66 0f 28 f5                 	(move)  	movapd	%xmm5,%xmm6
  40968f:	f2 0f 59 77 08              	(arith) 	mulsd	0x8(%rdi),%xmm6
  409694:	f2 0f 10 42 08              	(move)  	movsd	0x8(%rdx),%xmm0
  409699:	f2 0f 5c c6                 	(arith) 	subsd	%xmm6,%xmm0
  40969d:	66 0f 28 f4                 	(move)  	movapd	%xmm4,%xmm6
  4096a1:	f2 0f 59 77 30              	(arith) 	mulsd	0x30(%rdi),%xmm6
  4096a6:	f2 0f 5c c6                 	(arith) 	subsd	%xmm6,%xmm0
  4096aa:	66 0f 28 f3                 	(move)  	movapd	%xmm3,%xmm6
  4096ae:	f2 0f 59 77 58              	(arith) 	mulsd	0x58(%rdi),%xmm6
  4096b3:	f2 0f 5c c6                 	(arith) 	subsd	%xmm6,%xmm0
  4096b7:	66 0f 28 f2                 	(move)  	movapd	%xmm2,%xmm6
  4096bb:	f2 0f 59 b7 80 00 00 00     	(arith) 	mulsd	0x80(%rdi),%xmm6
  4096c3:	f2 0f 5c c6                 	(arith) 	subsd	%xmm6,%xmm0
  4096c7:	66 0f 28 f1                 	(move)  	movapd	%xmm1,%xmm6
  4096cb:	f2 0f 59 b7 a8 00 00 00     	(arith) 	mulsd	0xa8(%rdi),%xmm6
  4096d3:	f2 0f 5c c6                 	(arith) 	subsd	%xmm6,%xmm0
  4096d7:	f2 0f 11 42 08              	(move)  	movsd	%xmm0,0x8(%rdx)
/home/jcsalinas/Documents/pruebas/inst_estimation_module/BT/solve_subs.f:37
  4096dc:	66 0f 28 f5                 	(move)  	movapd	%xmm5,%xmm6
  4096e0:	f2 0f 59 77 10              	(arith) 	mulsd	0x10(%rdi),%xmm6
  4096e5:	f2 0f 10 42 10              	(move)  	movsd	0x10(%rdx),%xmm0
  4096ea:	f2 0f 5c c6                 	(arith) 	subsd	%xmm6,%xmm0
  4096ee:	66 0f 28 f4                 	(move)  	movapd	%xmm4,%xmm6
  4096f2:	f2 0f 59 77 38              	(arith) 	mulsd	0x38(%rdi),%xmm6
  4096f7:	f2 0f 5c c6                 	(arith) 	subsd	%xmm6,%xmm0
  4096fb:	66 0f 28 f3                 	(move)  	movapd	%xmm3,%xmm6
  4096ff:	f2 0f 59 77 60              	(arith) 	mulsd	0x60(%rdi),%xmm6
  409704:	f2 0f 5c c6                 	(arith) 	subsd	%xmm6,%xmm0
  409708:	66 0f 28 f2                 	(move)  	movapd	%xmm2,%xmm6
  40970c:	f2 0f 59 b7 88 00 00 00     	(arith) 	mulsd	0x88(%rdi),%xmm6
  409714:	f2 0f 5c c6                 	(arith) 	subsd	%xmm6,%xmm0
  409718:	66 0f 28 f1                 	(move)  	movapd	%xmm1,%xmm6
  40971c:	f2 0f 59 b7 b0 00 00 00     	(arith) 	mulsd	0xb0(%rdi),%xmm6
  409724:	f2 0f 5c c6                 	(arith) 	subsd	%xmm6,%xmm0
  409728:	f2 0f 11 42 10              	(move)  	movsd	%xmm0,0x10(%rdx)
/home/jcsalinas/Documents/pruebas/inst_estimation_module/BT/solve_subs.f:42
  40972d:	66 0f 28 f5                 	(move)  	movapd	%xmm5,%xmm6
  409731:	f2 0f 59 77 18              	(arith) 	mulsd	0x18(%rdi),%xmm6
  409736:	f2 0f 10 42 18              	(move)  	movsd	0x18(%rdx),%xmm0
  40973b:	f2 0f 5c c6                 	(arith) 	subsd	%xmm6,%xmm0
  40973f:	66 0f 28 f4                 	(move)  	movapd	%xmm4,%xmm6
  409743:	f2 0f 59 77 40              	(arith) 	mulsd	0x40(%rdi),%xmm6
  409748:	f2 0f 5c c6                 	(arith) 	subsd	%xmm6,%xmm0
  40974c:	66 0f 28 f3                 	(move)  	movapd	%xmm3,%xmm6
  409750:	f2 0f 59 77 68              	(arith) 	mulsd	0x68(%rdi),%xmm6
  409755:	f2 0f 5c c6                 	(arith) 	subsd	%xmm6,%xmm0
  409759:	66 0f 28 f2                 	(move)  	movapd	%xmm2,%xmm6
  40975d:	f2 0f 59 b7 90 00 00 00     	(arith) 	mulsd	0x90(%rdi),%xmm6
  409765:	f2 0f 5c c6                 	(arith) 	subsd	%xmm6,%xmm0
  409769:	66 0f 28 f1                 	(move)  	movapd	%xmm1,%xmm6
  40976d:	f2 0f 59 b7 b8 00 00 00     	(arith) 	mulsd	0xb8(%rdi),%xmm6
  409775:	f2 0f 5c c6                 	(arith) 	subsd	%xmm6,%xmm0
  409779:	f2 0f 11 42 18              	(move)  	movsd	%xmm0,0x18(%rdx)
/home/jcsalinas/Documents/pruebas/inst_estimation_module/BT/solve_subs.f:47
  40977e:	f2 0f 59 6f 20              	(arith) 	mulsd	0x20(%rdi),%xmm5
  409783:	f2 0f 10 42 20              	(move)  	movsd	0x20(%rdx),%xmm0
  409788:	f2 0f 5c c5                 	(arith) 	subsd	%xmm5,%xmm0
  40978c:	f2 0f 59 67 48              	(arith) 	mulsd	0x48(%rdi),%xmm4
  409791:	f2 0f 5c c4                 	(arith) 	subsd	%xmm4,%xmm0
  409795:	f2 0f 59 5f 70              	(arith) 	mulsd	0x70(%rdi),%xmm3
  40979a:	f2 0f 5c c3                 	(arith) 	subsd	%xmm3,%xmm0
  40979e:	f2 0f 59 97 98 00 00 00     	(arith) 	mulsd	0x98(%rdi),%xmm2
  4097a6:	f2 0f 5c c2                 	(arith) 	subsd	%xmm2,%xmm0
  4097aa:	f2 0f 59 8f c0 00 00 00     	(arith) 	mulsd	0xc0(%rdi),%xmm1
  4097b2:	f2 0f 5c c1                 	(arith) 	subsd	%xmm1,%xmm0
  4097b6:	f2 0f 11 42 20              	(move)  	movsd	%xmm0,0x20(%rdx)
  4097bb:	c3                          	(control)	ret


00000000004097bc <matmul_sub>:
585 (function matmul_sub_):	
/home/jcsalinas/Documents/pruebas/inst_estimation_module/BT/solve_subs.f:56
  4097bc:	48 83 ec 08                 	(arith) 	sub	$0x8,%rsp
/home/jcsalinas/Documents/pruebas/inst_estimation_module/BT/solve_subs.f:75
  4097c0:	f2 0f 10 27                 	(move)  	movsd	(%rdi),%xmm4
  4097c4:	f2 44 0f 10 0e              	(move)  	movsd	(%rsi),%xmm9
  4097c9:	f2 0f 10 5f 28              	(move)  	movsd	0x28(%rdi),%xmm3
  4097ce:	f2 44 0f 10 46 08           	(move)  	movsd	0x8(%rsi),%xmm8
  4097d4:	f2 0f 10 57 50              	(move)  	movsd	0x50(%rdi),%xmm2
  4097d9:	f2 0f 10 7e 10              	(move)  	movsd	0x10(%rsi),%xmm7
  4097de:	f2 0f 10 4f 78              	(move)  	movsd	0x78(%rdi),%xmm1
  4097e3:	f2 0f 10 76 18              	(move)  	movsd	0x18(%rsi),%xmm6
  4097e8:	f2 0f 10 af a0 00 00 00     	(move)  	movsd	0xa0(%rdi),%xmm5
  4097f0:	66 44 0f 28 dd              	(move)  	movapd	%xmm5,%xmm11
  4097f5:	f2 0f 10 6e 20              	(move)  	movsd	0x20(%rsi),%xmm5
  4097fa:	66 44 0f 28 d4              	(move)  	movapd	%xmm4,%xmm10
  4097ff:	f2 45 0f 59 d1              	(arith) 	mulsd	%xmm9,%xmm10
  409804:	f2 0f 10 02                 	(move)  	movsd	(%rdx),%xmm0
  409808:	f2 41 0f 5c c2              	(arith) 	subsd	%xmm10,%xmm0
  40980d:	66 44 0f 28 d3              	(move)  	movapd	%xmm3,%xmm10
  409812:	f2 45 0f 59 d0              	(arith) 	mulsd	%xmm8,%xmm10
  409817:	f2 41 0f 5c c2              	(arith) 	subsd	%xmm10,%xmm0
  40981c:	66 44 0f 28 d2              	(move)  	movapd	%xmm2,%xmm10
  409821:	f2 44 0f 59 d7              	(arith) 	mulsd	%xmm7,%xmm10
  409826:	f2 41 0f 5c c2              	(arith) 	subsd	%xmm10,%xmm0
  40982b:	66 44 0f 28 d1              	(move)  	movapd	%xmm1,%xmm10
  409830:	f2 44 0f 59 d6              	(arith) 	mulsd	%xmm6,%xmm10
  409835:	f2 41 0f 5c c2              	(arith) 	subsd	%xmm10,%xmm0
  40983a:	f2 44 0f 11 5c 24 a8        	(move)  	movsd	%xmm11,-0x58(%rsp)
  409841:	66 45 0f 28 d3              	(move)  	movapd	%xmm11,%xmm10
  409846:	f2 44 0f 59 d5              	(arith) 	mulsd	%xmm5,%xmm10
  40984b:	f2 41 0f 5c c2              	(arith) 	subsd	%xmm10,%xmm0
  409850:	f2 0f 11 02                 	(move)  	movsd	%xmm0,(%rdx)
/home/jcsalinas/Documents/pruebas/inst_estimation_module/BT/solve_subs.f:80
  409854:	f2 0f 10 47 08              	(move)  	movsd	0x8(%rdi),%xmm0
  409859:	f2 44 0f 10 6f 30           	(move)  	movsd	0x30(%rdi),%xmm13
  40985f:	f2 44 0f 10 67 58           	(move)  	movsd	0x58(%rdi),%xmm12
  409865:	66 45 0f 28 fc              	(move)  	movapd	%xmm12,%xmm15
  40986a:	f2 44 0f 10 b7 80 00 00 00  	(move)  	movsd	0x80(%rdi),%xmm14
  409873:	66 45 0f 28 de              	(move)  	movapd	%xmm14,%xmm11
  409878:	f2 44 0f 10 a7 a8 00 00 00  	(move)  	movsd	0xa8(%rdi),%xmm12
  409881:	f2 44 0f 11 64 24 88        	(move)  	movsd	%xmm12,-0x78(%rsp)
  409888:	f2 0f 11 44 24 b0           	(move)  	movsd	%xmm0,-0x50(%rsp)
  40988e:	66 44 0f 28 e0              	(move)  	movapd	%xmm0,%xmm12
  409893:	f2 45 0f 59 e1              	(arith) 	mulsd	%xmm9,%xmm12
  409898:	f2 0f 10 42 08              	(move)  	movsd	0x8(%rdx),%xmm0
  40989d:	f2 41 0f 5c c4              	(arith) 	subsd	%xmm12,%xmm0
  4098a2:	f2 44 0f 11 6c 24 b8        	(move)  	movsd	%xmm13,-0x48(%rsp)
  4098a9:	66 45 0f 28 f5              	(move)  	movapd	%xmm13,%xmm14
  4098ae:	f2 45 0f 59 f0              	(arith) 	mulsd	%xmm8,%xmm14
  4098b3:	f2 41 0f 5c c6              	(arith) 	subsd	%xmm14,%xmm0
  4098b8:	f2 44 0f 11 7c 24 c0        	(move)  	movsd	%xmm15,-0x40(%rsp)
  4098bf:	66 45 0f 28 d7              	(move)  	movapd	%xmm15,%xmm10
  4098c4:	f2 44 0f 59 d7              	(arith) 	mulsd	%xmm7,%xmm10
  4098c9:	f2 41 0f 5c c2              	(arith) 	subsd	%xmm10,%xmm0
  4098ce:	f2 44 0f 11 5c 24 c8        	(move)  	movsd	%xmm11,-0x38(%rsp)
  4098d5:	f2 44 0f 59 de              	(arith) 	mulsd	%xmm6,%xmm11
  4098da:	f2 41 0f 5c c3              	(arith) 	subsd	%xmm11,%xmm0
  4098df:	f2 44 0f 10 54 24 88        	(move)  	movsd	-0x78(%rsp),%xmm10
  4098e6:	f2 44 0f 59 d5              	(arith) 	mulsd	%xmm5,%xmm10
  4098eb:	f2 41 0f 5c c2              	(arith) 	subsd	%xmm10,%xmm0
  4098f0:	f2 0f 11 42 08              	(move)  	movsd	%xmm0,0x8(%rdx)
/home/jcsalinas/Documents/pruebas/inst_estimation_module/BT/solve_subs.f:85
  4098f5:	f2 44 0f 10 7f 10           	(move)  	movsd	0x10(%rdi),%xmm15
  4098fb:	f2 44 0f 10 6f 38           	(move)  	movsd	0x38(%rdi),%xmm13
  409901:	f2 44 0f 10 67 60           	(move)  	movsd	0x60(%rdi),%xmm12
  409907:	f2 44 0f 10 b7 88 00 00 00  	(move)  	movsd	0x88(%rdi),%xmm14
  409910:	66 45 0f 28 de              	(move)  	movapd	%xmm14,%xmm11
  409915:	f2 44 0f 10 b7 b0 00 00 00  	(move)  	movsd	0xb0(%rdi),%xmm14
  40991e:	f2 44 0f 11 74 24 90        	(move)  	movsd	%xmm14,-0x70(%rsp)
  409925:	f2 44 0f 11 7c 24 d0        	(move)  	movsd	%xmm15,-0x30(%rsp)
  40992c:	f2 45 0f 59 f9              	(arith) 	mulsd	%xmm9,%xmm15
  409931:	f2 0f 10 42 10              	(move)  	movsd	0x10(%rdx),%xmm0
  409936:	f2 41 0f 5c c7              	(arith) 	subsd	%xmm15,%xmm0
  40993b:	f2 44 0f 11 6c 24 d8        	(move)  	movsd	%xmm13,-0x28(%rsp)
  409942:	66 45 0f 28 f5              	(move)  	movapd	%xmm13,%xmm14
  409947:	f2 45 0f 59 f0              	(arith) 	mulsd	%xmm8,%xmm14
  40994c:	f2 41 0f 5c c6              	(arith) 	subsd	%xmm14,%xmm0
  409951:	f2 44 0f 11 64 24 e0        	(move)  	movsd	%xmm12,-0x20(%rsp)
  409958:	f2 44 0f 59 e7              	(arith) 	mulsd	%xmm7,%xmm12
  40995d:	f2 41 0f 5c c4              	(arith) 	subsd	%xmm12,%xmm0
  409962:	f2 44 0f 11 5c 24 e8        	(move)  	movsd	%xmm11,-0x18(%rsp)
  409969:	66 45 0f 28 d3              	(move)  	movapd	%xmm11,%xmm10
  40996e:	f2 44 0f 59 d6              	(arith) 	mulsd	%xmm6,%xmm10
  409973:	f2 41 0f 5c c2              	(arith) 	subsd	%xmm10,%xmm0
  409978:	f2 44 0f 10 74 24 90        	(move)  	movsd	-0x70(%rsp),%xmm14
  40997f:	f2 44 0f 59 f5              	(arith) 	mulsd	%xmm5,%xmm14
  409984:	f2 41 0f 5c c6              	(arith) 	subsd	%xmm14,%xmm0
  409989:	f2 0f 11 42 10              	(move)  	movsd	%xmm0,0x10(%rdx)
/home/jcsalinas/Documents/pruebas/inst_estimation_module/BT/solve_subs.f:90
  40998e:	f2 44 0f 10 6f 18           	(move)  	movsd	0x18(%rdi),%xmm13
  409994:	66 41 0f 28 c5              	(move)  	movapd	%xmm13,%xmm0
  409999:	f2 44 0f 10 77 40           	(move)  	movsd	0x40(%rdi),%xmm14
  40999f:	f2 44 0f 10 6f 68           	(move)  	movsd	0x68(%rdi),%xmm13
  4099a5:	f2 44 0f 10 a7 90 00 00 00  	(move)  	movsd	0x90(%rdi),%xmm12
  4099ae:	f2 44 0f 10 9f b8 00 00 00  	(move)  	movsd	0xb8(%rdi),%xmm11
  4099b7:	f2 0f 11 44 24 f0           	(move)  	movsd	%xmm0,-0x10(%rsp)
  4099bd:	66 44 0f 28 d0              	(move)  	movapd	%xmm0,%xmm10
  4099c2:	f2 45 0f 59 d1              	(arith) 	mulsd	%xmm9,%xmm10
  4099c7:	f2 0f 10 42 18              	(move)  	movsd	0x18(%rdx),%xmm0
  4099cc:	f2 41 0f 5c c2              	(arith) 	subsd	%xmm10,%xmm0
  4099d1:	66 45 0f 28 d0              	(move)  	movapd	%xmm8,%xmm10
  4099d6:	f2 45 0f 59 d6              	(arith) 	mulsd	%xmm14,%xmm10
  4099db:	f2 41 0f 5c c2              	(arith) 	subsd	%xmm10,%xmm0
  4099e0:	66 44 0f 28 d7              	(move)  	movapd	%xmm7,%xmm10
  4099e5:	f2 45 0f 59 d5              	(arith) 	mulsd	%xmm13,%xmm10
  4099ea:	f2 41 0f 5c c2              	(arith) 	subsd	%xmm10,%xmm0
  4099ef:	66 44 0f 28 d6              	(move)  	movapd	%xmm6,%xmm10
  4099f4:	f2 45 0f 59 d4              	(arith) 	mulsd	%xmm12,%xmm10
  4099f9:	f2 41 0f 5c c2              	(arith) 	subsd	%xmm10,%xmm0
  4099fe:	66 44 0f 28 d5              	(move)  	movapd	%xmm5,%xmm10
  409a03:	f2 45 0f 59 d3              	(arith) 	mulsd	%xmm11,%xmm10
  409a08:	f2 41 0f 5c c2              	(arith) 	subsd	%xmm10,%xmm0
  409a0d:	f2 0f 11 42 18              	(move)  	movsd	%xmm0,0x18(%rdx)
/home/jcsalinas/Documents/pruebas/inst_estimation_module/BT/solve_subs.f:95
  409a12:	f2 0f 10 47 20              	(move)  	movsd	0x20(%rdi),%xmm0
  409a17:	f2 44 0f 10 57 48           	(move)  	movsd	0x48(%rdi),%xmm10
  409a1d:	66 45 0f 28 fa              	(move)  	movapd	%xmm10,%xmm15
  409a22:	f2 44 0f 10 57 70           	(move)  	movsd	0x70(%rdi),%xmm10
  409a28:	f2 44 0f 11 54 24 98        	(move)  	movsd	%xmm10,-0x68(%rsp)
  409a2f:	f2 44 0f 10 97 98 00 00 00  	(move)  	movsd	0x98(%rdi),%xmm10
  409a38:	f2 44 0f 11 54 24 a0        	(move)  	movsd	%xmm10,-0x60(%rsp)
  409a3f:	f2 44 0f 10 97 c0 00 00 00  	(move)  	movsd	0xc0(%rdi),%xmm10
  409a48:	f2 0f 11 04 24              	(move)  	movsd	%xmm0,(%rsp)
  409a4d:	f2 44 0f 59 c8              	(arith) 	mulsd	%xmm0,%xmm9
  409a52:	f2 0f 10 42 20              	(move)  	movsd	0x20(%rdx),%xmm0
  409a57:	f2 41 0f 5c c1              	(arith) 	subsd	%xmm9,%xmm0
  409a5c:	f2 44 0f 11 7c 24 f8        	(move)  	movsd	%xmm15,-0x8(%rsp)
  409a63:	f2 45 0f 59 c7              	(arith) 	mulsd	%xmm15,%xmm8
  409a68:	f2 41 0f 5c c0              	(arith) 	subsd	%xmm8,%xmm0
  409a6d:	f2 0f 59 7c 24 98           	(arith) 	mulsd	-0x68(%rsp),%xmm7
  409a73:	f2 0f 5c c7                 	(arith) 	subsd	%xmm7,%xmm0
  409a77:	f2 0f 59 74 24 a0           	(arith) 	mulsd	-0x60(%rsp),%xmm6
  409a7d:	f2 0f 5c c6                 	(arith) 	subsd	%xmm6,%xmm0
  409a81:	f2 41 0f 59 ea              	(arith) 	mulsd	%xmm10,%xmm5
  409a86:	f2 0f 5c c5                 	(arith) 	subsd	%xmm5,%xmm0
  409a8a:	f2 0f 11 42 20              	(move)  	movsd	%xmm0,0x20(%rdx)
/home/jcsalinas/Documents/pruebas/inst_estimation_module/BT/solve_subs.f:100
  409a8f:	f2 44 0f 10 4e 28           	(move)  	movsd	0x28(%rsi),%xmm9
  409a95:	f2 44 0f 10 46 30           	(move)  	movsd	0x30(%rsi),%xmm8
  409a9b:	f2 0f 10 7e 38              	(move)  	movsd	0x38(%rsi),%xmm7
  409aa0:	f2 0f 10 76 40              	(move)  	movsd	0x40(%rsi),%xmm6
  409aa5:	f2 0f 10 6e 48              	(move)  	movsd	0x48(%rsi),%xmm5
  409aaa:	66 44 0f 28 fc              	(move)  	movapd	%xmm4,%xmm15
  409aaf:	f2 45 0f 59 f9              	(arith) 	mulsd	%xmm9,%xmm15
  409ab4:	f2 0f 10 42 28              	(move)  	movsd	0x28(%rdx),%xmm0
  409ab9:	f2 41 0f 5c c7              	(arith) 	subsd	%xmm15,%xmm0
  409abe:	66 44 0f 28 fb              	(move)  	movapd	%xmm3,%xmm15
  409ac3:	f2 45 0f 59 f8              	(arith) 	mulsd	%xmm8,%xmm15
  409ac8:	f2 41 0f 5c c7              	(arith) 	subsd	%xmm15,%xmm0
  409acd:	66 44 0f 28 fa              	(move)  	movapd	%xmm2,%xmm15
  409ad2:	f2 44 0f 59 ff              	(arith) 	mulsd	%xmm7,%xmm15
  409ad7:	f2 41 0f 5c c7              	(arith) 	subsd	%xmm15,%xmm0
  409adc:	66 44 0f 28 f9              	(move)  	movapd	%xmm1,%xmm15
  409ae1:	f2 44 0f 59 fe              	(arith) 	mulsd	%xmm6,%xmm15
  409ae6:	f2 41 0f 5c c7              	(arith) 	subsd	%xmm15,%xmm0
  409aeb:	f2 44 0f 10 7c 24 a8        	(move)  	movsd	-0x58(%rsp),%xmm15
  409af2:	f2 44 0f 59 fd              	(arith) 	mulsd	%xmm5,%xmm15
  409af7:	f2 41 0f 5c c7              	(arith) 	subsd	%xmm15,%xmm0
  409afc:	f2 0f 11 42 28              	(move)  	movsd	%xmm0,0x28(%rdx)
/home/jcsalinas/Documents/pruebas/inst_estimation_module/BT/solve_subs.f:105
  409b01:	f2 0f 10 44 24 b0           	(move)  	movsd	-0x50(%rsp),%xmm0
  409b07:	f2 41 0f 59 c1              	(arith) 	mulsd	%xmm9,%xmm0
  409b0c:	66 44 0f 28 f8              	(move)  	movapd	%xmm0,%xmm15
  409b11:	f2 0f 10 42 30              	(move)  	movsd	0x30(%rdx),%xmm0
  409b16:	f2 41 0f 5c c7              	(arith) 	subsd	%xmm15,%xmm0
  409b1b:	f2 44 0f 10 7c 24 b8        	(move)  	movsd	-0x48(%rsp),%xmm15
  409b22:	f2 45 0f 59 f8              	(arith) 	mulsd	%xmm8,%xmm15
  409b27:	f2 41 0f 5c c7              	(arith) 	subsd	%xmm15,%xmm0
  409b2c:	f2 44 0f 10 7c 24 c0        	(move)  	movsd	-0x40(%rsp),%xmm15
  409b33:	f2 44 0f 59 ff              	(arith) 	mulsd	%xmm7,%xmm15
  409b38:	f2 41 0f 5c c7              	(arith) 	subsd	%xmm15,%xmm0
  409b3d:	f2 44 0f 10 7c 24 c8        	(move)  	movsd	-0x38(%rsp),%xmm15
  409b44:	f2 44 0f 59 fe              	(arith) 	mulsd	%xmm6,%xmm15
  409b49:	f2 41 0f 5c c7              	(arith) 	subsd	%xmm15,%xmm0
  409b4e:	f2 44 0f 10 7c 24 88        	(move)  	movsd	-0x78(%rsp),%xmm15
  409b55:	f2 44 0f 59 fd              	(arith) 	mulsd	%xmm5,%xmm15
  409b5a:	f2 41 0f 5c c7              	(arith) 	subsd	%xmm15,%xmm0
  409b5f:	f2 0f 11 42 30              	(move)  	movsd	%xmm0,0x30(%rdx)
/home/jcsalinas/Documents/pruebas/inst_estimation_module/BT/solve_subs.f:110
  409b64:	f2 0f 10 44 24 d0           	(move)  	movsd	-0x30(%rsp),%xmm0
  409b6a:	f2 41 0f 59 c1              	(arith) 	mulsd	%xmm9,%xmm0
  409b6f:	66 44 0f 28 f8              	(move)  	movapd	%xmm0,%xmm15
  409b74:	f2 0f 10 42 38              	(move)  	movsd	0x38(%rdx),%xmm0
  409b79:	f2 41 0f 5c c7              	(arith) 	subsd	%xmm15,%xmm0
  409b7e:	f2 44 0f 10 7c 24 d8        	(move)  	movsd	-0x28(%rsp),%xmm15
  409b85:	f2 45 0f 59 f8              	(arith) 	mulsd	%xmm8,%xmm15
  409b8a:	f2 41 0f 5c c7              	(arith) 	subsd	%xmm15,%xmm0
  409b8f:	f2 44 0f 10 7c 24 e0        	(move)  	movsd	-0x20(%rsp),%xmm15
  409b96:	f2 44 0f 59 ff              	(arith) 	mulsd	%xmm7,%xmm15
  409b9b:	f2 41 0f 5c c7              	(arith) 	subsd	%xmm15,%xmm0
  409ba0:	f2 44 0f 10 7c 24 e8        	(move)  	movsd	-0x18(%rsp),%xmm15
  409ba7:	f2 44 0f 59 fe              	(arith) 	mulsd	%xmm6,%xmm15
  409bac:	f2 41 0f 5c c7              	(arith) 	subsd	%xmm15,%xmm0
  409bb1:	f2 44 0f 10 7c 24 90        	(move)  	movsd	-0x70(%rsp),%xmm15
  409bb8:	f2 44 0f 59 fd              	(arith) 	mulsd	%xmm5,%xmm15
  409bbd:	f2 41 0f 5c c7              	(arith) 	subsd	%xmm15,%xmm0
  409bc2:	f2 0f 11 42 38              	(move)  	movsd	%xmm0,0x38(%rdx)
/home/jcsalinas/Documents/pruebas/inst_estimation_module/BT/solve_subs.f:115
  409bc7:	f2 0f 10 44 24 f0           	(move)  	movsd	-0x10(%rsp),%xmm0
  409bcd:	f2 41 0f 59 c1              	(arith) 	mulsd	%xmm9,%xmm0
  409bd2:	66 44 0f 28 f8              	(move)  	movapd	%xmm0,%xmm15
  409bd7:	f2 0f 10 42 40              	(move)  	movsd	0x40(%rdx),%xmm0
  409bdc:	f2 41 0f 5c c7              	(arith) 	subsd	%xmm15,%xmm0
  409be1:	66 45 0f 28 fe              	(move)  	movapd	%xmm14,%xmm15
  409be6:	f2 45 0f 59 f8              	(arith) 	mulsd	%xmm8,%xmm15
  409beb:	f2 41 0f 5c c7              	(arith) 	subsd	%xmm15,%xmm0
  409bf0:	66 45 0f 28 fd              	(move)  	movapd	%xmm13,%xmm15
  409bf5:	f2 44 0f 59 ff              	(arith) 	mulsd	%xmm7,%xmm15
  409bfa:	f2 41 0f 5c c7              	(arith) 	subsd	%xmm15,%xmm0
  409bff:	66 45 0f 28 fc              	(move)  	movapd	%xmm12,%xmm15
  409c04:	f2 44 0f 59 fe              	(arith) 	mulsd	%xmm6,%xmm15
  409c09:	f2 41 0f 5c c7              	(arith) 	subsd	%xmm15,%xmm0
  409c0e:	66 45 0f 28 fb              	(move)  	movapd	%xmm11,%xmm15
  409c13:	f2 44 0f 59 fd              	(arith) 	mulsd	%xmm5,%xmm15
  409c18:	f2 41 0f 5c c7              	(arith) 	subsd	%xmm15,%xmm0
  409c1d:	f2 0f 11 42 40              	(move)  	movsd	%xmm0,0x40(%rdx)
/home/jcsalinas/Documents/pruebas/inst_estimation_module/BT/solve_subs.f:120
  409c22:	f2 44 0f 59 0c 24           	(arith) 	mulsd	(%rsp),%xmm9
  409c28:	f2 0f 10 42 48              	(move)  	movsd	0x48(%rdx),%xmm0
  409c2d:	f2 41 0f 5c c1              	(arith) 	subsd	%xmm9,%xmm0
  409c32:	f2 44 0f 59 44 24 f8        	(arith) 	mulsd	-0x8(%rsp),%xmm8
  409c39:	f2 41 0f 5c c0              	(arith) 	subsd	%xmm8,%xmm0
  409c3e:	f2 0f 59 7c 24 98           	(arith) 	mulsd	-0x68(%rsp),%xmm7
  409c44:	f2 0f 5c c7                 	(arith) 	subsd	%xmm7,%xmm0
  409c48:	f2 0f 59 74 24 a0           	(arith) 	mulsd	-0x60(%rsp),%xmm6
  409c4e:	f2 0f 5c c6                 	(arith) 	subsd	%xmm6,%xmm0
  409c52:	f2 41 0f 59 ea              	(arith) 	mulsd	%xmm10,%xmm5
  409c57:	f2 0f 5c c5                 	(arith) 	subsd	%xmm5,%xmm0
  409c5b:	f2 0f 11 42 48              	(move)  	movsd	%xmm0,0x48(%rdx)
/home/jcsalinas/Documents/pruebas/inst_estimation_module/BT/solve_subs.f:125
  409c60:	f2 44 0f 10 4e 50           	(move)  	movsd	0x50(%rsi),%xmm9
  409c66:	f2 44 0f 10 46 58           	(move)  	movsd	0x58(%rsi),%xmm8
  409c6c:	f2 0f 10 7e 60              	(move)  	movsd	0x60(%rsi),%xmm7
  409c71:	f2 0f 10 76 68              	(move)  	movsd	0x68(%rsi),%xmm6
  409c76:	f2 0f 10 6e 70              	(move)  	movsd	0x70(%rsi),%xmm5
  409c7b:	66 0f 28 c4                 	(move)  	movapd	%xmm4,%xmm0
  409c7f:	f2 41 0f 59 c1              	(arith) 	mulsd	%xmm9,%xmm0
  409c84:	66 44 0f 28 f8              	(move)  	movapd	%xmm0,%xmm15
  409c89:	f2 0f 10 42 50              	(move)  	movsd	0x50(%rdx),%xmm0
  409c8e:	f2 41 0f 5c c7              	(arith) 	subsd	%xmm15,%xmm0
  409c93:	66 44 0f 28 fb              	(move)  	movapd	%xmm3,%xmm15
  409c98:	f2 45 0f 59 f8              	(arith) 	mulsd	%xmm8,%xmm15
  409c9d:	f2 41 0f 5c c7              	(arith) 	subsd	%xmm15,%xmm0
  409ca2:	66 44 0f 28 fa              	(move)  	movapd	%xmm2,%xmm15
  409ca7:	f2 44 0f 59 ff              	(arith) 	mulsd	%xmm7,%xmm15
  409cac:	f2 41 0f 5c c7              	(arith) 	subsd	%xmm15,%xmm0
  409cb1:	66 44 0f 28 f9              	(move)  	movapd	%xmm1,%xmm15
  409cb6:	f2 44 0f 59 fe              	(arith) 	mulsd	%xmm6,%xmm15
  409cbb:	f2 41 0f 5c c7              	(arith) 	subsd	%xmm15,%xmm0
  409cc0:	f2 44 0f 10 7c 24 a8        	(move)  	movsd	-0x58(%rsp),%xmm15
  409cc7:	f2 44 0f 59 fd              	(arith) 	mulsd	%xmm5,%xmm15
  409ccc:	f2 41 0f 5c c7              	(arith) 	subsd	%xmm15,%xmm0
  409cd1:	f2 0f 11 42 50              	(move)  	movsd	%xmm0,0x50(%rdx)
/home/jcsalinas/Documents/pruebas/inst_estimation_module/BT/solve_subs.f:130
  409cd6:	f2 0f 10 44 24 b0           	(move)  	movsd	-0x50(%rsp),%xmm0
  409cdc:	f2 41 0f 59 c1              	(arith) 	mulsd	%xmm9,%xmm0
  409ce1:	66 44 0f 28 f8              	(move)  	movapd	%xmm0,%xmm15
  409ce6:	f2 0f 10 42 58              	(move)  	movsd	0x58(%rdx),%xmm0
  409ceb:	f2 41 0f 5c c7              	(arith) 	subsd	%xmm15,%xmm0
  409cf0:	f2 44 0f 10 7c 24 b8        	(move)  	movsd	-0x48(%rsp),%xmm15
  409cf7:	f2 45 0f 59 f8              	(arith) 	mulsd	%xmm8,%xmm15
  409cfc:	f2 41 0f 5c c7              	(arith) 	subsd	%xmm15,%xmm0
  409d01:	f2 44 0f 10 7c 24 c0        	(move)  	movsd	-0x40(%rsp),%xmm15
  409d08:	f2 44 0f 59 ff              	(arith) 	mulsd	%xmm7,%xmm15
  409d0d:	f2 41 0f 5c c7              	(arith) 	subsd	%xmm15,%xmm0
  409d12:	f2 44 0f 10 7c 24 c8        	(move)  	movsd	-0x38(%rsp),%xmm15
  409d19:	f2 44 0f 59 fe              	(arith) 	mulsd	%xmm6,%xmm15
  409d1e:	f2 41 0f 5c c7              	(arith) 	subsd	%xmm15,%xmm0
  409d23:	f2 44 0f 10 7c 24 88        	(move)  	movsd	-0x78(%rsp),%xmm15
  409d2a:	f2 44 0f 59 fd              	(arith) 	mulsd	%xmm5,%xmm15
  409d2f:	f2 41 0f 5c c7              	(arith) 	subsd	%xmm15,%xmm0
  409d34:	f2 0f 11 42 58              	(move)  	movsd	%xmm0,0x58(%rdx)
/home/jcsalinas/Documents/pruebas/inst_estimation_module/BT/solve_subs.f:135
  409d39:	f2 0f 10 44 24 d0           	(move)  	movsd	-0x30(%rsp),%xmm0
  409d3f:	f2 41 0f 59 c1              	(arith) 	mulsd	%xmm9,%xmm0
  409d44:	66 44 0f 28 f8              	(move)  	movapd	%xmm0,%xmm15
  409d49:	f2 0f 10 42 60              	(move)  	movsd	0x60(%rdx),%xmm0
  409d4e:	f2 41 0f 5c c7              	(arith) 	subsd	%xmm15,%xmm0
  409d53:	f2 44 0f 10 7c 24 d8        	(move)  	movsd	-0x28(%rsp),%xmm15
  409d5a:	f2 45 0f 59 f8              	(arith) 	mulsd	%xmm8,%xmm15
  409d5f:	f2 41 0f 5c c7              	(arith) 	subsd	%xmm15,%xmm0
  409d64:	f2 44 0f 10 7c 24 e0        	(move)  	movsd	-0x20(%rsp),%xmm15
  409d6b:	f2 44 0f 59 ff              	(arith) 	mulsd	%xmm7,%xmm15
  409d70:	f2 41 0f 5c c7              	(arith) 	subsd	%xmm15,%xmm0
  409d75:	f2 44 0f 10 7c 24 e8        	(move)  	movsd	-0x18(%rsp),%xmm15
  409d7c:	f2 44 0f 59 fe              	(arith) 	mulsd	%xmm6,%xmm15
  409d81:	f2 41 0f 5c c7              	(arith) 	subsd	%xmm15,%xmm0
  409d86:	f2 44 0f 10 7c 24 90        	(move)  	movsd	-0x70(%rsp),%xmm15
  409d8d:	f2 44 0f 59 fd              	(arith) 	mulsd	%xmm5,%xmm15
  409d92:	f2 41 0f 5c c7              	(arith) 	subsd	%xmm15,%xmm0
  409d97:	f2 0f 11 42 60              	(move)  	movsd	%xmm0,0x60(%rdx)
/home/jcsalinas/Documents/pruebas/inst_estimation_module/BT/solve_subs.f:140
  409d9c:	f2 0f 10 44 24 f0           	(move)  	movsd	-0x10(%rsp),%xmm0
  409da2:	f2 41 0f 59 c1              	(arith) 	mulsd	%xmm9,%xmm0
  409da7:	66 44 0f 28 f8              	(move)  	movapd	%xmm0,%xmm15
  409dac:	f2 0f 10 42 68              	(move)  	movsd	0x68(%rdx),%xmm0
  409db1:	f2 41 0f 5c c7              	(arith) 	subsd	%xmm15,%xmm0
  409db6:	66 45 0f 28 fe              	(move)  	movapd	%xmm14,%xmm15
  409dbb:	f2 45 0f 59 f8              	(arith) 	mulsd	%xmm8,%xmm15
  409dc0:	f2 41 0f 5c c7              	(arith) 	subsd	%xmm15,%xmm0
  409dc5:	66 45 0f 28 fd              	(move)  	movapd	%xmm13,%xmm15
  409dca:	f2 44 0f 59 ff              	(arith) 	mulsd	%xmm7,%xmm15
  409dcf:	f2 41 0f 5c c7              	(arith) 	subsd	%xmm15,%xmm0
  409dd4:	66 45 0f 28 fc              	(move)  	movapd	%xmm12,%xmm15
  409dd9:	f2 44 0f 59 fe              	(arith) 	mulsd	%xmm6,%xmm15
  409dde:	f2 41 0f 5c c7              	(arith) 	subsd	%xmm15,%xmm0
  409de3:	66 45 0f 28 fb              	(move)  	movapd	%xmm11,%xmm15
  409de8:	f2 44 0f 59 fd              	(arith) 	mulsd	%xmm5,%xmm15
  409ded:	f2 41 0f 5c c7              	(arith) 	subsd	%xmm15,%xmm0
  409df2:	f2 0f 11 42 68              	(move)  	movsd	%xmm0,0x68(%rdx)
/home/jcsalinas/Documents/pruebas/inst_estimation_module/BT/solve_subs.f:145
  409df7:	f2 44 0f 59 0c 24           	(arith) 	mulsd	(%rsp),%xmm9
  409dfd:	f2 0f 10 42 70              	(move)  	movsd	0x70(%rdx),%xmm0
  409e02:	f2 41 0f 5c c1              	(arith) 	subsd	%xmm9,%xmm0
  409e07:	f2 44 0f 59 44 24 f8        	(arith) 	mulsd	-0x8(%rsp),%xmm8
  409e0e:	f2 41 0f 5c c0              	(arith) 	subsd	%xmm8,%xmm0
  409e13:	f2 0f 59 7c 24 98           	(arith) 	mulsd	-0x68(%rsp),%xmm7
  409e19:	f2 0f 5c c7                 	(arith) 	subsd	%xmm7,%xmm0
  409e1d:	f2 0f 59 74 24 a0           	(arith) 	mulsd	-0x60(%rsp),%xmm6
  409e23:	f2 0f 5c c6                 	(arith) 	subsd	%xmm6,%xmm0
  409e27:	f2 41 0f 59 ea              	(arith) 	mulsd	%xmm10,%xmm5
  409e2c:	f2 0f 5c c5                 	(arith) 	subsd	%xmm5,%xmm0
  409e30:	f2 0f 11 42 70              	(move)  	movsd	%xmm0,0x70(%rdx)
/home/jcsalinas/Documents/pruebas/inst_estimation_module/BT/solve_subs.f:150
  409e35:	f2 44 0f 10 4e 78           	(move)  	movsd	0x78(%rsi),%xmm9
  409e3b:	f2 44 0f 10 86 80 00 00 00  	(move)  	movsd	0x80(%rsi),%xmm8
  409e44:	f2 0f 10 be 88 00 00 00     	(move)  	movsd	0x88(%rsi),%xmm7
  409e4c:	f2 0f 10 b6 90 00 00 00     	(move)  	movsd	0x90(%rsi),%xmm6
  409e54:	f2 0f 10 ae 98 00 00 00     	(move)  	movsd	0x98(%rsi),%xmm5
  409e5c:	66 0f 28 c4                 	(move)  	movapd	%xmm4,%xmm0
  409e60:	f2 41 0f 59 c1              	(arith) 	mulsd	%xmm9,%xmm0
  409e65:	66 44 0f 28 f8              	(move)  	movapd	%xmm0,%xmm15
  409e6a:	f2 0f 10 42 78              	(move)  	movsd	0x78(%rdx),%xmm0
  409e6f:	f2 41 0f 5c c7              	(arith) 	subsd	%xmm15,%xmm0
  409e74:	66 44 0f 28 fb              	(move)  	movapd	%xmm3,%xmm15
  409e79:	f2 45 0f 59 f8              	(arith) 	mulsd	%xmm8,%xmm15
  409e7e:	f2 41 0f 5c c7              	(arith) 	subsd	%xmm15,%xmm0
  409e83:	66 44 0f 28 fa              	(move)  	movapd	%xmm2,%xmm15
  409e88:	f2 44 0f 59 ff              	(arith) 	mulsd	%xmm7,%xmm15
  409e8d:	f2 41 0f 5c c7              	(arith) 	subsd	%xmm15,%xmm0
  409e92:	66 44 0f 28 f9              	(move)  	movapd	%xmm1,%xmm15
  409e97:	f2 44 0f 59 fe              	(arith) 	mulsd	%xmm6,%xmm15
  409e9c:	f2 41 0f 5c c7              	(arith) 	subsd	%xmm15,%xmm0
  409ea1:	f2 44 0f 10 7c 24 a8        	(move)  	movsd	-0x58(%rsp),%xmm15
  409ea8:	f2 44 0f 59 fd              	(arith) 	mulsd	%xmm5,%xmm15
  409ead:	f2 41 0f 5c c7              	(arith) 	subsd	%xmm15,%xmm0
  409eb2:	f2 0f 11 42 78              	(move)  	movsd	%xmm0,0x78(%rdx)
/home/jcsalinas/Documents/pruebas/inst_estimation_module/BT/solve_subs.f:155
  409eb7:	f2 0f 10 44 24 b0           	(move)  	movsd	-0x50(%rsp),%xmm0
  409ebd:	f2 41 0f 59 c1              	(arith) 	mulsd	%xmm9,%xmm0
  409ec2:	66 44 0f 28 f8              	(move)  	movapd	%xmm0,%xmm15
  409ec7:	f2 0f 10 82 80 00 00 00     	(move)  	movsd	0x80(%rdx),%xmm0
  409ecf:	f2 41 0f 5c c7              	(arith) 	subsd	%xmm15,%xmm0
  409ed4:	f2 44 0f 10 7c 24 b8        	(move)  	movsd	-0x48(%rsp),%xmm15
  409edb:	f2 45 0f 59 f8              	(arith) 	mulsd	%xmm8,%xmm15
  409ee0:	f2 41 0f 5c c7              	(arith) 	subsd	%xmm15,%xmm0
  409ee5:	f2 44 0f 10 7c 24 c0        	(move)  	movsd	-0x40(%rsp),%xmm15
  409eec:	f2 44 0f 59 ff              	(arith) 	mulsd	%xmm7,%xmm15
  409ef1:	f2 41 0f 5c c7              	(arith) 	subsd	%xmm15,%xmm0
  409ef6:	f2 44 0f 10 7c 24 c8        	(move)  	movsd	-0x38(%rsp),%xmm15
  409efd:	f2 44 0f 59 fe              	(arith) 	mulsd	%xmm6,%xmm15
  409f02:	f2 41 0f 5c c7              	(arith) 	subsd	%xmm15,%xmm0
  409f07:	f2 44 0f 10 7c 24 88        	(move)  	movsd	-0x78(%rsp),%xmm15
  409f0e:	f2 44 0f 59 fd              	(arith) 	mulsd	%xmm5,%xmm15
  409f13:	f2 41 0f 5c c7              	(arith) 	subsd	%xmm15,%xmm0
  409f18:	f2 0f 11 82 80 00 00 00     	(move)  	movsd	%xmm0,0x80(%rdx)
/home/jcsalinas/Documents/pruebas/inst_estimation_module/BT/solve_subs.f:160
  409f20:	f2 0f 10 44 24 d0           	(move)  	movsd	-0x30(%rsp),%xmm0
  409f26:	f2 41 0f 59 c1              	(arith) 	mulsd	%xmm9,%xmm0
  409f2b:	66 44 0f 28 f8              	(move)  	movapd	%xmm0,%xmm15
  409f30:	f2 0f 10 82 88 00 00 00     	(move)  	movsd	0x88(%rdx),%xmm0
  409f38:	f2 41 0f 5c c7              	(arith) 	subsd	%xmm15,%xmm0
  409f3d:	f2 44 0f 10 7c 24 d8        	(move)  	movsd	-0x28(%rsp),%xmm15
  409f44:	f2 45 0f 59 f8              	(arith) 	mulsd	%xmm8,%xmm15
  409f49:	f2 41 0f 5c c7              	(arith) 	subsd	%xmm15,%xmm0
  409f4e:	f2 44 0f 10 7c 24 e0        	(move)  	movsd	-0x20(%rsp),%xmm15
  409f55:	f2 44 0f 59 ff              	(arith) 	mulsd	%xmm7,%xmm15
  409f5a:	f2 41 0f 5c c7              	(arith) 	subsd	%xmm15,%xmm0
  409f5f:	f2 44 0f 10 7c 24 e8        	(move)  	movsd	-0x18(%rsp),%xmm15
  409f66:	f2 44 0f 59 fe              	(arith) 	mulsd	%xmm6,%xmm15
  409f6b:	f2 41 0f 5c c7              	(arith) 	subsd	%xmm15,%xmm0
  409f70:	f2 44 0f 10 7c 24 90        	(move)  	movsd	-0x70(%rsp),%xmm15
  409f77:	f2 44 0f 59 fd              	(arith) 	mulsd	%xmm5,%xmm15
  409f7c:	f2 41 0f 5c c7              	(arith) 	subsd	%xmm15,%xmm0
  409f81:	f2 0f 11 82 88 00 00 00     	(move)  	movsd	%xmm0,0x88(%rdx)
/home/jcsalinas/Documents/pruebas/inst_estimation_module/BT/solve_subs.f:165
  409f89:	f2 0f 10 44 24 f0           	(move)  	movsd	-0x10(%rsp),%xmm0
  409f8f:	f2 41 0f 59 c1              	(arith) 	mulsd	%xmm9,%xmm0
  409f94:	66 44 0f 28 f8              	(move)  	movapd	%xmm0,%xmm15
  409f99:	f2 0f 10 82 90 00 00 00     	(move)  	movsd	0x90(%rdx),%xmm0
  409fa1:	f2 41 0f 5c c7              	(arith) 	subsd	%xmm15,%xmm0
  409fa6:	66 45 0f 28 fe              	(move)  	movapd	%xmm14,%xmm15
  409fab:	f2 45 0f 59 f8              	(arith) 	mulsd	%xmm8,%xmm15
  409fb0:	f2 41 0f 5c c7              	(arith) 	subsd	%xmm15,%xmm0
  409fb5:	66 45 0f 28 fd              	(move)  	movapd	%xmm13,%xmm15
  409fba:	f2 44 0f 59 ff              	(arith) 	mulsd	%xmm7,%xmm15
  409fbf:	f2 41 0f 5c c7              	(arith) 	subsd	%xmm15,%xmm0
  409fc4:	66 45 0f 28 fc              	(move)  	movapd	%xmm12,%xmm15
  409fc9:	f2 44 0f 59 fe              	(arith) 	mulsd	%xmm6,%xmm15
  409fce:	f2 41 0f 5c c7              	(arith) 	subsd	%xmm15,%xmm0
  409fd3:	66 45 0f 28 fb              	(move)  	movapd	%xmm11,%xmm15
  409fd8:	f2 44 0f 59 fd              	(arith) 	mulsd	%xmm5,%xmm15
  409fdd:	f2 41 0f 5c c7              	(arith) 	subsd	%xmm15,%xmm0
  409fe2:	f2 0f 11 82 90 00 00 00     	(move)  	movsd	%xmm0,0x90(%rdx)
/home/jcsalinas/Documents/pruebas/inst_estimation_module/BT/solve_subs.f:170
  409fea:	f2 44 0f 10 3c 24           	(move)  	movsd	(%rsp),%xmm15
  409ff0:	f2 45 0f 59 cf              	(arith) 	mulsd	%xmm15,%xmm9
  409ff5:	f2 0f 10 82 98 00 00 00     	(move)  	movsd	0x98(%rdx),%xmm0
  409ffd:	f2 41 0f 5c c1              	(arith) 	subsd	%xmm9,%xmm0
  40a002:	f2 44 0f 59 44 24 f8        	(arith) 	mulsd	-0x8(%rsp),%xmm8
  40a009:	f2 41 0f 5c c0              	(arith) 	subsd	%xmm8,%xmm0
  40a00e:	f2 0f 59 7c 24 98           	(arith) 	mulsd	-0x68(%rsp),%xmm7
  40a014:	f2 0f 5c c7                 	(arith) 	subsd	%xmm7,%xmm0
  40a018:	f2 0f 59 74 24 a0           	(arith) 	mulsd	-0x60(%rsp),%xmm6
  40a01e:	f2 0f 5c c6                 	(arith) 	subsd	%xmm6,%xmm0
  40a022:	f2 41 0f 59 ea              	(arith) 	mulsd	%xmm10,%xmm5
  40a027:	f2 0f 5c c5                 	(arith) 	subsd	%xmm5,%xmm0
  40a02b:	f2 0f 11 82 98 00 00 00     	(move)  	movsd	%xmm0,0x98(%rdx)
/home/jcsalinas/Documents/pruebas/inst_estimation_module/BT/solve_subs.f:175
  40a033:	f2 44 0f 10 8e a0 00 00 00  	(move)  	movsd	0xa0(%rsi),%xmm9
  40a03c:	f2 44 0f 10 86 a8 00 00 00  	(move)  	movsd	0xa8(%rsi),%xmm8
  40a045:	f2 0f 10 be b0 00 00 00     	(move)  	movsd	0xb0(%rsi),%xmm7
  40a04d:	f2 0f 10 b6 b8 00 00 00     	(move)  	movsd	0xb8(%rsi),%xmm6
  40a055:	f2 0f 10 ae c0 00 00 00     	(move)  	movsd	0xc0(%rsi),%xmm5
  40a05d:	f2 41 0f 59 e1              	(arith) 	mulsd	%xmm9,%xmm4
  40a062:	f2 0f 10 82 a0 00 00 00     	(move)  	movsd	0xa0(%rdx),%xmm0
  40a06a:	f2 0f 5c c4                 	(arith) 	subsd	%xmm4,%xmm0
  40a06e:	f2 41 0f 59 d8              	(arith) 	mulsd	%xmm8,%xmm3
  40a073:	f2 0f 5c c3                 	(arith) 	subsd	%xmm3,%xmm0
  40a077:	f2 0f 59 d7                 	(arith) 	mulsd	%xmm7,%xmm2
  40a07b:	f2 0f 5c c2                 	(arith) 	subsd	%xmm2,%xmm0
  40a07f:	f2 0f 59 ce                 	(arith) 	mulsd	%xmm6,%xmm1
  40a083:	f2 0f 5c c1                 	(arith) 	subsd	%xmm1,%xmm0
  40a087:	f2 0f 10 4c 24 a8           	(move)  	movsd	-0x58(%rsp),%xmm1
  40a08d:	f2 0f 59 cd                 	(arith) 	mulsd	%xmm5,%xmm1
  40a091:	f2 0f 5c c1                 	(arith) 	subsd	%xmm1,%xmm0
  40a095:	f2 0f 11 82 a0 00 00 00     	(move)  	movsd	%xmm0,0xa0(%rdx)
/home/jcsalinas/Documents/pruebas/inst_estimation_module/BT/solve_subs.f:180
  40a09d:	f2 0f 10 4c 24 b0           	(move)  	movsd	-0x50(%rsp),%xmm1
  40a0a3:	f2 41 0f 59 c9              	(arith) 	mulsd	%xmm9,%xmm1
  40a0a8:	f2 0f 10 82 a8 00 00 00     	(move)  	movsd	0xa8(%rdx),%xmm0
  40a0b0:	f2 0f 5c c1                 	(arith) 	subsd	%xmm1,%xmm0
  40a0b4:	f2 0f 10 4c 24 b8           	(move)  	movsd	-0x48(%rsp),%xmm1
  40a0ba:	f2 41 0f 59 c8              	(arith) 	mulsd	%xmm8,%xmm1
  40a0bf:	f2 0f 5c c1                 	(arith) 	subsd	%xmm1,%xmm0
  40a0c3:	f2 0f 10 4c 24 c0           	(move)  	movsd	-0x40(%rsp),%xmm1
  40a0c9:	f2 0f 59 cf                 	(arith) 	mulsd	%xmm7,%xmm1
  40a0cd:	f2 0f 5c c1                 	(arith) 	subsd	%xmm1,%xmm0
  40a0d1:	f2 0f 10 4c 24 c8           	(move)  	movsd	-0x38(%rsp),%xmm1
  40a0d7:	f2 0f 59 ce                 	(arith) 	mulsd	%xmm6,%xmm1
  40a0db:	f2 0f 5c c1                 	(arith) 	subsd	%xmm1,%xmm0
  40a0df:	f2 0f 10 4c 24 88           	(move)  	movsd	-0x78(%rsp),%xmm1
  40a0e5:	f2 0f 59 cd                 	(arith) 	mulsd	%xmm5,%xmm1
  40a0e9:	f2 0f 5c c1                 	(arith) 	subsd	%xmm1,%xmm0
  40a0ed:	f2 0f 11 82 a8 00 00 00     	(move)  	movsd	%xmm0,0xa8(%rdx)
/home/jcsalinas/Documents/pruebas/inst_estimation_module/BT/solve_subs.f:185
  40a0f5:	f2 0f 10 4c 24 d0           	(move)  	movsd	-0x30(%rsp),%xmm1
  40a0fb:	f2 41 0f 59 c9              	(arith) 	mulsd	%xmm9,%xmm1
  40a100:	f2 0f 10 82 b0 00 00 00     	(move)  	movsd	0xb0(%rdx),%xmm0
  40a108:	f2 0f 5c c1                 	(arith) 	subsd	%xmm1,%xmm0
  40a10c:	f2 0f 10 4c 24 d8           	(move)  	movsd	-0x28(%rsp),%xmm1
  40a112:	f2 41 0f 59 c8              	(arith) 	mulsd	%xmm8,%xmm1
  40a117:	f2 0f 5c c1                 	(arith) 	subsd	%xmm1,%xmm0
  40a11b:	f2 0f 10 4c 24 e0           	(move)  	movsd	-0x20(%rsp),%xmm1
  40a121:	f2 0f 59 cf                 	(arith) 	mulsd	%xmm7,%xmm1
  40a125:	f2 0f 5c c1                 	(arith) 	subsd	%xmm1,%xmm0
  40a129:	f2 0f 10 4c 24 e8           	(move)  	movsd	-0x18(%rsp),%xmm1
  40a12f:	f2 0f 59 ce                 	(arith) 	mulsd	%xmm6,%xmm1
  40a133:	f2 0f 5c c1                 	(arith) 	subsd	%xmm1,%xmm0
  40a137:	f2 0f 10 4c 24 90           	(move)  	movsd	-0x70(%rsp),%xmm1
  40a13d:	f2 0f 59 cd                 	(arith) 	mulsd	%xmm5,%xmm1
  40a141:	f2 0f 5c c1                 	(arith) 	subsd	%xmm1,%xmm0
  40a145:	f2 0f 11 82 b0 00 00 00     	(move)  	movsd	%xmm0,0xb0(%rdx)
/home/jcsalinas/Documents/pruebas/inst_estimation_module/BT/solve_subs.f:190
  40a14d:	f2 0f 10 4c 24 f0           	(move)  	movsd	-0x10(%rsp),%xmm1
  40a153:	f2 41 0f 59 c9              	(arith) 	mulsd	%xmm9,%xmm1
  40a158:	f2 0f 10 82 b8 00 00 00     	(move)  	movsd	0xb8(%rdx),%xmm0
  40a160:	f2 0f 5c c1                 	(arith) 	subsd	%xmm1,%xmm0
  40a164:	66 41 0f 28 ce              	(move)  	movapd	%xmm14,%xmm1
  40a169:	f2 41 0f 59 c8              	(arith) 	mulsd	%xmm8,%xmm1
  40a16e:	f2 0f 5c c1                 	(arith) 	subsd	%xmm1,%xmm0
  40a172:	66 41 0f 28 cd              	(move)  	movapd	%xmm13,%xmm1
  40a177:	f2 0f 59 cf                 	(arith) 	mulsd	%xmm7,%xmm1
  40a17b:	f2 0f 5c c1                 	(arith) 	subsd	%xmm1,%xmm0
  40a17f:	66 41 0f 28 cc              	(move)  	movapd	%xmm12,%xmm1
  40a184:	f2 0f 59 ce                 	(arith) 	mulsd	%xmm6,%xmm1
  40a188:	f2 0f 5c c1                 	(arith) 	subsd	%xmm1,%xmm0
  40a18c:	66 41 0f 28 cb              	(move)  	movapd	%xmm11,%xmm1
  40a191:	f2 0f 59 cd                 	(arith) 	mulsd	%xmm5,%xmm1
  40a195:	f2 0f 5c c1                 	(arith) 	subsd	%xmm1,%xmm0
  40a199:	f2 0f 11 82 b8 00 00 00     	(move)  	movsd	%xmm0,0xb8(%rdx)
/home/jcsalinas/Documents/pruebas/inst_estimation_module/BT/solve_subs.f:195
  40a1a1:	66 45 0f 28 f7              	(move)  	movapd	%xmm15,%xmm14
  40a1a6:	f2 45 0f 59 f1              	(arith) 	mulsd	%xmm9,%xmm14
  40a1ab:	f2 0f 10 82 c0 00 00 00     	(move)  	movsd	0xc0(%rdx),%xmm0
  40a1b3:	f2 41 0f 5c c6              	(arith) 	subsd	%xmm14,%xmm0
  40a1b8:	f2 44 0f 10 6c 24 f8        	(move)  	movsd	-0x8(%rsp),%xmm13
  40a1bf:	f2 45 0f 59 e8              	(arith) 	mulsd	%xmm8,%xmm13
  40a1c4:	f2 41 0f 5c c5              	(arith) 	subsd	%xmm13,%xmm0
  40a1c9:	f2 44 0f 10 64 24 98        	(move)  	movsd	-0x68(%rsp),%xmm12
  40a1d0:	f2 44 0f 59 e7              	(arith) 	mulsd	%xmm7,%xmm12
  40a1d5:	f2 41 0f 5c c4              	(arith) 	subsd	%xmm12,%xmm0
  40a1da:	f2 44 0f 10 5c 24 a0        	(move)  	movsd	-0x60(%rsp),%xmm11
  40a1e1:	f2 44 0f 59 de              	(arith) 	mulsd	%xmm6,%xmm11
  40a1e6:	f2 41 0f 5c c3              	(arith) 	subsd	%xmm11,%xmm0
  40a1eb:	f2 44 0f 59 d5              	(arith) 	mulsd	%xmm5,%xmm10
  40a1f0:	f2 41 0f 5c c2              	(arith) 	subsd	%xmm10,%xmm0
  40a1f5:	f2 0f 11 82 c0 00 00 00     	(move)  	movsd	%xmm0,0xc0(%rdx)
/home/jcsalinas/Documents/pruebas/inst_estimation_module/BT/solve_subs.f:199
  40a1fd:	48 83 c4 08                 	(arith) 	add	$0x8,%rsp
  40a201:	c3                          	(control)	ret


000000000040a202 <binvcrhs>:
578 (function binvcrhs_):	
/home/jcsalinas/Documents/pruebas/inst_estimation_module/BT/solve_subs.f:206
  40a202:	48 81 ec c0 00 00 00        	(arith) 	sub	$0xc0,%rsp
/home/jcsalinas/Documents/pruebas/inst_estimation_module/BT/solve_subs.f:225
  40a209:	f2 0f 10 05 1f 4c 00 00     	(move)  	movsd	0x4c1f(%rip),%xmm0
  40a211:	f2 0f 5e 07                 	(arith) 	divsd	(%rdi),%xmm0
/home/jcsalinas/Documents/pruebas/inst_estimation_module/BT/solve_subs.f:226
  40a215:	66 0f 28 e8                 	(move)  	movapd	%xmm0,%xmm5
  40a219:	f2 0f 59 6f 28              	(arith) 	mulsd	0x28(%rdi),%xmm5
  40a21e:	f2 0f 11 6f 28              	(move)  	movsd	%xmm5,0x28(%rdi)
/home/jcsalinas/Documents/pruebas/inst_estimation_module/BT/solve_subs.f:227
  40a223:	66 0f 28 e0                 	(move)  	movapd	%xmm0,%xmm4
  40a227:	f2 0f 59 67 50              	(arith) 	mulsd	0x50(%rdi),%xmm4
/home/jcsalinas/Documents/pruebas/inst_estimation_module/BT/solve_subs.f:228
  40a22c:	66 0f 28 d0                 	(move)  	movapd	%xmm0,%xmm2
  40a230:	f2 0f 59 57 78              	(arith) 	mulsd	0x78(%rdi),%xmm2
/home/jcsalinas/Documents/pruebas/inst_estimation_module/BT/solve_subs.f:229
  40a235:	66 0f 28 d8                 	(move)  	movapd	%xmm0,%xmm3
  40a239:	f2 0f 59 9f a0 00 00 00     	(arith) 	mulsd	0xa0(%rdi),%xmm3
  40a241:	66 44 0f 28 f3              	(move)  	movapd	%xmm3,%xmm14
/home/jcsalinas/Documents/pruebas/inst_estimation_module/BT/solve_subs.f:230
  40a246:	66 0f 28 d8                 	(move)  	movapd	%xmm0,%xmm3
  40a24a:	f2 0f 59 1e                 	(arith) 	mulsd	(%rsi),%xmm3
  40a24e:	66 44 0f 28 cb              	(move)  	movapd	%xmm3,%xmm9
/home/jcsalinas/Documents/pruebas/inst_estimation_module/BT/solve_subs.f:231
  40a253:	66 0f 28 d8                 	(move)  	movapd	%xmm0,%xmm3
  40a257:	f2 0f 59 5e 28              	(arith) 	mulsd	0x28(%rsi),%xmm3
  40a25c:	66 44 0f 28 e3              	(move)  	movapd	%xmm3,%xmm12
/home/jcsalinas/Documents/pruebas/inst_estimation_module/BT/solve_subs.f:232
  40a261:	66 0f 28 d8                 	(move)  	movapd	%xmm0,%xmm3
  40a265:	f2 0f 59 5e 50              	(arith) 	mulsd	0x50(%rsi),%xmm3
  40a26a:	66 44 0f 28 db              	(move)  	movapd	%xmm3,%xmm11
/home/jcsalinas/Documents/pruebas/inst_estimation_module/BT/solve_subs.f:233
  40a26f:	66 0f 28 d8                 	(move)  	movapd	%xmm0,%xmm3
  40a273:	f2 0f 59 5e 78              	(arith) 	mulsd	0x78(%rsi),%xmm3
  40a278:	66 44 0f 28 fb              	(move)  	movapd	%xmm3,%xmm15
/home/jcsalinas/Documents/pruebas/inst_estimation_module/BT/solve_subs.f:234
  40a27d:	66 0f 28 d8                 	(move)  	movapd	%xmm0,%xmm3
  40a281:	f2 0f 59 9e a0 00 00 00     	(arith) 	mulsd	0xa0(%rsi),%xmm3
  40a289:	66 44 0f 28 eb              	(move)  	movapd	%xmm3,%xmm13
/home/jcsalinas/Documents/pruebas/inst_estimation_module/BT/solve_subs.f:235
  40a28e:	f2 0f 59 02                 	(arith) 	mulsd	(%rdx),%xmm0
  40a292:	66 0f 28 f0                 	(move)  	movapd	%xmm0,%xmm6
/home/jcsalinas/Documents/pruebas/inst_estimation_module/BT/solve_subs.f:237
  40a296:	f2 0f 10 4f 08              	(move)  	movsd	0x8(%rdi),%xmm1
/home/jcsalinas/Documents/pruebas/inst_estimation_module/BT/solve_subs.f:238
  40a29b:	66 0f 28 c5                 	(move)  	movapd	%xmm5,%xmm0
  40a29f:	f2 0f 59 c1                 	(arith) 	mulsd	%xmm1,%xmm0
  40a2a3:	f2 44 0f 10 47 30           	(move)  	movsd	0x30(%rdi),%xmm8
  40a2a9:	f2 44 0f 5c c0              	(arith) 	subsd	%xmm0,%xmm8
  40a2ae:	f2 44 0f 11 47 30           	(move)  	movsd	%xmm8,0x30(%rdi)
/home/jcsalinas/Documents/pruebas/inst_estimation_module/BT/solve_subs.f:239
  40a2b4:	66 0f 28 c4                 	(move)  	movapd	%xmm4,%xmm0
  40a2b8:	f2 0f 59 c1                 	(arith) 	mulsd	%xmm1,%xmm0
  40a2bc:	f2 0f 10 5f 58              	(move)  	movsd	0x58(%rdi),%xmm3
  40a2c1:	f2 0f 5c d8                 	(arith) 	subsd	%xmm0,%xmm3
  40a2c5:	f2 0f 11 5c 24 88           	(move)  	movsd	%xmm3,-0x78(%rsp)
/home/jcsalinas/Documents/pruebas/inst_estimation_module/BT/solve_subs.f:240
  40a2cb:	66 0f 28 c2                 	(move)  	movapd	%xmm2,%xmm0
  40a2cf:	f2 0f 59 c1                 	(arith) 	mulsd	%xmm1,%xmm0
  40a2d3:	f2 44 0f 10 97 80 00 00 00  	(move)  	movsd	0x80(%rdi),%xmm10
  40a2dc:	f2 44 0f 5c d0              	(arith) 	subsd	%xmm0,%xmm10
/home/jcsalinas/Documents/pruebas/inst_estimation_module/BT/solve_subs.f:241
  40a2e1:	66 41 0f 28 c6              	(move)  	movapd	%xmm14,%xmm0
  40a2e6:	f2 0f 59 c1                 	(arith) 	mulsd	%xmm1,%xmm0
  40a2ea:	f2 0f 10 bf a8 00 00 00     	(move)  	movsd	0xa8(%rdi),%xmm7
  40a2f2:	f2 0f 5c f8                 	(arith) 	subsd	%xmm0,%xmm7
  40a2f6:	f2 0f 11 7c 24 90           	(move)  	movsd	%xmm7,-0x70(%rsp)
/home/jcsalinas/Documents/pruebas/inst_estimation_module/BT/solve_subs.f:242
  40a2fc:	66 41 0f 28 d9              	(move)  	movapd	%xmm9,%xmm3
  40a301:	f2 0f 59 d9                 	(arith) 	mulsd	%xmm1,%xmm3
  40a305:	f2 0f 10 46 08              	(move)  	movsd	0x8(%rsi),%xmm0
  40a30a:	f2 0f 5c c3                 	(arith) 	subsd	%xmm3,%xmm0
  40a30e:	f2 0f 11 44 24 98           	(move)  	movsd	%xmm0,-0x68(%rsp)
/home/jcsalinas/Documents/pruebas/inst_estimation_module/BT/solve_subs.f:243
  40a314:	66 41 0f 28 dc              	(move)  	movapd	%xmm12,%xmm3
  40a319:	f2 0f 59 d9                 	(arith) 	mulsd	%xmm1,%xmm3
  40a31d:	f2 0f 10 46 30              	(move)  	movsd	0x30(%rsi),%xmm0
  40a322:	66 0f 28 f8                 	(move)  	movapd	%xmm0,%xmm7
  40a326:	f2 0f 5c fb                 	(arith) 	subsd	%xmm3,%xmm7
  40a32a:	f2 0f 11 7c 24 a0           	(move)  	movsd	%xmm7,-0x60(%rsp)
/home/jcsalinas/Documents/pruebas/inst_estimation_module/BT/solve_subs.f:244
  40a330:	f2 44 0f 11 5c 24 d0        	(move)  	movsd	%xmm11,-0x30(%rsp)
  40a337:	66 41 0f 28 db              	(move)  	movapd	%xmm11,%xmm3
  40a33c:	f2 0f 59 d9                 	(arith) 	mulsd	%xmm1,%xmm3
  40a340:	f2 0f 10 46 58              	(move)  	movsd	0x58(%rsi),%xmm0
  40a345:	f2 0f 5c c3                 	(arith) 	subsd	%xmm3,%xmm0
  40a349:	f2 0f 11 44 24 a8           	(move)  	movsd	%xmm0,-0x58(%rsp)
/home/jcsalinas/Documents/pruebas/inst_estimation_module/BT/solve_subs.f:245
  40a34f:	f2 44 0f 11 7c 24 d8        	(move)  	movsd	%xmm15,-0x28(%rsp)
  40a356:	f2 44 0f 59 f9              	(arith) 	mulsd	%xmm1,%xmm15
  40a35b:	f2 0f 10 86 80 00 00 00     	(move)  	movsd	0x80(%rsi),%xmm0
  40a363:	66 44 0f 28 d8              	(move)  	movapd	%xmm0,%xmm11
  40a368:	f2 45 0f 5c df              	(arith) 	subsd	%xmm15,%xmm11
  40a36d:	f2 44 0f 11 5c 24 b0        	(move)  	movsd	%xmm11,-0x50(%rsp)
/home/jcsalinas/Documents/pruebas/inst_estimation_module/BT/solve_subs.f:246
  40a374:	f2 44 0f 11 6c 24 e0        	(move)  	movsd	%xmm13,-0x20(%rsp)
  40a37b:	f2 44 0f 59 e9              	(arith) 	mulsd	%xmm1,%xmm13
  40a380:	66 41 0f 28 dd              	(move)  	movapd	%xmm13,%xmm3
  40a385:	f2 44 0f 10 ae a8 00 00 00  	(move)  	movsd	0xa8(%rsi),%xmm13
  40a38e:	f2 44 0f 5c eb              	(arith) 	subsd	%xmm3,%xmm13
/home/jcsalinas/Documents/pruebas/inst_estimation_module/BT/solve_subs.f:247
  40a393:	f2 0f 11 74 24 e8           	(move)  	movsd	%xmm6,-0x18(%rsp)
  40a399:	f2 0f 59 ce                 	(arith) 	mulsd	%xmm6,%xmm1
  40a39d:	f2 0f 10 42 08              	(move)  	movsd	0x8(%rdx),%xmm0
  40a3a2:	f2 0f 5c c1                 	(arith) 	subsd	%xmm1,%xmm0
  40a3a6:	f2 0f 11 44 24 b8           	(move)  	movsd	%xmm0,-0x48(%rsp)
/home/jcsalinas/Documents/pruebas/inst_estimation_module/BT/solve_subs.f:249
  40a3ac:	f2 0f 10 7f 10              	(move)  	movsd	0x10(%rdi),%xmm7
/home/jcsalinas/Documents/pruebas/inst_estimation_module/BT/solve_subs.f:250
  40a3b1:	66 0f 28 cd                 	(move)  	movapd	%xmm5,%xmm1
  40a3b5:	f2 0f 59 cf                 	(arith) 	mulsd	%xmm7,%xmm1
  40a3b9:	f2 44 0f 10 7f 38           	(move)  	movsd	0x38(%rdi),%xmm15
  40a3bf:	f2 44 0f 5c f9              	(arith) 	subsd	%xmm1,%xmm15
  40a3c4:	f2 44 0f 11 7f 38           	(move)  	movsd	%xmm15,0x38(%rdi)
/home/jcsalinas/Documents/pruebas/inst_estimation_module/BT/solve_subs.f:251
  40a3ca:	66 0f 28 cc                 	(move)  	movapd	%xmm4,%xmm1
  40a3ce:	f2 0f 59 cf                 	(arith) 	mulsd	%xmm7,%xmm1
  40a3d2:	66 0f 28 c1                 	(move)  	movapd	%xmm1,%xmm0
  40a3d6:	f2 0f 10 4f 60              	(move)  	movsd	0x60(%rdi),%xmm1
  40a3db:	f2 0f 5c c8                 	(arith) 	subsd	%xmm0,%xmm1
  40a3df:	66 0f 28 d9                 	(move)  	movapd	%xmm1,%xmm3
/home/jcsalinas/Documents/pruebas/inst_estimation_module/BT/solve_subs.f:252
  40a3e3:	66 0f 28 ca                 	(move)  	movapd	%xmm2,%xmm1
  40a3e7:	f2 0f 59 cf                 	(arith) 	mulsd	%xmm7,%xmm1
  40a3eb:	66 0f 28 c1                 	(move)  	movapd	%xmm1,%xmm0
  40a3ef:	f2 0f 10 8f 88 00 00 00     	(move)  	movsd	0x88(%rdi),%xmm1
  40a3f7:	f2 0f 5c c8                 	(arith) 	subsd	%xmm0,%xmm1
  40a3fb:	f2 0f 11 4c 24 c0           	(move)  	movsd	%xmm1,-0x40(%rsp)
/home/jcsalinas/Documents/pruebas/inst_estimation_module/BT/solve_subs.f:253
  40a401:	66 41 0f 28 ce              	(move)  	movapd	%xmm14,%xmm1
  40a406:	f2 0f 59 cf                 	(arith) 	mulsd	%xmm7,%xmm1
  40a40a:	66 0f 28 c1                 	(move)  	movapd	%xmm1,%xmm0
  40a40e:	f2 0f 10 b7 b0 00 00 00     	(move)  	movsd	0xb0(%rdi),%xmm6
  40a416:	66 0f 28 ce                 	(move)  	movapd	%xmm6,%xmm1
  40a41a:	f2 0f 5c c8                 	(arith) 	subsd	%xmm0,%xmm1
  40a41e:	f2 0f 11 4c 24 c8           	(move)  	movsd	%xmm1,-0x38(%rsp)
/home/jcsalinas/Documents/pruebas/inst_estimation_module/BT/solve_subs.f:254
  40a424:	66 41 0f 28 c9              	(move)  	movapd	%xmm9,%xmm1
  40a429:	f2 0f 59 cf                 	(arith) 	mulsd	%xmm7,%xmm1
  40a42d:	f2 0f 10 46 10              	(move)  	movsd	0x10(%rsi),%xmm0
  40a432:	f2 0f 5c c1                 	(arith) 	subsd	%xmm1,%xmm0
  40a436:	f2 0f 11 44 24 f8           	(move)  	movsd	%xmm0,-0x8(%rsp)
/home/jcsalinas/Documents/pruebas/inst_estimation_module/BT/solve_subs.f:255
  40a43c:	66 45 0f 28 dc              	(move)  	movapd	%xmm12,%xmm11
  40a441:	66 41 0f 28 cc              	(move)  	movapd	%xmm12,%xmm1
  40a446:	f2 0f 59 cf                 	(arith) 	mulsd	%xmm7,%xmm1
  40a44a:	f2 0f 10 46 38              	(move)  	movsd	0x38(%rsi),%xmm0
  40a44f:	66 44 0f 28 e0              	(move)  	movapd	%xmm0,%xmm12
  40a454:	f2 44 0f 5c e1              	(arith) 	subsd	%xmm1,%xmm12
  40a459:	f2 44 0f 11 24 24           	(move)  	movsd	%xmm12,(%rsp)
/home/jcsalinas/Documents/pruebas/inst_estimation_module/BT/solve_subs.f:256
  40a45f:	f2 0f 10 4c 24 d0           	(move)  	movsd	-0x30(%rsp),%xmm1
  40a465:	f2 0f 59 cf                 	(arith) 	mulsd	%xmm7,%xmm1
  40a469:	f2 0f 10 46 60              	(move)  	movsd	0x60(%rsi),%xmm0
  40a46e:	66 44 0f 28 e0              	(move)  	movapd	%xmm0,%xmm12
  40a473:	f2 44 0f 5c e1              	(arith) 	subsd	%xmm1,%xmm12
  40a478:	f2 44 0f 11 64 24 08        	(move)  	movsd	%xmm12,0x8(%rsp)
/home/jcsalinas/Documents/pruebas/inst_estimation_module/BT/solve_subs.f:257
  40a47f:	f2 0f 10 4c 24 d8           	(move)  	movsd	-0x28(%rsp),%xmm1
  40a485:	f2 0f 59 cf                 	(arith) 	mulsd	%xmm7,%xmm1
  40a489:	f2 0f 10 86 88 00 00 00     	(move)  	movsd	0x88(%rsi),%xmm0
  40a491:	f2 0f 5c c1                 	(arith) 	subsd	%xmm1,%xmm0
  40a495:	f2 0f 11 44 24 10           	(move)  	movsd	%xmm0,0x10(%rsp)
/home/jcsalinas/Documents/pruebas/inst_estimation_module/BT/solve_subs.f:258
  40a49b:	f2 44 0f 10 64 24 e0        	(move)  	movsd	-0x20(%rsp),%xmm12
  40a4a2:	f2 44 0f 59 e7              	(arith) 	mulsd	%xmm7,%xmm12
  40a4a7:	f2 0f 10 86 b0 00 00 00     	(move)  	movsd	0xb0(%rsi),%xmm0
  40a4af:	f2 41 0f 5c c4              	(arith) 	subsd	%xmm12,%xmm0
  40a4b4:	f2 0f 11 44 24 18           	(move)  	movsd	%xmm0,0x18(%rsp)
/home/jcsalinas/Documents/pruebas/inst_estimation_module/BT/solve_subs.f:259
  40a4ba:	f2 0f 59 7c 24 e8           	(arith) 	mulsd	-0x18(%rsp),%xmm7
  40a4c0:	f2 0f 10 42 10              	(move)  	movsd	0x10(%rdx),%xmm0
  40a4c5:	66 0f 28 f0                 	(move)  	movapd	%xmm0,%xmm6
  40a4c9:	f2 0f 5c f7                 	(arith) 	subsd	%xmm7,%xmm6
  40a4cd:	f2 0f 11 74 24 20           	(move)  	movsd	%xmm6,0x20(%rsp)
/home/jcsalinas/Documents/pruebas/inst_estimation_module/BT/solve_subs.f:261
  40a4d3:	f2 0f 10 4f 18              	(move)  	movsd	0x18(%rdi),%xmm1
/home/jcsalinas/Documents/pruebas/inst_estimation_module/BT/solve_subs.f:262
  40a4d8:	66 0f 28 fd                 	(move)  	movapd	%xmm5,%xmm7
  40a4dc:	f2 0f 59 f9                 	(arith) 	mulsd	%xmm1,%xmm7
  40a4e0:	f2 44 0f 10 67 40           	(move)  	movsd	0x40(%rdi),%xmm12
  40a4e6:	f2 44 0f 5c e7              	(arith) 	subsd	%xmm7,%xmm12
  40a4eb:	f2 44 0f 11 67 40           	(move)  	movsd	%xmm12,0x40(%rdi)
/home/jcsalinas/Documents/pruebas/inst_estimation_module/BT/solve_subs.f:263
  40a4f1:	66 0f 28 fc                 	(move)  	movapd	%xmm4,%xmm7
  40a4f5:	f2 0f 59 f9                 	(arith) 	mulsd	%xmm1,%xmm7
  40a4f9:	f2 0f 10 47 68              	(move)  	movsd	0x68(%rdi),%xmm0
  40a4fe:	f2 0f 5c c7                 	(arith) 	subsd	%xmm7,%xmm0
/home/jcsalinas/Documents/pruebas/inst_estimation_module/BT/solve_subs.f:264
  40a502:	66 0f 28 fa                 	(move)  	movapd	%xmm2,%xmm7
  40a506:	f2 0f 59 f9                 	(arith) 	mulsd	%xmm1,%xmm7
  40a50a:	66 0f 28 f7                 	(move)  	movapd	%xmm7,%xmm6
  40a50e:	f2 0f 10 bf 90 00 00 00     	(move)  	movsd	0x90(%rdi),%xmm7
  40a516:	f2 0f 5c fe                 	(arith) 	subsd	%xmm6,%xmm7
  40a51a:	f2 0f 11 7c 24 30           	(move)  	movsd	%xmm7,0x30(%rsp)
/home/jcsalinas/Documents/pruebas/inst_estimation_module/BT/solve_subs.f:265
  40a520:	f2 44 0f 11 74 24 28        	(move)  	movsd	%xmm14,0x28(%rsp)
  40a527:	f2 44 0f 59 f1              	(arith) 	mulsd	%xmm1,%xmm14
  40a52c:	66 41 0f 28 f6              	(move)  	movapd	%xmm14,%xmm6
  40a531:	f2 0f 10 bf b8 00 00 00     	(move)  	movsd	0xb8(%rdi),%xmm7
  40a539:	66 44 0f 28 f7              	(move)  	movapd	%xmm7,%xmm14
  40a53e:	f2 44 0f 5c f6              	(arith) 	subsd	%xmm6,%xmm14
  40a543:	f2 44 0f 11 74 24 38        	(move)  	movsd	%xmm14,0x38(%rsp)
/home/jcsalinas/Documents/pruebas/inst_estimation_module/BT/solve_subs.f:266
  40a54a:	f2 44 0f 11 4c 24 48        	(move)  	movsd	%xmm9,0x48(%rsp)
  40a551:	f2 44 0f 59 c9              	(arith) 	mulsd	%xmm1,%xmm9
  40a556:	66 41 0f 28 f1              	(move)  	movapd	%xmm9,%xmm6
  40a55b:	f2 44 0f 10 76 18           	(move)  	movsd	0x18(%rsi),%xmm14
  40a561:	66 45 0f 28 ce              	(move)  	movapd	%xmm14,%xmm9
  40a566:	f2 44 0f 5c ce              	(arith) 	subsd	%xmm6,%xmm9
  40a56b:	f2 44 0f 11 4c 24 40        	(move)  	movsd	%xmm9,0x40(%rsp)
/home/jcsalinas/Documents/pruebas/inst_estimation_module/BT/solve_subs.f:267
  40a572:	f2 44 0f 11 5c 24 50        	(move)  	movsd	%xmm11,0x50(%rsp)
  40a579:	66 41 0f 28 fb              	(move)  	movapd	%xmm11,%xmm7
  40a57e:	f2 0f 59 f9                 	(arith) 	mulsd	%xmm1,%xmm7
  40a582:	f2 44 0f 10 76 40           	(move)  	movsd	0x40(%rsi),%xmm14
  40a588:	66 45 0f 28 de              	(move)  	movapd	%xmm14,%xmm11
  40a58d:	f2 44 0f 5c df              	(arith) 	subsd	%xmm7,%xmm11
  40a592:	f2 44 0f 11 5c 24 58        	(move)  	movsd	%xmm11,0x58(%rsp)
/home/jcsalinas/Documents/pruebas/inst_estimation_module/BT/solve_subs.f:268
  40a599:	f2 44 0f 10 5c 24 d0        	(move)  	movsd	-0x30(%rsp),%xmm11
  40a5a0:	f2 44 0f 59 d9              	(arith) 	mulsd	%xmm1,%xmm11
  40a5a5:	f2 44 0f 10 76 68           	(move)  	movsd	0x68(%rsi),%xmm14
  40a5ab:	66 45 0f 28 ce              	(move)  	movapd	%xmm14,%xmm9
  40a5b0:	f2 45 0f 5c cb              	(arith) 	subsd	%xmm11,%xmm9
  40a5b5:	f2 44 0f 11 4c 24 68        	(move)  	movsd	%xmm9,0x68(%rsp)
/home/jcsalinas/Documents/pruebas/inst_estimation_module/BT/solve_subs.f:269
  40a5bc:	f2 44 0f 10 74 24 d8        	(move)  	movsd	-0x28(%rsp),%xmm14
  40a5c3:	f2 44 0f 59 f1              	(arith) 	mulsd	%xmm1,%xmm14
  40a5c8:	66 41 0f 28 f6              	(move)  	movapd	%xmm14,%xmm6
  40a5cd:	f2 44 0f 10 b6 90 00 00 00  	(move)  	movsd	0x90(%rsi),%xmm14
  40a5d6:	66 45 0f 28 ce              	(move)  	movapd	%xmm14,%xmm9
  40a5db:	f2 44 0f 5c ce              	(arith) 	subsd	%xmm6,%xmm9
  40a5e0:	f2 44 0f 11 4c 24 70        	(move)  	movsd	%xmm9,0x70(%rsp)
/home/jcsalinas/Documents/pruebas/inst_estimation_module/BT/solve_subs.f:270
  40a5e7:	f2 44 0f 10 4c 24 e0        	(move)  	movsd	-0x20(%rsp),%xmm9
  40a5ee:	f2 44 0f 59 c9              	(arith) 	mulsd	%xmm1,%xmm9
  40a5f3:	f2 44 0f 10 b6 b8 00 00 00  	(move)  	movsd	0xb8(%rsi),%xmm14
  40a5fc:	f2 45 0f 5c f1              	(arith) 	subsd	%xmm9,%xmm14
  40a601:	f2 44 0f 11 74 24 78        	(move)  	movsd	%xmm14,0x78(%rsp)
/home/jcsalinas/Documents/pruebas/inst_estimation_module/BT/solve_subs.f:271
  40a608:	f2 0f 59 4c 24 e8           	(arith) 	mulsd	-0x18(%rsp),%xmm1
  40a60e:	f2 0f 10 72 18              	(move)  	movsd	0x18(%rdx),%xmm6
  40a613:	f2 0f 5c f1                 	(arith) 	subsd	%xmm1,%xmm6
  40a617:	f2 0f 11 b4 24 80 00 00 00  	(move)  	movsd	%xmm6,0x80(%rsp)
/home/jcsalinas/Documents/pruebas/inst_estimation_module/BT/solve_subs.f:273
  40a620:	f2 0f 10 4f 20              	(move)  	movsd	0x20(%rdi),%xmm1
/home/jcsalinas/Documents/pruebas/inst_estimation_module/BT/solve_subs.f:274
  40a625:	66 44 0f 28 dd              	(move)  	movapd	%xmm5,%xmm11
  40a62a:	f2 44 0f 59 d9              	(arith) 	mulsd	%xmm1,%xmm11
  40a62f:	66 41 0f 28 f3              	(move)  	movapd	%xmm11,%xmm6
  40a634:	f2 44 0f 10 5f 48           	(move)  	movsd	0x48(%rdi),%xmm11
  40a63a:	f2 44 0f 5c de              	(arith) 	subsd	%xmm6,%xmm11
  40a63f:	f2 44 0f 11 5f 48           	(move)  	movsd	%xmm11,0x48(%rdi)
/home/jcsalinas/Documents/pruebas/inst_estimation_module/BT/solve_subs.f:275
  40a645:	66 0f 28 f4                 	(move)  	movapd	%xmm4,%xmm6
  40a649:	f2 0f 59 f1                 	(arith) 	mulsd	%xmm1,%xmm6
  40a64d:	f2 44 0f 10 4f 70           	(move)  	movsd	0x70(%rdi),%xmm9
  40a653:	f2 44 0f 5c ce              	(arith) 	subsd	%xmm6,%xmm9
/home/jcsalinas/Documents/pruebas/inst_estimation_module/BT/solve_subs.f:276
  40a658:	66 0f 28 f2                 	(move)  	movapd	%xmm2,%xmm6
  40a65c:	f2 0f 59 f1                 	(arith) 	mulsd	%xmm1,%xmm6
  40a660:	f2 0f 10 bf 98 00 00 00     	(move)  	movsd	0x98(%rdi),%xmm7
  40a668:	f2 0f 5c fe                 	(arith) 	subsd	%xmm6,%xmm7
  40a66c:	66 44 0f 28 f7              	(move)  	movapd	%xmm7,%xmm14
/home/jcsalinas/Documents/pruebas/inst_estimation_module/BT/solve_subs.f:277
  40a671:	f2 0f 10 7c 24 28           	(move)  	movsd	0x28(%rsp),%xmm7
  40a677:	f2 0f 59 f9                 	(arith) 	mulsd	%xmm1,%xmm7
  40a67b:	66 0f 28 f7                 	(move)  	movapd	%xmm7,%xmm6
  40a67f:	f2 0f 10 bf c0 00 00 00     	(move)  	movsd	0xc0(%rdi),%xmm7
  40a687:	f2 0f 5c fe                 	(arith) 	subsd	%xmm6,%xmm7
  40a68b:	f2 0f 11 bc 24 88 00 00 00  	(move)  	movsd	%xmm7,0x88(%rsp)
/home/jcsalinas/Documents/pruebas/inst_estimation_module/BT/solve_subs.f:278
  40a694:	f2 0f 10 7c 24 48           	(move)  	movsd	0x48(%rsp),%xmm7
  40a69a:	f2 0f 59 f9                 	(arith) 	mulsd	%xmm1,%xmm7
  40a69e:	f2 0f 10 76 20              	(move)  	movsd	0x20(%rsi),%xmm6
  40a6a3:	f2 0f 5c f7                 	(arith) 	subsd	%xmm7,%xmm6
  40a6a7:	f2 0f 11 b4 24 90 00 00 00  	(move)  	movsd	%xmm6,0x90(%rsp)
/home/jcsalinas/Documents/pruebas/inst_estimation_module/BT/solve_subs.f:279
  40a6b0:	f2 0f 10 7c 24 50           	(move)  	movsd	0x50(%rsp),%xmm7
  40a6b6:	f2 0f 59 f9                 	(arith) 	mulsd	%xmm1,%xmm7
  40a6ba:	f2 0f 10 76 48              	(move)  	movsd	0x48(%rsi),%xmm6
  40a6bf:	f2 0f 5c f7                 	(arith) 	subsd	%xmm7,%xmm6
  40a6c3:	f2 0f 11 b4 24 98 00 00 00  	(move)  	movsd	%xmm6,0x98(%rsp)
/home/jcsalinas/Documents/pruebas/inst_estimation_module/BT/solve_subs.f:280
  40a6cc:	f2 0f 10 7c 24 d0           	(move)  	movsd	-0x30(%rsp),%xmm7
  40a6d2:	f2 0f 59 f9                 	(arith) 	mulsd	%xmm1,%xmm7
  40a6d6:	f2 0f 10 76 70              	(move)  	movsd	0x70(%rsi),%xmm6
  40a6db:	f2 0f 5c f7                 	(arith) 	subsd	%xmm7,%xmm6
  40a6df:	f2 0f 11 b4 24 a0 00 00 00  	(move)  	movsd	%xmm6,0xa0(%rsp)
/home/jcsalinas/Documents/pruebas/inst_estimation_module/BT/solve_subs.f:281
  40a6e8:	f2 0f 10 74 24 d8           	(move)  	movsd	-0x28(%rsp),%xmm6
  40a6ee:	f2 0f 59 f1                 	(arith) 	mulsd	%xmm1,%xmm6
  40a6f2:	f2 0f 10 be 98 00 00 00     	(move)  	movsd	0x98(%rsi),%xmm7
  40a6fa:	f2 0f 5c fe                 	(arith) 	subsd	%xmm6,%xmm7
  40a6fe:	f2 0f 11 bc 24 a8 00 00 00  	(move)  	movsd	%xmm7,0xa8(%rsp)
/home/jcsalinas/Documents/pruebas/inst_estimation_module/BT/solve_subs.f:282
  40a707:	f2 0f 10 7c 24 e0           	(move)  	movsd	-0x20(%rsp),%xmm7
  40a70d:	f2 0f 59 f9                 	(arith) 	mulsd	%xmm1,%xmm7
  40a711:	f2 0f 10 b6 c0 00 00 00     	(move)  	movsd	0xc0(%rsi),%xmm6
  40a719:	f2 0f 5c f7                 	(arith) 	subsd	%xmm7,%xmm6
  40a71d:	f2 0f 11 b4 24 b0 00 00 00  	(move)  	movsd	%xmm6,0xb0(%rsp)
/home/jcsalinas/Documents/pruebas/inst_estimation_module/BT/solve_subs.f:283
  40a726:	f2 0f 59 4c 24 e8           	(arith) 	mulsd	-0x18(%rsp),%xmm1
  40a72c:	f2 0f 10 72 20              	(move)  	movsd	0x20(%rdx),%xmm6
  40a731:	f2 0f 5c f1                 	(arith) 	subsd	%xmm1,%xmm6
  40a735:	f2 0f 11 b4 24 b8 00 00 00  	(move)  	movsd	%xmm6,0xb8(%rsp)
/home/jcsalinas/Documents/pruebas/inst_estimation_module/BT/solve_subs.f:286
  40a73e:	f2 0f 10 0d ea 46 00 00     	(move)  	movsd	0x46ea(%rip),%xmm1
  40a746:	f2 41 0f 5e c8              	(arith) 	divsd	%xmm8,%xmm1
/home/jcsalinas/Documents/pruebas/inst_estimation_module/BT/solve_subs.f:287
  40a74b:	f2 44 0f 10 44 24 88        	(move)  	movsd	-0x78(%rsp),%xmm8
  40a752:	f2 44 0f 59 c1              	(arith) 	mulsd	%xmm1,%xmm8
  40a757:	f2 44 0f 11 47 58           	(move)  	movsd	%xmm8,0x58(%rdi)
/home/jcsalinas/Documents/pruebas/inst_estimation_module/BT/solve_subs.f:288
  40a75d:	f2 44 0f 59 d1              	(arith) 	mulsd	%xmm1,%xmm10
/home/jcsalinas/Documents/pruebas/inst_estimation_module/BT/solve_subs.f:289
  40a762:	f2 0f 10 7c 24 90           	(move)  	movsd	-0x70(%rsp),%xmm7
  40a768:	f2 0f 59 f9                 	(arith) 	mulsd	%xmm1,%xmm7
/home/jcsalinas/Documents/pruebas/inst_estimation_module/BT/solve_subs.f:290
  40a76c:	f2 0f 10 74 24 98           	(move)  	movsd	-0x68(%rsp),%xmm6
  40a772:	f2 0f 59 f1                 	(arith) 	mulsd	%xmm1,%xmm6
  40a776:	f2 0f 11 74 24 f0           	(move)  	movsd	%xmm6,-0x10(%rsp)
/home/jcsalinas/Documents/pruebas/inst_estimation_module/BT/solve_subs.f:291
  40a77c:	f2 0f 10 74 24 a0           	(move)  	movsd	-0x60(%rsp),%xmm6
  40a782:	f2 0f 59 f1                 	(arith) 	mulsd	%xmm1,%xmm6
  40a786:	f2 0f 11 74 24 90           	(move)  	movsd	%xmm6,-0x70(%rsp)
/home/jcsalinas/Documents/pruebas/inst_estimation_module/BT/solve_subs.f:292
  40a78c:	f2 0f 10 74 24 a8           	(move)  	movsd	-0x58(%rsp),%xmm6
  40a792:	f2 0f 59 f1                 	(arith) 	mulsd	%xmm1,%xmm6
  40a796:	f2 0f 11 74 24 98           	(move)  	movsd	%xmm6,-0x68(%rsp)
/home/jcsalinas/Documents/pruebas/inst_estimation_module/BT/solve_subs.f:293
  40a79c:	f2 0f 10 74 24 b0           	(move)  	movsd	-0x50(%rsp),%xmm6
  40a7a2:	f2 0f 59 f1                 	(arith) 	mulsd	%xmm1,%xmm6
  40a7a6:	f2 0f 11 74 24 a0           	(move)  	movsd	%xmm6,-0x60(%rsp)
/home/jcsalinas/Documents/pruebas/inst_estimation_module/BT/solve_subs.f:294
  40a7ac:	f2 44 0f 59 e9              	(arith) 	mulsd	%xmm1,%xmm13
  40a7b1:	f2 44 0f 11 6c 24 a8        	(move)  	movsd	%xmm13,-0x58(%rsp)
/home/jcsalinas/Documents/pruebas/inst_estimation_module/BT/solve_subs.f:295
  40a7b8:	f2 0f 59 4c 24 b8           	(arith) 	mulsd	-0x48(%rsp),%xmm1
  40a7be:	f2 0f 11 4c 24 b0           	(move)  	movsd	%xmm1,-0x50(%rsp)
/home/jcsalinas/Documents/pruebas/inst_estimation_module/BT/solve_subs.f:298
  40a7c4:	66 44 0f 28 ed              	(move)  	movapd	%xmm5,%xmm13
  40a7c9:	f2 45 0f 59 e8              	(arith) 	mulsd	%xmm8,%xmm13
  40a7ce:	f2 41 0f 5c e5              	(arith) 	subsd	%xmm13,%xmm4
  40a7d3:	f2 0f 11 67 50              	(move)  	movsd	%xmm4,0x50(%rdi)
/home/jcsalinas/Documents/pruebas/inst_estimation_module/BT/solve_subs.f:309
  40a7d8:	66 45 0f 28 ef              	(move)  	movapd	%xmm15,%xmm13
  40a7dd:	f2 45 0f 59 e8              	(arith) 	mulsd	%xmm8,%xmm13
  40a7e2:	f2 41 0f 5c dd              	(arith) 	subsd	%xmm13,%xmm3
  40a7e7:	66 0f 28 cb                 	(move)  	movapd	%xmm3,%xmm1
  40a7eb:	f2 0f 11 5f 60              	(move)  	movsd	%xmm3,0x60(%rdi)
/home/jcsalinas/Documents/pruebas/inst_estimation_module/BT/solve_subs.f:320
  40a7f0:	66 41 0f 28 dc              	(move)  	movapd	%xmm12,%xmm3
  40a7f5:	f2 41 0f 59 d8              	(arith) 	mulsd	%xmm8,%xmm3
  40a7fa:	f2 0f 5c c3                 	(arith) 	subsd	%xmm3,%xmm0
  40a7fe:	f2 0f 11 47 68              	(move)  	movsd	%xmm0,0x68(%rdi)
/home/jcsalinas/Documents/pruebas/inst_estimation_module/BT/solve_subs.f:331
  40a803:	66 41 0f 28 db              	(move)  	movapd	%xmm11,%xmm3
  40a808:	f2 41 0f 59 d8              	(arith) 	mulsd	%xmm8,%xmm3
  40a80d:	f2 44 0f 5c cb              	(arith) 	subsd	%xmm3,%xmm9
  40a812:	f2 44 0f 11 4f 70           	(move)  	movsd	%xmm9,0x70(%rdi)
/home/jcsalinas/Documents/pruebas/inst_estimation_module/BT/solve_subs.f:342
  40a818:	f2 0f 10 1d 10 46 00 00     	(move)  	movsd	0x4610(%rip),%xmm3
  40a820:	f2 0f 5e d9                 	(arith) 	divsd	%xmm1,%xmm3
/home/jcsalinas/Documents/pruebas/inst_estimation_module/BT/solve_subs.f:343
  40a824:	66 45 0f 28 ef              	(move)  	movapd	%xmm15,%xmm13
  40a829:	f2 45 0f 59 ea              	(arith) 	mulsd	%xmm10,%xmm13
  40a82e:	66 41 0f 28 cd              	(move)  	movapd	%xmm13,%xmm1
  40a833:	f2 44 0f 10 6c 24 c0        	(move)  	movsd	-0x40(%rsp),%xmm13
  40a83a:	f2 44 0f 5c e9              	(arith) 	subsd	%xmm1,%xmm13
  40a83f:	66 41 0f 28 cd              	(move)  	movapd	%xmm13,%xmm1
  40a844:	f2 0f 59 cb                 	(arith) 	mulsd	%xmm3,%xmm1
  40a848:	f2 0f 11 4c 24 88           	(move)  	movsd	%xmm1,-0x78(%rsp)
  40a84e:	f2 0f 11 8f 88 00 00 00     	(move)  	movsd	%xmm1,0x88(%rdi)
/home/jcsalinas/Documents/pruebas/inst_estimation_module/BT/solve_subs.f:344
  40a856:	66 45 0f 28 ef              	(move)  	movapd	%xmm15,%xmm13
  40a85b:	f2 44 0f 59 ef              	(arith) 	mulsd	%xmm7,%xmm13
  40a860:	f2 0f 10 4c 24 c8           	(move)  	movsd	-0x38(%rsp),%xmm1
  40a866:	f2 41 0f 5c cd              	(arith) 	subsd	%xmm13,%xmm1
  40a86b:	66 0f 28 f1                 	(move)  	movapd	%xmm1,%xmm6
  40a86f:	f2 0f 59 f3                 	(arith) 	mulsd	%xmm3,%xmm6
/home/jcsalinas/Documents/pruebas/inst_estimation_module/BT/solve_subs.f:345
  40a873:	f2 44 0f 10 6c 24 f0        	(move)  	movsd	-0x10(%rsp),%xmm13
  40a87a:	f2 45 0f 59 ef              	(arith) 	mulsd	%xmm15,%xmm13
  40a87f:	f2 0f 10 4c 24 f8           	(move)  	movsd	-0x8(%rsp),%xmm1
  40a885:	f2 41 0f 5c cd              	(arith) 	subsd	%xmm13,%xmm1
  40a88a:	66 44 0f 28 e9              	(move)  	movapd	%xmm1,%xmm13
  40a88f:	f2 44 0f 59 eb              	(arith) 	mulsd	%xmm3,%xmm13
  40a894:	f2 44 0f 11 6c 24 f8        	(move)  	movsd	%xmm13,-0x8(%rsp)
/home/jcsalinas/Documents/pruebas/inst_estimation_module/BT/solve_subs.f:346
  40a89b:	f2 44 0f 10 6c 24 90        	(move)  	movsd	-0x70(%rsp),%xmm13
  40a8a2:	f2 45 0f 59 ef              	(arith) 	mulsd	%xmm15,%xmm13
  40a8a7:	f2 0f 10 0c 24              	(move)  	movsd	(%rsp),%xmm1
  40a8ac:	f2 41 0f 5c cd              	(arith) 	subsd	%xmm13,%xmm1
  40a8b1:	66 44 0f 28 e9              	(move)  	movapd	%xmm1,%xmm13
  40a8b6:	f2 44 0f 59 eb              	(arith) 	mulsd	%xmm3,%xmm13
  40a8bb:	f2 44 0f 11 2c 24           	(move)  	movsd	%xmm13,(%rsp)
/home/jcsalinas/Documents/pruebas/inst_estimation_module/BT/solve_subs.f:347
  40a8c1:	f2 44 0f 10 6c 24 98        	(move)  	movsd	-0x68(%rsp),%xmm13
  40a8c8:	f2 45 0f 59 ef              	(arith) 	mulsd	%xmm15,%xmm13
  40a8cd:	f2 0f 10 4c 24 08           	(move)  	movsd	0x8(%rsp),%xmm1
  40a8d3:	f2 41 0f 5c cd              	(arith) 	subsd	%xmm13,%xmm1
  40a8d8:	66 44 0f 28 e9              	(move)  	movapd	%xmm1,%xmm13
  40a8dd:	f2 44 0f 59 eb              	(arith) 	mulsd	%xmm3,%xmm13
  40a8e2:	f2 44 0f 11 6c 24 b8        	(move)  	movsd	%xmm13,-0x48(%rsp)
/home/jcsalinas/Documents/pruebas/inst_estimation_module/BT/solve_subs.f:348
  40a8e9:	f2 44 0f 10 6c 24 a0        	(move)  	movsd	-0x60(%rsp),%xmm13
  40a8f0:	f2 45 0f 59 ef              	(arith) 	mulsd	%xmm15,%xmm13
  40a8f5:	f2 0f 10 4c 24 10           	(move)  	movsd	0x10(%rsp),%xmm1
  40a8fb:	f2 41 0f 5c cd              	(arith) 	subsd	%xmm13,%xmm1
  40a900:	66 44 0f 28 e9              	(move)  	movapd	%xmm1,%xmm13
  40a905:	f2 44 0f 59 eb              	(arith) 	mulsd	%xmm3,%xmm13
  40a90a:	f2 44 0f 11 6c 24 c0        	(move)  	movsd	%xmm13,-0x40(%rsp)
/home/jcsalinas/Documents/pruebas/inst_estimation_module/BT/solve_subs.f:349
  40a911:	f2 44 0f 10 6c 24 a8        	(move)  	movsd	-0x58(%rsp),%xmm13
  40a918:	f2 45 0f 59 ef              	(arith) 	mulsd	%xmm15,%xmm13
  40a91d:	f2 0f 10 4c 24 18           	(move)  	movsd	0x18(%rsp),%xmm1
  40a923:	f2 41 0f 5c cd              	(arith) 	subsd	%xmm13,%xmm1
  40a928:	66 44 0f 28 e9              	(move)  	movapd	%xmm1,%xmm13
  40a92d:	f2 44 0f 59 eb              	(arith) 	mulsd	%xmm3,%xmm13
  40a932:	66 41 0f 28 cd              	(move)  	movapd	%xmm13,%xmm1
/home/jcsalinas/Documents/pruebas/inst_estimation_module/BT/solve_subs.f:350
  40a937:	f2 44 0f 59 7c 24 b0        	(arith) 	mulsd	-0x50(%rsp),%xmm15
  40a93e:	f2 44 0f 10 6c 24 20        	(move)  	movsd	0x20(%rsp),%xmm13
  40a945:	f2 45 0f 5c ef              	(arith) 	subsd	%xmm15,%xmm13
  40a94a:	66 45 0f 28 fd              	(move)  	movapd	%xmm13,%xmm15
  40a94f:	f2 44 0f 59 fb              	(arith) 	mulsd	%xmm3,%xmm15
  40a954:	f2 44 0f 11 7c 24 c8        	(move)  	movsd	%xmm15,-0x38(%rsp)
/home/jcsalinas/Documents/pruebas/inst_estimation_module/BT/solve_subs.f:353
  40a95b:	66 0f 28 dd                 	(move)  	movapd	%xmm5,%xmm3
  40a95f:	f2 41 0f 59 da              	(arith) 	mulsd	%xmm10,%xmm3
  40a964:	f2 0f 5c d3                 	(arith) 	subsd	%xmm3,%xmm2
  40a968:	66 0f 28 dc                 	(move)  	movapd	%xmm4,%xmm3
  40a96c:	f2 44 0f 10 7c 24 88        	(move)  	movsd	-0x78(%rsp),%xmm15
  40a973:	f2 41 0f 59 df              	(arith) 	mulsd	%xmm15,%xmm3
  40a978:	f2 0f 5c d3                 	(arith) 	subsd	%xmm3,%xmm2
  40a97c:	f2 0f 11 57 78              	(move)  	movsd	%xmm2,0x78(%rdi)
/home/jcsalinas/Documents/pruebas/inst_estimation_module/BT/solve_subs.f:363
  40a981:	66 41 0f 28 d8              	(move)  	movapd	%xmm8,%xmm3
  40a986:	f2 41 0f 59 df              	(arith) 	mulsd	%xmm15,%xmm3
  40a98b:	66 45 0f 28 fa              	(move)  	movapd	%xmm10,%xmm15
  40a990:	f2 44 0f 5c fb              	(arith) 	subsd	%xmm3,%xmm15
  40a995:	f2 44 0f 11 7c 24 60        	(move)  	movsd	%xmm15,0x60(%rsp)
  40a99c:	f2 44 0f 11 bf 80 00 00 00  	(move)  	movsd	%xmm15,0x80(%rdi)
/home/jcsalinas/Documents/pruebas/inst_estimation_module/BT/solve_subs.f:373
  40a9a5:	66 41 0f 28 dc              	(move)  	movapd	%xmm12,%xmm3
  40a9aa:	f2 41 0f 59 da              	(arith) 	mulsd	%xmm10,%xmm3
  40a9af:	f2 44 0f 10 7c 24 30        	(move)  	movsd	0x30(%rsp),%xmm15
  40a9b6:	f2 44 0f 5c fb              	(arith) 	subsd	%xmm3,%xmm15
  40a9bb:	66 41 0f 28 df              	(move)  	movapd	%xmm15,%xmm3
  40a9c0:	66 44 0f 28 e8              	(move)  	movapd	%xmm0,%xmm13
  40a9c5:	f2 44 0f 10 7c 24 88        	(move)  	movsd	-0x78(%rsp),%xmm15
  40a9cc:	f2 45 0f 59 ef              	(arith) 	mulsd	%xmm15,%xmm13
  40a9d1:	f2 41 0f 5c dd              	(arith) 	subsd	%xmm13,%xmm3
  40a9d6:	f2 0f 11 9f 90 00 00 00     	(move)  	movsd	%xmm3,0x90(%rdi)
/home/jcsalinas/Documents/pruebas/inst_estimation_module/BT/solve_subs.f:383
  40a9de:	f2 45 0f 59 d3              	(arith) 	mulsd	%xmm11,%xmm10
  40a9e3:	f2 45 0f 5c f2              	(arith) 	subsd	%xmm10,%xmm14
  40a9e8:	66 45 0f 28 d6              	(move)  	movapd	%xmm14,%xmm10
  40a9ed:	66 45 0f 28 f1              	(move)  	movapd	%xmm9,%xmm14
  40a9f2:	f2 45 0f 59 f7              	(arith) 	mulsd	%xmm15,%xmm14
  40a9f7:	f2 45 0f 5c d6              	(arith) 	subsd	%xmm14,%xmm10
  40a9fc:	f2 44 0f 11 97 98 00 00 00  	(move)  	movsd	%xmm10,0x98(%rdi)
/home/jcsalinas/Documents/pruebas/inst_estimation_module/BT/solve_subs.f:393
  40aa05:	f2 44 0f 10 35 22 44 00 00  	(move)  	movsd	0x4422(%rip),%xmm14
  40aa0e:	f2 44 0f 5e f3              	(arith) 	divsd	%xmm3,%xmm14
  40aa13:	66 45 0f 28 ee              	(move)  	movapd	%xmm14,%xmm13
/home/jcsalinas/Documents/pruebas/inst_estimation_module/BT/solve_subs.f:394
  40aa18:	66 41 0f 28 dc              	(move)  	movapd	%xmm12,%xmm3
  40aa1d:	f2 0f 59 df                 	(arith) 	mulsd	%xmm7,%xmm3
  40aa21:	f2 44 0f 10 74 24 38        	(move)  	movsd	0x38(%rsp),%xmm14
  40aa28:	f2 44 0f 5c f3              	(arith) 	subsd	%xmm3,%xmm14
  40aa2d:	66 41 0f 28 de              	(move)  	movapd	%xmm14,%xmm3
  40aa32:	66 44 0f 28 f0              	(move)  	movapd	%xmm0,%xmm14
  40aa37:	f2 44 0f 59 f6              	(arith) 	mulsd	%xmm6,%xmm14
  40aa3c:	f2 41 0f 5c de              	(arith) 	subsd	%xmm14,%xmm3
  40aa41:	f2 41 0f 59 dd              	(arith) 	mulsd	%xmm13,%xmm3
  40aa46:	f2 0f 11 9f b8 00 00 00     	(move)  	movsd	%xmm3,0xb8(%rdi)
/home/jcsalinas/Documents/pruebas/inst_estimation_module/BT/solve_subs.f:395
  40aa4e:	f2 44 0f 10 74 24 f0        	(move)  	movsd	-0x10(%rsp),%xmm14
  40aa55:	f2 45 0f 59 f4              	(arith) 	mulsd	%xmm12,%xmm14
  40aa5a:	f2 44 0f 10 7c 24 40        	(move)  	movsd	0x40(%rsp),%xmm15
  40aa61:	f2 45 0f 5c fe              	(arith) 	subsd	%xmm14,%xmm15
  40aa66:	66 45 0f 28 f7              	(move)  	movapd	%xmm15,%xmm14
  40aa6b:	f2 44 0f 10 7c 24 f8        	(move)  	movsd	-0x8(%rsp),%xmm15
  40aa72:	f2 44 0f 59 f8              	(arith) 	mulsd	%xmm0,%xmm15
  40aa77:	f2 45 0f 5c f7              	(arith) 	subsd	%xmm15,%xmm14
  40aa7c:	f2 45 0f 59 f5              	(arith) 	mulsd	%xmm13,%xmm14
  40aa81:	f2 44 0f 11 74 24 08        	(move)  	movsd	%xmm14,0x8(%rsp)
/home/jcsalinas/Documents/pruebas/inst_estimation_module/BT/solve_subs.f:396
  40aa88:	f2 44 0f 10 74 24 90        	(move)  	movsd	-0x70(%rsp),%xmm14
  40aa8f:	f2 45 0f 59 f4              	(arith) 	mulsd	%xmm12,%xmm14
  40aa94:	f2 44 0f 10 7c 24 58        	(move)  	movsd	0x58(%rsp),%xmm15
  40aa9b:	f2 45 0f 5c fe              	(arith) 	subsd	%xmm14,%xmm15
  40aaa0:	66 45 0f 28 f7              	(move)  	movapd	%xmm15,%xmm14
  40aaa5:	f2 44 0f 10 3c 24           	(move)  	movsd	(%rsp),%xmm15
  40aaab:	f2 44 0f 59 f8              	(arith) 	mulsd	%xmm0,%xmm15
  40aab0:	f2 45 0f 5c f7              	(arith) 	subsd	%xmm15,%xmm14
  40aab5:	f2 45 0f 59 f5              	(arith) 	mulsd	%xmm13,%xmm14
  40aaba:	f2 44 0f 11 74 24 10        	(move)  	movsd	%xmm14,0x10(%rsp)
/home/jcsalinas/Documents/pruebas/inst_estimation_module/BT/solve_subs.f:397
  40aac1:	f2 44 0f 10 74 24 98        	(move)  	movsd	-0x68(%rsp),%xmm14
  40aac8:	f2 45 0f 59 f4              	(arith) 	mulsd	%xmm12,%xmm14
  40aacd:	f2 44 0f 10 7c 24 68        	(move)  	movsd	0x68(%rsp),%xmm15
  40aad4:	f2 45 0f 5c fe              	(arith) 	subsd	%xmm14,%xmm15
  40aad9:	66 45 0f 28 f7              	(move)  	movapd	%xmm15,%xmm14
  40aade:	f2 44 0f 10 7c 24 b8        	(move)  	movsd	-0x48(%rsp),%xmm15
  40aae5:	f2 44 0f 59 f8              	(arith) 	mulsd	%xmm0,%xmm15
  40aaea:	f2 45 0f 5c f7              	(arith) 	subsd	%xmm15,%xmm14
  40aaef:	f2 45 0f 59 f5              	(arith) 	mulsd	%xmm13,%xmm14
  40aaf4:	f2 44 0f 11 74 24 18        	(move)  	movsd	%xmm14,0x18(%rsp)
/home/jcsalinas/Documents/pruebas/inst_estimation_module/BT/solve_subs.f:398
  40aafb:	f2 44 0f 10 7c 24 a0        	(move)  	movsd	-0x60(%rsp),%xmm15
  40ab02:	f2 45 0f 59 fc              	(arith) 	mulsd	%xmm12,%xmm15
  40ab07:	66 45 0f 28 f7              	(move)  	movapd	%xmm15,%xmm14
  40ab0c:	f2 44 0f 10 7c 24 70        	(move)  	movsd	0x70(%rsp),%xmm15
  40ab13:	f2 45 0f 5c fe              	(arith) 	subsd	%xmm14,%xmm15
  40ab18:	66 45 0f 28 f7              	(move)  	movapd	%xmm15,%xmm14
  40ab1d:	f2 44 0f 10 7c 24 c0        	(move)  	movsd	-0x40(%rsp),%xmm15
  40ab24:	f2 44 0f 59 f8              	(arith) 	mulsd	%xmm0,%xmm15
  40ab29:	f2 45 0f 5c f7              	(arith) 	subsd	%xmm15,%xmm14
  40ab2e:	f2 45 0f 59 f5              	(arith) 	mulsd	%xmm13,%xmm14
  40ab33:	f2 44 0f 11 74 24 38        	(move)  	movsd	%xmm14,0x38(%rsp)
/home/jcsalinas/Documents/pruebas/inst_estimation_module/BT/solve_subs.f:399
  40ab3a:	f2 44 0f 10 74 24 a8        	(move)  	movsd	-0x58(%rsp),%xmm14
  40ab41:	f2 45 0f 59 f4              	(arith) 	mulsd	%xmm12,%xmm14
  40ab46:	f2 44 0f 10 7c 24 78        	(move)  	movsd	0x78(%rsp),%xmm15
  40ab4d:	f2 45 0f 5c fe              	(arith) 	subsd	%xmm14,%xmm15
  40ab52:	66 45 0f 28 f7              	(move)  	movapd	%xmm15,%xmm14
  40ab57:	66 44 0f 28 f9              	(move)  	movapd	%xmm1,%xmm15
  40ab5c:	f2 44 0f 59 f8              	(arith) 	mulsd	%xmm0,%xmm15
  40ab61:	f2 45 0f 5c f7              	(arith) 	subsd	%xmm15,%xmm14
  40ab66:	66 45 0f 28 fe              	(move)  	movapd	%xmm14,%xmm15
  40ab6b:	f2 45 0f 59 fd              	(arith) 	mulsd	%xmm13,%xmm15
  40ab70:	f2 44 0f 11 7c 24 20        	(move)  	movsd	%xmm15,0x20(%rsp)
/home/jcsalinas/Documents/pruebas/inst_estimation_module/BT/solve_subs.f:400
  40ab77:	f2 44 0f 59 64 24 b0        	(arith) 	mulsd	-0x50(%rsp),%xmm12
  40ab7e:	f2 44 0f 10 b4 24 80 00 00 00	(move)  	movsd	0x80(%rsp),%xmm14
  40ab88:	f2 45 0f 5c f4              	(arith) 	subsd	%xmm12,%xmm14
  40ab8d:	66 45 0f 28 e6              	(move)  	movapd	%xmm14,%xmm12
  40ab92:	f2 0f 59 44 24 c8           	(arith) 	mulsd	-0x38(%rsp),%xmm0
  40ab98:	f2 44 0f 5c e0              	(arith) 	subsd	%xmm0,%xmm12
  40ab9d:	66 41 0f 28 c4              	(move)  	movapd	%xmm12,%xmm0
  40aba2:	f2 41 0f 59 c5              	(arith) 	mulsd	%xmm13,%xmm0
  40aba7:	66 44 0f 28 f8              	(move)  	movapd	%xmm0,%xmm15
/home/jcsalinas/Documents/pruebas/inst_estimation_module/BT/solve_subs.f:403
  40abac:	66 0f 28 c5                 	(move)  	movapd	%xmm5,%xmm0
  40abb0:	f2 0f 59 c7                 	(arith) 	mulsd	%xmm7,%xmm0
  40abb4:	f2 44 0f 10 64 24 28        	(move)  	movsd	0x28(%rsp),%xmm12
  40abbb:	f2 44 0f 5c e0              	(arith) 	subsd	%xmm0,%xmm12
  40abc0:	66 41 0f 28 c4              	(move)  	movapd	%xmm12,%xmm0
  40abc5:	66 44 0f 28 e4              	(move)  	movapd	%xmm4,%xmm12
  40abca:	f2 44 0f 59 e6              	(arith) 	mulsd	%xmm6,%xmm12
  40abcf:	f2 41 0f 5c c4              	(arith) 	subsd	%xmm12,%xmm0
  40abd4:	66 44 0f 28 e2              	(move)  	movapd	%xmm2,%xmm12
  40abd9:	66 44 0f 28 f3              	(move)  	movapd	%xmm3,%xmm14
  40abde:	f2 44 0f 59 e3              	(arith) 	mulsd	%xmm3,%xmm12
  40abe3:	f2 41 0f 5c c4              	(arith) 	subsd	%xmm12,%xmm0
  40abe8:	f2 0f 11 87 a0 00 00 00     	(move)  	movsd	%xmm0,0xa0(%rdi)
/home/jcsalinas/Documents/pruebas/inst_estimation_module/BT/solve_subs.f:412
  40abf0:	66 45 0f 28 e0              	(move)  	movapd	%xmm8,%xmm12
  40abf5:	f2 44 0f 59 e6              	(arith) 	mulsd	%xmm6,%xmm12
  40abfa:	66 0f 28 df                 	(move)  	movapd	%xmm7,%xmm3
  40abfe:	f2 41 0f 5c dc              	(arith) 	subsd	%xmm12,%xmm3
  40ac03:	66 44 0f 28 e3              	(move)  	movapd	%xmm3,%xmm12
  40ac08:	f2 44 0f 10 6c 24 60        	(move)  	movsd	0x60(%rsp),%xmm13
  40ac0f:	f2 45 0f 59 ee              	(arith) 	mulsd	%xmm14,%xmm13
  40ac14:	f2 45 0f 5c e5              	(arith) 	subsd	%xmm13,%xmm12
  40ac19:	f2 44 0f 11 a7 a8 00 00 00  	(move)  	movsd	%xmm12,0xa8(%rdi)
/home/jcsalinas/Documents/pruebas/inst_estimation_module/BT/solve_subs.f:421
  40ac22:	f2 0f 10 5c 24 88           	(move)  	movsd	-0x78(%rsp),%xmm3
  40ac28:	f2 44 0f 11 74 24 68        	(move)  	movsd	%xmm14,0x68(%rsp)
  40ac2f:	f2 41 0f 59 de              	(arith) 	mulsd	%xmm14,%xmm3
  40ac34:	66 44 0f 28 eb              	(move)  	movapd	%xmm3,%xmm13
  40ac39:	66 0f 28 de                 	(move)  	movapd	%xmm6,%xmm3
  40ac3d:	f2 41 0f 5c dd              	(arith) 	subsd	%xmm13,%xmm3
  40ac42:	66 44 0f 28 eb              	(move)  	movapd	%xmm3,%xmm13
  40ac47:	f2 0f 11 9f b0 00 00 00     	(move)  	movsd	%xmm3,0xb0(%rdi)
/home/jcsalinas/Documents/pruebas/inst_estimation_module/BT/solve_subs.f:430
  40ac4f:	f2 41 0f 59 fb              	(arith) 	mulsd	%xmm11,%xmm7
  40ac54:	f2 44 0f 10 b4 24 88 00 00 00	(move)  	movsd	0x88(%rsp),%xmm14
  40ac5e:	f2 44 0f 5c f7              	(arith) 	subsd	%xmm7,%xmm14
  40ac63:	66 41 0f 28 fe              	(move)  	movapd	%xmm14,%xmm7
  40ac68:	f2 41 0f 59 f1              	(arith) 	mulsd	%xmm9,%xmm6
  40ac6d:	f2 0f 5c fe                 	(arith) 	subsd	%xmm6,%xmm7
  40ac71:	66 41 0f 28 da              	(move)  	movapd	%xmm10,%xmm3
  40ac76:	f2 0f 59 5c 24 68           	(arith) 	mulsd	0x68(%rsp),%xmm3
  40ac7c:	f2 0f 5c fb                 	(arith) 	subsd	%xmm3,%xmm7
  40ac80:	f2 0f 11 bf c0 00 00 00     	(move)  	movsd	%xmm7,0xc0(%rdi)
/home/jcsalinas/Documents/pruebas/inst_estimation_module/BT/solve_subs.f:439
  40ac88:	f2 0f 10 1d a0 41 00 00     	(move)  	movsd	0x41a0(%rip),%xmm3
  40ac90:	f2 0f 5e df                 	(arith) 	divsd	%xmm7,%xmm3
  40ac94:	66 44 0f 28 f3              	(move)  	movapd	%xmm3,%xmm14
/home/jcsalinas/Documents/pruebas/inst_estimation_module/BT/solve_subs.f:440
  40ac99:	f2 0f 10 74 24 f0           	(move)  	movsd	-0x10(%rsp),%xmm6
  40ac9f:	f2 41 0f 59 f3              	(arith) 	mulsd	%xmm11,%xmm6
  40aca4:	f2 0f 10 bc 24 90 00 00 00  	(move)  	movsd	0x90(%rsp),%xmm7
  40acad:	f2 0f 5c fe                 	(arith) 	subsd	%xmm6,%xmm7
  40acb1:	66 0f 28 f7                 	(move)  	movapd	%xmm7,%xmm6
  40acb5:	f2 0f 10 7c 24 f8           	(move)  	movsd	-0x8(%rsp),%xmm7
  40acbb:	f2 41 0f 59 f9              	(arith) 	mulsd	%xmm9,%xmm7
  40acc0:	f2 0f 5c f7                 	(arith) 	subsd	%xmm7,%xmm6
  40acc4:	f2 0f 10 7c 24 08           	(move)  	movsd	0x8(%rsp),%xmm7
  40acca:	f2 41 0f 59 fa              	(arith) 	mulsd	%xmm10,%xmm7
  40accf:	f2 0f 5c f7                 	(arith) 	subsd	%xmm7,%xmm6
  40acd3:	f2 0f 59 f3                 	(arith) 	mulsd	%xmm3,%xmm6
  40acd7:	f2 0f 11 74 24 28           	(move)  	movsd	%xmm6,0x28(%rsp)
  40acdd:	f2 0f 11 76 20              	(move)  	movsd	%xmm6,0x20(%rsi)
/home/jcsalinas/Documents/pruebas/inst_estimation_module/BT/solve_subs.f:441
  40ace2:	f2 0f 10 74 24 90           	(move)  	movsd	-0x70(%rsp),%xmm6
  40ace8:	f2 41 0f 59 f3              	(arith) 	mulsd	%xmm11,%xmm6
  40aced:	f2 0f 10 bc 24 98 00 00 00  	(move)  	movsd	0x98(%rsp),%xmm7
  40acf6:	f2 0f 5c fe                 	(arith) 	subsd	%xmm6,%xmm7
  40acfa:	66 0f 28 f7                 	(move)  	movapd	%xmm7,%xmm6
  40acfe:	f2 0f 10 3c 24              	(move)  	movsd	(%rsp),%xmm7
  40ad03:	f2 41 0f 59 f9              	(arith) 	mulsd	%xmm9,%xmm7
  40ad08:	f2 0f 5c f7                 	(arith) 	subsd	%xmm7,%xmm6
  40ad0c:	f2 0f 10 7c 24 10           	(move)  	movsd	0x10(%rsp),%xmm7
  40ad12:	f2 41 0f 59 fa              	(arith) 	mulsd	%xmm10,%xmm7
  40ad17:	f2 0f 5c f7                 	(arith) 	subsd	%xmm7,%xmm6
  40ad1b:	f2 0f 59 f3                 	(arith) 	mulsd	%xmm3,%xmm6
  40ad1f:	f2 0f 11 74 24 30           	(move)  	movsd	%xmm6,0x30(%rsp)
  40ad25:	f2 0f 11 76 48              	(move)  	movsd	%xmm6,0x48(%rsi)
/home/jcsalinas/Documents/pruebas/inst_estimation_module/BT/solve_subs.f:442
  40ad2a:	f2 0f 10 7c 24 98           	(move)  	movsd	-0x68(%rsp),%xmm7
  40ad30:	f2 41 0f 59 fb              	(arith) 	mulsd	%xmm11,%xmm7
  40ad35:	66 0f 28 f7                 	(move)  	movapd	%xmm7,%xmm6
  40ad39:	f2 0f 10 bc 24 a0 00 00 00  	(move)  	movsd	0xa0(%rsp),%xmm7
  40ad42:	f2 0f 5c fe                 	(arith) 	subsd	%xmm6,%xmm7
  40ad46:	66 0f 28 f7                 	(move)  	movapd	%xmm7,%xmm6
  40ad4a:	f2 0f 10 7c 24 b8           	(move)  	movsd	-0x48(%rsp),%xmm7
  40ad50:	f2 41 0f 59 f9              	(arith) 	mulsd	%xmm9,%xmm7
  40ad55:	f2 0f 5c f7                 	(arith) 	subsd	%xmm7,%xmm6
  40ad59:	f2 0f 10 7c 24 18           	(move)  	movsd	0x18(%rsp),%xmm7
  40ad5f:	f2 41 0f 59 fa              	(arith) 	mulsd	%xmm10,%xmm7
  40ad64:	f2 0f 5c f7                 	(arith) 	subsd	%xmm7,%xmm6
  40ad68:	f2 0f 59 f3                 	(arith) 	mulsd	%xmm3,%xmm6
  40ad6c:	f2 0f 11 74 24 40           	(move)  	movsd	%xmm6,0x40(%rsp)
  40ad72:	f2 0f 11 76 70              	(move)  	movsd	%xmm6,0x70(%rsi)
/home/jcsalinas/Documents/pruebas/inst_estimation_module/BT/solve_subs.f:443
  40ad77:	f2 0f 10 74 24 a0           	(move)  	movsd	-0x60(%rsp),%xmm6
  40ad7d:	f2 41 0f 59 f3              	(arith) 	mulsd	%xmm11,%xmm6
  40ad82:	f2 0f 10 bc 24 a8 00 00 00  	(move)  	movsd	0xa8(%rsp),%xmm7
  40ad8b:	f2 0f 5c fe                 	(arith) 	subsd	%xmm6,%xmm7
  40ad8f:	f2 0f 10 74 24 c0           	(move)  	movsd	-0x40(%rsp),%xmm6
  40ad95:	f2 41 0f 59 f1              	(arith) 	mulsd	%xmm9,%xmm6
  40ad9a:	f2 0f 5c fe                 	(arith) 	subsd	%xmm6,%xmm7
  40ad9e:	f2 0f 10 74 24 38           	(move)  	movsd	0x38(%rsp),%xmm6
  40ada4:	f2 41 0f 59 f2              	(arith) 	mulsd	%xmm10,%xmm6
  40ada9:	f2 0f 5c fe                 	(arith) 	subsd	%xmm6,%xmm7
  40adad:	f2 0f 59 fb                 	(arith) 	mulsd	%xmm3,%xmm7
  40adb1:	f2 0f 11 be 98 00 00 00     	(move)  	movsd	%xmm7,0x98(%rsi)
/home/jcsalinas/Documents/pruebas/inst_estimation_module/BT/solve_subs.f:444
  40adb9:	f2 0f 10 74 24 a8           	(move)  	movsd	-0x58(%rsp),%xmm6
  40adbf:	f2 41 0f 59 f3              	(arith) 	mulsd	%xmm11,%xmm6
  40adc4:	f2 0f 10 9c 24 b0 00 00 00  	(move)  	movsd	0xb0(%rsp),%xmm3
  40adcd:	f2 0f 5c de                 	(arith) 	subsd	%xmm6,%xmm3
  40add1:	66 0f 28 f3                 	(move)  	movapd	%xmm3,%xmm6
  40add5:	f2 0f 11 4c 24 58           	(move)  	movsd	%xmm1,0x58(%rsp)
  40addb:	f2 41 0f 59 c9              	(arith) 	mulsd	%xmm9,%xmm1
  40ade0:	f2 0f 5c f1                 	(arith) 	subsd	%xmm1,%xmm6
  40ade4:	f2 0f 10 4c 24 20           	(move)  	movsd	0x20(%rsp),%xmm1
  40adea:	f2 41 0f 59 ca              	(arith) 	mulsd	%xmm10,%xmm1
  40adef:	f2 0f 5c f1                 	(arith) 	subsd	%xmm1,%xmm6
  40adf3:	f2 41 0f 59 f6              	(arith) 	mulsd	%xmm14,%xmm6
  40adf8:	f2 0f 11 b6 c0 00 00 00     	(move)  	movsd	%xmm6,0xc0(%rsi)
/home/jcsalinas/Documents/pruebas/inst_estimation_module/BT/solve_subs.f:445
  40ae00:	f2 44 0f 59 5c 24 b0        	(arith) 	mulsd	-0x50(%rsp),%xmm11
  40ae07:	f2 0f 10 9c 24 b8 00 00 00  	(move)  	movsd	0xb8(%rsp),%xmm3
  40ae10:	f2 41 0f 5c db              	(arith) 	subsd	%xmm11,%xmm3
  40ae15:	66 44 0f 28 db              	(move)  	movapd	%xmm3,%xmm11
  40ae1a:	f2 44 0f 59 4c 24 c8        	(arith) 	mulsd	-0x38(%rsp),%xmm9
  40ae21:	f2 45 0f 5c d9              	(arith) 	subsd	%xmm9,%xmm11
  40ae26:	f2 45 0f 59 d7              	(arith) 	mulsd	%xmm15,%xmm10
  40ae2b:	f2 45 0f 5c da              	(arith) 	subsd	%xmm10,%xmm11
  40ae30:	f2 45 0f 59 de              	(arith) 	mulsd	%xmm14,%xmm11
  40ae35:	f2 44 0f 11 5a 20           	(move)  	movsd	%xmm11,0x20(%rdx)
/home/jcsalinas/Documents/pruebas/inst_estimation_module/BT/solve_subs.f:448
  40ae3b:	f2 44 0f 10 74 24 f0        	(move)  	movsd	-0x10(%rsp),%xmm14
  40ae42:	66 45 0f 28 ce              	(move)  	movapd	%xmm14,%xmm9
  40ae47:	f2 44 0f 59 cd              	(arith) 	mulsd	%xmm5,%xmm9
  40ae4c:	f2 44 0f 10 54 24 48        	(move)  	movsd	0x48(%rsp),%xmm10
  40ae53:	f2 45 0f 5c d1              	(arith) 	subsd	%xmm9,%xmm10
  40ae58:	66 45 0f 28 ca              	(move)  	movapd	%xmm10,%xmm9
  40ae5d:	f2 44 0f 10 54 24 f8        	(move)  	movsd	-0x8(%rsp),%xmm10
  40ae64:	f2 44 0f 59 d4              	(arith) 	mulsd	%xmm4,%xmm10
  40ae69:	f2 45 0f 5c ca              	(arith) 	subsd	%xmm10,%xmm9
  40ae6e:	f2 0f 10 4c 24 08           	(move)  	movsd	0x8(%rsp),%xmm1
  40ae74:	f2 0f 59 ca                 	(arith) 	mulsd	%xmm2,%xmm1
  40ae78:	f2 44 0f 5c c9              	(arith) 	subsd	%xmm1,%xmm9
  40ae7d:	f2 44 0f 10 54 24 28        	(move)  	movsd	0x28(%rsp),%xmm10
  40ae84:	f2 44 0f 59 d0              	(arith) 	mulsd	%xmm0,%xmm10
  40ae89:	f2 45 0f 5c ca              	(arith) 	subsd	%xmm10,%xmm9
  40ae8e:	f2 44 0f 11 0e              	(move)  	movsd	%xmm9,(%rsi)
/home/jcsalinas/Documents/pruebas/inst_estimation_module/BT/solve_subs.f:449
  40ae93:	f2 44 0f 10 4c 24 90        	(move)  	movsd	-0x70(%rsp),%xmm9
  40ae9a:	f2 44 0f 59 cd              	(arith) 	mulsd	%xmm5,%xmm9
  40ae9f:	f2 44 0f 10 54 24 50        	(move)  	movsd	0x50(%rsp),%xmm10
  40aea6:	f2 45 0f 5c d1              	(arith) 	subsd	%xmm9,%xmm10
  40aeab:	66 45 0f 28 ca              	(move)  	movapd	%xmm10,%xmm9
  40aeb0:	f2 44 0f 10 14 24           	(move)  	movsd	(%rsp),%xmm10
  40aeb6:	f2 44 0f 59 d4              	(arith) 	mulsd	%xmm4,%xmm10
  40aebb:	f2 45 0f 5c ca              	(arith) 	subsd	%xmm10,%xmm9
  40aec0:	f2 0f 10 4c 24 10           	(move)  	movsd	0x10(%rsp),%xmm1
  40aec6:	f2 0f 59 ca                 	(arith) 	mulsd	%xmm2,%xmm1
  40aeca:	f2 44 0f 5c c9              	(arith) 	subsd	%xmm1,%xmm9
  40aecf:	f2 44 0f 10 54 24 30        	(move)  	movsd	0x30(%rsp),%xmm10
  40aed6:	f2 44 0f 59 d0              	(arith) 	mulsd	%xmm0,%xmm10
  40aedb:	f2 45 0f 5c ca              	(arith) 	subsd	%xmm10,%xmm9
  40aee0:	f2 44 0f 11 4e 28           	(move)  	movsd	%xmm9,0x28(%rsi)
/home/jcsalinas/Documents/pruebas/inst_estimation_module/BT/solve_subs.f:450
  40aee6:	f2 44 0f 10 54 24 98        	(move)  	movsd	-0x68(%rsp),%xmm10
  40aeed:	f2 44 0f 59 d5              	(arith) 	mulsd	%xmm5,%xmm10
  40aef2:	66 45 0f 28 ca              	(move)  	movapd	%xmm10,%xmm9
  40aef7:	f2 44 0f 10 54 24 d0        	(move)  	movsd	-0x30(%rsp),%xmm10
  40aefe:	f2 45 0f 5c d1              	(arith) 	subsd	%xmm9,%xmm10
  40af03:	66 45 0f 28 ca              	(move)  	movapd	%xmm10,%xmm9
  40af08:	f2 44 0f 10 54 24 b8        	(move)  	movsd	-0x48(%rsp),%xmm10
  40af0f:	f2 44 0f 59 d4              	(arith) 	mulsd	%xmm4,%xmm10
  40af14:	f2 45 0f 5c ca              	(arith) 	subsd	%xmm10,%xmm9
  40af19:	f2 0f 10 4c 24 18           	(move)  	movsd	0x18(%rsp),%xmm1
  40af1f:	f2 0f 59 ca                 	(arith) 	mulsd	%xmm2,%xmm1
  40af23:	f2 44 0f 5c c9              	(arith) 	subsd	%xmm1,%xmm9
  40af28:	f2 0f 10 4c 24 40           	(move)  	movsd	0x40(%rsp),%xmm1
  40af2e:	f2 0f 59 c8                 	(arith) 	mulsd	%xmm0,%xmm1
  40af32:	f2 44 0f 5c c9              	(arith) 	subsd	%xmm1,%xmm9
  40af37:	f2 44 0f 11 4e 50           	(move)  	movsd	%xmm9,0x50(%rsi)
/home/jcsalinas/Documents/pruebas/inst_estimation_module/BT/solve_subs.f:451
  40af3d:	f2 44 0f 10 4c 24 a0        	(move)  	movsd	-0x60(%rsp),%xmm9
  40af44:	f2 44 0f 59 cd              	(arith) 	mulsd	%xmm5,%xmm9
  40af49:	f2 44 0f 10 54 24 d8        	(move)  	movsd	-0x28(%rsp),%xmm10
  40af50:	f2 45 0f 5c d1              	(arith) 	subsd	%xmm9,%xmm10
  40af55:	66 45 0f 28 ca              	(move)  	movapd	%xmm10,%xmm9
  40af5a:	f2 44 0f 10 54 24 c0        	(move)  	movsd	-0x40(%rsp),%xmm10
  40af61:	f2 44 0f 59 d4              	(arith) 	mulsd	%xmm4,%xmm10
  40af66:	f2 45 0f 5c ca              	(arith) 	subsd	%xmm10,%xmm9
  40af6b:	f2 0f 10 4c 24 38           	(move)  	movsd	0x38(%rsp),%xmm1
  40af71:	f2 0f 59 ca                 	(arith) 	mulsd	%xmm2,%xmm1
  40af75:	f2 44 0f 5c c9              	(arith) 	subsd	%xmm1,%xmm9
  40af7a:	66 0f 28 d8                 	(move)  	movapd	%xmm0,%xmm3
  40af7e:	f2 0f 59 df                 	(arith) 	mulsd	%xmm7,%xmm3
  40af82:	f2 44 0f 5c cb              	(arith) 	subsd	%xmm3,%xmm9
  40af87:	f2 44 0f 11 4e 78           	(move)  	movsd	%xmm9,0x78(%rsi)
/home/jcsalinas/Documents/pruebas/inst_estimation_module/BT/solve_subs.f:452
  40af8d:	f2 44 0f 10 54 24 a8        	(move)  	movsd	-0x58(%rsp),%xmm10
  40af94:	f2 44 0f 59 d5              	(arith) 	mulsd	%xmm5,%xmm10
  40af99:	66 45 0f 28 ca              	(move)  	movapd	%xmm10,%xmm9
  40af9e:	f2 44 0f 10 54 24 e0        	(move)  	movsd	-0x20(%rsp),%xmm10
  40afa5:	f2 45 0f 5c d1              	(arith) 	subsd	%xmm9,%xmm10
  40afaa:	66 45 0f 28 ca              	(move)  	movapd	%xmm10,%xmm9
  40afaf:	f2 0f 10 4c 24 58           	(move)  	movsd	0x58(%rsp),%xmm1
  40afb5:	f2 0f 59 cc                 	(arith) 	mulsd	%xmm4,%xmm1
  40afb9:	f2 44 0f 5c c9              	(arith) 	subsd	%xmm1,%xmm9
  40afbe:	f2 0f 10 4c 24 20           	(move)  	movsd	0x20(%rsp),%xmm1
  40afc4:	f2 0f 59 ca                 	(arith) 	mulsd	%xmm2,%xmm1
  40afc8:	f2 44 0f 5c c9              	(arith) 	subsd	%xmm1,%xmm9
  40afcd:	66 0f 28 d8                 	(move)  	movapd	%xmm0,%xmm3
  40afd1:	f2 0f 59 de                 	(arith) 	mulsd	%xmm6,%xmm3
  40afd5:	f2 44 0f 5c cb              	(arith) 	subsd	%xmm3,%xmm9
  40afda:	f2 44 0f 11 8e a0 00 00 00  	(move)  	movsd	%xmm9,0xa0(%rsi)
/home/jcsalinas/Documents/pruebas/inst_estimation_module/BT/solve_subs.f:453
  40afe3:	f2 0f 59 6c 24 b0           	(arith) 	mulsd	-0x50(%rsp),%xmm5
  40afe9:	f2 44 0f 10 4c 24 e8        	(move)  	movsd	-0x18(%rsp),%xmm9
  40aff0:	f2 44 0f 5c cd              	(arith) 	subsd	%xmm5,%xmm9
  40aff5:	66 41 0f 28 e9              	(move)  	movapd	%xmm9,%xmm5
  40affa:	f2 0f 59 64 24 c8           	(arith) 	mulsd	-0x38(%rsp),%xmm4
  40b000:	f2 0f 5c ec                 	(arith) 	subsd	%xmm4,%xmm5
  40b004:	f2 41 0f 59 d7              	(arith) 	mulsd	%xmm15,%xmm2
  40b009:	f2 0f 5c ea                 	(arith) 	subsd	%xmm2,%xmm5
  40b00d:	f2 41 0f 59 c3              	(arith) 	mulsd	%xmm11,%xmm0
  40b012:	f2 0f 5c e8                 	(arith) 	subsd	%xmm0,%xmm5
  40b016:	f2 0f 11 2a                 	(move)  	movsd	%xmm5,(%rdx)
/home/jcsalinas/Documents/pruebas/inst_estimation_module/BT/solve_subs.f:456
  40b01a:	f2 0f 10 6c 24 f8           	(move)  	movsd	-0x8(%rsp),%xmm5
  40b020:	66 0f 28 c5                 	(move)  	movapd	%xmm5,%xmm0
  40b024:	f2 41 0f 59 c0              	(arith) 	mulsd	%xmm8,%xmm0
  40b029:	66 45 0f 28 ce              	(move)  	movapd	%xmm14,%xmm9
  40b02e:	f2 44 0f 5c c8              	(arith) 	subsd	%xmm0,%xmm9
  40b033:	66 41 0f 28 c1              	(move)  	movapd	%xmm9,%xmm0
  40b038:	f2 0f 10 64 24 60           	(move)  	movsd	0x60(%rsp),%xmm4
  40b03e:	66 0f 28 d4                 	(move)  	movapd	%xmm4,%xmm2
  40b042:	f2 0f 59 54 24 08           	(arith) 	mulsd	0x8(%rsp),%xmm2
  40b048:	f2 0f 5c c2                 	(arith) 	subsd	%xmm2,%xmm0
  40b04c:	f2 0f 10 54 24 28           	(move)  	movsd	0x28(%rsp),%xmm2
  40b052:	f2 41 0f 59 d4              	(arith) 	mulsd	%xmm12,%xmm2
  40b057:	f2 0f 5c c2                 	(arith) 	subsd	%xmm2,%xmm0
  40b05b:	f2 0f 11 46 08              	(move)  	movsd	%xmm0,0x8(%rsi)
/home/jcsalinas/Documents/pruebas/inst_estimation_module/BT/solve_subs.f:457
  40b060:	f2 44 0f 10 34 24           	(move)  	movsd	(%rsp),%xmm14
  40b066:	66 41 0f 28 c6              	(move)  	movapd	%xmm14,%xmm0
  40b06b:	f2 41 0f 59 c0              	(arith) 	mulsd	%xmm8,%xmm0
  40b070:	f2 44 0f 10 4c 24 90        	(move)  	movsd	-0x70(%rsp),%xmm9
  40b077:	f2 44 0f 5c c8              	(arith) 	subsd	%xmm0,%xmm9
  40b07c:	66 41 0f 28 c1              	(move)  	movapd	%xmm9,%xmm0
  40b081:	66 0f 28 d4                 	(move)  	movapd	%xmm4,%xmm2
  40b085:	f2 0f 59 54 24 10           	(arith) 	mulsd	0x10(%rsp),%xmm2
  40b08b:	f2 0f 5c c2                 	(arith) 	subsd	%xmm2,%xmm0
  40b08f:	f2 0f 10 54 24 30           	(move)  	movsd	0x30(%rsp),%xmm2
  40b095:	f2 41 0f 59 d4              	(arith) 	mulsd	%xmm12,%xmm2
  40b09a:	f2 0f 5c c2                 	(arith) 	subsd	%xmm2,%xmm0
  40b09e:	f2 0f 11 46 30              	(move)  	movsd	%xmm0,0x30(%rsi)
/home/jcsalinas/Documents/pruebas/inst_estimation_module/BT/solve_subs.f:458
  40b0a3:	f2 0f 10 44 24 b8           	(move)  	movsd	-0x48(%rsp),%xmm0
  40b0a9:	f2 41 0f 59 c0              	(arith) 	mulsd	%xmm8,%xmm0
  40b0ae:	f2 44 0f 10 54 24 98        	(move)  	movsd	-0x68(%rsp),%xmm10
  40b0b5:	f2 44 0f 5c d0              	(arith) 	subsd	%xmm0,%xmm10
  40b0ba:	66 41 0f 28 c2              	(move)  	movapd	%xmm10,%xmm0
  40b0bf:	66 0f 28 d4                 	(move)  	movapd	%xmm4,%xmm2
  40b0c3:	f2 0f 59 54 24 18           	(arith) 	mulsd	0x18(%rsp),%xmm2
  40b0c9:	f2 0f 5c c2                 	(arith) 	subsd	%xmm2,%xmm0
  40b0cd:	f2 0f 10 54 24 40           	(move)  	movsd	0x40(%rsp),%xmm2
  40b0d3:	f2 41 0f 59 d4              	(arith) 	mulsd	%xmm12,%xmm2
  40b0d8:	f2 0f 5c c2                 	(arith) 	subsd	%xmm2,%xmm0
  40b0dc:	f2 0f 11 46 58              	(move)  	movsd	%xmm0,0x58(%rsi)
/home/jcsalinas/Documents/pruebas/inst_estimation_module/BT/solve_subs.f:459
  40b0e1:	f2 0f 10 54 24 c0           	(move)  	movsd	-0x40(%rsp),%xmm2
  40b0e7:	f2 41 0f 59 d0              	(arith) 	mulsd	%xmm8,%xmm2
  40b0ec:	f2 44 0f 10 4c 24 a0        	(move)  	movsd	-0x60(%rsp),%xmm9
  40b0f3:	f2 44 0f 5c ca              	(arith) 	subsd	%xmm2,%xmm9
  40b0f8:	66 41 0f 28 c1              	(move)  	movapd	%xmm9,%xmm0
  40b0fd:	66 0f 28 d4                 	(move)  	movapd	%xmm4,%xmm2
  40b101:	f2 44 0f 10 4c 24 38        	(move)  	movsd	0x38(%rsp),%xmm9
  40b108:	f2 41 0f 59 d1              	(arith) 	mulsd	%xmm9,%xmm2
  40b10d:	f2 0f 5c c2                 	(arith) 	subsd	%xmm2,%xmm0
  40b111:	66 41 0f 28 dc              	(move)  	movapd	%xmm12,%xmm3
  40b116:	f2 0f 59 df                 	(arith) 	mulsd	%xmm7,%xmm3
  40b11a:	f2 0f 5c c3                 	(arith) 	subsd	%xmm3,%xmm0
  40b11e:	f2 0f 11 86 80 00 00 00     	(move)  	movsd	%xmm0,0x80(%rsi)
/home/jcsalinas/Documents/pruebas/inst_estimation_module/BT/solve_subs.f:460
  40b126:	f2 0f 10 4c 24 58           	(move)  	movsd	0x58(%rsp),%xmm1
  40b12c:	66 0f 28 c1                 	(move)  	movapd	%xmm1,%xmm0
  40b130:	f2 41 0f 59 c0              	(arith) 	mulsd	%xmm8,%xmm0
  40b135:	f2 44 0f 10 54 24 a8        	(move)  	movsd	-0x58(%rsp),%xmm10
  40b13c:	f2 44 0f 5c d0              	(arith) 	subsd	%xmm0,%xmm10
  40b141:	66 41 0f 28 c2              	(move)  	movapd	%xmm10,%xmm0
  40b146:	66 0f 28 d4                 	(move)  	movapd	%xmm4,%xmm2
  40b14a:	f2 0f 59 54 24 20           	(arith) 	mulsd	0x20(%rsp),%xmm2
  40b150:	f2 0f 5c c2                 	(arith) 	subsd	%xmm2,%xmm0
  40b154:	66 41 0f 28 dc              	(move)  	movapd	%xmm12,%xmm3
  40b159:	f2 0f 59 de                 	(arith) 	mulsd	%xmm6,%xmm3
  40b15d:	f2 0f 5c c3                 	(arith) 	subsd	%xmm3,%xmm0
  40b161:	f2 0f 11 86 a8 00 00 00     	(move)  	movsd	%xmm0,0xa8(%rsi)
/home/jcsalinas/Documents/pruebas/inst_estimation_module/BT/solve_subs.f:461
  40b169:	f2 44 0f 59 44 24 c8        	(arith) 	mulsd	-0x38(%rsp),%xmm8
  40b170:	f2 0f 10 44 24 b0           	(move)  	movsd	-0x50(%rsp),%xmm0
  40b176:	f2 41 0f 5c c0              	(arith) 	subsd	%xmm8,%xmm0
  40b17b:	66 0f 28 d4                 	(move)  	movapd	%xmm4,%xmm2
  40b17f:	f2 41 0f 59 d7              	(arith) 	mulsd	%xmm15,%xmm2
  40b184:	f2 0f 5c c2                 	(arith) 	subsd	%xmm2,%xmm0
  40b188:	f2 45 0f 59 e3              	(arith) 	mulsd	%xmm11,%xmm12
  40b18d:	f2 41 0f 5c c4              	(arith) 	subsd	%xmm12,%xmm0
  40b192:	f2 0f 11 42 08              	(move)  	movsd	%xmm0,0x8(%rdx)
/home/jcsalinas/Documents/pruebas/inst_estimation_module/BT/solve_subs.f:464
  40b197:	f2 44 0f 10 44 24 08        	(move)  	movsd	0x8(%rsp),%xmm8
  40b19e:	66 41 0f 28 e0              	(move)  	movapd	%xmm8,%xmm4
  40b1a3:	f2 0f 10 5c 24 88           	(move)  	movsd	-0x78(%rsp),%xmm3
  40b1a9:	f2 0f 59 e3                 	(arith) 	mulsd	%xmm3,%xmm4
  40b1ad:	66 44 0f 28 d5              	(move)  	movapd	%xmm5,%xmm10
  40b1b2:	f2 44 0f 5c d4              	(arith) 	subsd	%xmm4,%xmm10
  40b1b7:	66 41 0f 28 c2              	(move)  	movapd	%xmm10,%xmm0
  40b1bc:	f2 0f 10 6c 24 28           	(move)  	movsd	0x28(%rsp),%xmm5
  40b1c2:	f2 41 0f 59 ed              	(arith) 	mulsd	%xmm13,%xmm5
  40b1c7:	f2 0f 5c c5                 	(arith) 	subsd	%xmm5,%xmm0
  40b1cb:	f2 0f 11 46 10              	(move)  	movsd	%xmm0,0x10(%rsi)
/home/jcsalinas/Documents/pruebas/inst_estimation_module/BT/solve_subs.f:465
  40b1d0:	f2 0f 10 64 24 10           	(move)  	movsd	0x10(%rsp),%xmm4
  40b1d6:	66 0f 28 ec                 	(move)  	movapd	%xmm4,%xmm5
  40b1da:	f2 0f 59 eb                 	(arith) 	mulsd	%xmm3,%xmm5
  40b1de:	66 45 0f 28 d6              	(move)  	movapd	%xmm14,%xmm10
  40b1e3:	f2 44 0f 5c d5              	(arith) 	subsd	%xmm5,%xmm10
  40b1e8:	66 41 0f 28 c2              	(move)  	movapd	%xmm10,%xmm0
  40b1ed:	f2 44 0f 10 74 24 30        	(move)  	movsd	0x30(%rsp),%xmm14
  40b1f4:	f2 45 0f 59 f5              	(arith) 	mulsd	%xmm13,%xmm14
  40b1f9:	f2 41 0f 5c c6              	(arith) 	subsd	%xmm14,%xmm0
  40b1fe:	f2 0f 11 46 38              	(move)  	movsd	%xmm0,0x38(%rsi)
/home/jcsalinas/Documents/pruebas/inst_estimation_module/BT/solve_subs.f:466
  40b203:	f2 44 0f 10 64 24 18        	(move)  	movsd	0x18(%rsp),%xmm12
  40b20a:	66 41 0f 28 ec              	(move)  	movapd	%xmm12,%xmm5
  40b20f:	66 44 0f 28 f3              	(move)  	movapd	%xmm3,%xmm14
  40b214:	f2 0f 59 eb                 	(arith) 	mulsd	%xmm3,%xmm5
  40b218:	f2 44 0f 10 54 24 b8        	(move)  	movsd	-0x48(%rsp),%xmm10
  40b21f:	f2 44 0f 5c d5              	(arith) 	subsd	%xmm5,%xmm10
  40b224:	66 41 0f 28 c2              	(move)  	movapd	%xmm10,%xmm0
  40b229:	f2 0f 10 5c 24 40           	(move)  	movsd	0x40(%rsp),%xmm3
  40b22f:	66 0f 28 eb                 	(move)  	movapd	%xmm3,%xmm5
  40b233:	f2 41 0f 59 ed              	(arith) 	mulsd	%xmm13,%xmm5
  40b238:	f2 0f 5c c5                 	(arith) 	subsd	%xmm5,%xmm0
  40b23c:	f2 0f 11 46 60              	(move)  	movsd	%xmm0,0x60(%rsi)
/home/jcsalinas/Documents/pruebas/inst_estimation_module/BT/solve_subs.f:467
  40b241:	66 41 0f 28 e9              	(move)  	movapd	%xmm9,%xmm5
  40b246:	66 41 0f 28 c1              	(move)  	movapd	%xmm9,%xmm0
  40b24b:	f2 41 0f 59 c6              	(arith) 	mulsd	%xmm14,%xmm0
  40b250:	f2 0f 10 54 24 c0           	(move)  	movsd	-0x40(%rsp),%xmm2
  40b256:	f2 0f 5c d0                 	(arith) 	subsd	%xmm0,%xmm2
  40b25a:	66 0f 28 c2                 	(move)  	movapd	%xmm2,%xmm0
  40b25e:	66 41 0f 28 d5              	(move)  	movapd	%xmm13,%xmm2
  40b263:	f2 0f 59 d7                 	(arith) 	mulsd	%xmm7,%xmm2
  40b267:	f2 0f 5c c2                 	(arith) 	subsd	%xmm2,%xmm0
  40b26b:	f2 0f 11 86 88 00 00 00     	(move)  	movsd	%xmm0,0x88(%rsi)
/home/jcsalinas/Documents/pruebas/inst_estimation_module/BT/solve_subs.f:468
  40b273:	f2 44 0f 10 54 24 20        	(move)  	movsd	0x20(%rsp),%xmm10
  40b27a:	66 41 0f 28 c2              	(move)  	movapd	%xmm10,%xmm0
  40b27f:	f2 41 0f 59 c6              	(arith) 	mulsd	%xmm14,%xmm0
  40b284:	f2 0f 5c c8                 	(arith) 	subsd	%xmm0,%xmm1
  40b288:	66 0f 28 c1                 	(move)  	movapd	%xmm1,%xmm0
  40b28c:	66 41 0f 28 d5              	(move)  	movapd	%xmm13,%xmm2
  40b291:	f2 0f 59 d6                 	(arith) 	mulsd	%xmm6,%xmm2
  40b295:	f2 0f 5c c2                 	(arith) 	subsd	%xmm2,%xmm0
  40b299:	f2 0f 11 86 b0 00 00 00     	(move)  	movsd	%xmm0,0xb0(%rsi)
/home/jcsalinas/Documents/pruebas/inst_estimation_module/BT/solve_subs.f:469
  40b2a1:	66 41 0f 28 ce              	(move)  	movapd	%xmm14,%xmm1
  40b2a6:	f2 41 0f 59 cf              	(arith) 	mulsd	%xmm15,%xmm1
  40b2ab:	f2 44 0f 10 4c 24 c8        	(move)  	movsd	-0x38(%rsp),%xmm9
  40b2b2:	f2 44 0f 5c c9              	(arith) 	subsd	%xmm1,%xmm9
  40b2b7:	66 41 0f 28 c1              	(move)  	movapd	%xmm9,%xmm0
  40b2bc:	f2 45 0f 59 eb              	(arith) 	mulsd	%xmm11,%xmm13
  40b2c1:	f2 41 0f 5c c5              	(arith) 	subsd	%xmm13,%xmm0
  40b2c6:	f2 0f 11 42 10              	(move)  	movsd	%xmm0,0x10(%rdx)
/home/jcsalinas/Documents/pruebas/inst_estimation_module/BT/solve_subs.f:472
  40b2cb:	f2 0f 10 44 24 28           	(move)  	movsd	0x28(%rsp),%xmm0
  40b2d1:	f2 0f 10 54 24 68           	(move)  	movsd	0x68(%rsp),%xmm2
  40b2d7:	f2 0f 59 c2                 	(arith) 	mulsd	%xmm2,%xmm0
  40b2db:	66 45 0f 28 f0              	(move)  	movapd	%xmm8,%xmm14
  40b2e0:	f2 44 0f 5c f0              	(arith) 	subsd	%xmm0,%xmm14
  40b2e5:	f2 44 0f 11 76 18           	(move)  	movsd	%xmm14,0x18(%rsi)
/home/jcsalinas/Documents/pruebas/inst_estimation_module/BT/solve_subs.f:473
  40b2eb:	f2 0f 10 44 24 30           	(move)  	movsd	0x30(%rsp),%xmm0
  40b2f1:	f2 0f 59 c2                 	(arith) 	mulsd	%xmm2,%xmm0
  40b2f5:	66 44 0f 28 f4              	(move)  	movapd	%xmm4,%xmm14
  40b2fa:	f2 44 0f 5c f0              	(arith) 	subsd	%xmm0,%xmm14
  40b2ff:	f2 44 0f 11 76 40           	(move)  	movsd	%xmm14,0x40(%rsi)
/home/jcsalinas/Documents/pruebas/inst_estimation_module/BT/solve_subs.f:474
  40b305:	66 0f 28 c3                 	(move)  	movapd	%xmm3,%xmm0
  40b309:	66 0f 28 da                 	(move)  	movapd	%xmm2,%xmm3
  40b30d:	f2 0f 59 c2                 	(arith) 	mulsd	%xmm2,%xmm0
  40b311:	66 45 0f 28 f4              	(move)  	movapd	%xmm12,%xmm14
  40b316:	f2 44 0f 5c f0              	(arith) 	subsd	%xmm0,%xmm14
  40b31b:	f2 44 0f 11 76 68           	(move)  	movsd	%xmm14,0x68(%rsi)
/home/jcsalinas/Documents/pruebas/inst_estimation_module/BT/solve_subs.f:475
  40b321:	f2 0f 59 fa                 	(arith) 	mulsd	%xmm2,%xmm7
  40b325:	66 44 0f 28 f5              	(move)  	movapd	%xmm5,%xmm14
  40b32a:	f2 44 0f 5c f7              	(arith) 	subsd	%xmm7,%xmm14
  40b32f:	f2 44 0f 11 b6 90 00 00 00  	(move)  	movsd	%xmm14,0x90(%rsi)
/home/jcsalinas/Documents/pruebas/inst_estimation_module/BT/solve_subs.f:476
  40b338:	f2 0f 59 f2                 	(arith) 	mulsd	%xmm2,%xmm6
  40b33c:	66 45 0f 28 f2              	(move)  	movapd	%xmm10,%xmm14
  40b341:	f2 44 0f 5c f6              	(arith) 	subsd	%xmm6,%xmm14
  40b346:	f2 44 0f 11 b6 b8 00 00 00  	(move)  	movsd	%xmm14,0xb8(%rsi)
/home/jcsalinas/Documents/pruebas/inst_estimation_module/BT/solve_subs.f:477
  40b34f:	f2 41 0f 59 db              	(arith) 	mulsd	%xmm11,%xmm3
  40b354:	f2 44 0f 5c fb              	(arith) 	subsd	%xmm3,%xmm15
  40b359:	f2 44 0f 11 7a 18           	(move)  	movsd	%xmm15,0x18(%rdx)
/home/jcsalinas/Documents/pruebas/inst_estimation_module/BT/solve_subs.f:481
  40b35f:	48 81 c4 c0 00 00 00        	(arith) 	add	$0xc0,%rsp
  40b366:	c3                          	(control)	ret


000000000040b367 <binvrhs>:
591 (function binvrhs_):	
/home/jcsalinas/Documents/pruebas/inst_estimation_module/BT/solve_subs.f:488
  40b367:	f2 0f 10 05 c1 3a 00 00     	(move)  	movsd	0x3ac1(%rip),%xmm0
/home/jcsalinas/Documents/pruebas/inst_estimation_module/BT/solve_subs.f:508
  40b36f:	f2 0f 5e 07                 	(arith) 	divsd	(%rdi),%xmm0
/home/jcsalinas/Documents/pruebas/inst_estimation_module/BT/solve_subs.f:509
  40b373:	66 0f 28 f0                 	(move)  	movapd	%xmm0,%xmm6
  40b377:	f2 0f 59 77 28              	(arith) 	mulsd	0x28(%rdi),%xmm6
  40b37c:	f2 0f 11 77 28              	(move)  	movsd	%xmm6,0x28(%rdi)
/home/jcsalinas/Documents/pruebas/inst_estimation_module/BT/solve_subs.f:510
  40b381:	66 44 0f 28 f8              	(move)  	movapd	%xmm0,%xmm15
  40b386:	f2 44 0f 59 7f 50           	(arith) 	mulsd	0x50(%rdi),%xmm15
/home/jcsalinas/Documents/pruebas/inst_estimation_module/BT/solve_subs.f:511
  40b38c:	66 0f 28 e0                 	(move)  	movapd	%xmm0,%xmm4
  40b390:	f2 0f 59 67 78              	(arith) 	mulsd	0x78(%rdi),%xmm4
/home/jcsalinas/Documents/pruebas/inst_estimation_module/BT/solve_subs.f:512
  40b395:	66 0f 28 c8                 	(move)  	movapd	%xmm0,%xmm1
  40b399:	f2 0f 59 8f a0 00 00 00     	(arith) 	mulsd	0xa0(%rdi),%xmm1
  40b3a1:	66 44 0f 28 c9              	(move)  	movapd	%xmm1,%xmm9
/home/jcsalinas/Documents/pruebas/inst_estimation_module/BT/solve_subs.f:513
  40b3a6:	f2 0f 59 06                 	(arith) 	mulsd	(%rsi),%xmm0
  40b3aa:	66 44 0f 28 f0              	(move)  	movapd	%xmm0,%xmm14
/home/jcsalinas/Documents/pruebas/inst_estimation_module/BT/solve_subs.f:515
  40b3af:	f2 0f 10 47 08              	(move)  	movsd	0x8(%rdi),%xmm0
/home/jcsalinas/Documents/pruebas/inst_estimation_module/BT/solve_subs.f:516
  40b3b4:	66 0f 28 ce                 	(move)  	movapd	%xmm6,%xmm1
  40b3b8:	f2 0f 59 c8                 	(arith) 	mulsd	%xmm0,%xmm1
  40b3bc:	f2 0f 10 57 30              	(move)  	movsd	0x30(%rdi),%xmm2
  40b3c1:	f2 0f 5c d1                 	(arith) 	subsd	%xmm1,%xmm2
  40b3c5:	f2 0f 11 57 30              	(move)  	movsd	%xmm2,0x30(%rdi)
/home/jcsalinas/Documents/pruebas/inst_estimation_module/BT/solve_subs.f:517
  40b3ca:	66 41 0f 28 df              	(move)  	movapd	%xmm15,%xmm3
  40b3cf:	f2 0f 59 d8                 	(arith) 	mulsd	%xmm0,%xmm3
  40b3d3:	f2 0f 10 4f 58              	(move)  	movsd	0x58(%rdi),%xmm1
  40b3d8:	f2 0f 5c cb                 	(arith) 	subsd	%xmm3,%xmm1
/home/jcsalinas/Documents/pruebas/inst_estimation_module/BT/solve_subs.f:518
  40b3dc:	66 0f 28 dc                 	(move)  	movapd	%xmm4,%xmm3
  40b3e0:	f2 0f 59 d8                 	(arith) 	mulsd	%xmm0,%xmm3
  40b3e4:	f2 0f 10 af 80 00 00 00     	(move)  	movsd	0x80(%rdi),%xmm5
  40b3ec:	f2 0f 5c eb                 	(arith) 	subsd	%xmm3,%xmm5
/home/jcsalinas/Documents/pruebas/inst_estimation_module/BT/solve_subs.f:519
  40b3f0:	66 41 0f 28 d9              	(move)  	movapd	%xmm9,%xmm3
  40b3f5:	f2 0f 59 d8                 	(arith) 	mulsd	%xmm0,%xmm3
  40b3f9:	f2 44 0f 10 87 a8 00 00 00  	(move)  	movsd	0xa8(%rdi),%xmm8
  40b402:	f2 44 0f 5c c3              	(arith) 	subsd	%xmm3,%xmm8
/home/jcsalinas/Documents/pruebas/inst_estimation_module/BT/solve_subs.f:520
  40b407:	f2 41 0f 59 c6              	(arith) 	mulsd	%xmm14,%xmm0
  40b40c:	66 0f 28 d8                 	(move)  	movapd	%xmm0,%xmm3
  40b410:	f2 0f 10 46 08              	(move)  	movsd	0x8(%rsi),%xmm0
  40b415:	f2 0f 5c c3                 	(arith) 	subsd	%xmm3,%xmm0
  40b419:	f2 0f 11 44 24 a0           	(move)  	movsd	%xmm0,-0x60(%rsp)
/home/jcsalinas/Documents/pruebas/inst_estimation_module/BT/solve_subs.f:522
  40b41f:	f2 0f 10 47 10              	(move)  	movsd	0x10(%rdi),%xmm0
/home/jcsalinas/Documents/pruebas/inst_estimation_module/BT/solve_subs.f:523
  40b424:	66 0f 28 de                 	(move)  	movapd	%xmm6,%xmm3
  40b428:	f2 0f 59 d8                 	(arith) 	mulsd	%xmm0,%xmm3
  40b42c:	f2 44 0f 10 6f 38           	(move)  	movsd	0x38(%rdi),%xmm13
  40b432:	f2 44 0f 5c eb              	(arith) 	subsd	%xmm3,%xmm13
  40b437:	f2 44 0f 11 6f 38           	(move)  	movsd	%xmm13,0x38(%rdi)
/home/jcsalinas/Documents/pruebas/inst_estimation_module/BT/solve_subs.f:524
  40b43d:	66 41 0f 28 df              	(move)  	movapd	%xmm15,%xmm3
  40b442:	f2 0f 59 d8                 	(arith) 	mulsd	%xmm0,%xmm3
  40b446:	f2 0f 10 7f 60              	(move)  	movsd	0x60(%rdi),%xmm7
  40b44b:	f2 0f 5c fb                 	(arith) 	subsd	%xmm3,%xmm7
  40b44f:	f2 0f 11 7c 24 c0           	(move)  	movsd	%xmm7,-0x40(%rsp)
/home/jcsalinas/Documents/pruebas/inst_estimation_module/BT/solve_subs.f:525
  40b455:	66 0f 28 fc                 	(move)  	movapd	%xmm4,%xmm7
  40b459:	f2 0f 59 f8                 	(arith) 	mulsd	%xmm0,%xmm7
  40b45d:	f2 0f 10 9f 88 00 00 00     	(move)  	movsd	0x88(%rdi),%xmm3
  40b465:	f2 0f 5c df                 	(arith) 	subsd	%xmm7,%xmm3
  40b469:	f2 0f 11 5c 24 c8           	(move)  	movsd	%xmm3,-0x38(%rsp)
/home/jcsalinas/Documents/pruebas/inst_estimation_module/BT/solve_subs.f:526
  40b46f:	66 41 0f 28 d9              	(move)  	movapd	%xmm9,%xmm3
  40b474:	f2 0f 59 d8                 	(arith) 	mulsd	%xmm0,%xmm3
  40b478:	f2 0f 10 bf b0 00 00 00     	(move)  	movsd	0xb0(%rdi),%xmm7
  40b480:	66 44 0f 28 d7              	(move)  	movapd	%xmm7,%xmm10
  40b485:	f2 44 0f 5c d3              	(arith) 	subsd	%xmm3,%xmm10
  40b48a:	f2 44 0f 11 54 24 d0        	(move)  	movsd	%xmm10,-0x30(%rsp)
/home/jcsalinas/Documents/pruebas/inst_estimation_module/BT/solve_subs.f:527
  40b491:	f2 44 0f 11 74 24 a8        	(move)  	movsd	%xmm14,-0x58(%rsp)
  40b498:	f2 41 0f 59 c6              	(arith) 	mulsd	%xmm14,%xmm0
  40b49d:	f2 44 0f 10 5e 10           	(move)  	movsd	0x10(%rsi),%xmm11
  40b4a3:	f2 44 0f 5c d8              	(arith) 	subsd	%xmm0,%xmm11
/home/jcsalinas/Documents/pruebas/inst_estimation_module/BT/solve_subs.f:529
  40b4a8:	f2 0f 10 47 18              	(move)  	movsd	0x18(%rdi),%xmm0
/home/jcsalinas/Documents/pruebas/inst_estimation_module/BT/solve_subs.f:530
  40b4ad:	66 0f 28 de                 	(move)  	movapd	%xmm6,%xmm3
  40b4b1:	f2 0f 59 d8                 	(arith) 	mulsd	%xmm0,%xmm3
  40b4b5:	f2 44 0f 10 67 40           	(move)  	movsd	0x40(%rdi),%xmm12
  40b4bb:	f2 44 0f 5c e3              	(arith) 	subsd	%xmm3,%xmm12
  40b4c0:	f2 44 0f 11 67 40           	(move)  	movsd	%xmm12,0x40(%rdi)
/home/jcsalinas/Documents/pruebas/inst_estimation_module/BT/solve_subs.f:531
  40b4c6:	66 41 0f 28 df              	(move)  	movapd	%xmm15,%xmm3
  40b4cb:	f2 0f 59 d8                 	(arith) 	mulsd	%xmm0,%xmm3
  40b4cf:	f2 44 0f 10 57 68           	(move)  	movsd	0x68(%rdi),%xmm10
  40b4d5:	f2 44 0f 5c d3              	(arith) 	subsd	%xmm3,%xmm10
/home/jcsalinas/Documents/pruebas/inst_estimation_module/BT/solve_subs.f:532
  40b4da:	66 0f 28 dc                 	(move)  	movapd	%xmm4,%xmm3
  40b4de:	f2 0f 59 d8                 	(arith) 	mulsd	%xmm0,%xmm3
  40b4e2:	f2 0f 10 bf 90 00 00 00     	(move)  	movsd	0x90(%rdi),%xmm7
  40b4ea:	66 44 0f 28 f7              	(move)  	movapd	%xmm7,%xmm14
  40b4ef:	f2 44 0f 5c f3              	(arith) 	subsd	%xmm3,%xmm14
/home/jcsalinas/Documents/pruebas/inst_estimation_module/BT/solve_subs.f:533
  40b4f4:	f2 44 0f 11 4c 24 b8        	(move)  	movsd	%xmm9,-0x48(%rsp)
  40b4fb:	66 41 0f 28 d9              	(move)  	movapd	%xmm9,%xmm3
  40b500:	f2 0f 59 d8                 	(arith) 	mulsd	%xmm0,%xmm3
  40b504:	f2 0f 10 bf b8 00 00 00     	(move)  	movsd	0xb8(%rdi),%xmm7
  40b50c:	66 44 0f 28 cf              	(move)  	movapd	%xmm7,%xmm9
  40b511:	f2 44 0f 5c cb              	(arith) 	subsd	%xmm3,%xmm9
  40b516:	f2 44 0f 11 4c 24 d8        	(move)  	movsd	%xmm9,-0x28(%rsp)
/home/jcsalinas/Documents/pruebas/inst_estimation_module/BT/solve_subs.f:534
  40b51d:	f2 0f 59 44 24 a8           	(arith) 	mulsd	-0x58(%rsp),%xmm0
  40b523:	f2 0f 10 5e 18              	(move)  	movsd	0x18(%rsi),%xmm3
  40b528:	66 44 0f 28 cb              	(move)  	movapd	%xmm3,%xmm9
  40b52d:	f2 44 0f 5c c8              	(arith) 	subsd	%xmm0,%xmm9
  40b532:	f2 44 0f 11 4c 24 e0        	(move)  	movsd	%xmm9,-0x20(%rsp)
/home/jcsalinas/Documents/pruebas/inst_estimation_module/BT/solve_subs.f:536
  40b539:	f2 0f 10 47 20              	(move)  	movsd	0x20(%rdi),%xmm0
/home/jcsalinas/Documents/pruebas/inst_estimation_module/BT/solve_subs.f:537
  40b53e:	66 0f 28 de                 	(move)  	movapd	%xmm6,%xmm3
  40b542:	f2 0f 59 d8                 	(arith) 	mulsd	%xmm0,%xmm3
  40b546:	f2 0f 10 7f 48              	(move)  	movsd	0x48(%rdi),%xmm7
  40b54b:	f2 0f 5c fb                 	(arith) 	subsd	%xmm3,%xmm7
  40b54f:	f2 0f 11 7c 24 98           	(move)  	movsd	%xmm7,-0x68(%rsp)
  40b555:	f2 0f 11 7f 48              	(move)  	movsd	%xmm7,0x48(%rdi)
/home/jcsalinas/Documents/pruebas/inst_estimation_module/BT/solve_subs.f:538
  40b55a:	66 41 0f 28 df              	(move)  	movapd	%xmm15,%xmm3
  40b55f:	f2 0f 59 d8                 	(arith) 	mulsd	%xmm0,%xmm3
  40b563:	f2 44 0f 10 4f 70           	(move)  	movsd	0x70(%rdi),%xmm9
  40b569:	f2 44 0f 5c cb              	(arith) 	subsd	%xmm3,%xmm9
/home/jcsalinas/Documents/pruebas/inst_estimation_module/BT/solve_subs.f:539
  40b56e:	66 0f 28 dc                 	(move)  	movapd	%xmm4,%xmm3
  40b572:	f2 0f 59 d8                 	(arith) 	mulsd	%xmm0,%xmm3
  40b576:	f2 0f 10 bf 98 00 00 00     	(move)  	movsd	0x98(%rdi),%xmm7
  40b57e:	f2 0f 5c fb                 	(arith) 	subsd	%xmm3,%xmm7
  40b582:	f2 0f 11 7c 24 e8           	(move)  	movsd	%xmm7,-0x18(%rsp)
/home/jcsalinas/Documents/pruebas/inst_estimation_module/BT/solve_subs.f:540
  40b588:	f2 0f 10 5c 24 b8           	(move)  	movsd	-0x48(%rsp),%xmm3
  40b58e:	f2 0f 59 d8                 	(arith) 	mulsd	%xmm0,%xmm3
  40b592:	f2 0f 10 bf c0 00 00 00     	(move)  	movsd	0xc0(%rdi),%xmm7
  40b59a:	f2 0f 5c fb                 	(arith) 	subsd	%xmm3,%xmm7
  40b59e:	f2 0f 11 7c 24 f0           	(move)  	movsd	%xmm7,-0x10(%rsp)
/home/jcsalinas/Documents/pruebas/inst_estimation_module/BT/solve_subs.f:541
  40b5a4:	f2 0f 59 44 24 a8           	(arith) 	mulsd	-0x58(%rsp),%xmm0
  40b5aa:	f2 0f 10 7e 20              	(move)  	movsd	0x20(%rsi),%xmm7
  40b5af:	66 0f 28 df                 	(move)  	movapd	%xmm7,%xmm3
  40b5b3:	f2 0f 5c d8                 	(arith) 	subsd	%xmm0,%xmm3
  40b5b7:	f2 0f 11 5c 24 f8           	(move)  	movsd	%xmm3,-0x8(%rsp)
/home/jcsalinas/Documents/pruebas/inst_estimation_module/BT/solve_subs.f:544
  40b5bd:	f2 0f 10 1d 6b 38 00 00     	(move)  	movsd	0x386b(%rip),%xmm3
  40b5c5:	f2 0f 5e da                 	(arith) 	divsd	%xmm2,%xmm3
  40b5c9:	66 0f 28 c3                 	(move)  	movapd	%xmm3,%xmm0
/home/jcsalinas/Documents/pruebas/inst_estimation_module/BT/solve_subs.f:545
  40b5cd:	f2 0f 59 cb                 	(arith) 	mulsd	%xmm3,%xmm1
  40b5d1:	f2 0f 11 4f 58              	(move)  	movsd	%xmm1,0x58(%rdi)
/home/jcsalinas/Documents/pruebas/inst_estimation_module/BT/solve_subs.f:546
  40b5d6:	f2 0f 59 eb                 	(arith) 	mulsd	%xmm3,%xmm5
/home/jcsalinas/Documents/pruebas/inst_estimation_module/BT/solve_subs.f:547
  40b5da:	f2 44 0f 59 c3              	(arith) 	mulsd	%xmm3,%xmm8
/home/jcsalinas/Documents/pruebas/inst_estimation_module/BT/solve_subs.f:548
  40b5df:	f2 0f 59 44 24 a0           	(arith) 	mulsd	-0x60(%rsp),%xmm0
  40b5e5:	f2 0f 11 44 24 a0           	(move)  	movsd	%xmm0,-0x60(%rsp)
/home/jcsalinas/Documents/pruebas/inst_estimation_module/BT/solve_subs.f:551
  40b5eb:	66 0f 28 d6                 	(move)  	movapd	%xmm6,%xmm2
  40b5ef:	f2 0f 59 d1                 	(arith) 	mulsd	%xmm1,%xmm2
  40b5f3:	f2 44 0f 5c fa              	(arith) 	subsd	%xmm2,%xmm15
  40b5f8:	f2 44 0f 11 7c 24 b0        	(move)  	movsd	%xmm15,-0x50(%rsp)
  40b5ff:	f2 44 0f 11 7f 50           	(move)  	movsd	%xmm15,0x50(%rdi)
/home/jcsalinas/Documents/pruebas/inst_estimation_module/BT/solve_subs.f:557
  40b605:	66 41 0f 28 d5              	(move)  	movapd	%xmm13,%xmm2
  40b60a:	f2 0f 59 d1                 	(arith) 	mulsd	%xmm1,%xmm2
  40b60e:	f2 44 0f 10 7c 24 c0        	(move)  	movsd	-0x40(%rsp),%xmm15
  40b615:	f2 44 0f 5c fa              	(arith) 	subsd	%xmm2,%xmm15
  40b61a:	66 41 0f 28 d7              	(move)  	movapd	%xmm15,%xmm2
  40b61f:	f2 44 0f 11 7f 60           	(move)  	movsd	%xmm15,0x60(%rdi)
/home/jcsalinas/Documents/pruebas/inst_estimation_module/BT/solve_subs.f:563
  40b625:	66 45 0f 28 fc              	(move)  	movapd	%xmm12,%xmm15
  40b62a:	f2 44 0f 59 f9              	(arith) 	mulsd	%xmm1,%xmm15
  40b62f:	f2 45 0f 5c d7              	(arith) 	subsd	%xmm15,%xmm10
  40b634:	f2 44 0f 11 57 68           	(move)  	movsd	%xmm10,0x68(%rdi)
/home/jcsalinas/Documents/pruebas/inst_estimation_module/BT/solve_subs.f:569
  40b63a:	f2 44 0f 10 7c 24 98        	(move)  	movsd	-0x68(%rsp),%xmm15
  40b641:	66 41 0f 28 ff              	(move)  	movapd	%xmm15,%xmm7
  40b646:	f2 0f 59 f9                 	(arith) 	mulsd	%xmm1,%xmm7
  40b64a:	f2 44 0f 5c cf              	(arith) 	subsd	%xmm7,%xmm9
  40b64f:	f2 44 0f 11 4f 70           	(move)  	movsd	%xmm9,0x70(%rdi)
/home/jcsalinas/Documents/pruebas/inst_estimation_module/BT/solve_subs.f:575
  40b655:	f2 0f 10 3d d3 37 00 00     	(move)  	movsd	0x37d3(%rip),%xmm7
  40b65d:	f2 0f 5e fa                 	(arith) 	divsd	%xmm2,%xmm7
  40b661:	66 0f 28 d7                 	(move)  	movapd	%xmm7,%xmm2
/home/jcsalinas/Documents/pruebas/inst_estimation_module/BT/solve_subs.f:576
  40b665:	66 41 0f 28 fd              	(move)  	movapd	%xmm13,%xmm7
  40b66a:	f2 0f 59 fd                 	(arith) 	mulsd	%xmm5,%xmm7
  40b66e:	66 0f 28 df                 	(move)  	movapd	%xmm7,%xmm3
  40b672:	f2 0f 10 7c 24 c8           	(move)  	movsd	-0x38(%rsp),%xmm7
  40b678:	f2 0f 5c fb                 	(arith) 	subsd	%xmm3,%xmm7
  40b67c:	66 0f 28 df                 	(move)  	movapd	%xmm7,%xmm3
  40b680:	f2 0f 59 da                 	(arith) 	mulsd	%xmm2,%xmm3
  40b684:	f2 0f 11 9f 88 00 00 00     	(move)  	movsd	%xmm3,0x88(%rdi)
/home/jcsalinas/Documents/pruebas/inst_estimation_module/BT/solve_subs.f:577
  40b68c:	66 41 0f 28 fd              	(move)  	movapd	%xmm13,%xmm7
  40b691:	f2 41 0f 59 f8              	(arith) 	mulsd	%xmm8,%xmm7
  40b696:	f2 0f 10 44 24 d0           	(move)  	movsd	-0x30(%rsp),%xmm0
  40b69c:	f2 0f 5c c7                 	(arith) 	subsd	%xmm7,%xmm0
  40b6a0:	66 0f 28 f8                 	(move)  	movapd	%xmm0,%xmm7
  40b6a4:	f2 0f 59 fa                 	(arith) 	mulsd	%xmm2,%xmm7
/home/jcsalinas/Documents/pruebas/inst_estimation_module/BT/solve_subs.f:578
  40b6a8:	f2 44 0f 59 6c 24 a0        	(arith) 	mulsd	-0x60(%rsp),%xmm13
  40b6af:	f2 45 0f 5c dd              	(arith) 	subsd	%xmm13,%xmm11
  40b6b4:	f2 41 0f 59 d3              	(arith) 	mulsd	%xmm11,%xmm2
/home/jcsalinas/Documents/pruebas/inst_estimation_module/BT/solve_subs.f:581
  40b6b9:	66 44 0f 28 ee              	(move)  	movapd	%xmm6,%xmm13
  40b6be:	f2 44 0f 59 ed              	(arith) 	mulsd	%xmm5,%xmm13
  40b6c3:	f2 41 0f 5c e5              	(arith) 	subsd	%xmm13,%xmm4
  40b6c8:	f2 44 0f 10 5c 24 b0        	(move)  	movsd	-0x50(%rsp),%xmm11
  40b6cf:	f2 44 0f 59 db              	(arith) 	mulsd	%xmm3,%xmm11
  40b6d4:	f2 41 0f 5c e3              	(arith) 	subsd	%xmm11,%xmm4
  40b6d9:	f2 0f 11 67 78              	(move)  	movsd	%xmm4,0x78(%rdi)
/home/jcsalinas/Documents/pruebas/inst_estimation_module/BT/solve_subs.f:586
  40b6de:	66 44 0f 28 e9              	(move)  	movapd	%xmm1,%xmm13
  40b6e3:	f2 44 0f 59 eb              	(arith) 	mulsd	%xmm3,%xmm13
  40b6e8:	66 45 0f 28 dd              	(move)  	movapd	%xmm13,%xmm11
  40b6ed:	66 44 0f 28 ed              	(move)  	movapd	%xmm5,%xmm13
  40b6f2:	f2 45 0f 5c eb              	(arith) 	subsd	%xmm11,%xmm13
  40b6f7:	f2 44 0f 11 af 80 00 00 00  	(move)  	movsd	%xmm13,0x80(%rdi)
/home/jcsalinas/Documents/pruebas/inst_estimation_module/BT/solve_subs.f:591
  40b700:	66 45 0f 28 dc              	(move)  	movapd	%xmm12,%xmm11
  40b705:	f2 44 0f 59 dd              	(arith) 	mulsd	%xmm5,%xmm11
  40b70a:	f2 45 0f 5c f3              	(arith) 	subsd	%xmm11,%xmm14
  40b70f:	66 45 0f 28 da              	(move)  	movapd	%xmm10,%xmm11
  40b714:	f2 44 0f 59 db              	(arith) 	mulsd	%xmm3,%xmm11
  40b719:	f2 45 0f 5c f3              	(arith) 	subsd	%xmm11,%xmm14
  40b71e:	f2 44 0f 11 b7 90 00 00 00  	(move)  	movsd	%xmm14,0x90(%rdi)
/home/jcsalinas/Documents/pruebas/inst_estimation_module/BT/solve_subs.f:596
  40b727:	f2 41 0f 59 ef              	(arith) 	mulsd	%xmm15,%xmm5
  40b72c:	f2 44 0f 10 5c 24 e8        	(move)  	movsd	-0x18(%rsp),%xmm11
  40b733:	f2 44 0f 5c dd              	(arith) 	subsd	%xmm5,%xmm11
  40b738:	66 41 0f 28 e9              	(move)  	movapd	%xmm9,%xmm5
  40b73d:	f2 0f 59 eb                 	(arith) 	mulsd	%xmm3,%xmm5
  40b741:	f2 44 0f 5c dd              	(arith) 	subsd	%xmm5,%xmm11
  40b746:	f2 44 0f 11 9f 98 00 00 00  	(move)  	movsd	%xmm11,0x98(%rdi)
/home/jcsalinas/Documents/pruebas/inst_estimation_module/BT/solve_subs.f:601
  40b74f:	f2 0f 10 2d d9 36 00 00     	(move)  	movsd	0x36d9(%rip),%xmm5
  40b757:	f2 41 0f 5e ee              	(arith) 	divsd	%xmm14,%xmm5
  40b75c:	66 44 0f 28 f5              	(move)  	movapd	%xmm5,%xmm14
/home/jcsalinas/Documents/pruebas/inst_estimation_module/BT/solve_subs.f:602
  40b761:	66 41 0f 28 ec              	(move)  	movapd	%xmm12,%xmm5
  40b766:	f2 41 0f 59 e8              	(arith) 	mulsd	%xmm8,%xmm5
  40b76b:	f2 0f 10 44 24 d8           	(move)  	movsd	-0x28(%rsp),%xmm0
  40b771:	f2 0f 5c c5                 	(arith) 	subsd	%xmm5,%xmm0
  40b775:	66 0f 28 e8                 	(move)  	movapd	%xmm0,%xmm5
  40b779:	66 45 0f 28 fa              	(move)  	movapd	%xmm10,%xmm15
  40b77e:	f2 44 0f 59 ff              	(arith) 	mulsd	%xmm7,%xmm15
  40b783:	f2 41 0f 5c ef              	(arith) 	subsd	%xmm15,%xmm5
  40b788:	f2 41 0f 59 ee              	(arith) 	mulsd	%xmm14,%xmm5
  40b78d:	f2 0f 11 af b8 00 00 00     	(move)  	movsd	%xmm5,0xb8(%rdi)
/home/jcsalinas/Documents/pruebas/inst_estimation_module/BT/solve_subs.f:603
  40b795:	f2 44 0f 59 64 24 a0        	(arith) 	mulsd	-0x60(%rsp),%xmm12
  40b79c:	f2 0f 10 44 24 e0           	(move)  	movsd	-0x20(%rsp),%xmm0
  40b7a2:	f2 41 0f 5c c4              	(arith) 	subsd	%xmm12,%xmm0
  40b7a7:	66 44 0f 28 e0              	(move)  	movapd	%xmm0,%xmm12
  40b7ac:	f2 44 0f 59 d2              	(arith) 	mulsd	%xmm2,%xmm10
  40b7b1:	f2 45 0f 5c e2              	(arith) 	subsd	%xmm10,%xmm12
  40b7b6:	f2 45 0f 59 f4              	(arith) 	mulsd	%xmm12,%xmm14
/home/jcsalinas/Documents/pruebas/inst_estimation_module/BT/solve_subs.f:606
  40b7bb:	66 44 0f 28 d6              	(move)  	movapd	%xmm6,%xmm10
  40b7c0:	f2 45 0f 59 d0              	(arith) 	mulsd	%xmm8,%xmm10
  40b7c5:	f2 44 0f 10 7c 24 b8        	(move)  	movsd	-0x48(%rsp),%xmm15
  40b7cc:	f2 45 0f 5c fa              	(arith) 	subsd	%xmm10,%xmm15
  40b7d1:	66 45 0f 28 d7              	(move)  	movapd	%xmm15,%xmm10
  40b7d6:	f2 44 0f 10 64 24 b0        	(move)  	movsd	-0x50(%rsp),%xmm12
  40b7dd:	f2 44 0f 59 e7              	(arith) 	mulsd	%xmm7,%xmm12
  40b7e2:	f2 45 0f 5c d4              	(arith) 	subsd	%xmm12,%xmm10
  40b7e7:	66 44 0f 28 e4              	(move)  	movapd	%xmm4,%xmm12
  40b7ec:	f2 44 0f 59 e5              	(arith) 	mulsd	%xmm5,%xmm12
  40b7f1:	f2 45 0f 5c d4              	(arith) 	subsd	%xmm12,%xmm10
  40b7f6:	f2 44 0f 11 97 a0 00 00 00  	(move)  	movsd	%xmm10,0xa0(%rdi)
/home/jcsalinas/Documents/pruebas/inst_estimation_module/BT/solve_subs.f:610
  40b7ff:	66 44 0f 28 e1              	(move)  	movapd	%xmm1,%xmm12
  40b804:	f2 44 0f 59 e7              	(arith) 	mulsd	%xmm7,%xmm12
  40b809:	66 45 0f 28 f8              	(move)  	movapd	%xmm8,%xmm15
  40b80e:	f2 45 0f 5c fc              	(arith) 	subsd	%xmm12,%xmm15
  40b813:	66 45 0f 28 e7              	(move)  	movapd	%xmm15,%xmm12
  40b818:	66 45 0f 28 fd              	(move)  	movapd	%xmm13,%xmm15
  40b81d:	f2 44 0f 59 fd              	(arith) 	mulsd	%xmm5,%xmm15
  40b822:	f2 45 0f 5c e7              	(arith) 	subsd	%xmm15,%xmm12
  40b827:	f2 44 0f 11 a7 a8 00 00 00  	(move)  	movsd	%xmm12,0xa8(%rdi)
/home/jcsalinas/Documents/pruebas/inst_estimation_module/BT/solve_subs.f:614
  40b830:	66 44 0f 28 fb              	(move)  	movapd	%xmm3,%xmm15
  40b835:	f2 44 0f 59 fd              	(arith) 	mulsd	%xmm5,%xmm15
  40b83a:	66 0f 28 c7                 	(move)  	movapd	%xmm7,%xmm0
  40b83e:	f2 41 0f 5c c7              	(arith) 	subsd	%xmm15,%xmm0
  40b843:	66 44 0f 28 f8              	(move)  	movapd	%xmm0,%xmm15
  40b848:	f2 0f 11 87 b0 00 00 00     	(move)  	movsd	%xmm0,0xb0(%rdi)
/home/jcsalinas/Documents/pruebas/inst_estimation_module/BT/solve_subs.f:618
  40b850:	f2 44 0f 59 44 24 98        	(arith) 	mulsd	-0x68(%rsp),%xmm8
  40b857:	f2 0f 10 44 24 f0           	(move)  	movsd	-0x10(%rsp),%xmm0
  40b85d:	f2 41 0f 5c c0              	(arith) 	subsd	%xmm8,%xmm0
  40b862:	66 44 0f 28 c0              	(move)  	movapd	%xmm0,%xmm8
  40b867:	f2 41 0f 59 f9              	(arith) 	mulsd	%xmm9,%xmm7
  40b86c:	f2 44 0f 5c c7              	(arith) 	subsd	%xmm7,%xmm8
  40b871:	66 41 0f 28 fb              	(move)  	movapd	%xmm11,%xmm7
  40b876:	f2 0f 59 fd                 	(arith) 	mulsd	%xmm5,%xmm7
  40b87a:	f2 44 0f 5c c7              	(arith) 	subsd	%xmm7,%xmm8
  40b87f:	f2 44 0f 11 87 c0 00 00 00  	(move)  	movsd	%xmm8,0xc0(%rdi)
/home/jcsalinas/Documents/pruebas/inst_estimation_module/BT/solve_subs.f:623
  40b888:	f2 0f 10 7c 24 98           	(move)  	movsd	-0x68(%rsp),%xmm7
  40b88e:	f2 0f 59 7c 24 a0           	(arith) 	mulsd	-0x60(%rsp),%xmm7
  40b894:	f2 0f 10 44 24 f8           	(move)  	movsd	-0x8(%rsp),%xmm0
  40b89a:	f2 0f 5c c7                 	(arith) 	subsd	%xmm7,%xmm0
  40b89e:	66 0f 28 f8                 	(move)  	movapd	%xmm0,%xmm7
  40b8a2:	f2 44 0f 59 ca              	(arith) 	mulsd	%xmm2,%xmm9
  40b8a7:	f2 41 0f 5c f9              	(arith) 	subsd	%xmm9,%xmm7
  40b8ac:	f2 45 0f 59 de              	(arith) 	mulsd	%xmm14,%xmm11
  40b8b1:	f2 41 0f 5c fb              	(arith) 	subsd	%xmm11,%xmm7
  40b8b6:	f2 0f 10 05 72 35 00 00     	(move)  	movsd	0x3572(%rip),%xmm0
  40b8be:	f2 41 0f 5e c0              	(arith) 	divsd	%xmm8,%xmm0
  40b8c3:	f2 0f 59 f8                 	(arith) 	mulsd	%xmm0,%xmm7
  40b8c7:	f2 0f 11 7e 20              	(move)  	movsd	%xmm7,0x20(%rsi)
/home/jcsalinas/Documents/pruebas/inst_estimation_module/BT/solve_subs.f:626
  40b8cc:	f2 0f 10 44 24 a0           	(move)  	movsd	-0x60(%rsp),%xmm0
  40b8d2:	f2 0f 59 f0                 	(arith) 	mulsd	%xmm0,%xmm6
  40b8d6:	f2 44 0f 10 4c 24 a8        	(move)  	movsd	-0x58(%rsp),%xmm9
  40b8dd:	f2 44 0f 5c ce              	(arith) 	subsd	%xmm6,%xmm9
  40b8e2:	66 41 0f 28 f1              	(move)  	movapd	%xmm9,%xmm6
  40b8e7:	f2 44 0f 10 44 24 b0        	(move)  	movsd	-0x50(%rsp),%xmm8
  40b8ee:	f2 44 0f 59 c2              	(arith) 	mulsd	%xmm2,%xmm8
  40b8f3:	f2 41 0f 5c f0              	(arith) 	subsd	%xmm8,%xmm6
  40b8f8:	f2 41 0f 59 e6              	(arith) 	mulsd	%xmm14,%xmm4
  40b8fd:	f2 0f 5c f4                 	(arith) 	subsd	%xmm4,%xmm6
  40b901:	66 0f 28 e6                 	(move)  	movapd	%xmm6,%xmm4
  40b905:	f2 44 0f 59 d7              	(arith) 	mulsd	%xmm7,%xmm10
  40b90a:	f2 41 0f 5c e2              	(arith) 	subsd	%xmm10,%xmm4
  40b90f:	f2 0f 11 26                 	(move)  	movsd	%xmm4,(%rsi)
/home/jcsalinas/Documents/pruebas/inst_estimation_module/BT/solve_subs.f:629
  40b913:	f2 0f 59 ca                 	(arith) 	mulsd	%xmm2,%xmm1
  40b917:	f2 0f 5c c1                 	(arith) 	subsd	%xmm1,%xmm0
  40b91b:	f2 45 0f 59 ee              	(arith) 	mulsd	%xmm14,%xmm13
  40b920:	f2 41 0f 5c c5              	(arith) 	subsd	%xmm13,%xmm0
  40b925:	f2 44 0f 59 e7              	(arith) 	mulsd	%xmm7,%xmm12
  40b92a:	f2 41 0f 5c c4              	(arith) 	subsd	%xmm12,%xmm0
  40b92f:	f2 0f 11 46 08              	(move)  	movsd	%xmm0,0x8(%rsi)
/home/jcsalinas/Documents/pruebas/inst_estimation_module/BT/solve_subs.f:632
  40b934:	f2 41 0f 59 de              	(arith) 	mulsd	%xmm14,%xmm3
  40b939:	f2 0f 5c d3                 	(arith) 	subsd	%xmm3,%xmm2
  40b93d:	f2 44 0f 59 ff              	(arith) 	mulsd	%xmm7,%xmm15
  40b942:	f2 41 0f 5c d7              	(arith) 	subsd	%xmm15,%xmm2
  40b947:	f2 0f 11 56 10              	(move)  	movsd	%xmm2,0x10(%rsi)
/home/jcsalinas/Documents/pruebas/inst_estimation_module/BT/solve_subs.f:635
  40b94c:	f2 0f 59 fd                 	(arith) 	mulsd	%xmm5,%xmm7
  40b950:	f2 44 0f 5c f7              	(arith) 	subsd	%xmm7,%xmm14
  40b955:	f2 44 0f 11 76 18           	(move)  	movsd	%xmm14,0x18(%rsi)
  40b95b:	c3                          	(control)	ret


000000000040b95c <z_solve>:
380 (function z_solve_):	
/home/jcsalinas/Documents/pruebas/inst_estimation_module/BT/z_solve.f:4
  40b95c:	41 57                       	(move)  	push	%r15
  40b95e:	41 56                       	(move)  	push	%r14
  40b960:	41 55                       	(move)  	push	%r13
  40b962:	41 54                       	(move)  	push	%r12
  40b964:	55                          	(move)  	push	%rbp
  40b965:	53                          	(move)  	push	%rbx
  40b966:	48 81 ec 88 00 00 00        	(arith) 	sub	$0x88,%rsp
/home/jcsalinas/Documents/pruebas/inst_estimation_module/BT/z_solve.f:27
  40b96d:	83 3d 80 5c 20 00 00        	(arith) 	cmpl	$0,0x205c80(%rip)
  40b974:	74 0f                       	(control)	je	40b985 <z_solve_+0x29>	; ↲ label 637
638:	
/home/jcsalinas/Documents/pruebas/inst_estimation_module/BT/z_solve.f:36
  40b976:	bf 48 ef 40 00              	(move)  	mov	$0x40ef48,%edi
  40b97b:	b8 00 00 00 00              	(move)  	mov	$0,%eax
  40b980:	e8 9e 30 00 00              	(control)	call	40ea23 <timer_start_>	; ⇄ timer_start
637:	
/home/jcsalinas/Documents/pruebas/inst_estimation_module/BT/z_solve.f:36
  40b985:	8b 05 65 5c 20 00           	(move)  	mov	0x205c65(%rip),%eax
  40b98b:	83 e8 01                    	(arith) 	sub	$0x1,%eax
  40b98e:	89 44 24 7c                 	(move)  	mov	%eax,0x7c(%rsp)
/home/jcsalinas/Documents/pruebas/inst_estimation_module/BT/z_solve.f:42
  40b992:	8b 05 54 5c 20 00           	(move)  	mov	0x205c54(%rip),%eax
  40b998:	8d 50 fe                    	(arith) 	lea	-0x2(%rax),%edx
  40b99b:	85 d2                       	(arith) 	test	%edx,%edx
  40b99d:	0f 8e ec 13 00 00           	(control)	jle	40cd8f <z_solve_+0x1433>	; ↲ label 639
640:	
  40b9a3:	83 e8 01                    	(arith) 	sub	$0x1,%eax
  40b9a6:	89 44 24 6c                 	(move)  	mov	%eax,0x6c(%rsp)
  40b9aa:	c7 44 24 5c 01 00 00 00     	(move)  	movl	$0x1,0x5c(%rsp)
; ------- Loop 146 entry
641 (loop 146):	
/home/jcsalinas/Documents/pruebas/inst_estimation_module/BT/z_solve.f:43
  40b9b2:	8b 0d 30 5c 20 00           	(move)  	mov	0x205c30(%rip),%ecx
  40b9b8:	8d 41 fe                    	(arith) 	lea	-0x2(%rcx),%eax
  40b9bb:	85 c0                       	(arith) 	test	%eax,%eax
  40b9bd:	0f 8e b9 13 00 00           	(control)	jle	40cd7c <z_solve_+0x1420>	; ↲ label 642
643:	
/home/jcsalinas/Documents/pruebas/inst_estimation_module/BT/z_solve.f:46
  40b9c3:	48 63 44 24 5c              	(move)  	movsxd	0x5c(%rsp),%rax
  40b9c8:	48 89 c2                    	(move)  	mov	%rax,%rdx
  40b9cb:	48 c1 e2 08                 	(logic) 	sal	$0x8,%rdx
  40b9cf:	48 01 c2                    	(arith) 	add	%rax,%rdx
  40b9d2:	4c 8d 2c 50                 	(arith) 	lea	(%rax,%rdx,2),%r13
/home/jcsalinas/Documents/pruebas/inst_estimation_module/BT/z_solve.f:71
  40b9d6:	48 6b c0 67                 	(arith) 	imul	$0x67,%rax,%rax
  40b9da:	48 89 44 24 60              	(move)  	mov	%rax,0x60(%rsp)
  40b9df:	8d 41 ff                    	(arith) 	lea	-0x1(%rcx),%eax
  40b9e2:	89 44 24 68                 	(move)  	mov	%eax,0x68(%rsp)
  40b9e6:	c7 44 24 58 01 00 00 00     	(move)  	movl	$0x1,0x58(%rsp)
; ------- Loop 147 entry
644 (loop 147):	
/home/jcsalinas/Documents/pruebas/inst_estimation_module/BT/z_solve.f:44
  40b9ee:	8b 7c 24 7c                 	(move)  	mov	0x7c(%rsp),%edi
  40b9f2:	85 ff                       	(arith) 	test	%edi,%edi
  40b9f4:	0f 88 43 05 00 00           	(control)	js	40bf3d <z_solve_+0x5e1>	; ↲ label 645
646:	
/home/jcsalinas/Documents/pruebas/inst_estimation_module/BT/z_solve.f:46
  40b9fa:	4c 63 44 24 58              	(move)  	movsxd	0x58(%rsp),%r8
  40b9ff:	4f 8d 0c 80                 	(arith) 	lea	(%r8,%r8,4),%r9
/home/jcsalinas/Documents/pruebas/inst_estimation_module/BT/z_solve.f:4
  40ba03:	f2 44 0f 10 1d fc 5a 20 00  	(move)  	movsd	0x205afc(%rip),%xmm11
/home/jcsalinas/Documents/pruebas/inst_estimation_module/BT/z_solve.f:75
  40ba0c:	f2 0f 10 05 6c 34 00 00     	(move)  	movsd	0x346c(%rip),%xmm0
  40ba14:	f2 41 0f 5c c3              	(arith) 	subsd	%xmm11,%xmm0
  40ba19:	f2 0f 11 44 24 10           	(move)  	movsd	%xmm0,0x10(%rsp)
/home/jcsalinas/Documents/pruebas/inst_estimation_module/BT/z_solve.f:80
  40ba1f:	66 41 0f 28 f3              	(move)  	movapd	%xmm11,%xmm6
  40ba24:	f2 41 0f 58 f3              	(arith) 	addsd	%xmm11,%xmm6
  40ba29:	f2 0f 11 74 24 18           	(move)  	movsd	%xmm6,0x18(%rsp)
/home/jcsalinas/Documents/pruebas/inst_estimation_module/BT/z_solve.f:4
  40ba2f:	f2 44 0f 10 35 c8 5a 20 00  	(move)  	movsd	0x205ac8(%rip),%xmm14
  40ba38:	f2 0f 10 35 a8 5a 20 00     	(move)  	movsd	0x205aa8(%rip),%xmm6
  40ba40:	66 0f 28 ee                 	(move)  	movapd	%xmm6,%xmm5
  40ba44:	f2 0f 11 74 24 20           	(move)  	movsd	%xmm6,0x20(%rsp)
  40ba4a:	f2 0f 10 05 76 5b 20 00     	(move)  	movsd	0x205b76(%rip),%xmm0
/home/jcsalinas/Documents/pruebas/inst_estimation_module/BT/z_solve.f:109
  40ba52:	f2 0f 59 f0                 	(arith) 	mulsd	%xmm0,%xmm6
  40ba56:	f2 0f 11 74 24 28           	(move)  	movsd	%xmm6,0x28(%rsp)
/home/jcsalinas/Documents/pruebas/inst_estimation_module/BT/z_solve.f:112
  40ba5c:	f2 0f 59 05 ac 5a 20 00     	(arith) 	mulsd	0x205aac(%rip),%xmm0
  40ba64:	f2 0f 59 05 ac 5a 20 00     	(arith) 	mulsd	0x205aac(%rip),%xmm0
  40ba6c:	f2 0f 11 44 24 30           	(move)  	movsd	%xmm0,0x30(%rsp)
/home/jcsalinas/Documents/pruebas/inst_estimation_module/BT/z_solve.f:4
  40ba72:	f2 0f 10 3d 76 5a 20 00     	(move)  	movsd	0x205a76(%rip),%xmm7
  40ba7a:	f2 0f 11 7c 24 38           	(move)  	movsd	%xmm7,0x38(%rsp)
/home/jcsalinas/Documents/pruebas/inst_estimation_module/BT/z_solve.f:120
  40ba80:	f2 0f 5c ef                 	(arith) 	subsd	%xmm7,%xmm5
  40ba84:	f2 0f 11 6c 24 40           	(move)  	movsd	%xmm5,0x40(%rsp)
  40ba8a:	f2 0f 5c f7                 	(arith) 	subsd	%xmm7,%xmm6
  40ba8e:	f2 0f 11 74 24 48           	(move)  	movsd	%xmm6,0x48(%rsp)
/home/jcsalinas/Documents/pruebas/inst_estimation_module/BT/z_solve.f:126
  40ba94:	f2 0f 11 7c 24 50           	(move)  	movsd	%xmm7,0x50(%rsp)
  40ba9a:	83 c7 01                    	(arith) 	add	$0x1,%edi
  40ba9d:	be 00 00 00 00              	(move)  	mov	$0,%esi
/home/jcsalinas/Documents/pruebas/inst_estimation_module/BT/z_solve.f:50
  40baa2:	66 45 0f ef ff              	(logic) 	pxor	%xmm15,%xmm15
  40baa7:	4c 8b 54 24 60              	(move)  	mov	0x60(%rsp),%r10
; ------- Loop 153 entry
647 (loop 153):	
/home/jcsalinas/Documents/pruebas/inst_estimation_module/BT/z_solve.f:46
  40baac:	48 63 d6                    	(move)  	movsxd	%esi,%rdx
  40baaf:	48 69 ca 35 cf 00 00        	(arith) 	imul	$0xcf35,%rdx,%rcx
  40bab6:	4c 01 e9                    	(arith) 	add	%r13,%rcx
  40bab9:	4c 01 c9                    	(arith) 	add	%r9,%rcx
  40babc:	f2 0f 10 05 6c 33 00 00     	(move)  	movsd	0x336c(%rip),%xmm0
  40bac4:	f2 0f 5e 04 cd 00 16 61 00  	(arith) 	divsd	0x611600(,%rcx,8),%xmm0
/home/jcsalinas/Documents/pruebas/inst_estimation_module/BT/z_solve.f:47
  40bacd:	66 0f 28 d0                 	(move)  	movapd	%xmm0,%xmm2
  40bad1:	f2 0f 59 d0                 	(arith) 	mulsd	%xmm0,%xmm2
/home/jcsalinas/Documents/pruebas/inst_estimation_module/BT/z_solve.f:48
  40bad5:	66 44 0f 28 e8              	(move)  	movapd	%xmm0,%xmm13
  40bada:	f2 44 0f 59 ea              	(arith) 	mulsd	%xmm2,%xmm13
/home/jcsalinas/Documents/pruebas/inst_estimation_module/BT/z_solve.f:50
  40badf:	48 8d 04 92                 	(arith) 	lea	(%rdx,%rdx,4),%rax
  40bae3:	48 8d 04 80                 	(arith) 	lea	(%rax,%rax,4),%rax
  40bae7:	f2 44 0f 11 3c c5 a0 38 37 0b	(move)  	movsd	%xmm15,0xb3738a0(,%rax,8)
/home/jcsalinas/Documents/pruebas/inst_estimation_module/BT/z_solve.f:51
  40baf1:	f2 44 0f 11 3c c5 c8 38 37 0b	(move)  	movsd	%xmm15,0xb3738c8(,%rax,8)
/home/jcsalinas/Documents/pruebas/inst_estimation_module/BT/z_solve.f:52
  40bafb:	f2 44 0f 11 3c c5 f0 38 37 0b	(move)  	movsd	%xmm15,0xb3738f0(,%rax,8)
/home/jcsalinas/Documents/pruebas/inst_estimation_module/BT/z_solve.f:53
  40bb05:	f2 0f 10 35 23 33 00 00     	(move)  	movsd	0x3323(%rip),%xmm6
  40bb0d:	f2 0f 11 34 c5 18 39 37 0b  	(move)  	movsd	%xmm6,0xb373918(,%rax,8)
/home/jcsalinas/Documents/pruebas/inst_estimation_module/BT/z_solve.f:54
  40bb16:	f2 44 0f 11 3c c5 40 39 37 0b	(move)  	movsd	%xmm15,0xb373940(,%rax,8)
/home/jcsalinas/Documents/pruebas/inst_estimation_module/BT/z_solve.f:57
  40bb20:	f2 0f 10 1c cd 08 16 61 00  	(move)  	movsd	0x611608(,%rcx,8),%xmm3
  40bb29:	f2 0f 10 0c cd 18 16 61 00  	(move)  	movsd	0x611618(,%rcx,8),%xmm1
  40bb32:	66 0f 28 eb                 	(move)  	movapd	%xmm3,%xmm5
  40bb36:	f2 0f 59 e9                 	(arith) 	mulsd	%xmm1,%xmm5
  40bb3a:	66 0f 28 e2                 	(move)  	movapd	%xmm2,%xmm4
  40bb3e:	f2 0f 59 e5                 	(arith) 	mulsd	%xmm5,%xmm4
  40bb42:	66 0f 57 25 26 33 00 00     	(logic) 	xorpd	0x3326(%rip),%xmm4
  40bb4a:	f2 0f 11 24 c5 a8 38 37 0b  	(move)  	movsd	%xmm4,0xb3738a8(,%rax,8)
/home/jcsalinas/Documents/pruebas/inst_estimation_module/BT/z_solve.f:58
  40bb53:	66 44 0f 28 c0              	(move)  	movapd	%xmm0,%xmm8
  40bb58:	f2 44 0f 59 c1              	(arith) 	mulsd	%xmm1,%xmm8
  40bb5d:	f2 44 0f 11 04 c5 d0 38 37 0b	(move)  	movsd	%xmm8,0xb3738d0(,%rax,8)
/home/jcsalinas/Documents/pruebas/inst_estimation_module/BT/z_solve.f:59
  40bb67:	f2 44 0f 11 3c c5 f8 38 37 0b	(move)  	movsd	%xmm15,0xb3738f8(,%rax,8)
/home/jcsalinas/Documents/pruebas/inst_estimation_module/BT/z_solve.f:60
  40bb71:	66 0f 28 e0                 	(move)  	movapd	%xmm0,%xmm4
  40bb75:	f2 0f 59 e3                 	(arith) 	mulsd	%xmm3,%xmm4
  40bb79:	f2 0f 11 24 c5 20 39 37 0b  	(move)  	movsd	%xmm4,0xb373920(,%rax,8)
/home/jcsalinas/Documents/pruebas/inst_estimation_module/BT/z_solve.f:61
  40bb82:	f2 44 0f 11 3c c5 48 39 37 0b	(move)  	movsd	%xmm15,0xb373948(,%rax,8)
/home/jcsalinas/Documents/pruebas/inst_estimation_module/BT/z_solve.f:64
  40bb8c:	f2 0f 10 34 cd 10 16 61 00  	(move)  	movsd	0x611610(,%rcx,8),%xmm6
  40bb95:	66 0f 28 e1                 	(move)  	movapd	%xmm1,%xmm4
  40bb99:	f2 0f 59 e6                 	(arith) 	mulsd	%xmm6,%xmm4
  40bb9d:	f2 0f 11 64 24 08           	(move)  	movsd	%xmm4,0x8(%rsp)
  40bba3:	66 0f 28 fa                 	(move)  	movapd	%xmm2,%xmm7
  40bba7:	f2 0f 59 fc                 	(arith) 	mulsd	%xmm4,%xmm7
  40bbab:	66 0f 57 3d bd 32 00 00     	(logic) 	xorpd	0x32bd(%rip),%xmm7
  40bbb3:	f2 0f 11 3c c5 b0 38 37 0b  	(move)  	movsd	%xmm7,0xb3738b0(,%rax,8)
/home/jcsalinas/Documents/pruebas/inst_estimation_module/BT/z_solve.f:65
  40bbbc:	f2 44 0f 11 3c c5 d8 38 37 0b	(move)  	movsd	%xmm15,0xb3738d8(,%rax,8)
/home/jcsalinas/Documents/pruebas/inst_estimation_module/BT/z_solve.f:66
  40bbc6:	f2 44 0f 11 04 c5 00 39 37 0b	(move)  	movsd	%xmm8,0xb373900(,%rax,8)
/home/jcsalinas/Documents/pruebas/inst_estimation_module/BT/z_solve.f:67
  40bbd0:	66 0f 28 f8                 	(move)  	movapd	%xmm0,%xmm7
  40bbd4:	f2 0f 59 fe                 	(arith) 	mulsd	%xmm6,%xmm7
  40bbd8:	f2 0f 11 3c c5 28 39 37 0b  	(move)  	movsd	%xmm7,0xb373928(,%rax,8)
/home/jcsalinas/Documents/pruebas/inst_estimation_module/BT/z_solve.f:68
  40bbe1:	f2 44 0f 11 3c c5 50 39 37 0b	(move)  	movsd	%xmm15,0xb373950(,%rax,8)
/home/jcsalinas/Documents/pruebas/inst_estimation_module/BT/z_solve.f:71
  40bbeb:	48 69 d2 71 29 00 00        	(arith) 	imul	$0x2971,%rdx,%rdx
  40bbf2:	4c 01 d2                    	(arith) 	add	%r10,%rdx
  40bbf5:	4c 01 c2                    	(arith) 	add	%r8,%rdx
  40bbf8:	4c 8d 9a 30 18 84 00        	(arith) 	lea	0x841830(%rdx),%r11
  40bbff:	f2 46 0f 10 24 dd 00 16 61 00	(move)  	movsd	0x611600(,%r11,8),%xmm12
  40bc09:	66 44 0f 28 d1              	(move)  	movapd	%xmm1,%xmm10
  40bc0e:	f2 44 0f 59 d1              	(arith) 	mulsd	%xmm1,%xmm10
  40bc13:	66 44 0f 28 c2              	(move)  	movapd	%xmm2,%xmm8
  40bc18:	f2 45 0f 59 c2              	(arith) 	mulsd	%xmm10,%xmm8
  40bc1d:	66 41 0f 28 fc              	(move)  	movapd	%xmm12,%xmm7
  40bc22:	f2 41 0f 59 fb              	(arith) 	mulsd	%xmm11,%xmm7
  40bc27:	f2 41 0f 5c f8              	(arith) 	subsd	%xmm8,%xmm7
  40bc2c:	f2 0f 11 3c c5 b8 38 37 0b  	(move)  	movsd	%xmm7,0xb3738b8(,%rax,8)
/home/jcsalinas/Documents/pruebas/inst_estimation_module/BT/z_solve.f:72
  40bc35:	66 0f 28 fb                 	(move)  	movapd	%xmm3,%xmm7
  40bc39:	f2 41 0f 59 fb              	(arith) 	mulsd	%xmm11,%xmm7
  40bc3e:	f2 0f 59 f8                 	(arith) 	mulsd	%xmm0,%xmm7
  40bc42:	66 0f 57 3d 26 32 00 00     	(logic) 	xorpd	0x3226(%rip),%xmm7
  40bc4a:	f2 0f 11 3c c5 e0 38 37 0b  	(move)  	movsd	%xmm7,0xb3738e0(,%rax,8)
/home/jcsalinas/Documents/pruebas/inst_estimation_module/BT/z_solve.f:73
  40bc53:	66 0f 28 fe                 	(move)  	movapd	%xmm6,%xmm7
  40bc57:	f2 41 0f 59 fb              	(arith) 	mulsd	%xmm11,%xmm7
  40bc5c:	f2 0f 59 f8                 	(arith) 	mulsd	%xmm0,%xmm7
  40bc60:	66 0f 57 3d 08 32 00 00     	(logic) 	xorpd	0x3208(%rip),%xmm7
  40bc68:	f2 0f 11 3c c5 08 39 37 0b  	(move)  	movsd	%xmm7,0xb373908(,%rax,8)
/home/jcsalinas/Documents/pruebas/inst_estimation_module/BT/z_solve.f:75
  40bc71:	f2 0f 10 7c 24 10           	(move)  	movsd	0x10(%rsp),%xmm7
  40bc77:	f2 0f 59 f9                 	(arith) 	mulsd	%xmm1,%xmm7
  40bc7b:	f2 0f 59 f8                 	(arith) 	mulsd	%xmm0,%xmm7
  40bc7f:	f2 0f 11 3c c5 30 39 37 0b  	(move)  	movsd	%xmm7,0xb373930(,%rax,8)
/home/jcsalinas/Documents/pruebas/inst_estimation_module/BT/z_solve.f:76
  40bc88:	f2 44 0f 11 1c c5 58 39 37 0b	(move)  	movsd	%xmm11,0xb373958(,%rax,8)
/home/jcsalinas/Documents/pruebas/inst_estimation_module/BT/z_solve.f:80
  40bc92:	f2 44 0f 10 0c cd 20 16 61 00	(move)  	movsd	0x611620(,%rcx,8),%xmm9
  40bc9c:	48 81 c2 3c 1e a5 00        	(arith) 	add	$0xa51e3c,%rdx
  40bca3:	f2 0f 10 7c 24 18           	(move)  	movsd	0x18(%rsp),%xmm7
  40bca9:	f2 0f 59 3c d5 00 16 61 00  	(arith) 	mulsd	0x611600(,%rdx,8),%xmm7
  40bcb2:	66 0f 28 e7                 	(move)  	movapd	%xmm7,%xmm4
  40bcb6:	66 41 0f 28 f9              	(move)  	movapd	%xmm9,%xmm7
  40bcbb:	f2 41 0f 59 fe              	(arith) 	mulsd	%xmm14,%xmm7
  40bcc0:	f2 0f 5c e7                 	(arith) 	subsd	%xmm7,%xmm4
  40bcc4:	66 0f 28 fc                 	(move)  	movapd	%xmm4,%xmm7
  40bcc8:	f2 0f 59 f9                 	(arith) 	mulsd	%xmm1,%xmm7
  40bccc:	f2 0f 59 fa                 	(arith) 	mulsd	%xmm2,%xmm7
  40bcd0:	f2 0f 11 3c c5 c0 38 37 0b  	(move)  	movsd	%xmm7,0xb3738c0(,%rax,8)
/home/jcsalinas/Documents/pruebas/inst_estimation_module/BT/z_solve.f:82
  40bcd9:	f2 41 0f 59 eb              	(arith) 	mulsd	%xmm11,%xmm5
  40bcde:	f2 0f 59 ea                 	(arith) 	mulsd	%xmm2,%xmm5
  40bce2:	66 0f 57 2d 86 31 00 00     	(logic) 	xorpd	0x3186(%rip),%xmm5
  40bcea:	f2 0f 11 2c c5 e8 38 37 0b  	(move)  	movsd	%xmm5,0xb3738e8(,%rax,8)
/home/jcsalinas/Documents/pruebas/inst_estimation_module/BT/z_solve.f:84
  40bcf3:	f2 0f 10 64 24 08           	(move)  	movsd	0x8(%rsp),%xmm4
  40bcf9:	f2 41 0f 59 e3              	(arith) 	mulsd	%xmm11,%xmm4
  40bcfe:	f2 0f 59 e2                 	(arith) 	mulsd	%xmm2,%xmm4
  40bd02:	66 0f 57 25 66 31 00 00     	(logic) 	xorpd	0x3166(%rip),%xmm4
  40bd0a:	f2 0f 11 24 c5 10 39 37 0b  	(move)  	movsd	%xmm4,0xb373910(,%rax,8)
/home/jcsalinas/Documents/pruebas/inst_estimation_module/BT/z_solve.f:88
  40bd13:	66 0f 28 e0                 	(move)  	movapd	%xmm0,%xmm4
  40bd17:	f2 41 0f 59 e1              	(arith) 	mulsd	%xmm9,%xmm4
  40bd1c:	f2 41 0f 59 e6              	(arith) 	mulsd	%xmm14,%xmm4
  40bd21:	f2 45 0f 58 c4              	(arith) 	addsd	%xmm12,%xmm8
  40bd26:	f2 45 0f 59 c3              	(arith) 	mulsd	%xmm11,%xmm8
  40bd2b:	f2 41 0f 5c e0              	(arith) 	subsd	%xmm8,%xmm4
  40bd30:	f2 0f 11 24 c5 38 39 37 0b  	(move)  	movsd	%xmm4,0xb373938(,%rax,8)
/home/jcsalinas/Documents/pruebas/inst_estimation_module/BT/z_solve.f:89
  40bd39:	66 0f 28 e1                 	(move)  	movapd	%xmm1,%xmm4
  40bd3d:	f2 41 0f 59 e6              	(arith) 	mulsd	%xmm14,%xmm4
  40bd42:	f2 0f 59 e0                 	(arith) 	mulsd	%xmm0,%xmm4
  40bd46:	f2 0f 11 24 c5 60 39 37 0b  	(move)  	movsd	%xmm4,0xb373960(,%rax,8)
/home/jcsalinas/Documents/pruebas/inst_estimation_module/BT/z_solve.f:91
  40bd4f:	f2 44 0f 11 3c c5 18 89 37 0b	(move)  	movsd	%xmm15,0xb378918(,%rax,8)
/home/jcsalinas/Documents/pruebas/inst_estimation_module/BT/z_solve.f:92
  40bd59:	f2 44 0f 11 3c c5 40 89 37 0b	(move)  	movsd	%xmm15,0xb378940(,%rax,8)
/home/jcsalinas/Documents/pruebas/inst_estimation_module/BT/z_solve.f:93
  40bd63:	f2 44 0f 11 3c c5 68 89 37 0b	(move)  	movsd	%xmm15,0xb378968(,%rax,8)
/home/jcsalinas/Documents/pruebas/inst_estimation_module/BT/z_solve.f:94
  40bd6d:	f2 44 0f 11 3c c5 90 89 37 0b	(move)  	movsd	%xmm15,0xb378990(,%rax,8)
/home/jcsalinas/Documents/pruebas/inst_estimation_module/BT/z_solve.f:95
  40bd77:	f2 44 0f 11 3c c5 b8 89 37 0b	(move)  	movsd	%xmm15,0xb3789b8(,%rax,8)
/home/jcsalinas/Documents/pruebas/inst_estimation_module/BT/z_solve.f:97
  40bd81:	f2 0f 10 7c 24 20           	(move)  	movsd	0x20(%rsp),%xmm7
  40bd87:	66 0f 28 e7                 	(move)  	movapd	%xmm7,%xmm4
  40bd8b:	f2 0f 59 e2                 	(arith) 	mulsd	%xmm2,%xmm4
  40bd8f:	66 0f 28 eb                 	(move)  	movapd	%xmm3,%xmm5
  40bd93:	f2 0f 59 ec                 	(arith) 	mulsd	%xmm4,%xmm5
  40bd97:	66 0f 57 2d d1 30 00 00     	(logic) 	xorpd	0x30d1(%rip),%xmm5
  40bd9f:	f2 0f 11 2c c5 20 89 37 0b  	(move)  	movsd	%xmm5,0xb378920(,%rax,8)
/home/jcsalinas/Documents/pruebas/inst_estimation_module/BT/z_solve.f:98
  40bda8:	66 0f 28 ef                 	(move)  	movapd	%xmm7,%xmm5
  40bdac:	f2 0f 59 e8                 	(arith) 	mulsd	%xmm0,%xmm5
  40bdb0:	f2 0f 11 2c c5 48 89 37 0b  	(move)  	movsd	%xmm5,0xb378948(,%rax,8)
/home/jcsalinas/Documents/pruebas/inst_estimation_module/BT/z_solve.f:99
  40bdb9:	f2 44 0f 11 3c c5 70 89 37 0b	(move)  	movsd	%xmm15,0xb378970(,%rax,8)
/home/jcsalinas/Documents/pruebas/inst_estimation_module/BT/z_solve.f:100
  40bdc3:	f2 44 0f 11 3c c5 98 89 37 0b	(move)  	movsd	%xmm15,0xb378998(,%rax,8)
/home/jcsalinas/Documents/pruebas/inst_estimation_module/BT/z_solve.f:101
  40bdcd:	f2 44 0f 11 3c c5 c0 89 37 0b	(move)  	movsd	%xmm15,0xb3789c0(,%rax,8)
/home/jcsalinas/Documents/pruebas/inst_estimation_module/BT/z_solve.f:103
  40bdd7:	f2 0f 59 e6                 	(arith) 	mulsd	%xmm6,%xmm4
  40bddb:	66 0f 57 25 8d 30 00 00     	(logic) 	xorpd	0x308d(%rip),%xmm4
  40bde3:	f2 0f 11 24 c5 28 89 37 0b  	(move)  	movsd	%xmm4,0xb378928(,%rax,8)
/home/jcsalinas/Documents/pruebas/inst_estimation_module/BT/z_solve.f:104
  40bdec:	f2 44 0f 11 3c c5 50 89 37 0b	(move)  	movsd	%xmm15,0xb378950(,%rax,8)
/home/jcsalinas/Documents/pruebas/inst_estimation_module/BT/z_solve.f:105
  40bdf6:	f2 0f 11 2c c5 78 89 37 0b  	(move)  	movsd	%xmm5,0xb378978(,%rax,8)
/home/jcsalinas/Documents/pruebas/inst_estimation_module/BT/z_solve.f:106
  40bdff:	f2 44 0f 11 3c c5 a0 89 37 0b	(move)  	movsd	%xmm15,0xb3789a0(,%rax,8)
/home/jcsalinas/Documents/pruebas/inst_estimation_module/BT/z_solve.f:107
  40be09:	f2 44 0f 11 3c c5 c8 89 37 0b	(move)  	movsd	%xmm15,0xb3789c8(,%rax,8)
/home/jcsalinas/Documents/pruebas/inst_estimation_module/BT/z_solve.f:109
  40be13:	f2 0f 10 64 24 28           	(move)  	movsd	0x28(%rsp),%xmm4
  40be19:	f2 0f 59 e2                 	(arith) 	mulsd	%xmm2,%xmm4
  40be1d:	f2 0f 59 e1                 	(arith) 	mulsd	%xmm1,%xmm4
  40be21:	66 0f 57 25 47 30 00 00     	(logic) 	xorpd	0x3047(%rip),%xmm4
  40be29:	f2 0f 11 24 c5 30 89 37 0b  	(move)  	movsd	%xmm4,0xb378930(,%rax,8)
/home/jcsalinas/Documents/pruebas/inst_estimation_module/BT/z_solve.f:110
  40be32:	f2 44 0f 11 3c c5 58 89 37 0b	(move)  	movsd	%xmm15,0xb378958(,%rax,8)
/home/jcsalinas/Documents/pruebas/inst_estimation_module/BT/z_solve.f:111
  40be3c:	f2 44 0f 11 3c c5 80 89 37 0b	(move)  	movsd	%xmm15,0xb378980(,%rax,8)
/home/jcsalinas/Documents/pruebas/inst_estimation_module/BT/z_solve.f:112
  40be46:	f2 0f 10 64 24 30           	(move)  	movsd	0x30(%rsp),%xmm4
  40be4c:	f2 0f 59 e0                 	(arith) 	mulsd	%xmm0,%xmm4
  40be50:	f2 0f 11 24 c5 a8 89 37 0b  	(move)  	movsd	%xmm4,0xb3789a8(,%rax,8)
/home/jcsalinas/Documents/pruebas/inst_estimation_module/BT/z_solve.f:113
  40be59:	f2 44 0f 11 3c c5 d0 89 37 0b	(move)  	movsd	%xmm15,0xb3789d0(,%rax,8)
/home/jcsalinas/Documents/pruebas/inst_estimation_module/BT/z_solve.f:120
  40be63:	f2 44 0f 10 64 24 40        	(move)  	movsd	0x40(%rsp),%xmm12
  40be6a:	66 41 0f 28 ec              	(move)  	movapd	%xmm12,%xmm5
  40be6f:	f2 41 0f 59 ed              	(arith) 	mulsd	%xmm13,%xmm5
  40be74:	66 0f 28 e3                 	(move)  	movapd	%xmm3,%xmm4
  40be78:	f2 0f 59 e3                 	(arith) 	mulsd	%xmm3,%xmm4
  40be7c:	f2 0f 59 e5                 	(arith) 	mulsd	%xmm5,%xmm4
  40be80:	66 0f 57 25 e8 2f 00 00     	(logic) 	xorpd	0x2fe8(%rip),%xmm4
  40be88:	66 0f 28 fe                 	(move)  	movapd	%xmm6,%xmm7
  40be8c:	f2 0f 59 fe                 	(arith) 	mulsd	%xmm6,%xmm7
  40be90:	f2 0f 59 ef                 	(arith) 	mulsd	%xmm7,%xmm5
  40be94:	f2 0f 5c e5                 	(arith) 	subsd	%xmm5,%xmm4
  40be98:	f2 0f 10 7c 24 48           	(move)  	movsd	0x48(%rsp),%xmm7
  40be9e:	66 0f 28 ef                 	(move)  	movapd	%xmm7,%xmm5
  40bea2:	f2 41 0f 59 ed              	(arith) 	mulsd	%xmm13,%xmm5
  40bea7:	f2 44 0f 59 d5              	(arith) 	mulsd	%xmm5,%xmm10
  40beac:	f2 41 0f 5c e2              	(arith) 	subsd	%xmm10,%xmm4
  40beb1:	f2 0f 10 6c 24 38           	(move)  	movsd	0x38(%rsp),%xmm5
  40beb7:	f2 0f 59 ea                 	(arith) 	mulsd	%xmm2,%xmm5
  40bebb:	f2 44 0f 59 cd              	(arith) 	mulsd	%xmm5,%xmm9
  40bec0:	f2 41 0f 5c e1              	(arith) 	subsd	%xmm9,%xmm4
  40bec5:	f2 0f 11 24 c5 38 89 37 0b  	(move)  	movsd	%xmm4,0xb378938(,%rax,8)
/home/jcsalinas/Documents/pruebas/inst_estimation_module/BT/z_solve.f:122
  40bece:	66 41 0f 28 e4              	(move)  	movapd	%xmm12,%xmm4
  40bed3:	f2 0f 59 e2                 	(arith) 	mulsd	%xmm2,%xmm4
  40bed7:	f2 0f 59 dc                 	(arith) 	mulsd	%xmm4,%xmm3
  40bedb:	f2 0f 11 1c c5 60 89 37 0b  	(move)  	movsd	%xmm3,0xb378960(,%rax,8)
/home/jcsalinas/Documents/pruebas/inst_estimation_module/BT/z_solve.f:123
  40bee4:	f2 0f 59 f4                 	(arith) 	mulsd	%xmm4,%xmm6
  40bee8:	f2 0f 11 34 c5 88 89 37 0b  	(move)  	movsd	%xmm6,0xb378988(,%rax,8)
/home/jcsalinas/Documents/pruebas/inst_estimation_module/BT/z_solve.f:125
  40bef1:	66 0f 28 df                 	(move)  	movapd	%xmm7,%xmm3
  40bef5:	f2 0f 59 da                 	(arith) 	mulsd	%xmm2,%xmm3
  40bef9:	f2 0f 59 cb                 	(arith) 	mulsd	%xmm3,%xmm1
  40befd:	f2 0f 11 0c c5 b0 89 37 0b  	(move)  	movsd	%xmm1,0xb3789b0(,%rax,8)
/home/jcsalinas/Documents/pruebas/inst_estimation_module/BT/z_solve.f:126
  40bf06:	f2 0f 10 4c 24 50           	(move)  	movsd	0x50(%rsp),%xmm1
  40bf0c:	f2 0f 59 c8                 	(arith) 	mulsd	%xmm0,%xmm1
  40bf10:	f2 0f 11 0c c5 d8 89 37 0b  	(move)  	movsd	%xmm1,0xb3789d8(,%rax,8)
/home/jcsalinas/Documents/pruebas/inst_estimation_module/BT/z_solve.f:44
  40bf19:	83 c6 01                    	(arith) 	add	$0x1,%esi
  40bf1c:	39 fe                       	(arith) 	cmp	%edi,%esi
  40bf1e:	0f 85 88 fb ff ff           	(control)	jne	40baac <z_solve_+0x150>	; ↰ label 647 (loop 153)
; ------- Loop 153 exit
648:	
  40bf24:	f2 0f 11 05 cc 0b f8 0a     	(move)  	movsd	%xmm0,0xaf80bcc(%rip)
  40bf2c:	f2 0f 11 15 cc 0b f8 0a     	(move)  	movsd	%xmm2,0xaf80bcc(%rip)
  40bf34:	f2 44 0f 11 2d cb 0b f8 0a  	(move)  	movsd	%xmm13,0xaf80bcb(%rip)
645:	
/home/jcsalinas/Documents/pruebas/inst_estimation_module/BT/z_solve.f:134
  40bf3d:	48 8d 74 24 7c              	(arith) 	lea	0x7c(%rsp),%rsi
  40bf42:	bf 90 d9 37 0b              	(move)  	mov	$0xb37d990,%edi
  40bf47:	b8 00 00 00 00              	(move)  	mov	$0,%eax
  40bf4c:	e8 4e 64 ff ff              	(control)	call	40239f <lhsinit_>	; ⇄ lhsinit
649:	
/home/jcsalinas/Documents/pruebas/inst_estimation_module/BT/z_solve.f:135
  40bf51:	8b 74 24 7c                 	(move)  	mov	0x7c(%rsp),%esi
  40bf55:	8d 46 ff                    	(arith) 	lea	-0x1(%rsi),%eax
  40bf58:	85 c0                       	(arith) 	test	%eax,%eax
  40bf5a:	0f 8e 58 0b 00 00           	(control)	jle	40cab8 <z_solve_+0x115c>	; ↲ label 650
651:	
/home/jcsalinas/Documents/pruebas/inst_estimation_module/BT/z_solve.f:4
  40bf60:	f2 0f 10 0d 40 52 20 00     	(move)  	movsd	0x205240(%rip),%xmm1
/home/jcsalinas/Documents/pruebas/inst_estimation_module/BT/z_solve.f:137
  40bf68:	66 0f 28 c1                 	(move)  	movapd	%xmm1,%xmm0
  40bf6c:	f2 0f 59 05 9c 51 20 00     	(arith) 	mulsd	0x20519c(%rip),%xmm0
/home/jcsalinas/Documents/pruebas/inst_estimation_module/BT/z_solve.f:138
  40bf74:	f2 0f 59 0d 9c 51 20 00     	(arith) 	mulsd	0x20519c(%rip),%xmm1
/home/jcsalinas/Documents/pruebas/inst_estimation_module/BT/z_solve.f:4
  40bf7c:	f2 44 0f 10 35 f3 51 20 00  	(move)  	movsd	0x2051f3(%rip),%xmm14
/home/jcsalinas/Documents/pruebas/inst_estimation_module/BT/z_solve.f:142
  40bf85:	66 44 0f 28 c8              	(move)  	movapd	%xmm0,%xmm9
  40bf8a:	f2 45 0f 59 ce              	(arith) 	mulsd	%xmm14,%xmm9
/home/jcsalinas/Documents/pruebas/inst_estimation_module/BT/z_solve.f:4
  40bf8f:	f2 44 0f 10 2d e8 51 20 00  	(move)  	movsd	0x2051e8(%rip),%xmm13
/home/jcsalinas/Documents/pruebas/inst_estimation_module/BT/z_solve.f:156
  40bf98:	66 44 0f 28 c0              	(move)  	movapd	%xmm0,%xmm8
  40bf9d:	f2 45 0f 59 c5              	(arith) 	mulsd	%xmm13,%xmm8
/home/jcsalinas/Documents/pruebas/inst_estimation_module/BT/z_solve.f:4
  40bfa2:	f2 44 0f 10 25 dd 51 20 00  	(move)  	movsd	0x2051dd(%rip),%xmm12
/home/jcsalinas/Documents/pruebas/inst_estimation_module/BT/z_solve.f:170
  40bfab:	66 0f 28 f8                 	(move)  	movapd	%xmm0,%xmm7
  40bfaf:	f2 41 0f 59 fc              	(arith) 	mulsd	%xmm12,%xmm7
/home/jcsalinas/Documents/pruebas/inst_estimation_module/BT/z_solve.f:4
  40bfb4:	f2 44 0f 10 1d d3 51 20 00  	(move)  	movsd	0x2051d3(%rip),%xmm11
/home/jcsalinas/Documents/pruebas/inst_estimation_module/BT/z_solve.f:184
  40bfbd:	66 0f 28 f0                 	(move)  	movapd	%xmm0,%xmm6
  40bfc1:	f2 41 0f 59 f3              	(arith) 	mulsd	%xmm11,%xmm6
/home/jcsalinas/Documents/pruebas/inst_estimation_module/BT/z_solve.f:4
  40bfc6:	f2 44 0f 10 15 c9 51 20 00  	(move)  	movsd	0x2051c9(%rip),%xmm10
/home/jcsalinas/Documents/pruebas/inst_estimation_module/BT/z_solve.f:198
  40bfcf:	66 0f 28 e8                 	(move)  	movapd	%xmm0,%xmm5
  40bfd3:	f2 41 0f 59 ea              	(arith) 	mulsd	%xmm10,%xmm5
/home/jcsalinas/Documents/pruebas/inst_estimation_module/BT/z_solve.f:202
  40bfd8:	66 0f 28 d0                 	(move)  	movapd	%xmm0,%xmm2
  40bfdc:	f2 0f 58 d0                 	(arith) 	addsd	%xmm0,%xmm2
  40bfe0:	f2 44 0f 59 f2              	(arith) 	mulsd	%xmm2,%xmm14
/home/jcsalinas/Documents/pruebas/inst_estimation_module/BT/z_solve.f:211
  40bfe5:	f2 44 0f 59 ea              	(arith) 	mulsd	%xmm2,%xmm13
/home/jcsalinas/Documents/pruebas/inst_estimation_module/BT/z_solve.f:220
  40bfea:	f2 44 0f 59 e2              	(arith) 	mulsd	%xmm2,%xmm12
/home/jcsalinas/Documents/pruebas/inst_estimation_module/BT/z_solve.f:229
  40bfef:	f2 44 0f 59 da              	(arith) 	mulsd	%xmm2,%xmm11
/home/jcsalinas/Documents/pruebas/inst_estimation_module/BT/z_solve.f:238
  40bff4:	f2 44 0f 59 d2              	(arith) 	mulsd	%xmm2,%xmm10
  40bff9:	b8 a0 38 37 0b              	(move)  	mov	$0xb3738a0,%eax
  40bffe:	48 89 c2                    	(move)  	mov	%rax,%rdx
  40c001:	b9 01 00 00 00              	(move)  	mov	$0x1,%ecx
/home/jcsalinas/Documents/pruebas/inst_estimation_module/BT/z_solve.f:202
  40c006:	f2 0f 10 25 22 2e 00 00     	(move)  	movsd	0x2e22(%rip),%xmm4
; ------- Loop 152 entry
652 (loop 152):	
/home/jcsalinas/Documents/pruebas/inst_estimation_module/BT/z_solve.f:142
  40c00e:	66 0f 28 d9                 	(move)  	movapd	%xmm1,%xmm3
  40c012:	f2 0f 59 18                 	(arith) 	mulsd	(%rax),%xmm3
  40c016:	66 0f 57 1d 52 2e 00 00     	(logic) 	xorpd	0x2e52(%rip),%xmm3
  40c01e:	66 44 0f 28 f8              	(move)  	movapd	%xmm0,%xmm15
  40c023:	f2 44 0f 59 b8 78 50 00 00  	(arith) 	mulsd	0x5078(%rax),%xmm15
  40c02c:	f2 41 0f 5c df              	(arith) 	subsd	%xmm15,%xmm3
  40c031:	f2 41 0f 5c d9              	(arith) 	subsd	%xmm9,%xmm3
  40c036:	f2 0f 11 9a 48 a3 00 00     	(move)  	movsd	%xmm3,0xa348(%rdx)
/home/jcsalinas/Documents/pruebas/inst_estimation_module/BT/z_solve.f:144
  40c03e:	66 0f 28 d9                 	(move)  	movapd	%xmm1,%xmm3
  40c042:	f2 0f 59 58 28              	(arith) 	mulsd	0x28(%rax),%xmm3
  40c047:	66 0f 57 1d 21 2e 00 00     	(logic) 	xorpd	0x2e21(%rip),%xmm3
  40c04f:	66 44 0f 28 f8              	(move)  	movapd	%xmm0,%xmm15
  40c054:	f2 44 0f 59 b8 a0 50 00 00  	(arith) 	mulsd	0x50a0(%rax),%xmm15
  40c05d:	f2 41 0f 5c df              	(arith) 	subsd	%xmm15,%xmm3
  40c062:	f2 0f 11 9a 70 a3 00 00     	(move)  	movsd	%xmm3,0xa370(%rdx)
/home/jcsalinas/Documents/pruebas/inst_estimation_module/BT/z_solve.f:146
  40c06a:	66 0f 28 d9                 	(move)  	movapd	%xmm1,%xmm3
  40c06e:	f2 0f 59 58 50              	(arith) 	mulsd	0x50(%rax),%xmm3
  40c073:	66 0f 57 1d f5 2d 00 00     	(logic) 	xorpd	0x2df5(%rip),%xmm3
  40c07b:	66 44 0f 28 f8              	(move)  	movapd	%xmm0,%xmm15
  40c080:	f2 44 0f 59 b8 c8 50 00 00  	(arith) 	mulsd	0x50c8(%rax),%xmm15
  40c089:	f2 41 0f 5c df              	(arith) 	subsd	%xmm15,%xmm3
  40c08e:	f2 0f 11 9a 98 a3 00 00     	(move)  	movsd	%xmm3,0xa398(%rdx)
/home/jcsalinas/Documents/pruebas/inst_estimation_module/BT/z_solve.f:148
  40c096:	66 0f 28 d9                 	(move)  	movapd	%xmm1,%xmm3
  40c09a:	f2 0f 59 58 78              	(arith) 	mulsd	0x78(%rax),%xmm3
  40c09f:	66 0f 57 1d c9 2d 00 00     	(logic) 	xorpd	0x2dc9(%rip),%xmm3
  40c0a7:	66 44 0f 28 f8              	(move)  	movapd	%xmm0,%xmm15
  40c0ac:	f2 44 0f 59 b8 f0 50 00 00  	(arith) 	mulsd	0x50f0(%rax),%xmm15
  40c0b5:	f2 41 0f 5c df              	(arith) 	subsd	%xmm15,%xmm3
  40c0ba:	f2 0f 11 9a c0 a3 00 00     	(move)  	movsd	%xmm3,0xa3c0(%rdx)
/home/jcsalinas/Documents/pruebas/inst_estimation_module/BT/z_solve.f:150
  40c0c2:	66 0f 28 d9                 	(move)  	movapd	%xmm1,%xmm3
  40c0c6:	f2 0f 59 98 a0 00 00 00     	(arith) 	mulsd	0xa0(%rax),%xmm3
  40c0ce:	66 0f 57 1d 9a 2d 00 00     	(logic) 	xorpd	0x2d9a(%rip),%xmm3
  40c0d6:	66 44 0f 28 f8              	(move)  	movapd	%xmm0,%xmm15
  40c0db:	f2 44 0f 59 b8 18 51 00 00  	(arith) 	mulsd	0x5118(%rax),%xmm15
  40c0e4:	f2 41 0f 5c df              	(arith) 	subsd	%xmm15,%xmm3
  40c0e9:	f2 0f 11 9a e8 a3 00 00     	(move)  	movsd	%xmm3,0xa3e8(%rdx)
/home/jcsalinas/Documents/pruebas/inst_estimation_module/BT/z_solve.f:153
  40c0f1:	66 0f 28 d9                 	(move)  	movapd	%xmm1,%xmm3
  40c0f5:	f2 0f 59 58 08              	(arith) 	mulsd	0x8(%rax),%xmm3
  40c0fa:	66 0f 57 1d 6e 2d 00 00     	(logic) 	xorpd	0x2d6e(%rip),%xmm3
  40c102:	66 44 0f 28 f8              	(move)  	movapd	%xmm0,%xmm15
  40c107:	f2 44 0f 59 b8 80 50 00 00  	(arith) 	mulsd	0x5080(%rax),%xmm15
  40c110:	f2 41 0f 5c df              	(arith) 	subsd	%xmm15,%xmm3
  40c115:	f2 0f 11 9a 50 a3 00 00     	(move)  	movsd	%xmm3,0xa350(%rdx)
/home/jcsalinas/Documents/pruebas/inst_estimation_module/BT/z_solve.f:156
  40c11d:	66 0f 28 d9                 	(move)  	movapd	%xmm1,%xmm3
  40c121:	f2 0f 59 58 30              	(arith) 	mulsd	0x30(%rax),%xmm3
  40c126:	66 0f 57 1d 42 2d 00 00     	(logic) 	xorpd	0x2d42(%rip),%xmm3
  40c12e:	66 44 0f 28 f8              	(move)  	movapd	%xmm0,%xmm15
  40c133:	f2 44 0f 59 b8 a8 50 00 00  	(arith) 	mulsd	0x50a8(%rax),%xmm15
  40c13c:	f2 41 0f 5c df              	(arith) 	subsd	%xmm15,%xmm3
  40c141:	f2 41 0f 5c d8              	(arith) 	subsd	%xmm8,%xmm3
  40c146:	f2 0f 11 9a 78 a3 00 00     	(move)  	movsd	%xmm3,0xa378(%rdx)
/home/jcsalinas/Documents/pruebas/inst_estimation_module/BT/z_solve.f:158
  40c14e:	66 0f 28 d9                 	(move)  	movapd	%xmm1,%xmm3
  40c152:	f2 0f 59 58 58              	(arith) 	mulsd	0x58(%rax),%xmm3
  40c157:	66 0f 57 1d 11 2d 00 00     	(logic) 	xorpd	0x2d11(%rip),%xmm3
  40c15f:	66 44 0f 28 f8              	(move)  	movapd	%xmm0,%xmm15
  40c164:	f2 44 0f 59 b8 d0 50 00 00  	(arith) 	mulsd	0x50d0(%rax),%xmm15
  40c16d:	f2 41 0f 5c df              	(arith) 	subsd	%xmm15,%xmm3
  40c172:	f2 0f 11 9a a0 a3 00 00     	(move)  	movsd	%xmm3,0xa3a0(%rdx)
/home/jcsalinas/Documents/pruebas/inst_estimation_module/BT/z_solve.f:160
  40c17a:	66 0f 28 d9                 	(move)  	movapd	%xmm1,%xmm3
  40c17e:	f2 0f 59 98 80 00 00 00     	(arith) 	mulsd	0x80(%rax),%xmm3
  40c186:	66 0f 57 1d e2 2c 00 00     	(logic) 	xorpd	0x2ce2(%rip),%xmm3
  40c18e:	66 44 0f 28 f8              	(move)  	movapd	%xmm0,%xmm15
  40c193:	f2 44 0f 59 b8 f8 50 00 00  	(arith) 	mulsd	0x50f8(%rax),%xmm15
  40c19c:	f2 41 0f 5c df              	(arith) 	subsd	%xmm15,%xmm3
  40c1a1:	f2 0f 11 9a c8 a3 00 00     	(move)  	movsd	%xmm3,0xa3c8(%rdx)
/home/jcsalinas/Documents/pruebas/inst_estimation_module/BT/z_solve.f:162
  40c1a9:	66 0f 28 d9                 	(move)  	movapd	%xmm1,%xmm3
  40c1ad:	f2 0f 59 98 a8 00 00 00     	(arith) 	mulsd	0xa8(%rax),%xmm3
  40c1b5:	66 0f 57 1d b3 2c 00 00     	(logic) 	xorpd	0x2cb3(%rip),%xmm3
  40c1bd:	66 44 0f 28 f8              	(move)  	movapd	%xmm0,%xmm15
  40c1c2:	f2 44 0f 59 b8 20 51 00 00  	(arith) 	mulsd	0x5120(%rax),%xmm15
  40c1cb:	f2 41 0f 5c df              	(arith) 	subsd	%xmm15,%xmm3
  40c1d0:	f2 0f 11 9a f0 a3 00 00     	(move)  	movsd	%xmm3,0xa3f0(%rdx)
/home/jcsalinas/Documents/pruebas/inst_estimation_module/BT/z_solve.f:165
  40c1d8:	66 0f 28 d9                 	(move)  	movapd	%xmm1,%xmm3
  40c1dc:	f2 0f 59 58 10              	(arith) 	mulsd	0x10(%rax),%xmm3
  40c1e1:	66 0f 57 1d 87 2c 00 00     	(logic) 	xorpd	0x2c87(%rip),%xmm3
  40c1e9:	66 44 0f 28 f8              	(move)  	movapd	%xmm0,%xmm15
  40c1ee:	f2 44 0f 59 b8 88 50 00 00  	(arith) 	mulsd	0x5088(%rax),%xmm15
  40c1f7:	f2 41 0f 5c df              	(arith) 	subsd	%xmm15,%xmm3
  40c1fc:	f2 0f 11 9a 58 a3 00 00     	(move)  	movsd	%xmm3,0xa358(%rdx)
/home/jcsalinas/Documents/pruebas/inst_estimation_module/BT/z_solve.f:167
  40c204:	66 0f 28 d9                 	(move)  	movapd	%xmm1,%xmm3
  40c208:	f2 0f 59 58 38              	(arith) 	mulsd	0x38(%rax),%xmm3
  40c20d:	66 0f 57 1d 5b 2c 00 00     	(logic) 	xorpd	0x2c5b(%rip),%xmm3
  40c215:	66 44 0f 28 f8              	(move)  	movapd	%xmm0,%xmm15
  40c21a:	f2 44 0f 59 b8 b0 50 00 00  	(arith) 	mulsd	0x50b0(%rax),%xmm15
  40c223:	f2 41 0f 5c df              	(arith) 	subsd	%xmm15,%xmm3
  40c228:	f2 0f 11 9a 80 a3 00 00     	(move)  	movsd	%xmm3,0xa380(%rdx)
/home/jcsalinas/Documents/pruebas/inst_estimation_module/BT/z_solve.f:170
  40c230:	66 0f 28 d9                 	(move)  	movapd	%xmm1,%xmm3
  40c234:	f2 0f 59 58 60              	(arith) 	mulsd	0x60(%rax),%xmm3
  40c239:	66 0f 57 1d 2f 2c 00 00     	(logic) 	xorpd	0x2c2f(%rip),%xmm3
  40c241:	66 44 0f 28 f8              	(move)  	movapd	%xmm0,%xmm15
  40c246:	f2 44 0f 59 b8 d8 50 00 00  	(arith) 	mulsd	0x50d8(%rax),%xmm15
  40c24f:	f2 41 0f 5c df              	(arith) 	subsd	%xmm15,%xmm3
  40c254:	f2 0f 5c df                 	(arith) 	subsd	%xmm7,%xmm3
  40c258:	f2 0f 11 9a a8 a3 00 00     	(move)  	movsd	%xmm3,0xa3a8(%rdx)
/home/jcsalinas/Documents/pruebas/inst_estimation_module/BT/z_solve.f:172
  40c260:	66 0f 28 d9                 	(move)  	movapd	%xmm1,%xmm3
  40c264:	f2 0f 59 98 88 00 00 00     	(arith) 	mulsd	0x88(%rax),%xmm3
  40c26c:	66 0f 57 1d fc 2b 00 00     	(logic) 	xorpd	0x2bfc(%rip),%xmm3
  40c274:	66 44 0f 28 f8              	(move)  	movapd	%xmm0,%xmm15
  40c279:	f2 44 0f 59 b8 00 51 00 00  	(arith) 	mulsd	0x5100(%rax),%xmm15
  40c282:	f2 41 0f 5c df              	(arith) 	subsd	%xmm15,%xmm3
  40c287:	f2 0f 11 9a d0 a3 00 00     	(move)  	movsd	%xmm3,0xa3d0(%rdx)
/home/jcsalinas/Documents/pruebas/inst_estimation_module/BT/z_solve.f:174
  40c28f:	66 0f 28 d9                 	(move)  	movapd	%xmm1,%xmm3
  40c293:	f2 0f 59 98 b0 00 00 00     	(arith) 	mulsd	0xb0(%rax),%xmm3
  40c29b:	66 0f 57 1d cd 2b 00 00     	(logic) 	xorpd	0x2bcd(%rip),%xmm3
  40c2a3:	66 44 0f 28 f8              	(move)  	movapd	%xmm0,%xmm15
  40c2a8:	f2 44 0f 59 b8 28 51 00 00  	(arith) 	mulsd	0x5128(%rax),%xmm15
  40c2b1:	f2 41 0f 5c df              	(arith) 	subsd	%xmm15,%xmm3
  40c2b6:	f2 0f 11 9a f8 a3 00 00     	(move)  	movsd	%xmm3,0xa3f8(%rdx)
/home/jcsalinas/Documents/pruebas/inst_estimation_module/BT/z_solve.f:177
  40c2be:	66 0f 28 d9                 	(move)  	movapd	%xmm1,%xmm3
  40c2c2:	f2 0f 59 58 18              	(arith) 	mulsd	0x18(%rax),%xmm3
  40c2c7:	66 0f 57 1d a1 2b 00 00     	(logic) 	xorpd	0x2ba1(%rip),%xmm3
  40c2cf:	66 44 0f 28 f8              	(move)  	movapd	%xmm0,%xmm15
  40c2d4:	f2 44 0f 59 b8 90 50 00 00  	(arith) 	mulsd	0x5090(%rax),%xmm15
  40c2dd:	f2 41 0f 5c df              	(arith) 	subsd	%xmm15,%xmm3
  40c2e2:	f2 0f 11 9a 60 a3 00 00     	(move)  	movsd	%xmm3,0xa360(%rdx)
/home/jcsalinas/Documents/pruebas/inst_estimation_module/BT/z_solve.f:179
  40c2ea:	66 0f 28 d9                 	(move)  	movapd	%xmm1,%xmm3
  40c2ee:	f2 0f 59 58 40              	(arith) 	mulsd	0x40(%rax),%xmm3
  40c2f3:	66 0f 57 1d 75 2b 00 00     	(logic) 	xorpd	0x2b75(%rip),%xmm3
  40c2fb:	66 44 0f 28 f8              	(move)  	movapd	%xmm0,%xmm15
  40c300:	f2 44 0f 59 b8 b8 50 00 00  	(arith) 	mulsd	0x50b8(%rax),%xmm15
  40c309:	f2 41 0f 5c df              	(arith) 	subsd	%xmm15,%xmm3
  40c30e:	f2 0f 11 9a 88 a3 00 00     	(move)  	movsd	%xmm3,0xa388(%rdx)
/home/jcsalinas/Documents/pruebas/inst_estimation_module/BT/z_solve.f:181
  40c316:	66 0f 28 d9                 	(move)  	movapd	%xmm1,%xmm3
  40c31a:	f2 0f 59 58 68              	(arith) 	mulsd	0x68(%rax),%xmm3
  40c31f:	66 0f 57 1d 49 2b 00 00     	(logic) 	xorpd	0x2b49(%rip),%xmm3
  40c327:	66 44 0f 28 f8              	(move)  	movapd	%xmm0,%xmm15
  40c32c:	f2 44 0f 59 b8 e0 50 00 00  	(arith) 	mulsd	0x50e0(%rax),%xmm15
  40c335:	f2 41 0f 5c df              	(arith) 	subsd	%xmm15,%xmm3
  40c33a:	f2 0f 11 9a b0 a3 00 00     	(move)  	movsd	%xmm3,0xa3b0(%rdx)
/home/jcsalinas/Documents/pruebas/inst_estimation_module/BT/z_solve.f:184
  40c342:	66 0f 28 d9                 	(move)  	movapd	%xmm1,%xmm3
  40c346:	f2 0f 59 98 90 00 00 00     	(arith) 	mulsd	0x90(%rax),%xmm3
  40c34e:	66 0f 57 1d 1a 2b 00 00     	(logic) 	xorpd	0x2b1a(%rip),%xmm3
  40c356:	66 44 0f 28 f8              	(move)  	movapd	%xmm0,%xmm15
  40c35b:	f2 44 0f 59 b8 08 51 00 00  	(arith) 	mulsd	0x5108(%rax),%xmm15
  40c364:	f2 41 0f 5c df              	(arith) 	subsd	%xmm15,%xmm3
  40c369:	f2 0f 5c de                 	(arith) 	subsd	%xmm6,%xmm3
  40c36d:	f2 0f 11 9a d8 a3 00 00     	(move)  	movsd	%xmm3,0xa3d8(%rdx)
/home/jcsalinas/Documents/pruebas/inst_estimation_module/BT/z_solve.f:186
  40c375:	66 0f 28 d9                 	(move)  	movapd	%xmm1,%xmm3
  40c379:	f2 0f 59 98 b8 00 00 00     	(arith) 	mulsd	0xb8(%rax),%xmm3
  40c381:	66 0f 57 1d e7 2a 00 00     	(logic) 	xorpd	0x2ae7(%rip),%xmm3
  40c389:	66 44 0f 28 f8              	(move)  	movapd	%xmm0,%xmm15
  40c38e:	f2 44 0f 59 b8 30 51 00 00  	(arith) 	mulsd	0x5130(%rax),%xmm15
  40c397:	f2 41 0f 5c df              	(arith) 	subsd	%xmm15,%xmm3
  40c39c:	f2 0f 11 9a 00 a4 00 00     	(move)  	movsd	%xmm3,0xa400(%rdx)
/home/jcsalinas/Documents/pruebas/inst_estimation_module/BT/z_solve.f:189
  40c3a4:	66 0f 28 d9                 	(move)  	movapd	%xmm1,%xmm3
  40c3a8:	f2 0f 59 58 20              	(arith) 	mulsd	0x20(%rax),%xmm3
  40c3ad:	66 0f 57 1d bb 2a 00 00     	(logic) 	xorpd	0x2abb(%rip),%xmm3
  40c3b5:	66 44 0f 28 f8              	(move)  	movapd	%xmm0,%xmm15
  40c3ba:	f2 44 0f 59 b8 98 50 00 00  	(arith) 	mulsd	0x5098(%rax),%xmm15
  40c3c3:	f2 41 0f 5c df              	(arith) 	subsd	%xmm15,%xmm3
  40c3c8:	f2 0f 11 9a 68 a3 00 00     	(move)  	movsd	%xmm3,0xa368(%rdx)
/home/jcsalinas/Documents/pruebas/inst_estimation_module/BT/z_solve.f:191
  40c3d0:	66 0f 28 d9                 	(move)  	movapd	%xmm1,%xmm3
  40c3d4:	f2 0f 59 58 48              	(arith) 	mulsd	0x48(%rax),%xmm3
  40c3d9:	66 0f 57 1d 8f 2a 00 00     	(logic) 	xorpd	0x2a8f(%rip),%xmm3
  40c3e1:	66 44 0f 28 f8              	(move)  	movapd	%xmm0,%xmm15
  40c3e6:	f2 44 0f 59 b8 c0 50 00 00  	(arith) 	mulsd	0x50c0(%rax),%xmm15
  40c3ef:	f2 41 0f 5c df              	(arith) 	subsd	%xmm15,%xmm3
  40c3f4:	f2 0f 11 9a 90 a3 00 00     	(move)  	movsd	%xmm3,0xa390(%rdx)
/home/jcsalinas/Documents/pruebas/inst_estimation_module/BT/z_solve.f:193
  40c3fc:	66 0f 28 d9                 	(move)  	movapd	%xmm1,%xmm3
  40c400:	f2 0f 59 58 70              	(arith) 	mulsd	0x70(%rax),%xmm3
  40c405:	66 0f 57 1d 63 2a 00 00     	(logic) 	xorpd	0x2a63(%rip),%xmm3
  40c40d:	66 44 0f 28 f8              	(move)  	movapd	%xmm0,%xmm15
  40c412:	f2 44 0f 59 b8 e8 50 00 00  	(arith) 	mulsd	0x50e8(%rax),%xmm15
  40c41b:	f2 41 0f 5c df              	(arith) 	subsd	%xmm15,%xmm3
  40c420:	f2 0f 11 9a b8 a3 00 00     	(move)  	movsd	%xmm3,0xa3b8(%rdx)
/home/jcsalinas/Documents/pruebas/inst_estimation_module/BT/z_solve.f:195
  40c428:	66 0f 28 d9                 	(move)  	movapd	%xmm1,%xmm3
  40c42c:	f2 0f 59 98 98 00 00 00     	(arith) 	mulsd	0x98(%rax),%xmm3
  40c434:	66 0f 57 1d 34 2a 00 00     	(logic) 	xorpd	0x2a34(%rip),%xmm3
  40c43c:	66 44 0f 28 f8              	(move)  	movapd	%xmm0,%xmm15
  40c441:	f2 44 0f 59 b8 10 51 00 00  	(arith) 	mulsd	0x5110(%rax),%xmm15
  40c44a:	f2 41 0f 5c df              	(arith) 	subsd	%xmm15,%xmm3
  40c44f:	f2 0f 11 9a e0 a3 00 00     	(move)  	movsd	%xmm3,0xa3e0(%rdx)
/home/jcsalinas/Documents/pruebas/inst_estimation_module/BT/z_solve.f:198
  40c457:	66 0f 28 d9                 	(move)  	movapd	%xmm1,%xmm3
  40c45b:	f2 0f 59 98 c0 00 00 00     	(arith) 	mulsd	0xc0(%rax),%xmm3
  40c463:	66 0f 57 1d 05 2a 00 00     	(logic) 	xorpd	0x2a05(%rip),%xmm3
  40c46b:	66 44 0f 28 f8              	(move)  	movapd	%xmm0,%xmm15
  40c470:	f2 44 0f 59 b8 38 51 00 00  	(arith) 	mulsd	0x5138(%rax),%xmm15
  40c479:	f2 41 0f 5c df              	(arith) 	subsd	%xmm15,%xmm3
  40c47e:	f2 0f 5c dd                 	(arith) 	subsd	%xmm5,%xmm3
  40c482:	f2 0f 11 9a 08 a4 00 00     	(move)  	movsd	%xmm3,0xa408(%rdx)
/home/jcsalinas/Documents/pruebas/inst_estimation_module/BT/z_solve.f:202
  40c48a:	66 0f 28 da                 	(move)  	movapd	%xmm2,%xmm3
  40c48e:	f2 0f 59 98 40 51 00 00     	(arith) 	mulsd	0x5140(%rax),%xmm3
  40c496:	f2 0f 58 dc                 	(arith) 	addsd	%xmm4,%xmm3
  40c49a:	f2 41 0f 58 de              	(arith) 	addsd	%xmm14,%xmm3
  40c49f:	f2 0f 11 9a 10 a4 00 00     	(move)  	movsd	%xmm3,0xa410(%rdx)
/home/jcsalinas/Documents/pruebas/inst_estimation_module/BT/z_solve.f:203
  40c4a7:	66 0f 28 da                 	(move)  	movapd	%xmm2,%xmm3
  40c4ab:	f2 0f 59 98 68 51 00 00     	(arith) 	mulsd	0x5168(%rax),%xmm3
  40c4b3:	f2 0f 11 9a 38 a4 00 00     	(move)  	movsd	%xmm3,0xa438(%rdx)
/home/jcsalinas/Documents/pruebas/inst_estimation_module/BT/z_solve.f:204
  40c4bb:	66 0f 28 da                 	(move)  	movapd	%xmm2,%xmm3
  40c4bf:	f2 0f 59 98 90 51 00 00     	(arith) 	mulsd	0x5190(%rax),%xmm3
  40c4c7:	f2 0f 11 9a 60 a4 00 00     	(move)  	movsd	%xmm3,0xa460(%rdx)
/home/jcsalinas/Documents/pruebas/inst_estimation_module/BT/z_solve.f:205
  40c4cf:	66 0f 28 da                 	(move)  	movapd	%xmm2,%xmm3
  40c4d3:	f2 0f 59 98 b8 51 00 00     	(arith) 	mulsd	0x51b8(%rax),%xmm3
  40c4db:	f2 0f 11 9a 88 a4 00 00     	(move)  	movsd	%xmm3,0xa488(%rdx)
/home/jcsalinas/Documents/pruebas/inst_estimation_module/BT/z_solve.f:206
  40c4e3:	66 0f 28 da                 	(move)  	movapd	%xmm2,%xmm3
  40c4e7:	f2 0f 59 98 e0 51 00 00     	(arith) 	mulsd	0x51e0(%rax),%xmm3
  40c4ef:	f2 0f 11 9a b0 a4 00 00     	(move)  	movsd	%xmm3,0xa4b0(%rdx)
/home/jcsalinas/Documents/pruebas/inst_estimation_module/BT/z_solve.f:208
  40c4f7:	66 0f 28 da                 	(move)  	movapd	%xmm2,%xmm3
  40c4fb:	f2 0f 59 98 48 51 00 00     	(arith) 	mulsd	0x5148(%rax),%xmm3
  40c503:	f2 0f 11 9a 18 a4 00 00     	(move)  	movsd	%xmm3,0xa418(%rdx)
/home/jcsalinas/Documents/pruebas/inst_estimation_module/BT/z_solve.f:211
  40c50b:	66 0f 28 da                 	(move)  	movapd	%xmm2,%xmm3
  40c50f:	f2 0f 59 98 70 51 00 00     	(arith) 	mulsd	0x5170(%rax),%xmm3
  40c517:	f2 0f 58 dc                 	(arith) 	addsd	%xmm4,%xmm3
  40c51b:	f2 41 0f 58 dd              	(arith) 	addsd	%xmm13,%xmm3
  40c520:	f2 0f 11 9a 40 a4 00 00     	(move)  	movsd	%xmm3,0xa440(%rdx)
/home/jcsalinas/Documents/pruebas/inst_estimation_module/BT/z_solve.f:212
  40c528:	66 0f 28 da                 	(move)  	movapd	%xmm2,%xmm3
  40c52c:	f2 0f 59 98 98 51 00 00     	(arith) 	mulsd	0x5198(%rax),%xmm3
  40c534:	f2 0f 11 9a 68 a4 00 00     	(move)  	movsd	%xmm3,0xa468(%rdx)
/home/jcsalinas/Documents/pruebas/inst_estimation_module/BT/z_solve.f:213
  40c53c:	66 0f 28 da                 	(move)  	movapd	%xmm2,%xmm3
  40c540:	f2 0f 59 98 c0 51 00 00     	(arith) 	mulsd	0x51c0(%rax),%xmm3
  40c548:	f2 0f 11 9a 90 a4 00 00     	(move)  	movsd	%xmm3,0xa490(%rdx)
/home/jcsalinas/Documents/pruebas/inst_estimation_module/BT/z_solve.f:214
  40c550:	66 0f 28 da                 	(move)  	movapd	%xmm2,%xmm3
  40c554:	f2 0f 59 98 e8 51 00 00     	(arith) 	mulsd	0x51e8(%rax),%xmm3
  40c55c:	f2 0f 11 9a b8 a4 00 00     	(move)  	movsd	%xmm3,0xa4b8(%rdx)
/home/jcsalinas/Documents/pruebas/inst_estimation_module/BT/z_solve.f:216
  40c564:	66 0f 28 da                 	(move)  	movapd	%xmm2,%xmm3
  40c568:	f2 0f 59 98 50 51 00 00     	(arith) 	mulsd	0x5150(%rax),%xmm3
  40c570:	f2 0f 11 9a 20 a4 00 00     	(move)  	movsd	%xmm3,0xa420(%rdx)
/home/jcsalinas/Documents/pruebas/inst_estimation_module/BT/z_solve.f:217
  40c578:	66 0f 28 da                 	(move)  	movapd	%xmm2,%xmm3
  40c57c:	f2 0f 59 98 78 51 00 00     	(arith) 	mulsd	0x5178(%rax),%xmm3
  40c584:	f2 0f 11 9a 48 a4 00 00     	(move)  	movsd	%xmm3,0xa448(%rdx)
/home/jcsalinas/Documents/pruebas/inst_estimation_module/BT/z_solve.f:220
  40c58c:	66 0f 28 da                 	(move)  	movapd	%xmm2,%xmm3
  40c590:	f2 0f 59 98 a0 51 00 00     	(arith) 	mulsd	0x51a0(%rax),%xmm3
  40c598:	f2 0f 58 dc                 	(arith) 	addsd	%xmm4,%xmm3
  40c59c:	f2 41 0f 58 dc              	(arith) 	addsd	%xmm12,%xmm3
  40c5a1:	f2 0f 11 9a 70 a4 00 00     	(move)  	movsd	%xmm3,0xa470(%rdx)
/home/jcsalinas/Documents/pruebas/inst_estimation_module/BT/z_solve.f:221
  40c5a9:	66 0f 28 da                 	(move)  	movapd	%xmm2,%xmm3
  40c5ad:	f2 0f 59 98 c8 51 00 00     	(arith) 	mulsd	0x51c8(%rax),%xmm3
  40c5b5:	f2 0f 11 9a 98 a4 00 00     	(move)  	movsd	%xmm3,0xa498(%rdx)
/home/jcsalinas/Documents/pruebas/inst_estimation_module/BT/z_solve.f:222
  40c5bd:	66 0f 28 da                 	(move)  	movapd	%xmm2,%xmm3
  40c5c1:	f2 0f 59 98 f0 51 00 00     	(arith) 	mulsd	0x51f0(%rax),%xmm3
  40c5c9:	f2 0f 11 9a c0 a4 00 00     	(move)  	movsd	%xmm3,0xa4c0(%rdx)
/home/jcsalinas/Documents/pruebas/inst_estimation_module/BT/z_solve.f:224
  40c5d1:	66 0f 28 da                 	(move)  	movapd	%xmm2,%xmm3
  40c5d5:	f2 0f 59 98 58 51 00 00     	(arith) 	mulsd	0x5158(%rax),%xmm3
  40c5dd:	f2 0f 11 9a 28 a4 00 00     	(move)  	movsd	%xmm3,0xa428(%rdx)
/home/jcsalinas/Documents/pruebas/inst_estimation_module/BT/z_solve.f:225
  40c5e5:	66 0f 28 da                 	(move)  	movapd	%xmm2,%xmm3
  40c5e9:	f2 0f 59 98 80 51 00 00     	(arith) 	mulsd	0x5180(%rax),%xmm3
  40c5f1:	f2 0f 11 9a 50 a4 00 00     	(move)  	movsd	%xmm3,0xa450(%rdx)
/home/jcsalinas/Documents/pruebas/inst_estimation_module/BT/z_solve.f:226
  40c5f9:	66 0f 28 da                 	(move)  	movapd	%xmm2,%xmm3
  40c5fd:	f2 0f 59 98 a8 51 00 00     	(arith) 	mulsd	0x51a8(%rax),%xmm3
  40c605:	f2 0f 11 9a 78 a4 00 00     	(move)  	movsd	%xmm3,0xa478(%rdx)
/home/jcsalinas/Documents/pruebas/inst_estimation_module/BT/z_solve.f:229
  40c60d:	66 0f 28 da                 	(move)  	movapd	%xmm2,%xmm3
  40c611:	f2 0f 59 98 d0 51 00 00     	(arith) 	mulsd	0x51d0(%rax),%xmm3
  40c619:	f2 0f 58 dc                 	(arith) 	addsd	%xmm4,%xmm3
  40c61d:	f2 41 0f 58 db              	(arith) 	addsd	%xmm11,%xmm3
  40c622:	f2 0f 11 9a a0 a4 00 00     	(move)  	movsd	%xmm3,0xa4a0(%rdx)
/home/jcsalinas/Documents/pruebas/inst_estimation_module/BT/z_solve.f:230
  40c62a:	66 0f 28 da                 	(move)  	movapd	%xmm2,%xmm3
  40c62e:	f2 0f 59 98 f8 51 00 00     	(arith) 	mulsd	0x51f8(%rax),%xmm3
  40c636:	f2 0f 11 9a c8 a4 00 00     	(move)  	movsd	%xmm3,0xa4c8(%rdx)
/home/jcsalinas/Documents/pruebas/inst_estimation_module/BT/z_solve.f:232
  40c63e:	66 0f 28 da                 	(move)  	movapd	%xmm2,%xmm3
  40c642:	f2 0f 59 98 60 51 00 00     	(arith) 	mulsd	0x5160(%rax),%xmm3
  40c64a:	f2 0f 11 9a 30 a4 00 00     	(move)  	movsd	%xmm3,0xa430(%rdx)
/home/jcsalinas/Documents/pruebas/inst_estimation_module/BT/z_solve.f:233
  40c652:	66 0f 28 da                 	(move)  	movapd	%xmm2,%xmm3
  40c656:	f2 0f 59 98 88 51 00 00     	(arith) 	mulsd	0x5188(%rax),%xmm3
  40c65e:	f2 0f 11 9a 58 a4 00 00     	(move)  	movsd	%xmm3,0xa458(%rdx)
/home/jcsalinas/Documents/pruebas/inst_estimation_module/BT/z_solve.f:234
  40c666:	66 0f 28 da                 	(move)  	movapd	%xmm2,%xmm3
  40c66a:	f2 0f 59 98 b0 51 00 00     	(arith) 	mulsd	0x51b0(%rax),%xmm3
  40c672:	f2 0f 11 9a 80 a4 00 00     	(move)  	movsd	%xmm3,0xa480(%rdx)
/home/jcsalinas/Documents/pruebas/inst_estimation_module/BT/z_solve.f:235
  40c67a:	66 0f 28 da                 	(move)  	movapd	%xmm2,%xmm3
  40c67e:	f2 0f 59 98 d8 51 00 00     	(arith) 	mulsd	0x51d8(%rax),%xmm3
  40c686:	f2 0f 11 9a a8 a4 00 00     	(move)  	movsd	%xmm3,0xa4a8(%rdx)
/home/jcsalinas/Documents/pruebas/inst_estimation_module/BT/z_solve.f:238
  40c68e:	66 0f 28 da                 	(move)  	movapd	%xmm2,%xmm3
  40c692:	f2 0f 59 98 00 52 00 00     	(arith) 	mulsd	0x5200(%rax),%xmm3
  40c69a:	f2 0f 58 dc                 	(arith) 	addsd	%xmm4,%xmm3
  40c69e:	f2 41 0f 58 da              	(arith) 	addsd	%xmm10,%xmm3
  40c6a3:	f2 0f 11 9a d0 a4 00 00     	(move)  	movsd	%xmm3,0xa4d0(%rdx)
/home/jcsalinas/Documents/pruebas/inst_estimation_module/BT/z_solve.f:242
  40c6ab:	83 c1 01                    	(arith) 	add	$0x1,%ecx
  40c6ae:	66 0f 28 d9                 	(move)  	movapd	%xmm1,%xmm3
  40c6b2:	f2 0f 59 98 90 01 00 00     	(arith) 	mulsd	0x190(%rax),%xmm3
  40c6ba:	66 44 0f 28 f8              	(move)  	movapd	%xmm0,%xmm15
  40c6bf:	f2 44 0f 59 b8 08 52 00 00  	(arith) 	mulsd	0x5208(%rax),%xmm15
  40c6c8:	f2 41 0f 5c df              	(arith) 	subsd	%xmm15,%xmm3
  40c6cd:	f2 41 0f 5c d9              	(arith) 	subsd	%xmm9,%xmm3
  40c6d2:	f2 0f 11 9a d8 a4 00 00     	(move)  	movsd	%xmm3,0xa4d8(%rdx)
/home/jcsalinas/Documents/pruebas/inst_estimation_module/BT/z_solve.f:244
  40c6da:	66 0f 28 d9                 	(move)  	movapd	%xmm1,%xmm3
  40c6de:	f2 0f 59 98 b8 01 00 00     	(arith) 	mulsd	0x1b8(%rax),%xmm3
  40c6e6:	66 44 0f 28 f8              	(move)  	movapd	%xmm0,%xmm15
  40c6eb:	f2 44 0f 59 b8 30 52 00 00  	(arith) 	mulsd	0x5230(%rax),%xmm15
  40c6f4:	f2 41 0f 5c df              	(arith) 	subsd	%xmm15,%xmm3
  40c6f9:	f2 0f 11 9a 00 a5 00 00     	(move)  	movsd	%xmm3,0xa500(%rdx)
/home/jcsalinas/Documents/pruebas/inst_estimation_module/BT/z_solve.f:246
  40c701:	66 0f 28 d9                 	(move)  	movapd	%xmm1,%xmm3
  40c705:	f2 0f 59 98 e0 01 00 00     	(arith) 	mulsd	0x1e0(%rax),%xmm3
  40c70d:	66 44 0f 28 f8              	(move)  	movapd	%xmm0,%xmm15
  40c712:	f2 44 0f 59 b8 58 52 00 00  	(arith) 	mulsd	0x5258(%rax),%xmm15
  40c71b:	f2 41 0f 5c df              	(arith) 	subsd	%xmm15,%xmm3
  40c720:	f2 0f 11 9a 28 a5 00 00     	(move)  	movsd	%xmm3,0xa528(%rdx)
/home/jcsalinas/Documents/pruebas/inst_estimation_module/BT/z_solve.f:248
  40c728:	66 0f 28 d9                 	(move)  	movapd	%xmm1,%xmm3
  40c72c:	f2 0f 59 98 08 02 00 00     	(arith) 	mulsd	0x208(%rax),%xmm3
  40c734:	66 44 0f 28 f8              	(move)  	movapd	%xmm0,%xmm15
  40c739:	f2 44 0f 59 b8 80 52 00 00  	(arith) 	mulsd	0x5280(%rax),%xmm15
  40c742:	f2 41 0f 5c df              	(arith) 	subsd	%xmm15,%xmm3
  40c747:	f2 0f 11 9a 50 a5 00 00     	(move)  	movsd	%xmm3,0xa550(%rdx)
/home/jcsalinas/Documents/pruebas/inst_estimation_module/BT/z_solve.f:250
  40c74f:	66 0f 28 d9                 	(move)  	movapd	%xmm1,%xmm3
  40c753:	f2 0f 59 98 30 02 00 00     	(arith) 	mulsd	0x230(%rax),%xmm3
  40c75b:	66 44 0f 28 f8              	(move)  	movapd	%xmm0,%xmm15
  40c760:	f2 44 0f 59 b8 a8 52 00 00  	(arith) 	mulsd	0x52a8(%rax),%xmm15
  40c769:	f2 41 0f 5c df              	(arith) 	subsd	%xmm15,%xmm3
  40c76e:	f2 0f 11 9a 78 a5 00 00     	(move)  	movsd	%xmm3,0xa578(%rdx)
/home/jcsalinas/Documents/pruebas/inst_estimation_module/BT/z_solve.f:253
  40c776:	66 0f 28 d9                 	(move)  	movapd	%xmm1,%xmm3
  40c77a:	f2 0f 59 98 98 01 00 00     	(arith) 	mulsd	0x198(%rax),%xmm3
  40c782:	66 44 0f 28 f8              	(move)  	movapd	%xmm0,%xmm15
  40c787:	f2 44 0f 59 b8 10 52 00 00  	(arith) 	mulsd	0x5210(%rax),%xmm15
  40c790:	f2 41 0f 5c df              	(arith) 	subsd	%xmm15,%xmm3
  40c795:	f2 0f 11 9a e0 a4 00 00     	(move)  	movsd	%xmm3,0xa4e0(%rdx)
/home/jcsalinas/Documents/pruebas/inst_estimation_module/BT/z_solve.f:256
  40c79d:	66 0f 28 d9                 	(move)  	movapd	%xmm1,%xmm3
  40c7a1:	f2 0f 59 98 c0 01 00 00     	(arith) 	mulsd	0x1c0(%rax),%xmm3
  40c7a9:	66 44 0f 28 f8              	(move)  	movapd	%xmm0,%xmm15
  40c7ae:	f2 44 0f 59 b8 38 52 00 00  	(arith) 	mulsd	0x5238(%rax),%xmm15
  40c7b7:	f2 41 0f 5c df              	(arith) 	subsd	%xmm15,%xmm3
  40c7bc:	f2 41 0f 5c d8              	(arith) 	subsd	%xmm8,%xmm3
  40c7c1:	f2 0f 11 9a 08 a5 00 00     	(move)  	movsd	%xmm3,0xa508(%rdx)
/home/jcsalinas/Documents/pruebas/inst_estimation_module/BT/z_solve.f:258
  40c7c9:	66 0f 28 d9                 	(move)  	movapd	%xmm1,%xmm3
  40c7cd:	f2 0f 59 98 e8 01 00 00     	(arith) 	mulsd	0x1e8(%rax),%xmm3
  40c7d5:	66 44 0f 28 f8              	(move)  	movapd	%xmm0,%xmm15
  40c7da:	f2 44 0f 59 b8 60 52 00 00  	(arith) 	mulsd	0x5260(%rax),%xmm15
  40c7e3:	f2 41 0f 5c df              	(arith) 	subsd	%xmm15,%xmm3
  40c7e8:	f2 0f 11 9a 30 a5 00 00     	(move)  	movsd	%xmm3,0xa530(%rdx)
/home/jcsalinas/Documents/pruebas/inst_estimation_module/BT/z_solve.f:260
  40c7f0:	66 0f 28 d9                 	(move)  	movapd	%xmm1,%xmm3
  40c7f4:	f2 0f 59 98 10 02 00 00     	(arith) 	mulsd	0x210(%rax),%xmm3
  40c7fc:	66 44 0f 28 f8              	(move)  	movapd	%xmm0,%xmm15
  40c801:	f2 44 0f 59 b8 88 52 00 00  	(arith) 	mulsd	0x5288(%rax),%xmm15
  40c80a:	f2 41 0f 5c df              	(arith) 	subsd	%xmm15,%xmm3
  40c80f:	f2 0f 11 9a 58 a5 00 00     	(move)  	movsd	%xmm3,0xa558(%rdx)
/home/jcsalinas/Documents/pruebas/inst_estimation_module/BT/z_solve.f:262
  40c817:	66 0f 28 d9                 	(move)  	movapd	%xmm1,%xmm3
  40c81b:	f2 0f 59 98 38 02 00 00     	(arith) 	mulsd	0x238(%rax),%xmm3
  40c823:	66 44 0f 28 f8              	(move)  	movapd	%xmm0,%xmm15
  40c828:	f2 44 0f 59 b8 b0 52 00 00  	(arith) 	mulsd	0x52b0(%rax),%xmm15
  40c831:	f2 41 0f 5c df              	(arith) 	subsd	%xmm15,%xmm3
  40c836:	f2 0f 11 9a 80 a5 00 00     	(move)  	movsd	%xmm3,0xa580(%rdx)
/home/jcsalinas/Documents/pruebas/inst_estimation_module/BT/z_solve.f:265
  40c83e:	66 0f 28 d9                 	(move)  	movapd	%xmm1,%xmm3
  40c842:	f2 0f 59 98 a0 01 00 00     	(arith) 	mulsd	0x1a0(%rax),%xmm3
  40c84a:	66 44 0f 28 f8              	(move)  	movapd	%xmm0,%xmm15
  40c84f:	f2 44 0f 59 b8 18 52 00 00  	(arith) 	mulsd	0x5218(%rax),%xmm15
  40c858:	f2 41 0f 5c df              	(arith) 	subsd	%xmm15,%xmm3
  40c85d:	f2 0f 11 9a e8 a4 00 00     	(move)  	movsd	%xmm3,0xa4e8(%rdx)
/home/jcsalinas/Documents/pruebas/inst_estimation_module/BT/z_solve.f:267
  40c865:	66 0f 28 d9                 	(move)  	movapd	%xmm1,%xmm3
  40c869:	f2 0f 59 98 c8 01 00 00     	(arith) 	mulsd	0x1c8(%rax),%xmm3
  40c871:	66 44 0f 28 f8              	(move)  	movapd	%xmm0,%xmm15
  40c876:	f2 44 0f 59 b8 40 52 00 00  	(arith) 	mulsd	0x5240(%rax),%xmm15
  40c87f:	f2 41 0f 5c df              	(arith) 	subsd	%xmm15,%xmm3
  40c884:	f2 0f 11 9a 10 a5 00 00     	(move)  	movsd	%xmm3,0xa510(%rdx)
/home/jcsalinas/Documents/pruebas/inst_estimation_module/BT/z_solve.f:270
  40c88c:	66 0f 28 d9                 	(move)  	movapd	%xmm1,%xmm3
  40c890:	f2 0f 59 98 f0 01 00 00     	(arith) 	mulsd	0x1f0(%rax),%xmm3
  40c898:	66 44 0f 28 f8              	(move)  	movapd	%xmm0,%xmm15
  40c89d:	f2 44 0f 59 b8 68 52 00 00  	(arith) 	mulsd	0x5268(%rax),%xmm15
  40c8a6:	f2 41 0f 5c df              	(arith) 	subsd	%xmm15,%xmm3
  40c8ab:	f2 0f 5c df                 	(arith) 	subsd	%xmm7,%xmm3
  40c8af:	f2 0f 11 9a 38 a5 00 00     	(move)  	movsd	%xmm3,0xa538(%rdx)
/home/jcsalinas/Documents/pruebas/inst_estimation_module/BT/z_solve.f:272
  40c8b7:	66 0f 28 d9                 	(move)  	movapd	%xmm1,%xmm3
  40c8bb:	f2 0f 59 98 18 02 00 00     	(arith) 	mulsd	0x218(%rax),%xmm3
  40c8c3:	66 44 0f 28 f8              	(move)  	movapd	%xmm0,%xmm15
  40c8c8:	f2 44 0f 59 b8 90 52 00 00  	(arith) 	mulsd	0x5290(%rax),%xmm15
  40c8d1:	f2 41 0f 5c df              	(arith) 	subsd	%xmm15,%xmm3
  40c8d6:	f2 0f 11 9a 60 a5 00 00     	(move)  	movsd	%xmm3,0xa560(%rdx)
/home/jcsalinas/Documents/pruebas/inst_estimation_module/BT/z_solve.f:274
  40c8de:	66 0f 28 d9                 	(move)  	movapd	%xmm1,%xmm3
  40c8e2:	f2 0f 59 98 40 02 00 00     	(arith) 	mulsd	0x240(%rax),%xmm3
  40c8ea:	66 44 0f 28 f8              	(move)  	movapd	%xmm0,%xmm15
  40c8ef:	f2 44 0f 59 b8 b8 52 00 00  	(arith) 	mulsd	0x52b8(%rax),%xmm15
  40c8f8:	f2 41 0f 5c df              	(arith) 	subsd	%xmm15,%xmm3
  40c8fd:	f2 0f 11 9a 88 a5 00 00     	(move)  	movsd	%xmm3,0xa588(%rdx)
/home/jcsalinas/Documents/pruebas/inst_estimation_module/BT/z_solve.f:277
  40c905:	66 0f 28 d9                 	(move)  	movapd	%xmm1,%xmm3
  40c909:	f2 0f 59 98 a8 01 00 00     	(arith) 	mulsd	0x1a8(%rax),%xmm3
  40c911:	66 44 0f 28 f8              	(move)  	movapd	%xmm0,%xmm15
  40c916:	f2 44 0f 59 b8 20 52 00 00  	(arith) 	mulsd	0x5220(%rax),%xmm15
  40c91f:	f2 41 0f 5c df              	(arith) 	subsd	%xmm15,%xmm3
  40c924:	f2 0f 11 9a f0 a4 00 00     	(move)  	movsd	%xmm3,0xa4f0(%rdx)
/home/jcsalinas/Documents/pruebas/inst_estimation_module/BT/z_solve.f:279
  40c92c:	66 0f 28 d9                 	(move)  	movapd	%xmm1,%xmm3
  40c930:	f2 0f 59 98 d0 01 00 00     	(arith) 	mulsd	0x1d0(%rax),%xmm3
  40c938:	66 44 0f 28 f8              	(move)  	movapd	%xmm0,%xmm15
  40c93d:	f2 44 0f 59 b8 48 52 00 00  	(arith) 	mulsd	0x5248(%rax),%xmm15
  40c946:	f2 41 0f 5c df              	(arith) 	subsd	%xmm15,%xmm3
  40c94b:	f2 0f 11 9a 18 a5 00 00     	(move)  	movsd	%xmm3,0xa518(%rdx)
/home/jcsalinas/Documents/pruebas/inst_estimation_module/BT/z_solve.f:281
  40c953:	66 0f 28 d9                 	(move)  	movapd	%xmm1,%xmm3
  40c957:	f2 0f 59 98 f8 01 00 00     	(arith) 	mulsd	0x1f8(%rax),%xmm3
  40c95f:	66 44 0f 28 f8              	(move)  	movapd	%xmm0,%xmm15
  40c964:	f2 44 0f 59 b8 70 52 00 00  	(arith) 	mulsd	0x5270(%rax),%xmm15
  40c96d:	f2 41 0f 5c df              	(arith) 	subsd	%xmm15,%xmm3
  40c972:	f2 0f 11 9a 40 a5 00 00     	(move)  	movsd	%xmm3,0xa540(%rdx)
/home/jcsalinas/Documents/pruebas/inst_estimation_module/BT/z_solve.f:284
  40c97a:	66 0f 28 d9                 	(move)  	movapd	%xmm1,%xmm3
  40c97e:	f2 0f 59 98 20 02 00 00     	(arith) 	mulsd	0x220(%rax),%xmm3
  40c986:	66 44 0f 28 f8              	(move)  	movapd	%xmm0,%xmm15
  40c98b:	f2 44 0f 59 b8 98 52 00 00  	(arith) 	mulsd	0x5298(%rax),%xmm15
  40c994:	f2 41 0f 5c df              	(arith) 	subsd	%xmm15,%xmm3
  40c999:	f2 0f 5c de                 	(arith) 	subsd	%xmm6,%xmm3
  40c99d:	f2 0f 11 9a 68 a5 00 00     	(move)  	movsd	%xmm3,0xa568(%rdx)
/home/jcsalinas/Documents/pruebas/inst_estimation_module/BT/z_solve.f:286
  40c9a5:	66 0f 28 d9                 	(move)  	movapd	%xmm1,%xmm3
  40c9a9:	f2 0f 59 98 48 02 00 00     	(arith) 	mulsd	0x248(%rax),%xmm3
  40c9b1:	66 44 0f 28 f8              	(move)  	movapd	%xmm0,%xmm15
  40c9b6:	f2 44 0f 59 b8 c0 52 00 00  	(arith) 	mulsd	0x52c0(%rax),%xmm15
  40c9bf:	f2 41 0f 5c df              	(arith) 	subsd	%xmm15,%xmm3
  40c9c4:	f2 0f 11 9a 90 a5 00 00     	(move)  	movsd	%xmm3,0xa590(%rdx)
/home/jcsalinas/Documents/pruebas/inst_estimation_module/BT/z_solve.f:289
  40c9cc:	66 0f 28 d9                 	(move)  	movapd	%xmm1,%xmm3
  40c9d0:	f2 0f 59 98 b0 01 00 00     	(arith) 	mulsd	0x1b0(%rax),%xmm3
  40c9d8:	66 44 0f 28 f8              	(move)  	movapd	%xmm0,%xmm15
  40c9dd:	f2 44 0f 59 b8 28 52 00 00  	(arith) 	mulsd	0x5228(%rax),%xmm15
  40c9e6:	f2 41 0f 5c df              	(arith) 	subsd	%xmm15,%xmm3
  40c9eb:	f2 0f 11 9a f8 a4 00 00     	(move)  	movsd	%xmm3,0xa4f8(%rdx)
/home/jcsalinas/Documents/pruebas/inst_estimation_module/BT/z_solve.f:291
  40c9f3:	66 0f 28 d9                 	(move)  	movapd	%xmm1,%xmm3
  40c9f7:	f2 0f 59 98 d8 01 00 00     	(arith) 	mulsd	0x1d8(%rax),%xmm3
  40c9ff:	66 44 0f 28 f8              	(move)  	movapd	%xmm0,%xmm15
  40ca04:	f2 44 0f 59 b8 50 52 00 00  	(arith) 	mulsd	0x5250(%rax),%xmm15
  40ca0d:	f2 41 0f 5c df              	(arith) 	subsd	%xmm15,%xmm3
  40ca12:	f2 0f 11 9a 20 a5 00 00     	(move)  	movsd	%xmm3,0xa520(%rdx)
/home/jcsalinas/Documents/pruebas/inst_estimation_module/BT/z_solve.f:293
  40ca1a:	66 0f 28 d9                 	(move)  	movapd	%xmm1,%xmm3
  40ca1e:	f2 0f 59 98 00 02 00 00     	(arith) 	mulsd	0x200(%rax),%xmm3
  40ca26:	66 44 0f 28 f8              	(move)  	movapd	%xmm0,%xmm15
  40ca2b:	f2 44 0f 59 b8 78 52 00 00  	(arith) 	mulsd	0x5278(%rax),%xmm15
  40ca34:	f2 41 0f 5c df              	(arith) 	subsd	%xmm15,%xmm3
  40ca39:	f2 0f 11 9a 48 a5 00 00     	(move)  	movsd	%xmm3,0xa548(%rdx)
/home/jcsalinas/Documents/pruebas/inst_estimation_module/BT/z_solve.f:295
  40ca41:	66 0f 28 d9                 	(move)  	movapd	%xmm1,%xmm3
  40ca45:	f2 0f 59 98 28 02 00 00     	(arith) 	mulsd	0x228(%rax),%xmm3
  40ca4d:	66 44 0f 28 f8              	(move)  	movapd	%xmm0,%xmm15
  40ca52:	f2 44 0f 59 b8 a0 52 00 00  	(arith) 	mulsd	0x52a0(%rax),%xmm15
  40ca5b:	f2 41 0f 5c df              	(arith) 	subsd	%xmm15,%xmm3
  40ca60:	f2 0f 11 9a 70 a5 00 00     	(move)  	movsd	%xmm3,0xa570(%rdx)
/home/jcsalinas/Documents/pruebas/inst_estimation_module/BT/z_solve.f:298
  40ca68:	66 0f 28 d9                 	(move)  	movapd	%xmm1,%xmm3
  40ca6c:	f2 0f 59 98 50 02 00 00     	(arith) 	mulsd	0x250(%rax),%xmm3
  40ca74:	66 44 0f 28 f8              	(move)  	movapd	%xmm0,%xmm15
  40ca79:	f2 44 0f 59 b8 c8 52 00 00  	(arith) 	mulsd	0x52c8(%rax),%xmm15
  40ca82:	f2 41 0f 5c df              	(arith) 	subsd	%xmm15,%xmm3
  40ca87:	f2 0f 5c dd                 	(arith) 	subsd	%xmm5,%xmm3
  40ca8b:	f2 0f 11 9a 98 a5 00 00     	(move)  	movsd	%xmm3,0xa598(%rdx)
  40ca93:	48 05 c8 00 00 00           	(arith) 	add	$0xc8,%rax
  40ca99:	48 81 c2 58 02 00 00        	(arith) 	add	$0x258,%rdx
/home/jcsalinas/Documents/pruebas/inst_estimation_module/BT/z_solve.f:135
  40caa0:	39 ce                       	(arith) 	cmp	%ecx,%esi
  40caa2:	0f 85 66 f5 ff ff           	(control)	jne	40c00e <z_solve_+0x6b2>	; ↰ label 652 (loop 152)
; ------- Loop 152 exit
653:	
  40caa8:	f2 0f 11 05 48 00 f8 0a     	(move)  	movsd	%xmm0,0xaf80048(%rip)
  40cab0:	f2 0f 11 0d 48 00 f8 0a     	(move)  	movsd	%xmm1,0xaf80048(%rip)
650:	
/home/jcsalinas/Documents/pruebas/inst_estimation_module/BT/z_solve.f:325
  40cab8:	48 63 44 24 58              	(move)  	movsxd	0x58(%rsp),%rax
  40cabd:	48 8d 04 80                 	(arith) 	lea	(%rax,%rax,4),%rax
  40cac1:	48 89 44 24 28              	(move)  	mov	%rax,0x28(%rsp)
  40cac6:	49 89 c4                    	(move)  	mov	%rax,%r12
  40cac9:	49 8d 5c 05 00              	(arith) 	lea	(%r13,%rax,1),%rbx
  40cace:	48 8d 14 dd 10 0a ad 05     	(arith) 	lea	0x5ad0a10(,%rbx,8),%rdx
  40cad6:	48 81 c2 00 16 61 00        	(arith) 	add	$0x611600,%rdx
  40cadd:	be 20 db 37 0b              	(move)  	mov	$0xb37db20,%esi
  40cae2:	bf 58 da 37 0b              	(move)  	mov	$0xb37da58,%edi
  40cae7:	b8 00 00 00 00              	(move)  	mov	$0,%eax
  40caec:	e8 11 d7 ff ff              	(control)	call	40a202 <binvcrhs_>	; ⇄ binvcrhs
654:	
/home/jcsalinas/Documents/pruebas/inst_estimation_module/BT/z_solve.f:332
  40caf1:	8b 44 24 7c                 	(move)  	mov	0x7c(%rsp),%eax
  40caf5:	89 44 24 20                 	(move)  	mov	%eax,0x20(%rsp)
  40caf9:	83 e8 01                    	(arith) 	sub	$0x1,%eax
  40cafc:	85 c0                       	(arith) 	test	%eax,%eax
  40cafe:	0f 8e d3 00 00 00           	(control)	jle	40cbd7 <z_solve_+0x127b>	; ↲ label 655
656:	
  40cb04:	48 8d 04 dd 10 0a ad 05     	(arith) 	lea	0x5ad0a10(,%rbx,8),%rax
  40cb0c:	48 05 00 16 61 00           	(arith) 	add	$0x611600,%rax
  40cb12:	48 89 44 24 08              	(move)  	mov	%rax,0x8(%rsp)
  40cb17:	b8 20 db 37 0b              	(move)  	mov	$0xb37db20,%eax
  40cb1c:	bd 01 00 00 00              	(move)  	mov	$0x1,%ebp
  40cb21:	4c 89 6c 24 10              	(move)  	mov	%r13,0x10(%rsp)
  40cb26:	4c 89 64 24 18              	(move)  	mov	%r12,0x18(%rsp)
  40cb2b:	49 89 c4                    	(move)  	mov	%rax,%r12
; ------- Loop 151 entry
657 (loop 151):	
/home/jcsalinas/Documents/pruebas/inst_estimation_module/BT/z_solve.f:340
  40cb2e:	48 63 c5                    	(move)  	movsxd	%ebp,%rax
  40cb31:	48 69 d0 35 cf 00 00        	(arith) 	imul	$0xcf35,%rax,%rdx
  40cb38:	48 03 54 24 10              	(arith) 	add	0x10(%rsp),%rdx
  40cb3d:	48 8b 5c 24 18              	(move)  	mov	0x18(%rsp),%rbx
  40cb42:	48 8d 94 13 42 a1 b5 00     	(arith) 	lea	0xb5a142(%rbx,%rdx,1),%rdx
  40cb4a:	4c 8d 34 d5 00 16 61 00     	(arith) 	lea	0x611600(,%rdx,8),%r14
  40cb52:	48 8d 04 80                 	(arith) 	lea	(%rax,%rax,4),%rax
  40cb56:	48 89 c3                    	(move)  	mov	%rax,%rbx
  40cb59:	48 c1 e3 04                 	(logic) 	sal	$0x4,%rbx
  40cb5d:	48 29 c3                    	(arith) 	sub	%rax,%rbx
  40cb60:	4c 8d 3c dd 90 d9 37 0b     	(arith) 	lea	0xb37d990(,%rbx,8),%r15
  40cb68:	4c 89 f2                    	(move)  	mov	%r14,%rdx
  40cb6b:	48 8b 74 24 08              	(move)  	mov	0x8(%rsp),%rsi
  40cb70:	4c 89 ff                    	(move)  	mov	%r15,%rdi
  40cb73:	b8 00 00 00 00              	(move)  	mov	$0,%eax
  40cb78:	e8 ab ca ff ff              	(control)	call	409628 <matvec_sub_>	; ⇄ matvec_sub
658:	
/home/jcsalinas/Documents/pruebas/inst_estimation_module/BT/z_solve.f:348
  40cb7d:	4c 8d 2c dd 58 da 37 0b     	(arith) 	lea	0xb37da58(,%rbx,8),%r13
  40cb85:	4c 89 ea                    	(move)  	mov	%r13,%rdx
  40cb88:	4c 89 e6                    	(move)  	mov	%r12,%rsi
  40cb8b:	4c 89 ff                    	(move)  	mov	%r15,%rdi
  40cb8e:	b8 00 00 00 00              	(move)  	mov	$0,%eax
  40cb93:	e8 24 cc ff ff              	(control)	call	4097bc <matmul_sub_>	; ⇄ matmul_sub
659:	
/home/jcsalinas/Documents/pruebas/inst_estimation_module/BT/z_solve.f:356
  40cb98:	48 8d 34 dd 20 db 37 0b     	(arith) 	lea	0xb37db20(,%rbx,8),%rsi
  40cba0:	4c 89 f2                    	(move)  	mov	%r14,%rdx
  40cba3:	4c 89 ef                    	(move)  	mov	%r13,%rdi
  40cba6:	b8 00 00 00 00              	(move)  	mov	$0,%eax
  40cbab:	e8 52 d6 ff ff              	(control)	call	40a202 <binvcrhs_>	; ⇄ binvcrhs
660:	
/home/jcsalinas/Documents/pruebas/inst_estimation_module/BT/z_solve.f:332
  40cbb0:	83 c5 01                    	(arith) 	add	$0x1,%ebp
  40cbb3:	48 81 44 24 08 a8 79 06 00  	(arith) 	addq	$0x679a8,0x8(%rsp)
  40cbbc:	49 81 c4 58 02 00 00        	(arith) 	add	$0x258,%r12
  40cbc3:	39 6c 24 20                 	(arith) 	cmp	%ebp,0x20(%rsp)
  40cbc7:	0f 85 61 ff ff ff           	(control)	jne	40cb2e <z_solve_+0x11d2>	; ↰ label 657 (loop 151)
; ------- Loop 151 exit
661:	
  40cbcd:	4c 8b 6c 24 10              	(move)  	mov	0x10(%rsp),%r13
  40cbd2:	4c 8b 64 24 18              	(move)  	mov	0x18(%rsp),%r12
655:	
/home/jcsalinas/Documents/pruebas/inst_estimation_module/BT/z_solve.f:368
  40cbd7:	48 63 44 24 7c              	(move)  	movsxd	0x7c(%rsp),%rax
  40cbdc:	48 69 c8 35 cf 00 00        	(arith) 	imul	$0xcf35,%rax,%rcx
  40cbe3:	49 8d 54 0d 00              	(arith) 	lea	(%r13,%rcx,1),%rdx
  40cbe8:	48 8b 5c 24 28              	(move)  	mov	0x28(%rsp),%rbx
  40cbed:	48 8d 94 13 42 a1 b5 00     	(arith) 	lea	0xb5a142(%rbx,%rdx,1),%rdx
  40cbf5:	48 8d 14 d5 00 16 61 00     	(arith) 	lea	0x611600(,%rdx,8),%rdx
  40cbfd:	49 8d 8c 0d cb 30 ff ff     	(arith) 	lea	-0xcf35(%r13,%rcx,1),%rcx
  40cc05:	48 8d 8c 0b 42 a1 b5 00     	(arith) 	lea	0xb5a142(%rbx,%rcx,1),%rcx
  40cc0d:	48 8d 34 cd 00 16 61 00     	(arith) 	lea	0x611600(,%rcx,8),%rsi
  40cc15:	48 8d 0c 80                 	(arith) 	lea	(%rax,%rax,4),%rcx
  40cc19:	48 89 c8                    	(move)  	mov	%rcx,%rax
  40cc1c:	48 c1 e0 04                 	(logic) 	sal	$0x4,%rax
  40cc20:	48 29 c8                    	(arith) 	sub	%rcx,%rax
  40cc23:	48 8d 3c c5 90 d9 37 0b     	(arith) 	lea	0xb37d990(,%rax,8),%rdi
  40cc2b:	b8 00 00 00 00              	(move)  	mov	$0,%eax
  40cc30:	e8 f3 c9 ff ff              	(control)	call	409628 <matvec_sub_>	; ⇄ matvec_sub
662:	
/home/jcsalinas/Documents/pruebas/inst_estimation_module/BT/z_solve.f:377
  40cc35:	48 63 44 24 7c              	(move)  	movsxd	0x7c(%rsp),%rax
  40cc3a:	48 8d 14 80                 	(arith) 	lea	(%rax,%rax,4),%rdx
  40cc3e:	48 89 d0                    	(move)  	mov	%rdx,%rax
  40cc41:	48 c1 e0 04                 	(logic) 	sal	$0x4,%rax
  40cc45:	48 29 d0                    	(arith) 	sub	%rdx,%rax
  40cc48:	48 8d 14 c5 58 da 37 0b     	(arith) 	lea	0xb37da58(,%rax,8),%rdx
  40cc50:	48 8d 34 c5 c8 d8 37 0b     	(arith) 	lea	0xb37d8c8(,%rax,8),%rsi
  40cc58:	48 8d 3c c5 90 d9 37 0b     	(arith) 	lea	0xb37d990(,%rax,8),%rdi
  40cc60:	b8 00 00 00 00              	(move)  	mov	$0,%eax
  40cc65:	e8 52 cb ff ff              	(control)	call	4097bc <matmul_sub_>	; ⇄ matmul_sub
663:	
/home/jcsalinas/Documents/pruebas/inst_estimation_module/BT/z_solve.f:383
  40cc6a:	48 63 44 24 7c              	(move)  	movsxd	0x7c(%rsp),%rax
  40cc6f:	48 69 d0 35 cf 00 00        	(arith) 	imul	$0xcf35,%rax,%rdx
  40cc76:	4c 01 ea                    	(arith) 	add	%r13,%rdx
  40cc79:	48 8d 94 13 42 a1 b5 00     	(arith) 	lea	0xb5a142(%rbx,%rdx,1),%rdx
  40cc81:	48 8d 34 d5 00 16 61 00     	(arith) 	lea	0x611600(,%rdx,8),%rsi
  40cc89:	48 8d 14 80                 	(arith) 	lea	(%rax,%rax,4),%rdx
  40cc8d:	48 89 d0                    	(move)  	mov	%rdx,%rax
  40cc90:	48 c1 e0 04                 	(logic) 	sal	$0x4,%rax
  40cc94:	48 29 d0                    	(arith) 	sub	%rdx,%rax
  40cc97:	48 8d 3c c5 58 da 37 0b     	(arith) 	lea	0xb37da58(,%rax,8),%rdi
  40cc9f:	b8 00 00 00 00              	(move)  	mov	$0,%eax
  40cca4:	e8 be e6 ff ff              	(control)	call	40b367 <binvrhs_>	; ⇄ binvrhs
664:	
/home/jcsalinas/Documents/pruebas/inst_estimation_module/BT/z_solve.f:396
  40cca9:	44 8b 54 24 7c              	(move)  	mov	0x7c(%rsp),%r10d
  40ccae:	41 83 ea 01                 	(arith) 	sub	$0x1,%r10d
  40ccb2:	0f 88 b1 00 00 00           	(control)	js	40cd69 <z_solve_+0x140d>	; ↲ label 665
; ------- Loop 150 entry
666 (loop 150):	
/home/jcsalinas/Documents/pruebas/inst_estimation_module/BT/z_solve.f:400
  40ccb8:	49 63 c2                    	(move)  	movsxd	%r10d,%rax
  40ccbb:	48 8d 0c 80                 	(arith) 	lea	(%rax,%rax,4),%rcx
  40ccbf:	48 89 ca                    	(move)  	mov	%rcx,%rdx
  40ccc2:	48 c1 e2 04                 	(logic) 	sal	$0x4,%rdx
  40ccc6:	48 29 ca                    	(arith) 	sub	%rcx,%rdx
  40ccc9:	48 69 f0 35 cf 00 00        	(arith) 	imul	$0xcf35,%rax,%rsi
  40ccd0:	4c 01 ee                    	(arith) 	add	%r13,%rsi
  40ccd3:	4c 01 e6                    	(arith) 	add	%r12,%rsi
  40ccd6:	48 c1 e6 03                 	(logic) 	sal	$0x3,%rsi
  40ccda:	45 8d 4a 01                 	(arith) 	lea	0x1(%r10),%r9d
  40ccde:	4d 63 c9                    	(move)  	movsxd	%r9d,%r9
  40cce1:	4d 69 c9 35 cf 00 00        	(arith) 	imul	$0xcf35,%r9,%r9
  40cce8:	4d 01 e9                    	(arith) 	add	%r13,%r9
  40cceb:	4d 01 e1                    	(arith) 	add	%r12,%r9
  40ccee:	49 c1 e1 03                 	(logic) 	sal	$0x3,%r9
  40ccf2:	41 b8 00 00 00 00           	(move)  	mov	$0,%r8d
  40ccf8:	4c 8d 1c d5 08 00 00 00     	(arith) 	lea	0x8(,%rdx,8),%r11
; ------- Loop 149 entry
667 (loop 149):	
  40cd00:	4b 8d 94 18 a0 38 37 0b     	(arith) 	lea	0xb3738a0(%r8,%r11,1),%rdx
  40cd08:	b8 00 00 00 00              	(move)  	mov	$0,%eax
; ------- Loop 148 entry
668 (loop 148):	
  40cd0d:	49 8d 88 00 16 61 00        	(arith) 	lea	0x611600(%r8),%rcx
  40cd14:	48 8d b8 00 16 61 00        	(arith) 	lea	0x611600(%rax),%rdi
  40cd1b:	f2 42 0f 10 8c 0f 10 0a ad 05	(move)  	movsd	0x5ad0a10(%rdi,%r9,1),%xmm1
  40cd25:	f2 0f 59 8a 78 a2 00 00     	(arith) 	mulsd	0xa278(%rdx),%xmm1
  40cd2d:	f2 0f 10 84 31 10 0a ad 05  	(move)  	movsd	0x5ad0a10(%rcx,%rsi,1),%xmm0
  40cd36:	f2 0f 5c c1                 	(arith) 	subsd	%xmm1,%xmm0
  40cd3a:	f2 0f 11 84 31 10 0a ad 05  	(move)  	movsd	%xmm0,0x5ad0a10(%rcx,%rsi,1)
  40cd43:	48 83 c2 28                 	(arith) 	add	$0x28,%rdx
  40cd47:	48 83 c0 08                 	(arith) 	add	$0x8,%rax
/home/jcsalinas/Documents/pruebas/inst_estimation_module/BT/z_solve.f:398
  40cd4b:	48 83 f8 28                 	(arith) 	cmp	$0x28,%rax
  40cd4f:	75 bc                       	(control)	jne	40cd0d <z_solve_+0x13b1>	; ↰ label 668 (loop 148)
; ------- Loop 148 exit
669:	
  40cd51:	49 83 c0 08                 	(arith) 	add	$0x8,%r8
/home/jcsalinas/Documents/pruebas/inst_estimation_module/BT/z_solve.f:397
  40cd55:	49 83 f8 28                 	(arith) 	cmp	$0x28,%r8
  40cd59:	75 a5                       	(control)	jne	40cd00 <z_solve_+0x13a4>	; ↰ label 667 (loop 149)
; ------- Loop 149 exit
670:	
/home/jcsalinas/Documents/pruebas/inst_estimation_module/BT/z_solve.f:396
  40cd5b:	41 83 ea 01                 	(arith) 	sub	$0x1,%r10d
  40cd5f:	41 83 fa ff                 	(arith) 	cmp	$-0x1,%r10d
  40cd63:	0f 85 4f ff ff ff           	(control)	jne	40ccb8 <z_solve_+0x135c>	; ↰ label 666 (loop 150)
; ------- Loop 150 exit
665:	
/home/jcsalinas/Documents/pruebas/inst_estimation_module/BT/z_solve.f:43
  40cd69:	83 44 24 58 01              	(arith) 	addl	$0x1,0x58(%rsp)
  40cd6e:	8b 44 24 58                 	(move)  	mov	0x58(%rsp),%eax
  40cd72:	39 44 24 68                 	(arith) 	cmp	%eax,0x68(%rsp)
  40cd76:	0f 85 72 ec ff ff           	(control)	jne	40b9ee <z_solve_+0x92>	; ↰ label 644 (loop 147)
; ------- Loop 147 exit
642:	
/home/jcsalinas/Documents/pruebas/inst_estimation_module/BT/z_solve.f:42
  40cd7c:	83 44 24 5c 01              	(arith) 	addl	$0x1,0x5c(%rsp)
  40cd81:	8b 44 24 5c                 	(move)  	mov	0x5c(%rsp),%eax
  40cd85:	39 44 24 6c                 	(arith) 	cmp	%eax,0x6c(%rsp)
  40cd89:	0f 85 23 ec ff ff           	(control)	jne	40b9b2 <z_solve_+0x56>	; ↰ label 641 (loop 146)
; ------- Loop 146 exit
639:	
/home/jcsalinas/Documents/pruebas/inst_estimation_module/BT/z_solve.f:407
  40cd8f:	83 3d 5e 48 20 00 00        	(arith) 	cmpl	$0,0x20485e(%rip)
  40cd96:	74 0f                       	(control)	je	40cda7 <z_solve_+0x144b>	; ↲ label 671
672:	
/home/jcsalinas/Documents/pruebas/inst_estimation_module/BT/z_solve.f:410
  40cd98:	bf 48 ef 40 00              	(move)  	mov	$0x40ef48,%edi
  40cd9d:	b8 00 00 00 00              	(move)  	mov	$0,%eax
  40cda2:	e8 94 1c 00 00              	(control)	call	40ea3b <timer_stop_>	; ⇄ timer_stop
671:	
/home/jcsalinas/Documents/pruebas/inst_estimation_module/BT/z_solve.f:410
  40cda7:	48 81 c4 88 00 00 00        	(arith) 	add	$0x88,%rsp
  40cdae:	5b                          	(move)  	pop	%rbx
  40cdaf:	5d                          	(move)  	pop	%rbp
  40cdb0:	41 5c                       	(move)  	pop	%r12
  40cdb2:	41 5d                       	(move)  	pop	%r13
  40cdb4:	41 5e                       	(move)  	pop	%r14
  40cdb6:	41 5f                       	(move)  	pop	%r15
  40cdb8:	c3                          	(control)	ret


000000000040cdb9 <add>:
382 (function add_):	
/home/jcsalinas/Documents/pruebas/inst_estimation_module/BT/add.f:4
  40cdb9:	41 54                       	(move)  	push	%r12
  40cdbb:	55                          	(move)  	push	%rbp
  40cdbc:	53                          	(move)  	push	%rbx
/home/jcsalinas/Documents/pruebas/inst_estimation_module/BT/add.f:17
  40cdbd:	83 3d 30 48 20 00 00        	(arith) 	cmpl	$0,0x204830(%rip)
  40cdc4:	0f 84 db 00 00 00           	(control)	je	40cea5 <add_+0xec>	; ↲ label 673
674:	
/home/jcsalinas/Documents/pruebas/inst_estimation_module/BT/add.f:18
  40cdca:	bf 4c ef 40 00              	(move)  	mov	$0x40ef4c,%edi
  40cdcf:	b8 00 00 00 00              	(move)  	mov	$0,%eax
  40cdd4:	e8 4a 1c 00 00              	(control)	call	40ea23 <timer_start_>	; ⇄ timer_start
675:	
/home/jcsalinas/Documents/pruebas/inst_estimation_module/BT/add.f:18
  40cdd9:	8b 05 11 48 20 00           	(move)  	mov	0x204811(%rip),%eax
  40cddf:	8d 58 fe                    	(arith) 	lea	-0x2(%rax),%ebx
  40cde2:	85 db                       	(arith) 	test	%ebx,%ebx
  40cde4:	0f 8e a1 00 00 00           	(control)	jle	40ce8b <add_+0xd2>	; ↲ label 676
677:	
/home/jcsalinas/Documents/pruebas/inst_estimation_module/BT/add.f:19
  40cdea:	44 8b 0d fb 47 20 00        	(move)  	mov	0x2047fb(%rip),%r9d
  40cdf1:	45 8d 61 fe                 	(arith) 	lea	-0x2(%r9),%r12d
/home/jcsalinas/Documents/pruebas/inst_estimation_module/BT/add.f:20
  40cdf5:	8b 3d ed 47 20 00           	(move)  	mov	0x2047ed(%rip),%edi
  40cdfb:	44 8d 57 fe                 	(arith) 	lea	-0x2(%rdi),%r10d
  40cdff:	83 c3 01                    	(arith) 	add	$0x1,%ebx
  40ce02:	bd 01 00 00 00              	(move)  	mov	$0x1,%ebp
  40ce07:	41 83 e9 01                 	(arith) 	sub	$0x1,%r9d
  40ce0b:	83 ef 01                    	(arith) 	sub	$0x1,%edi
; ------- Loop 154 entry
678 (loop 154):	
/home/jcsalinas/Documents/pruebas/inst_estimation_module/BT/add.f:19
  40ce0e:	45 85 e4                    	(arith) 	test	%r12d,%r12d
  40ce11:	7e 71                       	(control)	jle	40ce84 <add_+0xcb>	; ↲ label 679
680:	
/home/jcsalinas/Documents/pruebas/inst_estimation_module/BT/add.f:22
  40ce13:	4c 63 dd                    	(move)  	movsxd	%ebp,%r11
  40ce16:	4d 69 db 35 cf 00 00        	(arith) 	imul	$0xcf35,%r11,%r11
  40ce1d:	41 b8 01 00 00 00           	(move)  	mov	$0x1,%r8d
; ------- Loop 155 entry
681 (loop 155):	
/home/jcsalinas/Documents/pruebas/inst_estimation_module/BT/add.f:20
  40ce23:	45 85 d2                    	(arith) 	test	%r10d,%r10d
  40ce26:	7e 53                       	(control)	jle	40ce7b <add_+0xc2>	; ↲ label 682
683:	
/home/jcsalinas/Documents/pruebas/inst_estimation_module/BT/add.f:22
  40ce28:	49 63 c0                    	(move)  	movsxd	%r8d,%rax
  40ce2b:	48 89 c2                    	(move)  	mov	%rax,%rdx
  40ce2e:	48 c1 e2 08                 	(logic) 	sal	$0x8,%rdx
  40ce32:	48 01 c2                    	(arith) 	add	%rax,%rdx
  40ce35:	48 8d 34 50                 	(arith) 	lea	(%rax,%rdx,2),%rsi
  40ce39:	4c 01 de                    	(arith) 	add	%r11,%rsi
  40ce3c:	b9 01 00 00 00              	(move)  	mov	$0x1,%ecx
; ------- Loop 157 entry
684 (loop 157):	
  40ce41:	48 63 c1                    	(move)  	movsxd	%ecx,%rax
  40ce44:	48 8d 14 80                 	(arith) 	lea	(%rax,%rax,4),%rdx
  40ce48:	48 01 f2                    	(arith) 	add	%rsi,%rdx
  40ce4b:	48 8d 04 d5 00 16 61 00     	(arith) 	lea	0x611600(,%rdx,8),%rax
  40ce53:	48 8d 14 d5 28 16 61 00     	(arith) 	lea	0x611628(,%rdx,8),%rdx
; ------- Loop 156 entry
685 (loop 156):	
  40ce5b:	f2 0f 10 00                 	(move)  	movsd	(%rax),%xmm0
  40ce5f:	f2 0f 58 80 10 0a ad 05     	(arith) 	addsd	0x5ad0a10(%rax),%xmm0
  40ce67:	f2 0f 11 00                 	(move)  	movsd	%xmm0,(%rax)
  40ce6b:	48 83 c0 08                 	(arith) 	add	$0x8,%rax
/home/jcsalinas/Documents/pruebas/inst_estimation_module/BT/add.f:21
  40ce6f:	48 39 d0                    	(arith) 	cmp	%rdx,%rax
  40ce72:	75 e7                       	(control)	jne	40ce5b <add_+0xa2>	; ↰ label 685 (loop 156)
; ------- Loop 156 exit
686:	
/home/jcsalinas/Documents/pruebas/inst_estimation_module/BT/add.f:20
  40ce74:	83 c1 01                    	(arith) 	add	$0x1,%ecx
  40ce77:	39 cf                       	(arith) 	cmp	%ecx,%edi
  40ce79:	75 c6                       	(control)	jne	40ce41 <add_+0x88>	; ↰ label 684 (loop 157)
; ------- Loop 157 exit
682:	
/home/jcsalinas/Documents/pruebas/inst_estimation_module/BT/add.f:19
  40ce7b:	41 83 c0 01                 	(arith) 	add	$0x1,%r8d
  40ce7f:	45 39 c1                    	(arith) 	cmp	%r8d,%r9d
  40ce82:	75 9f                       	(control)	jne	40ce23 <add_+0x6a>	; ↰ label 681 (loop 155)
; ------- Loop 155 exit
679:	
/home/jcsalinas/Documents/pruebas/inst_estimation_module/BT/add.f:18
  40ce84:	83 c5 01                    	(arith) 	add	$0x1,%ebp
  40ce87:	39 dd                       	(arith) 	cmp	%ebx,%ebp
  40ce89:	75 83                       	(control)	jne	40ce0e <add_+0x55>	; ↰ label 678 (loop 154)
; ------- Loop 154 exit
676:	
/home/jcsalinas/Documents/pruebas/inst_estimation_module/BT/add.f:27
  40ce8b:	83 3d 62 47 20 00 00        	(arith) 	cmpl	$0,0x204762(%rip)
  40ce92:	74 22                       	(control)	je	40ceb6 <add_+0xfd>	; ↲ label 687
688:	
/home/jcsalinas/Documents/pruebas/inst_estimation_module/BT/add.f:29
  40ce94:	bf 4c ef 40 00              	(move)  	mov	$0x40ef4c,%edi
  40ce99:	b8 00 00 00 00              	(move)  	mov	$0,%eax
  40ce9e:	e8 98 1b 00 00              	(control)	call	40ea3b <timer_stop_>	; ⇄ timer_stop
689:	
/home/jcsalinas/Documents/pruebas/inst_estimation_module/BT/add.f:29
  40cea3:	eb 11                       	(control)	jmp	40ceb6 <add_+0xfd>	; ↲ label 687
673:	
/home/jcsalinas/Documents/pruebas/inst_estimation_module/BT/add.f:18
  40cea5:	8b 05 45 47 20 00           	(move)  	mov	0x204745(%rip),%eax
  40ceab:	8d 58 fe                    	(arith) 	lea	-0x2(%rax),%ebx
  40ceae:	85 db                       	(arith) 	test	%ebx,%ebx
  40ceb0:	0f 8f 34 ff ff ff           	(control)	jg	40cdea <add_+0x31>	; ↰ label 677
687:	
/home/jcsalinas/Documents/pruebas/inst_estimation_module/BT/add.f:30
  40ceb6:	5b                          	(move)  	pop	%rbx
  40ceb7:	5d                          	(move)  	pop	%rbp
  40ceb8:	41 5c                       	(move)  	pop	%r12
  40ceba:	c3                          	(control)	ret


000000000040cebb <error_norm>:
690 (function error_norm_):	
/home/jcsalinas/Documents/pruebas/inst_estimation_module/BT/error.f:4
  40cebb:	41 57                       	(move)  	push	%r15
  40cebd:	41 56                       	(move)  	push	%r14
  40cebf:	41 55                       	(move)  	push	%r13
  40cec1:	41 54                       	(move)  	push	%r12
  40cec3:	55                          	(move)  	push	%rbp
  40cec4:	53                          	(move)  	push	%rbx
  40cec5:	48 83 ec 58                 	(arith) 	sub	$0x58,%rsp
  40cec9:	48 89 fb                    	(move)  	mov	%rdi,%rbx
/home/jcsalinas/Documents/pruebas/inst_estimation_module/BT/error.f:20
  40cecc:	66 0f ef c0                 	(logic) 	pxor	%xmm0,%xmm0
  40ced0:	f2 0f 11 07                 	(move)  	movsd	%xmm0,(%rdi)
  40ced4:	f2 0f 11 47 08              	(move)  	movsd	%xmm0,0x8(%rdi)
  40ced9:	f2 0f 11 47 10              	(move)  	movsd	%xmm0,0x10(%rdi)
  40cede:	f2 0f 11 47 18              	(move)  	movsd	%xmm0,0x18(%rdi)
  40cee3:	f2 0f 11 47 20              	(move)  	movsd	%xmm0,0x20(%rdi)
/home/jcsalinas/Documents/pruebas/inst_estimation_module/BT/error.f:23
  40cee8:	8b 05 02 47 20 00           	(move)  	mov	0x204702(%rip),%eax
  40ceee:	89 44 24 0c                 	(move)  	mov	%eax,0xc(%rsp)
  40cef2:	83 e8 01                    	(arith) 	sub	$0x1,%eax
  40cef5:	0f 88 1e 01 00 00           	(control)	js	40d019 <error_norm_+0x15e>	; ↲ label 691
692:	
  40cefb:	c7 44 24 08 00 00 00 00     	(move)  	movl	$0,0x8(%rsp)
; ------- Loop 159 entry
693 (loop 159):	
/home/jcsalinas/Documents/pruebas/inst_estimation_module/BT/error.f:24
  40cf03:	8b 44 24 08                 	(move)  	mov	0x8(%rsp),%eax
  40cf07:	66 0f ef c0                 	(logic) 	pxor	%xmm0,%xmm0
  40cf0b:	f2 0f 2a c0                 	(conv)  	cvtsi2sd	%eax,%xmm0
  40cf0f:	f2 0f 59 05 b9 45 20 00     	(arith) 	mulsd	0x2045b9(%rip),%xmm0
  40cf17:	f2 0f 11 44 24 10           	(move)  	movsd	%xmm0,0x10(%rsp)
/home/jcsalinas/Documents/pruebas/inst_estimation_module/BT/error.f:25
  40cf1d:	44 8b 3d c8 46 20 00        	(move)  	mov	0x2046c8(%rip),%r15d
  40cf24:	44 89 f9                    	(move)  	mov	%r15d,%ecx
  40cf27:	83 e9 01                    	(arith) 	sub	$0x1,%ecx
  40cf2a:	0f 88 d6 00 00 00           	(control)	js	40d006 <error_norm_+0x14b>	; ↲ label 694
695:	
/home/jcsalinas/Documents/pruebas/inst_estimation_module/BT/error.f:32
  40cf30:	48 98                       	(conv)  	cltq
  40cf32:	48 69 c0 35 cf 00 00        	(arith) 	imul	$0xcf35,%rax,%rax
  40cf39:	48 89 04 24                 	(move)  	mov	%rax,(%rsp)
  40cf3d:	41 be 00 00 00 00           	(move)  	mov	$0,%r14d
; ------- Loop 160 entry
696 (loop 160):	
/home/jcsalinas/Documents/pruebas/inst_estimation_module/BT/error.f:26
  40cf43:	66 0f ef c0                 	(logic) 	pxor	%xmm0,%xmm0
  40cf47:	f2 41 0f 2a c6              	(conv)  	cvtsi2sd	%r14d,%xmm0
  40cf4c:	f2 0f 59 05 74 45 20 00     	(arith) 	mulsd	0x204574(%rip),%xmm0
  40cf54:	f2 0f 11 44 24 48           	(move)  	movsd	%xmm0,0x48(%rsp)
/home/jcsalinas/Documents/pruebas/inst_estimation_module/BT/error.f:27
  40cf5a:	44 8b 2d 87 46 20 00        	(move)  	mov	0x204687(%rip),%r13d
  40cf61:	44 89 e8                    	(move)  	mov	%r13d,%eax
  40cf64:	83 e8 01                    	(arith) 	sub	$0x1,%eax
  40cf67:	0f 88 8c 00 00 00           	(control)	js	40cff9 <error_norm_+0x13e>	; ↲ label 697
698:	
/home/jcsalinas/Documents/pruebas/inst_estimation_module/BT/error.f:32
  40cf6d:	49 63 c6                    	(move)  	movsxd	%r14d,%rax
  40cf70:	48 89 c2                    	(move)  	mov	%rax,%rdx
  40cf73:	48 c1 e2 08                 	(logic) 	sal	$0x8,%rdx
  40cf77:	48 01 c2                    	(arith) 	add	%rax,%rdx
  40cf7a:	4c 8d 24 50                 	(arith) 	lea	(%rax,%rdx,2),%r12
  40cf7e:	4c 03 24 24                 	(arith) 	add	(%rsp),%r12
  40cf82:	bd 00 00 00 00              	(move)  	mov	$0,%ebp
; ------- Loop 162 entry
699 (loop 162):	
/home/jcsalinas/Documents/pruebas/inst_estimation_module/BT/error.f:28
  40cf87:	66 0f ef c0                 	(logic) 	pxor	%xmm0,%xmm0
  40cf8b:	f2 0f 2a c5                 	(conv)  	cvtsi2sd	%ebp,%xmm0
  40cf8f:	f2 0f 59 05 29 45 20 00     	(arith) 	mulsd	0x204529(%rip),%xmm0
  40cf97:	f2 0f 11 44 24 18           	(move)  	movsd	%xmm0,0x18(%rsp)
/home/jcsalinas/Documents/pruebas/inst_estimation_module/BT/error.f:29
  40cf9d:	48 8d 4c 24 20              	(arith) 	lea	0x20(%rsp),%rcx
  40cfa2:	48 8d 54 24 10              	(arith) 	lea	0x10(%rsp),%rdx
  40cfa7:	48 8d 74 24 48              	(arith) 	lea	0x48(%rsp),%rsi
  40cfac:	48 8d 7c 24 18              	(arith) 	lea	0x18(%rsp),%rdi
  40cfb1:	b8 00 00 00 00              	(move)  	mov	$0,%eax
  40cfb6:	e8 77 54 ff ff              	(control)	call	402432 <exact_solution_>	; ⇄ exact_solution
700:	
/home/jcsalinas/Documents/pruebas/inst_estimation_module/BT/error.f:32
  40cfbb:	48 63 c5                    	(move)  	movsxd	%ebp,%rax
  40cfbe:	48 8d 14 80                 	(arith) 	lea	(%rax,%rax,4),%rdx
  40cfc2:	4c 01 e2                    	(arith) 	add	%r12,%rdx
  40cfc5:	b8 00 00 00 00              	(move)  	mov	$0,%eax
; ------- Loop 161 entry
701 (loop 161):	
  40cfca:	f2 0f 10 84 d0 00 16 61 00  	(move)  	movsd	0x611600(%rax,%rdx,8),%xmm0
  40cfd3:	f2 0f 5c 44 04 20           	(arith) 	subsd	0x20(%rsp,%rax,1),%xmm0
/home/jcsalinas/Documents/pruebas/inst_estimation_module/BT/error.f:33
  40cfd9:	f2 0f 59 c0                 	(arith) 	mulsd	%xmm0,%xmm0
  40cfdd:	f2 0f 58 04 03              	(arith) 	addsd	(%rbx,%rax,1),%xmm0
  40cfe2:	f2 0f 11 04 03              	(move)  	movsd	%xmm0,(%rbx,%rax,1)
  40cfe7:	48 83 c0 08                 	(arith) 	add	$0x8,%rax
/home/jcsalinas/Documents/pruebas/inst_estimation_module/BT/error.f:31
  40cfeb:	48 83 f8 28                 	(arith) 	cmp	$0x28,%rax
  40cfef:	75 d9                       	(control)	jne	40cfca <error_norm_+0x10f>	; ↰ label 701 (loop 161)
; ------- Loop 161 exit
702:	
/home/jcsalinas/Documents/pruebas/inst_estimation_module/BT/error.f:27
  40cff1:	83 c5 01                    	(arith) 	add	$0x1,%ebp
  40cff4:	41 39 ed                    	(arith) 	cmp	%ebp,%r13d
  40cff7:	75 8e                       	(control)	jne	40cf87 <error_norm_+0xcc>	; ↰ label 699 (loop 162)
; ------- Loop 162 exit
697:	
/home/jcsalinas/Documents/pruebas/inst_estimation_module/BT/error.f:25
  40cff9:	41 83 c6 01                 	(arith) 	add	$0x1,%r14d
  40cffd:	45 39 f7                    	(arith) 	cmp	%r14d,%r15d
  40d000:	0f 85 3d ff ff ff           	(control)	jne	40cf43 <error_norm_+0x88>	; ↰ label 696 (loop 160)
; ------- Loop 160 exit
694:	
/home/jcsalinas/Documents/pruebas/inst_estimation_module/BT/error.f:23
  40d006:	83 44 24 08 01              	(arith) 	addl	$0x1,0x8(%rsp)
  40d00b:	8b 44 24 08                 	(move)  	mov	0x8(%rsp),%eax
  40d00f:	39 44 24 0c                 	(arith) 	cmp	%eax,0xc(%rsp)
  40d013:	0f 85 ea fe ff ff           	(control)	jne	40cf03 <error_norm_+0x48>	; ↰ label 693 (loop 159)
; ------- Loop 159 exit
691:	
  40d019:	48 89 da                    	(move)  	mov	%rbx,%rdx
  40d01c:	48 83 c3 28                 	(arith) 	add	$0x28,%rbx
/home/jcsalinas/Documents/pruebas/inst_estimation_module/BT/error.f:41
  40d020:	8b 05 c2 45 20 00           	(move)  	mov	0x2045c2(%rip),%eax
  40d026:	83 e8 02                    	(arith) 	sub	$0x2,%eax
  40d029:	66 0f ef db                 	(logic) 	pxor	%xmm3,%xmm3
  40d02d:	f2 0f 2a d8                 	(conv)  	cvtsi2sd	%eax,%xmm3
  40d031:	8b 05 b5 45 20 00           	(move)  	mov	0x2045b5(%rip),%eax
  40d037:	83 e8 02                    	(arith) 	sub	$0x2,%eax
  40d03a:	66 0f ef d2                 	(logic) 	pxor	%xmm2,%xmm2
  40d03e:	f2 0f 2a d0                 	(conv)  	cvtsi2sd	%eax,%xmm2
  40d042:	8b 05 a8 45 20 00           	(move)  	mov	0x2045a8(%rip),%eax
  40d048:	83 e8 02                    	(arith) 	sub	$0x2,%eax
  40d04b:	66 0f ef c9                 	(logic) 	pxor	%xmm1,%xmm1
  40d04f:	f2 0f 2a c8                 	(conv)  	cvtsi2sd	%eax,%xmm1
; ------- Loop 158 entry
703 (loop 158):	
/home/jcsalinas/Documents/pruebas/inst_estimation_module/BT/error.f:43
  40d053:	f2 0f 10 02                 	(move)  	movsd	(%rdx),%xmm0
  40d057:	f2 0f 5e c3                 	(arith) 	divsd	%xmm3,%xmm0
  40d05b:	f2 0f 5e c2                 	(arith) 	divsd	%xmm2,%xmm0
  40d05f:	f2 0f 5e c1                 	(arith) 	divsd	%xmm1,%xmm0
  40d063:	f2 0f 51 c0                 	(math)  	sqrtsd	%xmm0,%xmm0
  40d067:	f2 0f 11 02                 	(move)  	movsd	%xmm0,(%rdx)
  40d06b:	48 83 c2 08                 	(arith) 	add	$0x8,%rdx
/home/jcsalinas/Documents/pruebas/inst_estimation_module/BT/error.f:39
  40d06f:	48 39 d3                    	(arith) 	cmp	%rdx,%rbx
  40d072:	75 df                       	(control)	jne	40d053 <error_norm_+0x198>	; ↰ label 703 (loop 158)
; ------- Loop 158 exit
704:	
/home/jcsalinas/Documents/pruebas/inst_estimation_module/BT/error.f:47
  40d074:	48 83 c4 58                 	(arith) 	add	$0x58,%rsp
  40d078:	5b                          	(move)  	pop	%rbx
  40d079:	5d                          	(move)  	pop	%rbp
  40d07a:	41 5c                       	(move)  	pop	%r12
  40d07c:	41 5d                       	(move)  	pop	%r13
  40d07e:	41 5e                       	(move)  	pop	%r14
  40d080:	41 5f                       	(move)  	pop	%r15
  40d082:	c3                          	(control)	ret


000000000040d083 <rhs_norm>:
705 (function rhs_norm_):	
/home/jcsalinas/Documents/pruebas/inst_estimation_module/BT/error.f:53
  40d083:	41 57                       	(move)  	push	%r15
  40d085:	41 56                       	(move)  	push	%r14
  40d087:	41 55                       	(move)  	push	%r13
  40d089:	41 54                       	(move)  	push	%r12
  40d08b:	55                          	(move)  	push	%rbp
  40d08c:	53                          	(move)  	push	%rbx
/home/jcsalinas/Documents/pruebas/inst_estimation_module/BT/error.f:64
  40d08d:	66 0f ef c0                 	(logic) 	pxor	%xmm0,%xmm0
  40d091:	f2 0f 11 07                 	(move)  	movsd	%xmm0,(%rdi)
  40d095:	f2 0f 11 47 08              	(move)  	movsd	%xmm0,0x8(%rdi)
  40d09a:	f2 0f 11 47 10              	(move)  	movsd	%xmm0,0x10(%rdi)
  40d09f:	f2 0f 11 47 18              	(move)  	movsd	%xmm0,0x18(%rdi)
  40d0a4:	f2 0f 11 47 20              	(move)  	movsd	%xmm0,0x20(%rdi)
/home/jcsalinas/Documents/pruebas/inst_estimation_module/BT/error.f:67
  40d0a9:	44 8b 25 40 45 20 00        	(move)  	mov	0x204540(%rip),%r12d
  40d0b0:	45 8d 6c 24 fe              	(arith) 	lea	-0x2(%r12),%r13d
  40d0b5:	45 85 ed                    	(arith) 	test	%r13d,%r13d
  40d0b8:	0f 8e b3 00 00 00           	(control)	jle	40d171 <rhs_norm_+0xee>	; ↲ label 706
707:	
/home/jcsalinas/Documents/pruebas/inst_estimation_module/BT/error.f:68
  40d0be:	44 8b 15 27 45 20 00        	(move)  	mov	0x204527(%rip),%r10d
  40d0c5:	45 8d 72 fe                 	(arith) 	lea	-0x2(%r10),%r14d
/home/jcsalinas/Documents/pruebas/inst_estimation_module/BT/error.f:69
  40d0c9:	44 8b 05 18 45 20 00        	(move)  	mov	0x204518(%rip),%r8d
  40d0d0:	45 8d 58 fe                 	(arith) 	lea	-0x2(%r8),%r11d
  40d0d4:	41 83 ec 01                 	(arith) 	sub	$0x1,%r12d
  40d0d8:	bd 01 00 00 00              	(move)  	mov	$0x1,%ebp
  40d0dd:	41 83 ea 01                 	(arith) 	sub	$0x1,%r10d
  40d0e1:	41 83 e8 01                 	(arith) 	sub	$0x1,%r8d
; ------- Loop 164 entry
708 (loop 164):	
/home/jcsalinas/Documents/pruebas/inst_estimation_module/BT/error.f:68
  40d0e5:	45 85 f6                    	(arith) 	test	%r14d,%r14d
  40d0e8:	7e 7b                       	(control)	jle	40d165 <rhs_norm_+0xe2>	; ↲ label 709
710:	
/home/jcsalinas/Documents/pruebas/inst_estimation_module/BT/error.f:71
  40d0ea:	48 63 dd                    	(move)  	movsxd	%ebp,%rbx
  40d0ed:	48 69 db 35 cf 00 00        	(arith) 	imul	$0xcf35,%rbx,%rbx
  40d0f4:	41 b9 01 00 00 00           	(move)  	mov	$0x1,%r9d
; ------- Loop 165 entry
711 (loop 165):	
/home/jcsalinas/Documents/pruebas/inst_estimation_module/BT/error.f:69
  40d0fa:	45 85 db                    	(arith) 	test	%r11d,%r11d
  40d0fd:	7e 5d                       	(control)	jle	40d15c <rhs_norm_+0xd9>	; ↲ label 712
713:	
/home/jcsalinas/Documents/pruebas/inst_estimation_module/BT/error.f:71
  40d0ff:	49 63 c1                    	(move)  	movsxd	%r9d,%rax
  40d102:	48 89 c2                    	(move)  	mov	%rax,%rdx
  40d105:	48 c1 e2 08                 	(logic) 	sal	$0x8,%rdx
  40d109:	48 01 c2                    	(arith) 	add	%rax,%rdx
  40d10c:	48 8d 34 50                 	(arith) 	lea	(%rax,%rdx,2),%rsi
  40d110:	48 01 de                    	(arith) 	add	%rbx,%rsi
  40d113:	b9 01 00 00 00              	(move)  	mov	$0x1,%ecx
; ------- Loop 167 entry
714 (loop 167):	
  40d118:	48 63 c1                    	(move)  	movsxd	%ecx,%rax
  40d11b:	48 8d 14 80                 	(arith) 	lea	(%rax,%rax,4),%rdx
  40d11f:	48 01 f2                    	(arith) 	add	%rsi,%rdx
  40d122:	48 c1 e2 03                 	(logic) 	sal	$0x3,%rdx
  40d126:	b8 00 00 00 00              	(move)  	mov	$0,%eax
; ------- Loop 166 entry
715 (loop 166):	
  40d12b:	4c 8d b8 00 16 61 00        	(arith) 	lea	0x611600(%rax),%r15
  40d132:	f2 41 0f 10 84 17 10 0a ad 05	(move)  	movsd	0x5ad0a10(%r15,%rdx,1),%xmm0
/home/jcsalinas/Documents/pruebas/inst_estimation_module/BT/error.f:72
  40d13c:	f2 0f 59 c0                 	(arith) 	mulsd	%xmm0,%xmm0
  40d140:	f2 0f 58 04 07              	(arith) 	addsd	(%rdi,%rax,1),%xmm0
  40d145:	f2 0f 11 04 07              	(move)  	movsd	%xmm0,(%rdi,%rax,1)
  40d14a:	48 83 c0 08                 	(arith) 	add	$0x8,%rax
/home/jcsalinas/Documents/pruebas/inst_estimation_module/BT/error.f:70
  40d14e:	48 83 f8 28                 	(arith) 	cmp	$0x28,%rax
  40d152:	75 d7                       	(control)	jne	40d12b <rhs_norm_+0xa8>	; ↰ label 715 (loop 166)
; ------- Loop 166 exit
716:	
/home/jcsalinas/Documents/pruebas/inst_estimation_module/BT/error.f:69
  40d154:	83 c1 01                    	(arith) 	add	$0x1,%ecx
  40d157:	44 39 c1                    	(arith) 	cmp	%r8d,%ecx
  40d15a:	75 bc                       	(control)	jne	40d118 <rhs_norm_+0x95>	; ↰ label 714 (loop 167)
; ------- Loop 167 exit
712:	
/home/jcsalinas/Documents/pruebas/inst_estimation_module/BT/error.f:68
  40d15c:	41 83 c1 01                 	(arith) 	add	$0x1,%r9d
  40d160:	45 39 ca                    	(arith) 	cmp	%r9d,%r10d
  40d163:	75 95                       	(control)	jne	40d0fa <rhs_norm_+0x77>	; ↰ label 711 (loop 165)
; ------- Loop 165 exit
709:	
/home/jcsalinas/Documents/pruebas/inst_estimation_module/BT/error.f:67
  40d165:	83 c5 01                    	(arith) 	add	$0x1,%ebp
  40d168:	44 39 e5                    	(arith) 	cmp	%r12d,%ebp
  40d16b:	0f 85 74 ff ff ff           	(control)	jne	40d0e5 <rhs_norm_+0x62>	; ↰ label 708 (loop 164)
; ------- Loop 164 exit
706:	
  40d171:	48 89 fa                    	(move)  	mov	%rdi,%rdx
  40d174:	48 83 c7 28                 	(arith) 	add	$0x28,%rdi
/home/jcsalinas/Documents/pruebas/inst_estimation_module/BT/error.f:80
  40d178:	8b 05 6a 44 20 00           	(move)  	mov	0x20446a(%rip),%eax
  40d17e:	83 e8 02                    	(arith) 	sub	$0x2,%eax
  40d181:	66 0f ef d2                 	(logic) 	pxor	%xmm2,%xmm2
  40d185:	f2 0f 2a d0                 	(conv)  	cvtsi2sd	%eax,%xmm2
  40d189:	8b 05 5d 44 20 00           	(move)  	mov	0x20445d(%rip),%eax
  40d18f:	83 e8 02                    	(arith) 	sub	$0x2,%eax
  40d192:	66 0f ef c9                 	(logic) 	pxor	%xmm1,%xmm1
  40d196:	f2 0f 2a c8                 	(conv)  	cvtsi2sd	%eax,%xmm1
  40d19a:	66 0f ef db                 	(logic) 	pxor	%xmm3,%xmm3
  40d19e:	f2 41 0f 2a dd              	(conv)  	cvtsi2sd	%r13d,%xmm3
; ------- Loop 163 entry
717 (loop 163):	
/home/jcsalinas/Documents/pruebas/inst_estimation_module/BT/error.f:82
  40d1a3:	f2 0f 10 02                 	(move)  	movsd	(%rdx),%xmm0
  40d1a7:	f2 0f 5e c2                 	(arith) 	divsd	%xmm2,%xmm0
  40d1ab:	f2 0f 5e c1                 	(arith) 	divsd	%xmm1,%xmm0
  40d1af:	f2 0f 5e c3                 	(arith) 	divsd	%xmm3,%xmm0
  40d1b3:	f2 0f 51 c0                 	(math)  	sqrtsd	%xmm0,%xmm0
  40d1b7:	f2 0f 11 02                 	(move)  	movsd	%xmm0,(%rdx)
  40d1bb:	48 83 c2 08                 	(arith) 	add	$0x8,%rdx
/home/jcsalinas/Documents/pruebas/inst_estimation_module/BT/error.f:78
  40d1bf:	48 39 d7                    	(arith) 	cmp	%rdx,%rdi
  40d1c2:	75 df                       	(control)	jne	40d1a3 <rhs_norm_+0x120>	; ↰ label 717 (loop 163)
; ------- Loop 163 exit
718:	
/home/jcsalinas/Documents/pruebas/inst_estimation_module/BT/error.f:86
  40d1c4:	5b                          	(move)  	pop	%rbx
  40d1c5:	5d                          	(move)  	pop	%rbp
  40d1c6:	41 5c                       	(move)  	pop	%r12
  40d1c8:	41 5d                       	(move)  	pop	%r13
  40d1ca:	41 5e                       	(move)  	pop	%r14
  40d1cc:	41 5f                       	(move)  	pop	%r15
  40d1ce:	c3                          	(control)	ret


000000000040d1cf <verify>:
125 (function verify_):	
/home/jcsalinas/Documents/pruebas/inst_estimation_module/BT/verify.f:5
  40d1cf:	41 54                       	(move)  	push	%r12
  40d1d1:	55                          	(move)  	push	%rbp
  40d1d2:	53                          	(move)  	push	%rbx
  40d1d3:	48 81 ec 10 03 00 00        	(arith) 	sub	$0x310,%rsp
  40d1da:	49 89 fc                    	(move)  	mov	%rdi,%r12
  40d1dd:	48 89 f3                    	(move)  	mov	%rsi,%rbx
  40d1e0:	48 89 d5                    	(move)  	mov	%rdx,%rbp
/home/jcsalinas/Documents/pruebas/inst_estimation_module/BT/verify.f:25
  40d1e3:	f2 0f 10 1d bd 1f 00 00     	(move)  	movsd	0x1fbd(%rip),%xmm3
  40d1eb:	f2 0f 11 9c 24 00 03 00 00  	(move)  	movsd	%xmm3,0x300(%rsp)
/home/jcsalinas/Documents/pruebas/inst_estimation_module/BT/verify.f:31
  40d1f4:	48 8d bc 24 d0 02 00 00     	(arith) 	lea	0x2d0(%rsp),%rdi
  40d1fc:	b8 00 00 00 00              	(move)  	mov	$0,%eax
  40d201:	e8 b5 fc ff ff              	(control)	call	40cebb <error_norm_>	; ⇄ error_norm
719:	
/home/jcsalinas/Documents/pruebas/inst_estimation_module/BT/verify.f:32
  40d206:	b8 00 00 00 00              	(move)  	mov	$0,%eax
  40d20b:	e8 08 78 ff ff              	(control)	call	404a18 <compute_rhs_>	; ⇄ compute_rhs
720:	
/home/jcsalinas/Documents/pruebas/inst_estimation_module/BT/verify.f:34
  40d210:	48 8d bc 24 40 02 00 00     	(arith) 	lea	0x240(%rsp),%rdi
  40d218:	b8 00 00 00 00              	(move)  	mov	$0,%eax
  40d21d:	e8 61 fe ff ff              	(control)	call	40d083 <rhs_norm_>	; ⇄ rhs_norm
721:	
/home/jcsalinas/Documents/pruebas/inst_estimation_module/BT/verify.f:36
  40d222:	c7 84 24 fc 02 00 00 01 00 00 00	(move)  	movl	$0x1,0x2fc(%rsp)
/home/jcsalinas/Documents/pruebas/inst_estimation_module/BT/verify.f:5
  40d22d:	f2 0f 10 0d 73 3f 20 00     	(move)  	movsd	0x203f73(%rip),%xmm1
  40d235:	ba 01 00 00 00              	(move)  	mov	$0x1,%edx
; ------- Loop 168 entry
722 (loop 168):	
/home/jcsalinas/Documents/pruebas/inst_estimation_module/BT/verify.f:37
  40d23a:	48 63 c2                    	(move)  	movsxd	%edx,%rax
  40d23d:	48 83 e8 01                 	(arith) 	sub	$0x1,%rax
  40d241:	f2 0f 10 84 c4 40 02 00 00  	(move)  	movsd	0x240(%rsp,%rax,8),%xmm0
  40d24a:	f2 0f 5e c1                 	(arith) 	divsd	%xmm1,%xmm0
  40d24e:	f2 0f 11 84 c4 40 02 00 00  	(move)  	movsd	%xmm0,0x240(%rsp,%rax,8)
  40d257:	83 c2 01                    	(arith) 	add	$0x1,%edx
/home/jcsalinas/Documents/pruebas/inst_estimation_module/BT/verify.f:36
  40d25a:	83 fa 06                    	(arith) 	cmp	$0x6,%edx
  40d25d:	75 db                       	(control)	jne	40d23a <verify_+0x6b>	; ↰ label 722 (loop 168)
; ------- Loop 168 exit
723:	
/home/jcsalinas/Documents/pruebas/inst_estimation_module/BT/verify.f:41
  40d25f:	c6 03 55                    	(move)  	movb	$0x55,(%rbx)
/home/jcsalinas/Documents/pruebas/inst_estimation_module/BT/verify.f:42
  40d262:	c7 45 00 01 00 00 00        	(move)  	movl	$0x1,(%rbp)
  40d269:	ba 01 00 00 00              	(move)  	mov	$0x1,%edx
/home/jcsalinas/Documents/pruebas/inst_estimation_module/BT/verify.f:45
  40d26e:	f2 0f 10 05 ba 1b 00 00     	(move)  	movsd	0x1bba(%rip),%xmm0
; ------- Loop 169 entry
724 (loop 169):	
  40d276:	48 63 c2                    	(move)  	movsxd	%edx,%rax
  40d279:	48 83 e8 01                 	(arith) 	sub	$0x1,%rax
  40d27d:	f2 0f 11 84 c4 e0 01 00 00  	(move)  	movsd	%xmm0,0x1e0(%rsp,%rax,8)
/home/jcsalinas/Documents/pruebas/inst_estimation_module/BT/verify.f:46
  40d286:	f2 0f 11 84 c4 70 02 00 00  	(move)  	movsd	%xmm0,0x270(%rsp,%rax,8)
  40d28f:	83 c2 01                    	(arith) 	add	$0x1,%edx
/home/jcsalinas/Documents/pruebas/inst_estimation_module/BT/verify.f:44
  40d292:	83 fa 06                    	(arith) 	cmp	$0x6,%edx
  40d295:	75 df                       	(control)	jne	40d276 <verify_+0xa7>	; ↰ label 724 (loop 169)
; ------- Loop 169 exit
725:	
  40d297:	c7 84 24 fc 02 00 00 06 00 00 00	(move)  	movl	$0x6,0x2fc(%rsp)
/home/jcsalinas/Documents/pruebas/inst_estimation_module/BT/verify.f:54
  40d2a2:	8b 05 40 43 20 00           	(move)  	mov	0x204340(%rip),%eax
  40d2a8:	83 f8 0c                    	(arith) 	cmp	$0xc,%eax
  40d2ab:	0f 85 e8 00 00 00           	(control)	jne	40d399 <verify_+0x1ca>	; ↲ label 726
727:	
  40d2b1:	83 3d 34 43 20 00 0c        	(arith) 	cmpl	$0xc,0x204334(%rip)
  40d2b8:	0f 85 a8 06 00 00           	(control)	jne	40d966 <verify_+0x797>	; ↲ label 728
729:	
/home/jcsalinas/Documents/pruebas/inst_estimation_module/BT/verify.f:54
  40d2be:	83 3d 2b 43 20 00 0c        	(arith) 	cmpl	$0xc,0x20432b(%rip)
  40d2c5:	0f 85 9b 06 00 00           	(control)	jne	40d966 <verify_+0x797>	; ↲ label 728
730:	
/home/jcsalinas/Documents/pruebas/inst_estimation_module/BT/verify.f:57
  40d2cb:	41 83 3c 24 3c              	(arith) 	cmpl	$0x3c,(%r12)
  40d2d0:	0f 85 90 06 00 00           	(control)	jne	40d966 <verify_+0x797>	; ↲ label 728
731:	
/home/jcsalinas/Documents/pruebas/inst_estimation_module/BT/verify.f:57
  40d2d6:	c6 03 53                    	(move)  	movb	$0x53,(%rbx)
/home/jcsalinas/Documents/pruebas/inst_estimation_module/BT/verify.f:58
  40d2d9:	f2 0f 10 25 b7 1b 00 00     	(move)  	movsd	0x1bb7(%rip),%xmm4
  40d2e1:	f2 0f 11 a4 24 08 03 00 00  	(move)  	movsd	%xmm4,0x308(%rsp)
/home/jcsalinas/Documents/pruebas/inst_estimation_module/BT/verify.f:63
  40d2ea:	f2 0f 10 2d be 1e 00 00     	(move)  	movsd	0x1ebe(%rip),%xmm5
  40d2f2:	f2 0f 11 ac 24 e0 01 00 00  	(move)  	movsd	%xmm5,0x1e0(%rsp)
/home/jcsalinas/Documents/pruebas/inst_estimation_module/BT/verify.f:64
  40d2fb:	f2 0f 10 35 b5 1e 00 00     	(move)  	movsd	0x1eb5(%rip),%xmm6
  40d303:	f2 0f 11 b4 24 e8 01 00 00  	(move)  	movsd	%xmm6,0x1e8(%rsp)
/home/jcsalinas/Documents/pruebas/inst_estimation_module/BT/verify.f:65
  40d30c:	f2 0f 10 3d ac 1e 00 00     	(move)  	movsd	0x1eac(%rip),%xmm7
  40d314:	f2 0f 11 bc 24 f0 01 00 00  	(move)  	movsd	%xmm7,0x1f0(%rsp)
/home/jcsalinas/Documents/pruebas/inst_estimation_module/BT/verify.f:66
  40d31d:	f2 0f 10 25 a3 1e 00 00     	(move)  	movsd	0x1ea3(%rip),%xmm4
  40d325:	f2 0f 11 a4 24 f8 01 00 00  	(move)  	movsd	%xmm4,0x1f8(%rsp)
/home/jcsalinas/Documents/pruebas/inst_estimation_module/BT/verify.f:67
  40d32e:	f2 0f 10 2d 9a 1e 00 00     	(move)  	movsd	0x1e9a(%rip),%xmm5
  40d336:	f2 0f 11 ac 24 00 02 00 00  	(move)  	movsd	%xmm5,0x200(%rsp)
/home/jcsalinas/Documents/pruebas/inst_estimation_module/BT/verify.f:72
  40d33f:	f2 0f 10 35 91 1e 00 00     	(move)  	movsd	0x1e91(%rip),%xmm6
  40d347:	f2 0f 11 b4 24 70 02 00 00  	(move)  	movsd	%xmm6,0x270(%rsp)
/home/jcsalinas/Documents/pruebas/inst_estimation_module/BT/verify.f:73
  40d350:	f2 0f 10 3d 88 1e 00 00     	(move)  	movsd	0x1e88(%rip),%xmm7
  40d358:	f2 0f 11 bc 24 78 02 00 00  	(move)  	movsd	%xmm7,0x278(%rsp)
/home/jcsalinas/Documents/pruebas/inst_estimation_module/BT/verify.f:74
  40d361:	f2 0f 10 25 7f 1e 00 00     	(move)  	movsd	0x1e7f(%rip),%xmm4
  40d369:	f2 0f 11 a4 24 80 02 00 00  	(move)  	movsd	%xmm4,0x280(%rsp)
/home/jcsalinas/Documents/pruebas/inst_estimation_module/BT/verify.f:75
  40d372:	f2 0f 10 2d 76 1e 00 00     	(move)  	movsd	0x1e76(%rip),%xmm5
  40d37a:	f2 0f 11 ac 24 88 02 00 00  	(move)  	movsd	%xmm5,0x288(%rsp)
/home/jcsalinas/Documents/pruebas/inst_estimation_module/BT/verify.f:76
  40d383:	f2 0f 10 35 6d 1e 00 00     	(move)  	movsd	0x1e6d(%rip),%xmm6
  40d38b:	f2 0f 11 b4 24 90 02 00 00  	(move)  	movsd	%xmm6,0x290(%rsp)
  40d394:	e9 d4 05 00 00              	(control)	jmp	40d96d <verify_+0x79e>	; ↲ label 732
726:	
/home/jcsalinas/Documents/pruebas/inst_estimation_module/BT/verify.f:83
  40d399:	83 f8 18                    	(arith) 	cmp	$0x18,%eax
  40d39c:	0f 85 eb 00 00 00           	(control)	jne	40d48d <verify_+0x2be>	; ↲ label 733
734:	
  40d3a2:	83 3d 43 42 20 00 18        	(arith) 	cmpl	$0x18,0x204243(%rip)
  40d3a9:	0f 85 b7 05 00 00           	(control)	jne	40d966 <verify_+0x797>	; ↲ label 728
735:	
/home/jcsalinas/Documents/pruebas/inst_estimation_module/BT/verify.f:83
  40d3af:	83 3d 3a 42 20 00 18        	(arith) 	cmpl	$0x18,0x20423a(%rip)
  40d3b6:	0f 85 aa 05 00 00           	(control)	jne	40d966 <verify_+0x797>	; ↲ label 728
736:	
/home/jcsalinas/Documents/pruebas/inst_estimation_module/BT/verify.f:86
  40d3bc:	41 81 3c 24 c8 00 00 00     	(arith) 	cmpl	$0xc8,(%r12)
  40d3c4:	0f 85 9c 05 00 00           	(control)	jne	40d966 <verify_+0x797>	; ↲ label 728
737:	
/home/jcsalinas/Documents/pruebas/inst_estimation_module/BT/verify.f:86
  40d3ca:	c6 03 57                    	(move)  	movb	$0x57,(%rbx)
/home/jcsalinas/Documents/pruebas/inst_estimation_module/BT/verify.f:87
  40d3cd:	f2 0f 10 3d 2b 1e 00 00     	(move)  	movsd	0x1e2b(%rip),%xmm7
  40d3d5:	f2 0f 11 bc 24 08 03 00 00  	(move)  	movsd	%xmm7,0x308(%rsp)
/home/jcsalinas/Documents/pruebas/inst_estimation_module/BT/verify.f:91
  40d3de:	f2 0f 10 25 22 1e 00 00     	(move)  	movsd	0x1e22(%rip),%xmm4
  40d3e6:	f2 0f 11 a4 24 e0 01 00 00  	(move)  	movsd	%xmm4,0x1e0(%rsp)
/home/jcsalinas/Documents/pruebas/inst_estimation_module/BT/verify.f:92
  40d3ef:	f2 0f 10 2d 19 1e 00 00     	(move)  	movsd	0x1e19(%rip),%xmm5
  40d3f7:	f2 0f 11 ac 24 e8 01 00 00  	(move)  	movsd	%xmm5,0x1e8(%rsp)
/home/jcsalinas/Documents/pruebas/inst_estimation_module/BT/verify.f:93
  40d400:	f2 0f 10 35 10 1e 00 00     	(move)  	movsd	0x1e10(%rip),%xmm6
  40d408:	f2 0f 11 b4 24 f0 01 00 00  	(move)  	movsd	%xmm6,0x1f0(%rsp)
/home/jcsalinas/Documents/pruebas/inst_estimation_module/BT/verify.f:94
  40d411:	f2 0f 10 3d 07 1e 00 00     	(move)  	movsd	0x1e07(%rip),%xmm7
  40d419:	f2 0f 11 bc 24 f8 01 00 00  	(move)  	movsd	%xmm7,0x1f8(%rsp)
/home/jcsalinas/Documents/pruebas/inst_estimation_module/BT/verify.f:95
  40d422:	f2 0f 10 25 fe 1d 00 00     	(move)  	movsd	0x1dfe(%rip),%xmm4
  40d42a:	f2 0f 11 a4 24 00 02 00 00  	(move)  	movsd	%xmm4,0x200(%rsp)
/home/jcsalinas/Documents/pruebas/inst_estimation_module/BT/verify.f:100
  40d433:	f2 0f 10 2d f5 1d 00 00     	(move)  	movsd	0x1df5(%rip),%xmm5
  40d43b:	f2 0f 11 ac 24 70 02 00 00  	(move)  	movsd	%xmm5,0x270(%rsp)
/home/jcsalinas/Documents/pruebas/inst_estimation_module/BT/verify.f:101
  40d444:	f2 0f 10 35 ec 1d 00 00     	(move)  	movsd	0x1dec(%rip),%xmm6
  40d44c:	f2 0f 11 b4 24 78 02 00 00  	(move)  	movsd	%xmm6,0x278(%rsp)
/home/jcsalinas/Documents/pruebas/inst_estimation_module/BT/verify.f:102
  40d455:	f2 0f 10 3d e3 1d 00 00     	(move)  	movsd	0x1de3(%rip),%xmm7
  40d45d:	f2 0f 11 bc 24 80 02 00 00  	(move)  	movsd	%xmm7,0x280(%rsp)
/home/jcsalinas/Documents/pruebas/inst_estimation_module/BT/verify.f:103
  40d466:	f2 0f 10 25 da 1d 00 00     	(move)  	movsd	0x1dda(%rip),%xmm4
  40d46e:	f2 0f 11 a4 24 88 02 00 00  	(move)  	movsd	%xmm4,0x288(%rsp)
/home/jcsalinas/Documents/pruebas/inst_estimation_module/BT/verify.f:104
  40d477:	f2 0f 10 2d d1 1d 00 00     	(move)  	movsd	0x1dd1(%rip),%xmm5
  40d47f:	f2 0f 11 ac 24 90 02 00 00  	(move)  	movsd	%xmm5,0x290(%rsp)
  40d488:	e9 e0 04 00 00              	(control)	jmp	40d96d <verify_+0x79e>	; ↲ label 732
733:	
/home/jcsalinas/Documents/pruebas/inst_estimation_module/BT/verify.f:112
  40d48d:	83 f8 40                    	(arith) 	cmp	$0x40,%eax
  40d490:	0f 85 eb 00 00 00           	(control)	jne	40d581 <verify_+0x3b2>	; ↲ label 738
739:	
  40d496:	83 3d 4f 41 20 00 40        	(arith) 	cmpl	$0x40,0x20414f(%rip)
  40d49d:	0f 85 c3 04 00 00           	(control)	jne	40d966 <verify_+0x797>	; ↲ label 728
740:	
/home/jcsalinas/Documents/pruebas/inst_estimation_module/BT/verify.f:112
  40d4a3:	83 3d 46 41 20 00 40        	(arith) 	cmpl	$0x40,0x204146(%rip)
  40d4aa:	0f 85 b6 04 00 00           	(control)	jne	40d966 <verify_+0x797>	; ↲ label 728
741:	
/home/jcsalinas/Documents/pruebas/inst_estimation_module/BT/verify.f:115
  40d4b0:	41 81 3c 24 c8 00 00 00     	(arith) 	cmpl	$0xc8,(%r12)
  40d4b8:	0f 85 a8 04 00 00           	(control)	jne	40d966 <verify_+0x797>	; ↲ label 728
742:	
/home/jcsalinas/Documents/pruebas/inst_estimation_module/BT/verify.f:115
  40d4be:	c6 03 41                    	(move)  	movb	$0x41,(%rbx)
/home/jcsalinas/Documents/pruebas/inst_estimation_module/BT/verify.f:116
  40d4c1:	f2 0f 10 35 37 1d 00 00     	(move)  	movsd	0x1d37(%rip),%xmm6
  40d4c9:	f2 0f 11 b4 24 08 03 00 00  	(move)  	movsd	%xmm6,0x308(%rsp)
/home/jcsalinas/Documents/pruebas/inst_estimation_module/BT/verify.f:120
  40d4d2:	f2 0f 10 3d 7e 1d 00 00     	(move)  	movsd	0x1d7e(%rip),%xmm7
  40d4da:	f2 0f 11 bc 24 e0 01 00 00  	(move)  	movsd	%xmm7,0x1e0(%rsp)
/home/jcsalinas/Documents/pruebas/inst_estimation_module/BT/verify.f:121
  40d4e3:	f2 0f 10 25 75 1d 00 00     	(move)  	movsd	0x1d75(%rip),%xmm4
  40d4eb:	f2 0f 11 a4 24 e8 01 00 00  	(move)  	movsd	%xmm4,0x1e8(%rsp)
/home/jcsalinas/Documents/pruebas/inst_estimation_module/BT/verify.f:122
  40d4f4:	f2 0f 10 2d 6c 1d 00 00     	(move)  	movsd	0x1d6c(%rip),%xmm5
  40d4fc:	f2 0f 11 ac 24 f0 01 00 00  	(move)  	movsd	%xmm5,0x1f0(%rsp)
/home/jcsalinas/Documents/pruebas/inst_estimation_module/BT/verify.f:123
  40d505:	f2 0f 10 35 63 1d 00 00     	(move)  	movsd	0x1d63(%rip),%xmm6
  40d50d:	f2 0f 11 b4 24 f8 01 00 00  	(move)  	movsd	%xmm6,0x1f8(%rsp)
/home/jcsalinas/Documents/pruebas/inst_estimation_module/BT/verify.f:124
  40d516:	f2 0f 10 3d 5a 1d 00 00     	(move)  	movsd	0x1d5a(%rip),%xmm7
  40d51e:	f2 0f 11 bc 24 00 02 00 00  	(move)  	movsd	%xmm7,0x200(%rsp)
/home/jcsalinas/Documents/pruebas/inst_estimation_module/BT/verify.f:129
  40d527:	f2 0f 10 25 51 1d 00 00     	(move)  	movsd	0x1d51(%rip),%xmm4
  40d52f:	f2 0f 11 a4 24 70 02 00 00  	(move)  	movsd	%xmm4,0x270(%rsp)
/home/jcsalinas/Documents/pruebas/inst_estimation_module/BT/verify.f:130
  40d538:	f2 0f 10 2d 48 1d 00 00     	(move)  	movsd	0x1d48(%rip),%xmm5
  40d540:	f2 0f 11 ac 24 78 02 00 00  	(move)  	movsd	%xmm5,0x278(%rsp)
/home/jcsalinas/Documents/pruebas/inst_estimation_module/BT/verify.f:131
  40d549:	f2 0f 10 35 3f 1d 00 00     	(move)  	movsd	0x1d3f(%rip),%xmm6
  40d551:	f2 0f 11 b4 24 80 02 00 00  	(move)  	movsd	%xmm6,0x280(%rsp)
/home/jcsalinas/Documents/pruebas/inst_estimation_module/BT/verify.f:132
  40d55a:	f2 0f 10 3d 36 1d 00 00     	(move)  	movsd	0x1d36(%rip),%xmm7
  40d562:	f2 0f 11 bc 24 88 02 00 00  	(move)  	movsd	%xmm7,0x288(%rsp)
/home/jcsalinas/Documents/pruebas/inst_estimation_module/BT/verify.f:133
  40d56b:	f2 0f 10 25 2d 1d 00 00     	(move)  	movsd	0x1d2d(%rip),%xmm4
  40d573:	f2 0f 11 a4 24 90 02 00 00  	(move)  	movsd	%xmm4,0x290(%rsp)
  40d57c:	e9 ec 03 00 00              	(control)	jmp	40d96d <verify_+0x79e>	; ↲ label 732
738:	
/home/jcsalinas/Documents/pruebas/inst_estimation_module/BT/verify.f:141
  40d581:	83 f8 66                    	(arith) 	cmp	$0x66,%eax
  40d584:	0f 85 eb 00 00 00           	(control)	jne	40d675 <verify_+0x4a6>	; ↲ label 743
744:	
  40d58a:	83 3d 5b 40 20 00 66        	(arith) 	cmpl	$0x66,0x20405b(%rip)
  40d591:	0f 85 cf 03 00 00           	(control)	jne	40d966 <verify_+0x797>	; ↲ label 728
745:	
/home/jcsalinas/Documents/pruebas/inst_estimation_module/BT/verify.f:141
  40d597:	83 3d 52 40 20 00 66        	(arith) 	cmpl	$0x66,0x204052(%rip)
  40d59e:	0f 85 c2 03 00 00           	(control)	jne	40d966 <verify_+0x797>	; ↲ label 728
746:	
/home/jcsalinas/Documents/pruebas/inst_estimation_module/BT/verify.f:144
  40d5a4:	41 81 3c 24 c8 00 00 00     	(arith) 	cmpl	$0xc8,(%r12)
  40d5ac:	0f 85 b4 03 00 00           	(control)	jne	40d966 <verify_+0x797>	; ↲ label 728
747:	
/home/jcsalinas/Documents/pruebas/inst_estimation_module/BT/verify.f:144
  40d5b2:	c6 03 42                    	(move)  	movb	$0x42,(%rbx)
/home/jcsalinas/Documents/pruebas/inst_estimation_module/BT/verify.f:145
  40d5b5:	f2 0f 10 2d 4b 18 00 00     	(move)  	movsd	0x184b(%rip),%xmm5
  40d5bd:	f2 0f 11 ac 24 08 03 00 00  	(move)  	movsd	%xmm5,0x308(%rsp)
/home/jcsalinas/Documents/pruebas/inst_estimation_module/BT/verify.f:150
  40d5c6:	f2 0f 10 35 da 1c 00 00     	(move)  	movsd	0x1cda(%rip),%xmm6
  40d5ce:	f2 0f 11 b4 24 e0 01 00 00  	(move)  	movsd	%xmm6,0x1e0(%rsp)
/home/jcsalinas/Documents/pruebas/inst_estimation_module/BT/verify.f:151
  40d5d7:	f2 0f 10 3d d1 1c 00 00     	(move)  	movsd	0x1cd1(%rip),%xmm7
  40d5df:	f2 0f 11 bc 24 e8 01 00 00  	(move)  	movsd	%xmm7,0x1e8(%rsp)
/home/jcsalinas/Documents/pruebas/inst_estimation_module/BT/verify.f:152
  40d5e8:	f2 0f 10 25 c8 1c 00 00     	(move)  	movsd	0x1cc8(%rip),%xmm4
  40d5f0:	f2 0f 11 a4 24 f0 01 00 00  	(move)  	movsd	%xmm4,0x1f0(%rsp)
/home/jcsalinas/Documents/pruebas/inst_estimation_module/BT/verify.f:153
  40d5f9:	f2 0f 10 2d bf 1c 00 00     	(move)  	movsd	0x1cbf(%rip),%xmm5
  40d601:	f2 0f 11 ac 24 f8 01 00 00  	(move)  	movsd	%xmm5,0x1f8(%rsp)
/home/jcsalinas/Documents/pruebas/inst_estimation_module/BT/verify.f:154
  40d60a:	f2 0f 10 35 b6 1c 00 00     	(move)  	movsd	0x1cb6(%rip),%xmm6
  40d612:	f2 0f 11 b4 24 00 02 00 00  	(move)  	movsd	%xmm6,0x200(%rsp)
/home/jcsalinas/Documents/pruebas/inst_estimation_module/BT/verify.f:159
  40d61b:	f2 0f 10 3d ad 1c 00 00     	(move)  	movsd	0x1cad(%rip),%xmm7
  40d623:	f2 0f 11 bc 24 70 02 00 00  	(move)  	movsd	%xmm7,0x270(%rsp)
/home/jcsalinas/Documents/pruebas/inst_estimation_module/BT/verify.f:160
  40d62c:	f2 0f 10 25 a4 1c 00 00     	(move)  	movsd	0x1ca4(%rip),%xmm4
  40d634:	f2 0f 11 a4 24 78 02 00 00  	(move)  	movsd	%xmm4,0x278(%rsp)
/home/jcsalinas/Documents/pruebas/inst_estimation_module/BT/verify.f:161
  40d63d:	f2 0f 10 2d 9b 1c 00 00     	(move)  	movsd	0x1c9b(%rip),%xmm5
  40d645:	f2 0f 11 ac 24 80 02 00 00  	(move)  	movsd	%xmm5,0x280(%rsp)
/home/jcsalinas/Documents/pruebas/inst_estimation_module/BT/verify.f:162
  40d64e:	f2 0f 10 35 92 1c 00 00     	(move)  	movsd	0x1c92(%rip),%xmm6
  40d656:	f2 0f 11 b4 24 88 02 00 00  	(move)  	movsd	%xmm6,0x288(%rsp)
/home/jcsalinas/Documents/pruebas/inst_estimation_module/BT/verify.f:163
  40d65f:	f2 0f 10 3d 89 1c 00 00     	(move)  	movsd	0x1c89(%rip),%xmm7
  40d667:	f2 0f 11 bc 24 90 02 00 00  	(move)  	movsd	%xmm7,0x290(%rsp)
  40d670:	e9 f8 02 00 00              	(control)	jmp	40d96d <verify_+0x79e>	; ↲ label 732
743:	
/home/jcsalinas/Documents/pruebas/inst_estimation_module/BT/verify.f:171
  40d675:	3d a2 00 00 00              	(arith) 	cmp	$0xa2,%eax
  40d67a:	0f 85 f1 00 00 00           	(control)	jne	40d771 <verify_+0x5a2>	; ↲ label 748
749:	
  40d680:	81 3d 62 3f 20 00 a2 00 00 00	(arith) 	cmpl	$0xa2,0x203f62(%rip)
  40d68a:	0f 85 d6 02 00 00           	(control)	jne	40d966 <verify_+0x797>	; ↲ label 728
750:	
/home/jcsalinas/Documents/pruebas/inst_estimation_module/BT/verify.f:171
  40d690:	81 3d 56 3f 20 00 a2 00 00 00	(arith) 	cmpl	$0xa2,0x203f56(%rip)
  40d69a:	0f 85 c6 02 00 00           	(control)	jne	40d966 <verify_+0x797>	; ↲ label 728
751:	
/home/jcsalinas/Documents/pruebas/inst_estimation_module/BT/verify.f:174
  40d6a0:	41 81 3c 24 c8 00 00 00     	(arith) 	cmpl	$0xc8,(%r12)
  40d6a8:	0f 85 b8 02 00 00           	(control)	jne	40d966 <verify_+0x797>	; ↲ label 728
752:	
/home/jcsalinas/Documents/pruebas/inst_estimation_module/BT/verify.f:174
  40d6ae:	c6 03 43                    	(move)  	movb	$0x43,(%rbx)
/home/jcsalinas/Documents/pruebas/inst_estimation_module/BT/verify.f:175
  40d6b1:	f2 0f 10 25 3f 1c 00 00     	(move)  	movsd	0x1c3f(%rip),%xmm4
  40d6b9:	f2 0f 11 a4 24 08 03 00 00  	(move)  	movsd	%xmm4,0x308(%rsp)
/home/jcsalinas/Documents/pruebas/inst_estimation_module/BT/verify.f:180
  40d6c2:	f2 0f 10 2d 36 1c 00 00     	(move)  	movsd	0x1c36(%rip),%xmm5
  40d6ca:	f2 0f 11 ac 24 e0 01 00 00  	(move)  	movsd	%xmm5,0x1e0(%rsp)
/home/jcsalinas/Documents/pruebas/inst_estimation_module/BT/verify.f:181
  40d6d3:	f2 0f 10 35 2d 1c 00 00     	(move)  	movsd	0x1c2d(%rip),%xmm6
  40d6db:	f2 0f 11 b4 24 e8 01 00 00  	(move)  	movsd	%xmm6,0x1e8(%rsp)
/home/jcsalinas/Documents/pruebas/inst_estimation_module/BT/verify.f:182
  40d6e4:	f2 0f 10 3d 24 1c 00 00     	(move)  	movsd	0x1c24(%rip),%xmm7
  40d6ec:	f2 0f 11 bc 24 f0 01 00 00  	(move)  	movsd	%xmm7,0x1f0(%rsp)
/home/jcsalinas/Documents/pruebas/inst_estimation_module/BT/verify.f:183
  40d6f5:	f2 0f 10 25 1b 1c 00 00     	(move)  	movsd	0x1c1b(%rip),%xmm4
  40d6fd:	f2 0f 11 a4 24 f8 01 00 00  	(move)  	movsd	%xmm4,0x1f8(%rsp)
/home/jcsalinas/Documents/pruebas/inst_estimation_module/BT/verify.f:184
  40d706:	f2 0f 10 2d 12 1c 00 00     	(move)  	movsd	0x1c12(%rip),%xmm5
  40d70e:	f2 0f 11 ac 24 00 02 00 00  	(move)  	movsd	%xmm5,0x200(%rsp)
/home/jcsalinas/Documents/pruebas/inst_estimation_module/BT/verify.f:189
  40d717:	f2 0f 10 35 09 1c 00 00     	(move)  	movsd	0x1c09(%rip),%xmm6
  40d71f:	f2 0f 11 b4 24 70 02 00 00  	(move)  	movsd	%xmm6,0x270(%rsp)
/home/jcsalinas/Documents/pruebas/inst_estimation_module/BT/verify.f:190
  40d728:	f2 0f 10 3d 00 1c 00 00     	(move)  	movsd	0x1c00(%rip),%xmm7
  40d730:	f2 0f 11 bc 24 78 02 00 00  	(move)  	movsd	%xmm7,0x278(%rsp)
/home/jcsalinas/Documents/pruebas/inst_estimation_module/BT/verify.f:191
  40d739:	f2 0f 10 25 f7 1b 00 00     	(move)  	movsd	0x1bf7(%rip),%xmm4
  40d741:	f2 0f 11 a4 24 80 02 00 00  	(move)  	movsd	%xmm4,0x280(%rsp)
/home/jcsalinas/Documents/pruebas/inst_estimation_module/BT/verify.f:192
  40d74a:	f2 0f 10 2d ee 1b 00 00     	(move)  	movsd	0x1bee(%rip),%xmm5
  40d752:	f2 0f 11 ac 24 88 02 00 00  	(move)  	movsd	%xmm5,0x288(%rsp)
/home/jcsalinas/Documents/pruebas/inst_estimation_module/BT/verify.f:193
  40d75b:	f2 0f 10 35 e5 1b 00 00     	(move)  	movsd	0x1be5(%rip),%xmm6
  40d763:	f2 0f 11 b4 24 90 02 00 00  	(move)  	movsd	%xmm6,0x290(%rsp)
  40d76c:	e9 fc 01 00 00              	(control)	jmp	40d96d <verify_+0x79e>	; ↲ label 732
748:	
/home/jcsalinas/Documents/pruebas/inst_estimation_module/BT/verify.f:201
  40d771:	3d 98 01 00 00              	(arith) 	cmp	$0x198,%eax
  40d776:	0f 85 f1 00 00 00           	(control)	jne	40d86d <verify_+0x69e>	; ↲ label 753
754:	
  40d77c:	81 3d 66 3e 20 00 98 01 00 00	(arith) 	cmpl	$0x198,0x203e66(%rip)
  40d786:	0f 85 da 01 00 00           	(control)	jne	40d966 <verify_+0x797>	; ↲ label 728
755:	
/home/jcsalinas/Documents/pruebas/inst_estimation_module/BT/verify.f:201
  40d78c:	81 3d 5a 3e 20 00 98 01 00 00	(arith) 	cmpl	$0x198,0x203e5a(%rip)
  40d796:	0f 85 ca 01 00 00           	(control)	jne	40d966 <verify_+0x797>	; ↲ label 728
756:	
/home/jcsalinas/Documents/pruebas/inst_estimation_module/BT/verify.f:204
  40d79c:	41 81 3c 24 fa 00 00 00     	(arith) 	cmpl	$0xfa,(%r12)
  40d7a4:	0f 85 bc 01 00 00           	(control)	jne	40d966 <verify_+0x797>	; ↲ label 728
757:	
/home/jcsalinas/Documents/pruebas/inst_estimation_module/BT/verify.f:204
  40d7aa:	c6 03 44                    	(move)  	movb	$0x44,(%rbx)
/home/jcsalinas/Documents/pruebas/inst_estimation_module/BT/verify.f:205
  40d7ad:	f2 0f 10 3d 9b 1b 00 00     	(move)  	movsd	0x1b9b(%rip),%xmm7
  40d7b5:	f2 0f 11 bc 24 08 03 00 00  	(move)  	movsd	%xmm7,0x308(%rsp)
/home/jcsalinas/Documents/pruebas/inst_estimation_module/BT/verify.f:210
  40d7be:	f2 0f 10 25 92 1b 00 00     	(move)  	movsd	0x1b92(%rip),%xmm4
  40d7c6:	f2 0f 11 a4 24 e0 01 00 00  	(move)  	movsd	%xmm4,0x1e0(%rsp)
/home/jcsalinas/Documents/pruebas/inst_estimation_module/BT/verify.f:211
  40d7cf:	f2 0f 10 2d 89 1b 00 00     	(move)  	movsd	0x1b89(%rip),%xmm5
  40d7d7:	f2 0f 11 ac 24 e8 01 00 00  	(move)  	movsd	%xmm5,0x1e8(%rsp)
/home/jcsalinas/Documents/pruebas/inst_estimation_module/BT/verify.f:212
  40d7e0:	f2 0f 10 35 80 1b 00 00     	(move)  	movsd	0x1b80(%rip),%xmm6
  40d7e8:	f2 0f 11 b4 24 f0 01 00 00  	(move)  	movsd	%xmm6,0x1f0(%rsp)
/home/jcsalinas/Documents/pruebas/inst_estimation_module/BT/verify.f:213
  40d7f1:	f2 0f 10 3d 77 1b 00 00     	(move)  	movsd	0x1b77(%rip),%xmm7
  40d7f9:	f2 0f 11 bc 24 f8 01 00 00  	(move)  	movsd	%xmm7,0x1f8(%rsp)
/home/jcsalinas/Documents/pruebas/inst_estimation_module/BT/verify.f:214
  40d802:	f2 0f 10 25 6e 1b 00 00     	(move)  	movsd	0x1b6e(%rip),%xmm4
  40d80a:	f2 0f 11 a4 24 00 02 00 00  	(move)  	movsd	%xmm4,0x200(%rsp)
/home/jcsalinas/Documents/pruebas/inst_estimation_module/BT/verify.f:220
  40d813:	f2 0f 10 2d 65 1b 00 00     	(move)  	movsd	0x1b65(%rip),%xmm5
  40d81b:	f2 0f 11 ac 24 70 02 00 00  	(move)  	movsd	%xmm5,0x270(%rsp)
/home/jcsalinas/Documents/pruebas/inst_estimation_module/BT/verify.f:221
  40d824:	f2 0f 10 35 5c 1b 00 00     	(move)  	movsd	0x1b5c(%rip),%xmm6
  40d82c:	f2 0f 11 b4 24 78 02 00 00  	(move)  	movsd	%xmm6,0x278(%rsp)
/home/jcsalinas/Documents/pruebas/inst_estimation_module/BT/verify.f:222
  40d835:	f2 0f 10 3d 53 1b 00 00     	(move)  	movsd	0x1b53(%rip),%xmm7
  40d83d:	f2 0f 11 bc 24 80 02 00 00  	(move)  	movsd	%xmm7,0x280(%rsp)
/home/jcsalinas/Documents/pruebas/inst_estimation_module/BT/verify.f:223
  40d846:	f2 0f 10 25 4a 1b 00 00     	(move)  	movsd	0x1b4a(%rip),%xmm4
  40d84e:	f2 0f 11 a4 24 88 02 00 00  	(move)  	movsd	%xmm4,0x288(%rsp)
/home/jcsalinas/Documents/pruebas/inst_estimation_module/BT/verify.f:224
  40d857:	f2 0f 10 2d 41 1b 00 00     	(move)  	movsd	0x1b41(%rip),%xmm5
  40d85f:	f2 0f 11 ac 24 90 02 00 00  	(move)  	movsd	%xmm5,0x290(%rsp)
  40d868:	e9 00 01 00 00              	(control)	jmp	40d96d <verify_+0x79e>	; ↲ label 732
753:	
/home/jcsalinas/Documents/pruebas/inst_estimation_module/BT/verify.f:233
  40d86d:	3d fc 03 00 00              	(arith) 	cmp	$0x3fc,%eax
  40d872:	0f 85 ee 00 00 00           	(control)	jne	40d966 <verify_+0x797>	; ↲ label 728
758:	
  40d878:	81 3d 6a 3d 20 00 fc 03 00 00	(arith) 	cmpl	$0x3fc,0x203d6a(%rip)
  40d882:	0f 85 de 00 00 00           	(control)	jne	40d966 <verify_+0x797>	; ↲ label 728
759:	
/home/jcsalinas/Documents/pruebas/inst_estimation_module/BT/verify.f:233
  40d888:	81 3d 5e 3d 20 00 fc 03 00 00	(arith) 	cmpl	$0x3fc,0x203d5e(%rip)
  40d892:	0f 85 ce 00 00 00           	(control)	jne	40d966 <verify_+0x797>	; ↲ label 728
760:	
/home/jcsalinas/Documents/pruebas/inst_estimation_module/BT/verify.f:236
  40d898:	41 81 3c 24 fa 00 00 00     	(arith) 	cmpl	$0xfa,(%r12)
  40d8a0:	0f 85 c0 00 00 00           	(control)	jne	40d966 <verify_+0x797>	; ↲ label 728
761:	
/home/jcsalinas/Documents/pruebas/inst_estimation_module/BT/verify.f:236
  40d8a6:	c6 03 45                    	(move)  	movb	$0x45,(%rbx)
/home/jcsalinas/Documents/pruebas/inst_estimation_module/BT/verify.f:237
  40d8a9:	f2 0f 10 35 f7 1a 00 00     	(move)  	movsd	0x1af7(%rip),%xmm6
  40d8b1:	f2 0f 11 b4 24 08 03 00 00  	(move)  	movsd	%xmm6,0x308(%rsp)
/home/jcsalinas/Documents/pruebas/inst_estimation_module/BT/verify.f:242
  40d8ba:	f2 0f 10 3d ee 1a 00 00     	(move)  	movsd	0x1aee(%rip),%xmm7
  40d8c2:	f2 0f 11 bc 24 e0 01 00 00  	(move)  	movsd	%xmm7,0x1e0(%rsp)
/home/jcsalinas/Documents/pruebas/inst_estimation_module/BT/verify.f:243
  40d8cb:	f2 0f 10 25 e5 1a 00 00     	(move)  	movsd	0x1ae5(%rip),%xmm4
  40d8d3:	f2 0f 11 a4 24 e8 01 00 00  	(move)  	movsd	%xmm4,0x1e8(%rsp)
/home/jcsalinas/Documents/pruebas/inst_estimation_module/BT/verify.f:244
  40d8dc:	f2 0f 10 2d dc 1a 00 00     	(move)  	movsd	0x1adc(%rip),%xmm5
  40d8e4:	f2 0f 11 ac 24 f0 01 00 00  	(move)  	movsd	%xmm5,0x1f0(%rsp)
/home/jcsalinas/Documents/pruebas/inst_estimation_module/BT/verify.f:245
  40d8ed:	f2 0f 10 35 d3 1a 00 00     	(move)  	movsd	0x1ad3(%rip),%xmm6
  40d8f5:	f2 0f 11 b4 24 f8 01 00 00  	(move)  	movsd	%xmm6,0x1f8(%rsp)
/home/jcsalinas/Documents/pruebas/inst_estimation_module/BT/verify.f:246
  40d8fe:	f2 0f 10 3d ca 1a 00 00     	(move)  	movsd	0x1aca(%rip),%xmm7
  40d906:	f2 0f 11 bc 24 00 02 00 00  	(move)  	movsd	%xmm7,0x200(%rsp)
/home/jcsalinas/Documents/pruebas/inst_estimation_module/BT/verify.f:252
  40d90f:	f2 0f 10 25 c1 1a 00 00     	(move)  	movsd	0x1ac1(%rip),%xmm4
  40d917:	f2 0f 11 a4 24 70 02 00 00  	(move)  	movsd	%xmm4,0x270(%rsp)
/home/jcsalinas/Documents/pruebas/inst_estimation_module/BT/verify.f:253
  40d920:	f2 0f 10 2d b8 1a 00 00     	(move)  	movsd	0x1ab8(%rip),%xmm5
  40d928:	f2 0f 11 ac 24 78 02 00 00  	(move)  	movsd	%xmm5,0x278(%rsp)
/home/jcsalinas/Documents/pruebas/inst_estimation_module/BT/verify.f:254
  40d931:	f2 0f 10 35 af 1a 00 00     	(move)  	movsd	0x1aaf(%rip),%xmm6
  40d939:	f2 0f 11 b4 24 80 02 00 00  	(move)  	movsd	%xmm6,0x280(%rsp)
/home/jcsalinas/Documents/pruebas/inst_estimation_module/BT/verify.f:255
  40d942:	f2 0f 10 3d a6 1a 00 00     	(move)  	movsd	0x1aa6(%rip),%xmm7
  40d94a:	f2 0f 11 bc 24 88 02 00 00  	(move)  	movsd	%xmm7,0x288(%rsp)
/home/jcsalinas/Documents/pruebas/inst_estimation_module/BT/verify.f:256
  40d953:	f2 0f 10 25 9d 1a 00 00     	(move)  	movsd	0x1a9d(%rip),%xmm4
  40d95b:	f2 0f 11 a4 24 90 02 00 00  	(move)  	movsd	%xmm4,0x290(%rsp)
  40d964:	eb 07                       	(control)	jmp	40d96d <verify_+0x79e>	; ↲ label 732
728:	
/home/jcsalinas/Documents/pruebas/inst_estimation_module/BT/verify.f:260
  40d966:	c7 45 00 00 00 00 00        	(move)  	movl	$0,(%rbp)
732:	
  40d96d:	ba 01 00 00 00              	(move)  	mov	$0x1,%edx
/home/jcsalinas/Documents/pruebas/inst_estimation_module/BT/verify.f:273
  40d972:	f2 0f 10 15 86 1a 00 00     	(move)  	movsd	0x1a86(%rip),%xmm2
; ------- Loop 170 entry
762 (loop 170):	
  40d97a:	48 63 c2                    	(move)  	movsxd	%edx,%rax
  40d97d:	48 83 e8 01                 	(arith) 	sub	$0x1,%rax
  40d981:	f2 0f 10 8c c4 e0 01 00 00  	(move)  	movsd	0x1e0(%rsp,%rax,8),%xmm1
  40d98a:	f2 0f 10 84 c4 40 02 00 00  	(move)  	movsd	0x240(%rsp,%rax,8),%xmm0
  40d993:	f2 0f 5c c1                 	(arith) 	subsd	%xmm1,%xmm0
  40d997:	f2 0f 5e c1                 	(arith) 	divsd	%xmm1,%xmm0
  40d99b:	66 0f 54 c2                 	(logic) 	andpd	%xmm2,%xmm0
  40d99f:	f2 0f 11 84 c4 10 02 00 00  	(move)  	movsd	%xmm0,0x210(%rsp,%rax,8)
/home/jcsalinas/Documents/pruebas/inst_estimation_module/BT/verify.f:274
  40d9a8:	f2 0f 10 8c c4 70 02 00 00  	(move)  	movsd	0x270(%rsp,%rax,8),%xmm1
  40d9b1:	f2 0f 10 84 c4 d0 02 00 00  	(move)  	movsd	0x2d0(%rsp,%rax,8),%xmm0
  40d9ba:	f2 0f 5c c1                 	(arith) 	subsd	%xmm1,%xmm0
  40d9be:	f2 0f 5e c1                 	(arith) 	divsd	%xmm1,%xmm0
  40d9c2:	66 0f 54 c2                 	(logic) 	andpd	%xmm2,%xmm0
  40d9c6:	f2 0f 11 84 c4 a0 02 00 00  	(move)  	movsd	%xmm0,0x2a0(%rsp,%rax,8)
  40d9cf:	83 c2 01                    	(arith) 	add	$0x1,%edx
/home/jcsalinas/Documents/pruebas/inst_estimation_module/BT/verify.f:271
  40d9d2:	83 fa 06                    	(arith) 	cmp	$0x6,%edx
  40d9d5:	75 a3                       	(control)	jne	40d97a <verify_+0x7ab>	; ↰ label 762 (loop 170)
; ------- Loop 170 exit
763:	
  40d9d7:	c7 84 24 fc 02 00 00 06 00 00 00	(move)  	movl	$0x6,0x2fc(%rsp)
/home/jcsalinas/Documents/pruebas/inst_estimation_module/BT/verify.f:282
  40d9e2:	80 3b 55                    	(arith) 	cmpb	$0x55,(%rbx)
  40d9e5:	0f 84 3b 01 00 00           	(control)	je	40db26 <verify_+0x957>	; ↲ label 764
765:	
/home/jcsalinas/Documents/pruebas/inst_estimation_module/BT/verify.f:283
  40d9eb:	48 c7 44 24 08 50 ef 40 00  	(move)  	movq	$0x40ef50,0x8(%rsp)
  40d9f4:	c7 44 24 10 1b 01 00 00     	(move)  	movl	$0x11b,0x10(%rsp)
  40d9fc:	48 c7 44 24 48 60 ef 40 00  	(move)  	movq	$0x40ef60,0x48(%rsp)
  40da05:	c7 44 24 50 2f 00 00 00     	(move)  	movl	$0x2f,0x50(%rsp)
  40da0d:	c7 04 24 00 10 00 00        	(move)  	movl	$0x1000,(%rsp)
  40da14:	c7 44 24 04 06 00 00 00     	(move)  	movl	$0x6,0x4(%rsp)
  40da1c:	48 89 e7                    	(move)  	mov	%rsp,%rdi
  40da1f:	e8 6c 30 ff ff              	(control)	call	400a90 <_gfortran_st_write@plt>	; ⇄ _gfortran_st_write
766:	
  40da24:	ba 01 00 00 00              	(move)  	mov	$0x1,%edx
  40da29:	48 89 de                    	(move)  	mov	%rbx,%rsi
  40da2c:	48 89 e7                    	(move)  	mov	%rsp,%rdi
  40da2f:	e8 8c 2f ff ff              	(control)	call	4009c0 <_gfortran_transfer_character_write@plt>	; ⇄ _gfortran_transfer_character_write
767:	
  40da34:	48 89 e7                    	(move)  	mov	%rsp,%rdi
  40da37:	e8 a4 2f ff ff              	(control)	call	4009e0 <_gfortran_st_write_done@plt>	; ⇄ _gfortran_st_write_done
768:	
/home/jcsalinas/Documents/pruebas/inst_estimation_module/BT/verify.f:285
  40da3c:	48 c7 44 24 08 50 ef 40 00  	(move)  	movq	$0x40ef50,0x8(%rsp)
  40da45:	c7 44 24 10 1d 01 00 00     	(move)  	movl	$0x11d,0x10(%rsp)
  40da4d:	48 c7 44 24 48 90 ef 40 00  	(move)  	movq	$0x40ef90,0x48(%rsp)
  40da56:	c7 44 24 50 2c 00 00 00     	(move)  	movl	$0x2c,0x50(%rsp)
  40da5e:	c7 04 24 00 10 00 00        	(move)  	movl	$0x1000,(%rsp)
  40da65:	c7 44 24 04 06 00 00 00     	(move)  	movl	$0x6,0x4(%rsp)
  40da6d:	48 89 e7                    	(move)  	mov	%rsp,%rdi
  40da70:	e8 1b 30 ff ff              	(control)	call	400a90 <_gfortran_st_write@plt>	; ⇄ _gfortran_st_write
769:	
  40da75:	ba 08 00 00 00              	(move)  	mov	$0x8,%edx
  40da7a:	48 8d b4 24 00 03 00 00     	(arith) 	lea	0x300(%rsp),%rsi
  40da82:	48 89 e7                    	(move)  	mov	%rsp,%rdi
  40da85:	e8 e6 2f ff ff              	(control)	call	400a70 <_gfortran_transfer_real_write@plt>	; ⇄ _gfortran_transfer_real_write
770:	
  40da8a:	48 89 e7                    	(move)  	mov	%rsp,%rdi
  40da8d:	e8 4e 2f ff ff              	(control)	call	4009e0 <_gfortran_st_write_done@plt>	; ⇄ _gfortran_st_write_done
771:	
/home/jcsalinas/Documents/pruebas/inst_estimation_module/BT/verify.f:287
  40da92:	f2 0f 10 05 0e 37 20 00     	(move)  	movsd	0x20370e(%rip),%xmm0
  40da9a:	f2 0f 5c 84 24 08 03 00 00  	(arith) 	subsd	0x308(%rsp),%xmm0
  40daa3:	f2 0f 10 0d 55 19 00 00     	(move)  	movsd	0x1955(%rip),%xmm1
  40daab:	66 0f 54 c1                 	(logic) 	andpd	%xmm1,%xmm0
  40daaf:	f2 0f 10 8c 24 00 03 00 00  	(move)  	movsd	0x300(%rsp),%xmm1
  40dab8:	66 0f 2e c8                 	(arith) 	ucomisd	%xmm0,%xmm1
  40dabc:	0f 93 c0                    	(move)  	setae	%al
  40dabf:	0f b6 c0                    	(move)  	movzx	%al,%eax
  40dac2:	89 45 00                    	(move)  	mov	%eax,(%rbp)
/home/jcsalinas/Documents/pruebas/inst_estimation_module/BT/verify.f:288
  40dac5:	0f 83 9c 00 00 00           	(control)	jae	40db67 <verify_+0x998>	; ↲ label 772
773:	
/home/jcsalinas/Documents/pruebas/inst_estimation_module/BT/verify.f:289
  40dacb:	c6 03 55                    	(move)  	movb	$0x55,(%rbx)
/home/jcsalinas/Documents/pruebas/inst_estimation_module/BT/verify.f:290
  40dace:	48 c7 44 24 08 50 ef 40 00  	(move)  	movq	$0x40ef50,0x8(%rsp)
  40dad7:	c7 44 24 10 22 01 00 00     	(move)  	movl	$0x122,0x10(%rsp)
  40dadf:	48 c7 44 24 48 c0 ef 40 00  	(move)  	movq	$0x40efc0,0x48(%rsp)
  40dae8:	c7 44 24 50 4b 00 00 00     	(move)  	movl	$0x4b,0x50(%rsp)
  40daf0:	c7 04 24 00 10 00 00        	(move)  	movl	$0x1000,(%rsp)
  40daf7:	c7 44 24 04 06 00 00 00     	(move)  	movl	$0x6,0x4(%rsp)
  40daff:	48 89 e7                    	(move)  	mov	%rsp,%rdi
  40db02:	e8 89 2f ff ff              	(control)	call	400a90 <_gfortran_st_write@plt>	; ⇄ _gfortran_st_write
774:	
  40db07:	ba 08 00 00 00              	(move)  	mov	$0x8,%edx
  40db0c:	48 8d b4 24 08 03 00 00     	(arith) 	lea	0x308(%rsp),%rsi
  40db14:	48 89 e7                    	(move)  	mov	%rsp,%rdi
  40db17:	e8 54 2f ff ff              	(control)	call	400a70 <_gfortran_transfer_real_write@plt>	; ⇄ _gfortran_transfer_real_write
775:	
  40db1c:	48 89 e7                    	(move)  	mov	%rsp,%rdi
  40db1f:	e8 bc 2e ff ff              	(control)	call	4009e0 <_gfortran_st_write_done@plt>	; ⇄ _gfortran_st_write_done
776:	
  40db24:	eb 41                       	(control)	jmp	40db67 <verify_+0x998>	; ↲ label 772
764:	
/home/jcsalinas/Documents/pruebas/inst_estimation_module/BT/verify.f:295
  40db26:	48 c7 44 24 08 50 ef 40 00  	(move)  	movq	$0x40ef50,0x8(%rsp)
  40db2f:	c7 44 24 10 27 01 00 00     	(move)  	movl	$0x127,0x10(%rsp)
  40db37:	48 c7 44 24 48 0b f0 40 00  	(move)  	movq	$0x40f00b,0x48(%rsp)
  40db40:	c7 44 24 50 12 00 00 00     	(move)  	movl	$0x12,0x50(%rsp)
  40db48:	c7 04 24 00 10 00 00        	(move)  	movl	$0x1000,(%rsp)
  40db4f:	c7 44 24 04 06 00 00 00     	(move)  	movl	$0x6,0x4(%rsp)
  40db57:	48 89 e7                    	(move)  	mov	%rsp,%rdi
  40db5a:	e8 31 2f ff ff              	(control)	call	400a90 <_gfortran_st_write@plt>	; ⇄ _gfortran_st_write
777:	
  40db5f:	48 89 e7                    	(move)  	mov	%rsp,%rdi
  40db62:	e8 79 2e ff ff              	(control)	call	4009e0 <_gfortran_st_write_done@plt>	; ⇄ _gfortran_st_write_done
772:	
/home/jcsalinas/Documents/pruebas/inst_estimation_module/BT/verify.f:300
  40db67:	80 3b 55                    	(arith) 	cmpb	$0x55,(%rbx)
  40db6a:	74 43                       	(control)	je	40dbaf <verify_+0x9e0>	; ↲ label 778
779:	
/home/jcsalinas/Documents/pruebas/inst_estimation_module/BT/verify.f:301
  40db6c:	48 c7 44 24 08 50 ef 40 00  	(move)  	movq	$0x40ef50,0x8(%rsp)
  40db75:	c7 44 24 10 2d 01 00 00     	(move)  	movl	$0x12d,0x10(%rsp)
  40db7d:	48 c7 44 24 48 20 f0 40 00  	(move)  	movq	$0x40f020,0x48(%rsp)
  40db86:	c7 44 24 50 28 00 00 00     	(move)  	movl	$0x28,0x50(%rsp)
  40db8e:	c7 04 24 00 10 00 00        	(move)  	movl	$0x1000,(%rsp)
  40db95:	c7 44 24 04 06 00 00 00     	(move)  	movl	$0x6,0x4(%rsp)
  40db9d:	48 89 e7                    	(move)  	mov	%rsp,%rdi
  40dba0:	e8 eb 2e ff ff              	(control)	call	400a90 <_gfortran_st_write@plt>	; ⇄ _gfortran_st_write
780:	
  40dba5:	48 89 e7                    	(move)  	mov	%rsp,%rdi
  40dba8:	e8 33 2e ff ff              	(control)	call	4009e0 <_gfortran_st_write_done@plt>	; ⇄ _gfortran_st_write_done
781:	
  40dbad:	eb 41                       	(control)	jmp	40dbf0 <verify_+0xa21>	; ↲ label 782
778:	
/home/jcsalinas/Documents/pruebas/inst_estimation_module/BT/verify.f:303
  40dbaf:	48 c7 44 24 08 50 ef 40 00  	(move)  	movq	$0x40ef50,0x8(%rsp)
  40dbb8:	c7 44 24 10 2f 01 00 00     	(move)  	movl	$0x12f,0x10(%rsp)
  40dbc0:	48 c7 44 24 48 48 f0 40 00  	(move)  	movq	$0x40f048,0x48(%rsp)
  40dbc9:	c7 44 24 50 1a 00 00 00     	(move)  	movl	$0x1a,0x50(%rsp)
  40dbd1:	c7 04 24 00 10 00 00        	(move)  	movl	$0x1000,(%rsp)
  40dbd8:	c7 44 24 04 06 00 00 00     	(move)  	movl	$0x6,0x4(%rsp)
  40dbe0:	48 89 e7                    	(move)  	mov	%rsp,%rdi
  40dbe3:	e8 a8 2e ff ff              	(control)	call	400a90 <_gfortran_st_write@plt>	; ⇄ _gfortran_st_write
783:	
  40dbe8:	48 89 e7                    	(move)  	mov	%rsp,%rdi
  40dbeb:	e8 f0 2d ff ff              	(control)	call	4009e0 <_gfortran_st_write_done@plt>	; ⇄ _gfortran_st_write_done
782:	
/home/jcsalinas/Documents/pruebas/inst_estimation_module/BT/verify.f:308
  40dbf0:	c7 84 24 fc 02 00 00 01 00 00 00	(move)  	movl	$0x1,0x2fc(%rsp)
; ------- Loop 171 entry
784 (loop 171):	
/home/jcsalinas/Documents/pruebas/inst_estimation_module/BT/verify.f:309
  40dbfb:	80 3b 55                    	(arith) 	cmpb	$0x55,(%rbx)
  40dbfe:	75 78                       	(control)	jne	40dc78 <verify_+0xaa9>	; ↲ label 785
786:	
/home/jcsalinas/Documents/pruebas/inst_estimation_module/BT/verify.f:310
  40dc00:	48 c7 44 24 08 50 ef 40 00  	(move)  	movq	$0x40ef50,0x8(%rsp)
  40dc09:	c7 44 24 10 36 01 00 00     	(move)  	movl	$0x136,0x10(%rsp)
  40dc11:	48 c7 44 24 48 62 f0 40 00  	(move)  	movq	$0x40f062,0x48(%rsp)
  40dc1a:	c7 44 24 50 1a 00 00 00     	(move)  	movl	$0x1a,0x50(%rsp)
  40dc22:	c7 04 24 00 10 00 00        	(move)  	movl	$0x1000,(%rsp)
  40dc29:	c7 44 24 04 06 00 00 00     	(move)  	movl	$0x6,0x4(%rsp)
  40dc31:	48 89 e7                    	(move)  	mov	%rsp,%rdi
  40dc34:	e8 57 2e ff ff              	(control)	call	400a90 <_gfortran_st_write@plt>	; ⇄ _gfortran_st_write
787:	
  40dc39:	ba 04 00 00 00              	(move)  	mov	$0x4,%edx
  40dc3e:	48 8d b4 24 fc 02 00 00     	(arith) 	lea	0x2fc(%rsp),%rsi
  40dc46:	48 89 e7                    	(move)  	mov	%rsp,%rdi
  40dc49:	e8 32 2e ff ff              	(control)	call	400a80 <_gfortran_transfer_integer_write@plt>	; ⇄ _gfortran_transfer_integer_write
788:	
  40dc4e:	48 63 84 24 fc 02 00 00     	(move)  	movsxd	0x2fc(%rsp),%rax
  40dc56:	48 8d b4 c4 38 02 00 00     	(arith) 	lea	0x238(%rsp,%rax,8),%rsi
  40dc5e:	ba 08 00 00 00              	(move)  	mov	$0x8,%edx
  40dc63:	48 89 e7                    	(move)  	mov	%rsp,%rdi
  40dc66:	e8 05 2e ff ff              	(control)	call	400a70 <_gfortran_transfer_real_write@plt>	; ⇄ _gfortran_transfer_real_write
789:	
  40dc6b:	48 89 e7                    	(move)  	mov	%rsp,%rdi
  40dc6e:	e8 6d 2d ff ff              	(control)	call	4009e0 <_gfortran_st_write_done@plt>	; ⇄ _gfortran_st_write_done
790:	
  40dc73:	e9 73 01 00 00              	(control)	jmp	40ddeb <verify_+0xc1c>	; ↲ label 791
785:	
/home/jcsalinas/Documents/pruebas/inst_estimation_module/BT/verify.f:311
  40dc78:	4c 63 a4 24 fc 02 00 00     	(move)  	movsxd	0x2fc(%rsp),%r12
  40dc80:	49 83 ec 01                 	(arith) 	sub	$0x1,%r12
  40dc84:	f2 0f 10 84 24 00 03 00 00  	(move)  	movsd	0x300(%rsp),%xmm0
  40dc8d:	66 42 0f 2e 84 e4 10 02 00 00	(arith) 	ucomisd	0x210(%rsp,%r12,8),%xmm0
  40dc97:	0f 82 a6 00 00 00           	(control)	jb	40dd43 <verify_+0xb74>	; ↲ label 792
793:	
/home/jcsalinas/Documents/pruebas/inst_estimation_module/BT/verify.f:312
  40dc9d:	48 c7 44 24 08 50 ef 40 00  	(move)  	movq	$0x40ef50,0x8(%rsp)
  40dca6:	c7 44 24 10 38 01 00 00     	(move)  	movl	$0x138,0x10(%rsp)
  40dcae:	48 c7 44 24 48 80 f0 40 00  	(move)  	movq	$0x40f080,0x48(%rsp)
  40dcb7:	c7 44 24 50 2a 00 00 00     	(move)  	movl	$0x2a,0x50(%rsp)
  40dcbf:	c7 04 24 00 10 00 00        	(move)  	movl	$0x1000,(%rsp)
  40dcc6:	c7 44 24 04 06 00 00 00     	(move)  	movl	$0x6,0x4(%rsp)
  40dcce:	48 89 e7                    	(move)  	mov	%rsp,%rdi
  40dcd1:	e8 ba 2d ff ff              	(control)	call	400a90 <_gfortran_st_write@plt>	; ⇄ _gfortran_st_write
794:	
  40dcd6:	ba 04 00 00 00              	(move)  	mov	$0x4,%edx
  40dcdb:	48 8d b4 24 fc 02 00 00     	(arith) 	lea	0x2fc(%rsp),%rsi
  40dce3:	48 89 e7                    	(move)  	mov	%rsp,%rdi
  40dce6:	e8 95 2d ff ff              	(control)	call	400a80 <_gfortran_transfer_integer_write@plt>	; ⇄ _gfortran_transfer_integer_write
795:	
  40dceb:	49 c1 e4 03                 	(logic) 	sal	$0x3,%r12
  40dcef:	48 8d 84 24 40 02 00 00     	(arith) 	lea	0x240(%rsp),%rax
  40dcf7:	4a 8d 34 20                 	(arith) 	lea	(%rax,%r12,1),%rsi
  40dcfb:	ba 08 00 00 00              	(move)  	mov	$0x8,%edx
  40dd00:	48 89 e7                    	(move)  	mov	%rsp,%rdi
  40dd03:	e8 68 2d ff ff              	(control)	call	400a70 <_gfortran_transfer_real_write@plt>	; ⇄ _gfortran_transfer_real_write
796:	
  40dd08:	48 8d 84 24 e0 01 00 00     	(arith) 	lea	0x1e0(%rsp),%rax
  40dd10:	4a 8d 34 20                 	(arith) 	lea	(%rax,%r12,1),%rsi
  40dd14:	ba 08 00 00 00              	(move)  	mov	$0x8,%edx
  40dd19:	48 89 e7                    	(move)  	mov	%rsp,%rdi
  40dd1c:	e8 4f 2d ff ff              	(control)	call	400a70 <_gfortran_transfer_real_write@plt>	; ⇄ _gfortran_transfer_real_write
797:	
  40dd21:	4a 8d b4 24 10 02 00 00     	(arith) 	lea	0x210(%rsp,%r12,1),%rsi
  40dd29:	ba 08 00 00 00              	(move)  	mov	$0x8,%edx
  40dd2e:	48 89 e7                    	(move)  	mov	%rsp,%rdi
  40dd31:	e8 3a 2d ff ff              	(control)	call	400a70 <_gfortran_transfer_real_write@plt>	; ⇄ _gfortran_transfer_real_write
798:	
  40dd36:	48 89 e7                    	(move)  	mov	%rsp,%rdi
  40dd39:	e8 a2 2c ff ff              	(control)	call	4009e0 <_gfortran_st_write_done@plt>	; ⇄ _gfortran_st_write_done
799:	
  40dd3e:	e9 a8 00 00 00              	(control)	jmp	40ddeb <verify_+0xc1c>	; ↲ label 791
792:	
/home/jcsalinas/Documents/pruebas/inst_estimation_module/BT/verify.f:314
  40dd43:	c7 45 00 00 00 00 00        	(move)  	movl	$0,(%rbp)
/home/jcsalinas/Documents/pruebas/inst_estimation_module/BT/verify.f:315
  40dd4a:	48 c7 44 24 08 50 ef 40 00  	(move)  	movq	$0x40ef50,0x8(%rsp)
  40dd53:	c7 44 24 10 3b 01 00 00     	(move)  	movl	$0x13b,0x10(%rsp)
  40dd5b:	48 c7 44 24 48 b0 f0 40 00  	(move)  	movq	$0x40f0b0,0x48(%rsp)
  40dd64:	c7 44 24 50 2a 00 00 00     	(move)  	movl	$0x2a,0x50(%rsp)
  40dd6c:	c7 04 24 00 10 00 00        	(move)  	movl	$0x1000,(%rsp)
  40dd73:	c7 44 24 04 06 00 00 00     	(move)  	movl	$0x6,0x4(%rsp)
  40dd7b:	48 89 e7                    	(move)  	mov	%rsp,%rdi
  40dd7e:	e8 0d 2d ff ff              	(control)	call	400a90 <_gfortran_st_write@plt>	; ⇄ _gfortran_st_write
800:	
  40dd83:	ba 04 00 00 00              	(move)  	mov	$0x4,%edx
  40dd88:	48 8d b4 24 fc 02 00 00     	(arith) 	lea	0x2fc(%rsp),%rsi
  40dd90:	48 89 e7                    	(move)  	mov	%rsp,%rdi
  40dd93:	e8 e8 2c ff ff              	(control)	call	400a80 <_gfortran_transfer_integer_write@plt>	; ⇄ _gfortran_transfer_integer_write
801:	
  40dd98:	49 c1 e4 03                 	(logic) 	sal	$0x3,%r12
  40dd9c:	48 8d 84 24 40 02 00 00     	(arith) 	lea	0x240(%rsp),%rax
  40dda4:	4a 8d 34 20                 	(arith) 	lea	(%rax,%r12,1),%rsi
  40dda8:	ba 08 00 00 00              	(move)  	mov	$0x8,%edx
  40ddad:	48 89 e7                    	(move)  	mov	%rsp,%rdi
  40ddb0:	e8 bb 2c ff ff              	(control)	call	400a70 <_gfortran_transfer_real_write@plt>	; ⇄ _gfortran_transfer_real_write
802:	
  40ddb5:	48 8d 84 24 e0 01 00 00     	(arith) 	lea	0x1e0(%rsp),%rax
  40ddbd:	4a 8d 34 20                 	(arith) 	lea	(%rax,%r12,1),%rsi
  40ddc1:	ba 08 00 00 00              	(move)  	mov	$0x8,%edx
  40ddc6:	48 89 e7                    	(move)  	mov	%rsp,%rdi
  40ddc9:	e8 a2 2c ff ff              	(control)	call	400a70 <_gfortran_transfer_real_write@plt>	; ⇄ _gfortran_transfer_real_write
803:	
  40ddce:	4a 8d b4 24 10 02 00 00     	(arith) 	lea	0x210(%rsp,%r12,1),%rsi
  40ddd6:	ba 08 00 00 00              	(move)  	mov	$0x8,%edx
  40dddb:	48 89 e7                    	(move)  	mov	%rsp,%rdi
  40ddde:	e8 8d 2c ff ff              	(control)	call	400a70 <_gfortran_transfer_real_write@plt>	; ⇄ _gfortran_transfer_real_write
804:	
  40dde3:	48 89 e7                    	(move)  	mov	%rsp,%rdi
  40dde6:	e8 f5 2b ff ff              	(control)	call	4009e0 <_gfortran_st_write_done@plt>	; ⇄ _gfortran_st_write_done
791:	
/home/jcsalinas/Documents/pruebas/inst_estimation_module/BT/verify.f:308
  40ddeb:	8b 84 24 fc 02 00 00        	(move)  	mov	0x2fc(%rsp),%eax
  40ddf2:	8d 50 01                    	(arith) 	lea	0x1(%rax),%edx
  40ddf5:	89 94 24 fc 02 00 00        	(move)  	mov	%edx,0x2fc(%rsp)
  40ddfc:	83 f8 05                    	(arith) 	cmp	$0x5,%eax
  40ddff:	0f 85 f6 fd ff ff           	(control)	jne	40dbfb <verify_+0xa2c>	; ↰ label 784 (loop 171)
; ------- Loop 171 exit
805:	
/home/jcsalinas/Documents/pruebas/inst_estimation_module/BT/verify.f:319
  40de05:	80 3b 55                    	(arith) 	cmpb	$0x55,(%rbx)
  40de08:	74 43                       	(control)	je	40de4d <verify_+0xc7e>	; ↲ label 806
807:	
/home/jcsalinas/Documents/pruebas/inst_estimation_module/BT/verify.f:320
  40de0a:	48 c7 44 24 08 50 ef 40 00  	(move)  	movq	$0x40ef50,0x8(%rsp)
  40de13:	c7 44 24 10 40 01 00 00     	(move)  	movl	$0x140,0x10(%rsp)
  40de1b:	48 c7 44 24 48 e0 f0 40 00  	(move)  	movq	$0x40f0e0,0x48(%rsp)
  40de24:	c7 44 24 50 2e 00 00 00     	(move)  	movl	$0x2e,0x50(%rsp)
  40de2c:	c7 04 24 00 10 00 00        	(move)  	movl	$0x1000,(%rsp)
  40de33:	c7 44 24 04 06 00 00 00     	(move)  	movl	$0x6,0x4(%rsp)
  40de3b:	48 89 e7                    	(move)  	mov	%rsp,%rdi
  40de3e:	e8 4d 2c ff ff              	(control)	call	400a90 <_gfortran_st_write@plt>	; ⇄ _gfortran_st_write
808:	
  40de43:	48 89 e7                    	(move)  	mov	%rsp,%rdi
  40de46:	e8 95 2b ff ff              	(control)	call	4009e0 <_gfortran_st_write_done@plt>	; ⇄ _gfortran_st_write_done
809:	
  40de4b:	eb 41                       	(control)	jmp	40de8e <verify_+0xcbf>	; ↲ label 810
806:	
/home/jcsalinas/Documents/pruebas/inst_estimation_module/BT/verify.f:322
  40de4d:	48 c7 44 24 08 50 ef 40 00  	(move)  	movq	$0x40ef50,0x8(%rsp)
  40de56:	c7 44 24 10 42 01 00 00     	(move)  	movl	$0x142,0x10(%rsp)
  40de5e:	48 c7 44 24 48 10 f1 40 00  	(move)  	movq	$0x40f110,0x48(%rsp)
  40de67:	c7 44 24 50 20 00 00 00     	(move)  	movl	$0x20,0x50(%rsp)
  40de6f:	c7 04 24 00 10 00 00        	(move)  	movl	$0x1000,(%rsp)
  40de76:	c7 44 24 04 06 00 00 00     	(move)  	movl	$0x6,0x4(%rsp)
  40de7e:	48 89 e7                    	(move)  	mov	%rsp,%rdi
  40de81:	e8 0a 2c ff ff              	(control)	call	400a90 <_gfortran_st_write@plt>	; ⇄ _gfortran_st_write
811:	
  40de86:	48 89 e7                    	(move)  	mov	%rsp,%rdi
  40de89:	e8 52 2b ff ff              	(control)	call	4009e0 <_gfortran_st_write_done@plt>	; ⇄ _gfortran_st_write_done
810:	
/home/jcsalinas/Documents/pruebas/inst_estimation_module/BT/verify.f:327
  40de8e:	c7 84 24 fc 02 00 00 01 00 00 00	(move)  	movl	$0x1,0x2fc(%rsp)
; ------- Loop 172 entry
812 (loop 172):	
/home/jcsalinas/Documents/pruebas/inst_estimation_module/BT/verify.f:328
  40de99:	80 3b 55                    	(arith) 	cmpb	$0x55,(%rbx)
  40de9c:	75 78                       	(control)	jne	40df16 <verify_+0xd47>	; ↲ label 813
814:	
/home/jcsalinas/Documents/pruebas/inst_estimation_module/BT/verify.f:329
  40de9e:	48 c7 44 24 08 50 ef 40 00  	(move)  	movq	$0x40ef50,0x8(%rsp)
  40dea7:	c7 44 24 10 49 01 00 00     	(move)  	movl	$0x149,0x10(%rsp)
  40deaf:	48 c7 44 24 48 62 f0 40 00  	(move)  	movq	$0x40f062,0x48(%rsp)
  40deb8:	c7 44 24 50 1a 00 00 00     	(move)  	movl	$0x1a,0x50(%rsp)
  40dec0:	c7 04 24 00 10 00 00        	(move)  	movl	$0x1000,(%rsp)
  40dec7:	c7 44 24 04 06 00 00 00     	(move)  	movl	$0x6,0x4(%rsp)
  40decf:	48 89 e7                    	(move)  	mov	%rsp,%rdi
  40ded2:	e8 b9 2b ff ff              	(control)	call	400a90 <_gfortran_st_write@plt>	; ⇄ _gfortran_st_write
815:	
  40ded7:	ba 04 00 00 00              	(move)  	mov	$0x4,%edx
  40dedc:	48 8d b4 24 fc 02 00 00     	(arith) 	lea	0x2fc(%rsp),%rsi
  40dee4:	48 89 e7                    	(move)  	mov	%rsp,%rdi
  40dee7:	e8 94 2b ff ff              	(control)	call	400a80 <_gfortran_transfer_integer_write@plt>	; ⇄ _gfortran_transfer_integer_write
816:	
  40deec:	48 63 84 24 fc 02 00 00     	(move)  	movsxd	0x2fc(%rsp),%rax
  40def4:	48 8d b4 c4 c8 02 00 00     	(arith) 	lea	0x2c8(%rsp,%rax,8),%rsi
  40defc:	ba 08 00 00 00              	(move)  	mov	$0x8,%edx
  40df01:	48 89 e7                    	(move)  	mov	%rsp,%rdi
  40df04:	e8 67 2b ff ff              	(control)	call	400a70 <_gfortran_transfer_real_write@plt>	; ⇄ _gfortran_transfer_real_write
817:	
  40df09:	48 89 e7                    	(move)  	mov	%rsp,%rdi
  40df0c:	e8 cf 2a ff ff              	(control)	call	4009e0 <_gfortran_st_write_done@plt>	; ⇄ _gfortran_st_write_done
818:	
  40df11:	e9 73 01 00 00              	(control)	jmp	40e089 <verify_+0xeba>	; ↲ label 819
813:	
/home/jcsalinas/Documents/pruebas/inst_estimation_module/BT/verify.f:330
  40df16:	4c 63 a4 24 fc 02 00 00     	(move)  	movsxd	0x2fc(%rsp),%r12
  40df1e:	49 83 ec 01                 	(arith) 	sub	$0x1,%r12
  40df22:	f2 0f 10 84 24 00 03 00 00  	(move)  	movsd	0x300(%rsp),%xmm0
  40df2b:	66 42 0f 2e 84 e4 a0 02 00 00	(arith) 	ucomisd	0x2a0(%rsp,%r12,8),%xmm0
  40df35:	0f 82 a6 00 00 00           	(control)	jb	40dfe1 <verify_+0xe12>	; ↲ label 820
821:	
/home/jcsalinas/Documents/pruebas/inst_estimation_module/BT/verify.f:331
  40df3b:	48 c7 44 24 08 50 ef 40 00  	(move)  	movq	$0x40ef50,0x8(%rsp)
  40df44:	c7 44 24 10 4b 01 00 00     	(move)  	movl	$0x14b,0x10(%rsp)
  40df4c:	48 c7 44 24 48 80 f0 40 00  	(move)  	movq	$0x40f080,0x48(%rsp)
  40df55:	c7 44 24 50 2a 00 00 00     	(move)  	movl	$0x2a,0x50(%rsp)
  40df5d:	c7 04 24 00 10 00 00        	(move)  	movl	$0x1000,(%rsp)
  40df64:	c7 44 24 04 06 00 00 00     	(move)  	movl	$0x6,0x4(%rsp)
  40df6c:	48 89 e7                    	(move)  	mov	%rsp,%rdi
  40df6f:	e8 1c 2b ff ff              	(control)	call	400a90 <_gfortran_st_write@plt>	; ⇄ _gfortran_st_write
822:	
  40df74:	ba 04 00 00 00              	(move)  	mov	$0x4,%edx
  40df79:	48 8d b4 24 fc 02 00 00     	(arith) 	lea	0x2fc(%rsp),%rsi
  40df81:	48 89 e7                    	(move)  	mov	%rsp,%rdi
  40df84:	e8 f7 2a ff ff              	(control)	call	400a80 <_gfortran_transfer_integer_write@plt>	; ⇄ _gfortran_transfer_integer_write
823:	
  40df89:	49 c1 e4 03                 	(logic) 	sal	$0x3,%r12
  40df8d:	48 8d 84 24 d0 02 00 00     	(arith) 	lea	0x2d0(%rsp),%rax
  40df95:	4a 8d 34 20                 	(arith) 	lea	(%rax,%r12,1),%rsi
  40df99:	ba 08 00 00 00              	(move)  	mov	$0x8,%edx
  40df9e:	48 89 e7                    	(move)  	mov	%rsp,%rdi
  40dfa1:	e8 ca 2a ff ff              	(control)	call	400a70 <_gfortran_transfer_real_write@plt>	; ⇄ _gfortran_transfer_real_write
824:	
  40dfa6:	48 8d 84 24 70 02 00 00     	(arith) 	lea	0x270(%rsp),%rax
  40dfae:	4a 8d 34 20                 	(arith) 	lea	(%rax,%r12,1),%rsi
  40dfb2:	ba 08 00 00 00              	(move)  	mov	$0x8,%edx
  40dfb7:	48 89 e7                    	(move)  	mov	%rsp,%rdi
  40dfba:	e8 b1 2a ff ff              	(control)	call	400a70 <_gfortran_transfer_real_write@plt>	; ⇄ _gfortran_transfer_real_write
825:	
  40dfbf:	4a 8d b4 24 a0 02 00 00     	(arith) 	lea	0x2a0(%rsp,%r12,1),%rsi
  40dfc7:	ba 08 00 00 00              	(move)  	mov	$0x8,%edx
  40dfcc:	48 89 e7                    	(move)  	mov	%rsp,%rdi
  40dfcf:	e8 9c 2a ff ff              	(control)	call	400a70 <_gfortran_transfer_real_write@plt>	; ⇄ _gfortran_transfer_real_write
826:	
  40dfd4:	48 89 e7                    	(move)  	mov	%rsp,%rdi
  40dfd7:	e8 04 2a ff ff              	(control)	call	4009e0 <_gfortran_st_write_done@plt>	; ⇄ _gfortran_st_write_done
827:	
  40dfdc:	e9 a8 00 00 00              	(control)	jmp	40e089 <verify_+0xeba>	; ↲ label 819
820:	
/home/jcsalinas/Documents/pruebas/inst_estimation_module/BT/verify.f:333
  40dfe1:	c7 45 00 00 00 00 00        	(move)  	movl	$0,(%rbp)
/home/jcsalinas/Documents/pruebas/inst_estimation_module/BT/verify.f:334
  40dfe8:	48 c7 44 24 08 50 ef 40 00  	(move)  	movq	$0x40ef50,0x8(%rsp)
  40dff1:	c7 44 24 10 4e 01 00 00     	(move)  	movl	$0x14e,0x10(%rsp)
  40dff9:	48 c7 44 24 48 b0 f0 40 00  	(move)  	movq	$0x40f0b0,0x48(%rsp)
  40e002:	c7 44 24 50 2a 00 00 00     	(move)  	movl	$0x2a,0x50(%rsp)
  40e00a:	c7 04 24 00 10 00 00        	(move)  	movl	$0x1000,(%rsp)
  40e011:	c7 44 24 04 06 00 00 00     	(move)  	movl	$0x6,0x4(%rsp)
  40e019:	48 89 e7                    	(move)  	mov	%rsp,%rdi
  40e01c:	e8 6f 2a ff ff              	(control)	call	400a90 <_gfortran_st_write@plt>	; ⇄ _gfortran_st_write
828:	
  40e021:	ba 04 00 00 00              	(move)  	mov	$0x4,%edx
  40e026:	48 8d b4 24 fc 02 00 00     	(arith) 	lea	0x2fc(%rsp),%rsi
  40e02e:	48 89 e7                    	(move)  	mov	%rsp,%rdi
  40e031:	e8 4a 2a ff ff              	(control)	call	400a80 <_gfortran_transfer_integer_write@plt>	; ⇄ _gfortran_transfer_integer_write
829:	
  40e036:	49 c1 e4 03                 	(logic) 	sal	$0x3,%r12
  40e03a:	48 8d 84 24 d0 02 00 00     	(arith) 	lea	0x2d0(%rsp),%rax
  40e042:	4a 8d 34 20                 	(arith) 	lea	(%rax,%r12,1),%rsi
  40e046:	ba 08 00 00 00              	(move)  	mov	$0x8,%edx
  40e04b:	48 89 e7                    	(move)  	mov	%rsp,%rdi
  40e04e:	e8 1d 2a ff ff              	(control)	call	400a70 <_gfortran_transfer_real_write@plt>	; ⇄ _gfortran_transfer_real_write
830:	
  40e053:	48 8d 84 24 70 02 00 00     	(arith) 	lea	0x270(%rsp),%rax
  40e05b:	4a 8d 34 20                 	(arith) 	lea	(%rax,%r12,1),%rsi
  40e05f:	ba 08 00 00 00              	(move)  	mov	$0x8,%edx
  40e064:	48 89 e7                    	(move)  	mov	%rsp,%rdi
  40e067:	e8 04 2a ff ff              	(control)	call	400a70 <_gfortran_transfer_real_write@plt>	; ⇄ _gfortran_transfer_real_write
831:	
  40e06c:	4a 8d b4 24 a0 02 00 00     	(arith) 	lea	0x2a0(%rsp,%r12,1),%rsi
  40e074:	ba 08 00 00 00              	(move)  	mov	$0x8,%edx
  40e079:	48 89 e7                    	(move)  	mov	%rsp,%rdi
  40e07c:	e8 ef 29 ff ff              	(control)	call	400a70 <_gfortran_transfer_real_write@plt>	; ⇄ _gfortran_transfer_real_write
832:	
  40e081:	48 89 e7                    	(move)  	mov	%rsp,%rdi
  40e084:	e8 57 29 ff ff              	(control)	call	4009e0 <_gfortran_st_write_done@plt>	; ⇄ _gfortran_st_write_done
819:	
/home/jcsalinas/Documents/pruebas/inst_estimation_module/BT/verify.f:327
  40e089:	8b 84 24 fc 02 00 00        	(move)  	mov	0x2fc(%rsp),%eax
  40e090:	8d 50 01                    	(arith) 	lea	0x1(%rax),%edx
  40e093:	89 94 24 fc 02 00 00        	(move)  	mov	%edx,0x2fc(%rsp)
  40e09a:	83 f8 05                    	(arith) 	cmp	$0x5,%eax
  40e09d:	0f 85 f6 fd ff ff           	(control)	jne	40de99 <verify_+0xcca>	; ↰ label 812 (loop 172)
; ------- Loop 172 exit
833:	
/home/jcsalinas/Documents/pruebas/inst_estimation_module/BT/verify.f:342
  40e0a3:	80 3b 55                    	(arith) 	cmpb	$0x55,(%rbx)
  40e0a6:	0f 85 87 00 00 00           	(control)	jne	40e133 <verify_+0xf64>	; ↲ label 834
835:	
/home/jcsalinas/Documents/pruebas/inst_estimation_module/BT/verify.f:343
  40e0ac:	48 c7 44 24 08 50 ef 40 00  	(move)  	movq	$0x40ef50,0x8(%rsp)
  40e0b5:	c7 44 24 10 57 01 00 00     	(move)  	movl	$0x157,0x10(%rsp)
  40e0bd:	48 c7 44 24 48 30 f1 40 00  	(move)  	movq	$0x40f130,0x48(%rsp)
  40e0c6:	c7 44 24 50 21 00 00 00     	(move)  	movl	$0x21,0x50(%rsp)
  40e0ce:	c7 04 24 00 10 00 00        	(move)  	movl	$0x1000,(%rsp)
  40e0d5:	c7 44 24 04 06 00 00 00     	(move)  	movl	$0x6,0x4(%rsp)
  40e0dd:	48 89 e7                    	(move)  	mov	%rsp,%rdi
  40e0e0:	e8 ab 29 ff ff              	(control)	call	400a90 <_gfortran_st_write@plt>	; ⇄ _gfortran_st_write
836:	
  40e0e5:	48 89 e7                    	(move)  	mov	%rsp,%rdi
  40e0e8:	e8 f3 28 ff ff              	(control)	call	4009e0 <_gfortran_st_write_done@plt>	; ⇄ _gfortran_st_write_done
837:	
/home/jcsalinas/Documents/pruebas/inst_estimation_module/BT/verify.f:344
  40e0ed:	48 c7 44 24 08 50 ef 40 00  	(move)  	movq	$0x40ef50,0x8(%rsp)
  40e0f6:	c7 44 24 10 58 01 00 00     	(move)  	movl	$0x158,0x10(%rsp)
  40e0fe:	48 c7 44 24 48 51 f1 40 00  	(move)  	movq	$0x40f151,0x48(%rsp)
  40e107:	c7 44 24 50 1e 00 00 00     	(move)  	movl	$0x1e,0x50(%rsp)
  40e10f:	c7 04 24 00 10 00 00        	(move)  	movl	$0x1000,(%rsp)
  40e116:	c7 44 24 04 06 00 00 00     	(move)  	movl	$0x6,0x4(%rsp)
  40e11e:	48 89 e7                    	(move)  	mov	%rsp,%rdi
  40e121:	e8 6a 29 ff ff              	(control)	call	400a90 <_gfortran_st_write@plt>	; ⇄ _gfortran_st_write
838:	
  40e126:	48 89 e7                    	(move)  	mov	%rsp,%rdi
  40e129:	e8 b2 28 ff ff              	(control)	call	4009e0 <_gfortran_st_write_done@plt>	; ⇄ _gfortran_st_write_done
839:	
  40e12e:	e9 8a 00 00 00              	(control)	jmp	40e1bd <verify_+0xfee>	; ↲ label 840
834:	
/home/jcsalinas/Documents/pruebas/inst_estimation_module/BT/verify.f:347
  40e133:	83 7d 00 00                 	(arith) 	cmpl	$0,(%rbp)
  40e137:	74 43                       	(control)	je	40e17c <verify_+0xfad>	; ↲ label 841
842:	
/home/jcsalinas/Documents/pruebas/inst_estimation_module/BT/verify.f:348
  40e139:	48 c7 44 24 08 50 ef 40 00  	(move)  	movq	$0x40ef50,0x8(%rsp)
  40e142:	c7 44 24 10 5c 01 00 00     	(move)  	movl	$0x15c,0x10(%rsp)
  40e14a:	48 c7 44 24 48 6f f1 40 00  	(move)  	movq	$0x40f16f,0x48(%rsp)
  40e153:	c7 44 24 50 1c 00 00 00     	(move)  	movl	$0x1c,0x50(%rsp)
  40e15b:	c7 04 24 00 10 00 00        	(move)  	movl	$0x1000,(%rsp)
  40e162:	c7 44 24 04 06 00 00 00     	(move)  	movl	$0x6,0x4(%rsp)
  40e16a:	48 89 e7                    	(move)  	mov	%rsp,%rdi
  40e16d:	e8 1e 29 ff ff              	(control)	call	400a90 <_gfortran_st_write@plt>	; ⇄ _gfortran_st_write
843:	
  40e172:	48 89 e7                    	(move)  	mov	%rsp,%rdi
  40e175:	e8 66 28 ff ff              	(control)	call	4009e0 <_gfortran_st_write_done@plt>	; ⇄ _gfortran_st_write_done
844:	
  40e17a:	eb 41                       	(control)	jmp	40e1bd <verify_+0xfee>	; ↲ label 840
841:	
/home/jcsalinas/Documents/pruebas/inst_estimation_module/BT/verify.f:351
  40e17c:	48 c7 44 24 08 50 ef 40 00  	(move)  	movq	$0x40ef50,0x8(%rsp)
  40e185:	c7 44 24 10 5f 01 00 00     	(move)  	movl	$0x15f,0x10(%rsp)
  40e18d:	48 c7 44 24 48 8b f1 40 00  	(move)  	movq	$0x40f18b,0x48(%rsp)
  40e196:	c7 44 24 50 18 00 00 00     	(move)  	movl	$0x18,0x50(%rsp)
  40e19e:	c7 04 24 00 10 00 00        	(move)  	movl	$0x1000,(%rsp)
  40e1a5:	c7 44 24 04 06 00 00 00     	(move)  	movl	$0x6,0x4(%rsp)
  40e1ad:	48 89 e7                    	(move)  	mov	%rsp,%rdi
  40e1b0:	e8 db 28 ff ff              	(control)	call	400a90 <_gfortran_st_write@plt>	; ⇄ _gfortran_st_write
845:	
  40e1b5:	48 89 e7                    	(move)  	mov	%rsp,%rdi
  40e1b8:	e8 23 28 ff ff              	(control)	call	4009e0 <_gfortran_st_write_done@plt>	; ⇄ _gfortran_st_write_done
840:	
/home/jcsalinas/Documents/pruebas/inst_estimation_module/BT/verify.f:358
  40e1bd:	48 81 c4 10 03 00 00        	(arith) 	add	$0x310,%rsp
  40e1c4:	5b                          	(move)  	pop	%rbx
  40e1c5:	5d                          	(move)  	pop	%rbp
  40e1c6:	41 5c                       	(move)  	pop	%r12
  40e1c8:	c3                          	(control)	ret


000000000040e1c9 <print_results>:
131 (function print_results_):	
/home/jcsalinas/Documents/pruebas/inst_estimation_module/common/print_results.f:2
  40e1c9:	41 57                       	(move)  	push	%r15
  40e1cb:	41 56                       	(move)  	push	%r14
  40e1cd:	41 55                       	(move)  	push	%r13
  40e1cf:	41 54                       	(move)  	push	%r12
  40e1d1:	55                          	(move)  	push	%rbp
  40e1d2:	53                          	(move)  	push	%rbx
  40e1d3:	48 81 ec 08 02 00 00        	(arith) 	sub	$0x208,%rsp
  40e1da:	49 89 fc                    	(move)  	mov	%rdi,%r12
  40e1dd:	49 89 f6                    	(move)  	mov	%rsi,%r14
  40e1e0:	49 89 d7                    	(move)  	mov	%rdx,%r15
  40e1e3:	48 89 cb                    	(move)  	mov	%rcx,%rbx
  40e1e6:	4c 89 c5                    	(move)  	mov	%r8,%rbp
  40e1e9:	4d 89 cd                    	(move)  	mov	%r9,%r13
/home/jcsalinas/Documents/pruebas/inst_estimation_module/common/print_results.f:16
  40e1ec:	48 c7 44 24 08 10 f4 40 00  	(move)  	movq	$0x40f410,0x8(%rsp)
  40e1f5:	c7 44 24 10 10 00 00 00     	(move)  	movl	$0x10,0x10(%rsp)
  40e1fd:	48 c7 44 24 48 20 f4 40 00  	(move)  	movq	$0x40f420,0x48(%rsp)
  40e206:	c7 44 24 50 25 00 00 00     	(move)  	movl	$0x25,0x50(%rsp)
  40e20e:	c7 04 24 00 10 00 00        	(move)  	movl	$0x1000,(%rsp)
  40e215:	c7 44 24 04 06 00 00 00     	(move)  	movl	$0x6,0x4(%rsp)
  40e21d:	48 89 e7                    	(move)  	mov	%rsp,%rdi
  40e220:	e8 6b 28 ff ff              	(control)	call	400a90 <_gfortran_st_write@plt>	; ⇄ _gfortran_st_write
846:	
  40e225:	8b 94 24 a8 02 00 00        	(move)  	mov	0x2a8(%rsp),%edx
  40e22c:	4c 89 e6                    	(move)  	mov	%r12,%rsi
  40e22f:	48 89 e7                    	(move)  	mov	%rsp,%rdi
  40e232:	e8 89 27 ff ff              	(control)	call	4009c0 <_gfortran_transfer_character_write@plt>	; ⇄ _gfortran_transfer_character_write
847:	
  40e237:	48 89 e7                    	(move)  	mov	%rsp,%rdi
  40e23a:	e8 a1 27 ff ff              	(control)	call	4009e0 <_gfortran_st_write_done@plt>	; ⇄ _gfortran_st_write_done
848:	
/home/jcsalinas/Documents/pruebas/inst_estimation_module/common/print_results.f:19
  40e23f:	48 c7 44 24 08 10 f4 40 00  	(move)  	movq	$0x40f410,0x8(%rsp)
  40e248:	c7 44 24 10 13 00 00 00     	(move)  	movl	$0x13,0x10(%rsp)
  40e250:	48 c7 44 24 48 48 f4 40 00  	(move)  	movq	$0x40f448,0x48(%rsp)
  40e259:	c7 44 24 50 21 00 00 00     	(move)  	movl	$0x21,0x50(%rsp)
  40e261:	c7 04 24 00 10 00 00        	(move)  	movl	$0x1000,(%rsp)
  40e268:	c7 44 24 04 06 00 00 00     	(move)  	movl	$0x6,0x4(%rsp)
  40e270:	48 89 e7                    	(move)  	mov	%rsp,%rdi
  40e273:	e8 18 28 ff ff              	(control)	call	400a90 <_gfortran_st_write@plt>	; ⇄ _gfortran_st_write
849:	
  40e278:	ba 01 00 00 00              	(move)  	mov	$0x1,%edx
  40e27d:	4c 89 f6                    	(move)  	mov	%r14,%rsi
  40e280:	48 89 e7                    	(move)  	mov	%rsp,%rdi
  40e283:	e8 38 27 ff ff              	(control)	call	4009c0 <_gfortran_transfer_character_write@plt>	; ⇄ _gfortran_transfer_character_write
850:	
  40e288:	48 89 e7                    	(move)  	mov	%rsp,%rdi
  40e28b:	e8 50 27 ff ff              	(control)	call	4009e0 <_gfortran_st_write_done@plt>	; ⇄ _gfortran_st_write_done
851:	
/home/jcsalinas/Documents/pruebas/inst_estimation_module/common/print_results.f:27
  40e290:	83 3b 00                    	(arith) 	cmpl	$0,(%rbx)
  40e293:	0f 85 78 01 00 00           	(control)	jne	40e411 <print_results_+0x248>	; ↲ label 852
853:	
/home/jcsalinas/Documents/pruebas/inst_estimation_module/common/print_results.f:28
  40e299:	83 7d 00 00                 	(arith) 	cmpl	$0,(%rbp)
  40e29d:	0f 85 6e 01 00 00           	(control)	jne	40e411 <print_results_+0x248>	; ↲ label 852
854:	
/home/jcsalinas/Documents/pruebas/inst_estimation_module/common/print_results.f:28
  40e2a3:	ba 02 00 00 00              	(move)  	mov	$0x2,%edx
  40e2a8:	be 69 f4 40 00              	(move)  	mov	$0x40f469,%esi
  40e2ad:	4c 89 e7                    	(move)  	mov	%r12,%rdi
  40e2b0:	e8 fb 27 ff ff              	(control)	call	400ab0 <memcmp@plt>	; ⇄ memcmp (%rdi, Pointer to 0x40f469, 2)
856:	
  40e2b5:	85 c0                       	(arith) 	test	%eax,%eax
  40e2b7:	0f 85 01 01 00 00           	(control)	jne	40e3be <print_results_+0x1f5>	; ↲ label 857
858:	
/home/jcsalinas/Documents/pruebas/inst_estimation_module/common/print_results.f:29
  40e2bd:	48 c7 44 24 08 10 f4 40 00  	(move)  	movq	$0x40f410,0x8(%rsp)
  40e2c6:	c7 44 24 10 1d 00 00 00     	(move)  	movl	$0x1d,0x10(%rsp)
  40e2ce:	48 8d 84 24 e0 01 00 00     	(arith) 	lea	0x1e0(%rsp),%rax
  40e2d6:	48 89 44 24 60              	(move)  	mov	%rax,0x60(%rsp)
  40e2db:	c7 44 24 68 0f 00 00 00     	(move)  	movl	$0xf,0x68(%rsp)
  40e2e3:	48 c7 44 24 40 00 00 00 00  	(move)  	movq	$0,0x40(%rsp)
  40e2ec:	c7 44 24 04 00 00 00 00     	(move)  	movl	$0,0x4(%rsp)
  40e2f4:	48 c7 44 24 48 6b f4 40 00  	(move)  	movq	$0x40f46b,0x48(%rsp)
  40e2fd:	c7 44 24 50 07 00 00 00     	(move)  	movl	$0x7,0x50(%rsp)
  40e305:	c7 04 24 00 50 00 00        	(move)  	movl	$0x5000,(%rsp)
  40e30c:	48 89 e7                    	(move)  	mov	%rsp,%rdi
  40e30f:	e8 7c 27 ff ff              	(control)	call	400a90 <_gfortran_st_write@plt>	; ⇄ _gfortran_st_write
859:	
  40e314:	41 8b 3f                    	(move)  	mov	(%r15),%edi
  40e317:	f2 0f 10 05 61 0b 00 00     	(move)  	movsd	0xb61(%rip),%xmm0
  40e31f:	e8 3c 27 ff ff              	(control)	call	400a60 <__powidf2@plt>	; ⇄ __powidf2
861:	
  40e324:	f2 0f 11 84 24 f8 01 00 00  	(move)  	movsd	%xmm0,0x1f8(%rsp)
  40e32d:	ba 08 00 00 00              	(move)  	mov	$0x8,%edx
  40e332:	48 8d b4 24 f8 01 00 00     	(arith) 	lea	0x1f8(%rsp),%rsi
  40e33a:	48 89 e7                    	(move)  	mov	%rsp,%rdi
  40e33d:	e8 2e 27 ff ff              	(control)	call	400a70 <_gfortran_transfer_real_write@plt>	; ⇄ _gfortran_transfer_real_write
862:	
  40e342:	48 89 e7                    	(move)  	mov	%rsp,%rdi
  40e345:	e8 96 26 ff ff              	(control)	call	4009e0 <_gfortran_st_write_done@plt>	; ⇄ _gfortran_st_write_done
863:	
/home/jcsalinas/Documents/pruebas/inst_estimation_module/common/print_results.f:30
  40e34a:	bb 0f 00 00 00              	(move)  	mov	$0xf,%ebx
/home/jcsalinas/Documents/pruebas/inst_estimation_module/common/print_results.f:31
  40e34f:	80 bc 24 ee 01 00 00 2e     	(arith) 	cmpb	$0x2e,0x1ee(%rsp)
  40e357:	75 0d                       	(control)	jne	40e366 <print_results_+0x19d>	; ↲ label 864
865:	
/home/jcsalinas/Documents/pruebas/inst_estimation_module/common/print_results.f:32
  40e359:	c6 84 24 ee 01 00 00 20     	(move)  	movb	$0x20,0x1ee(%rsp)
/home/jcsalinas/Documents/pruebas/inst_estimation_module/common/print_results.f:33
  40e361:	bb 0e 00 00 00              	(move)  	mov	$0xe,%ebx
864:	
/home/jcsalinas/Documents/pruebas/inst_estimation_module/common/print_results.f:35
  40e366:	48 c7 44 24 08 10 f4 40 00  	(move)  	movq	$0x40f410,0x8(%rsp)
  40e36f:	c7 44 24 10 23 00 00 00     	(move)  	movl	$0x23,0x10(%rsp)
  40e377:	48 c7 44 24 48 78 f4 40 00  	(move)  	movq	$0x40f478,0x48(%rsp)
  40e380:	c7 44 24 50 1f 00 00 00     	(move)  	movl	$0x1f,0x50(%rsp)
  40e388:	c7 04 24 00 10 00 00        	(move)  	movl	$0x1000,(%rsp)
  40e38f:	c7 44 24 04 06 00 00 00     	(move)  	movl	$0x6,0x4(%rsp)
  40e397:	48 89 e7                    	(move)  	mov	%rsp,%rdi
  40e39a:	e8 f1 26 ff ff              	(control)	call	400a90 <_gfortran_st_write@plt>	; ⇄ _gfortran_st_write
866:	
  40e39f:	89 da                       	(move)  	mov	%ebx,%edx
  40e3a1:	48 8d b4 24 e0 01 00 00     	(arith) 	lea	0x1e0(%rsp),%rsi
  40e3a9:	48 89 e7                    	(move)  	mov	%rsp,%rdi
  40e3ac:	e8 0f 26 ff ff              	(control)	call	4009c0 <_gfortran_transfer_character_write@plt>	; ⇄ _gfortran_transfer_character_write
867:	
  40e3b1:	48 89 e7                    	(move)  	mov	%rsp,%rdi
  40e3b4:	e8 27 26 ff ff              	(control)	call	4009e0 <_gfortran_st_write_done@plt>	; ⇄ _gfortran_st_write_done
868:	
  40e3b9:	e9 c4 00 00 00              	(control)	jmp	40e482 <print_results_+0x2b9>	; ↲ label 869
857:	
/home/jcsalinas/Documents/pruebas/inst_estimation_module/common/print_results.f:38
  40e3be:	48 c7 44 24 08 10 f4 40 00  	(move)  	movq	$0x40f410,0x8(%rsp)
  40e3c7:	c7 44 24 10 26 00 00 00     	(move)  	movl	$0x26,0x10(%rsp)
  40e3cf:	48 c7 44 24 48 98 f4 40 00  	(move)  	movq	$0x40f498,0x48(%rsp)
  40e3d8:	c7 44 24 50 20 00 00 00     	(move)  	movl	$0x20,0x50(%rsp)
  40e3e0:	c7 04 24 00 10 00 00        	(move)  	movl	$0x1000,(%rsp)
  40e3e7:	c7 44 24 04 06 00 00 00     	(move)  	movl	$0x6,0x4(%rsp)
  40e3ef:	48 89 e7                    	(move)  	mov	%rsp,%rdi
  40e3f2:	e8 99 26 ff ff              	(control)	call	400a90 <_gfortran_st_write@plt>	; ⇄ _gfortran_st_write
870:	
  40e3f7:	ba 04 00 00 00              	(move)  	mov	$0x4,%edx
  40e3fc:	4c 89 fe                    	(move)  	mov	%r15,%rsi
  40e3ff:	48 89 e7                    	(move)  	mov	%rsp,%rdi
  40e402:	e8 79 26 ff ff              	(control)	call	400a80 <_gfortran_transfer_integer_write@plt>	; ⇄ _gfortran_transfer_integer_write
871:	
  40e407:	48 89 e7                    	(move)  	mov	%rsp,%rdi
  40e40a:	e8 d1 25 ff ff              	(control)	call	4009e0 <_gfortran_st_write_done@plt>	; ⇄ _gfortran_st_write_done
872:	
  40e40f:	eb 71                       	(control)	jmp	40e482 <print_results_+0x2b9>	; ↲ label 869
852:	
/home/jcsalinas/Documents/pruebas/inst_estimation_module/common/print_results.f:42
  40e411:	48 c7 44 24 08 10 f4 40 00  	(move)  	movq	$0x40f410,0x8(%rsp)
  40e41a:	c7 44 24 10 2a 00 00 00     	(move)  	movl	$0x2a,0x10(%rsp)
  40e422:	48 c7 44 24 48 b8 f4 40 00  	(move)  	movq	$0x40f4b8,0x48(%rsp)
  40e42b:	c7 44 24 50 2d 00 00 00     	(move)  	movl	$0x2d,0x50(%rsp)
  40e433:	c7 04 24 00 10 00 00        	(move)  	movl	$0x1000,(%rsp)
  40e43a:	c7 44 24 04 06 00 00 00     	(move)  	movl	$0x6,0x4(%rsp)
  40e442:	48 89 e7                    	(move)  	mov	%rsp,%rdi
  40e445:	e8 46 26 ff ff              	(control)	call	400a90 <_gfortran_st_write@plt>	; ⇄ _gfortran_st_write
873:	
  40e44a:	ba 04 00 00 00              	(move)  	mov	$0x4,%edx
  40e44f:	4c 89 fe                    	(move)  	mov	%r15,%rsi
  40e452:	48 89 e7                    	(move)  	mov	%rsp,%rdi
  40e455:	e8 26 26 ff ff              	(control)	call	400a80 <_gfortran_transfer_integer_write@plt>	; ⇄ _gfortran_transfer_integer_write
874:	
  40e45a:	ba 04 00 00 00              	(move)  	mov	$0x4,%edx
  40e45f:	48 89 de                    	(move)  	mov	%rbx,%rsi
  40e462:	48 89 e7                    	(move)  	mov	%rsp,%rdi
  40e465:	e8 16 26 ff ff              	(control)	call	400a80 <_gfortran_transfer_integer_write@plt>	; ⇄ _gfortran_transfer_integer_write
875:	
  40e46a:	ba 04 00 00 00              	(move)  	mov	$0x4,%edx
  40e46f:	48 89 ee                    	(move)  	mov	%rbp,%rsi
  40e472:	48 89 e7                    	(move)  	mov	%rsp,%rdi
  40e475:	e8 06 26 ff ff              	(control)	call	400a80 <_gfortran_transfer_integer_write@plt>	; ⇄ _gfortran_transfer_integer_write
876:	
  40e47a:	48 89 e7                    	(move)  	mov	%rsp,%rdi
  40e47d:	e8 5e 25 ff ff              	(control)	call	4009e0 <_gfortran_st_write_done@plt>	; ⇄ _gfortran_st_write_done
869:	
/home/jcsalinas/Documents/pruebas/inst_estimation_module/common/print_results.f:46
  40e482:	48 c7 44 24 08 10 f4 40 00  	(move)  	movq	$0x40f410,0x8(%rsp)
  40e48b:	c7 44 24 10 2e 00 00 00     	(move)  	movl	$0x2e,0x10(%rsp)
  40e493:	48 c7 44 24 48 e8 f4 40 00  	(move)  	movq	$0x40f4e8,0x48(%rsp)
  40e49c:	c7 44 24 50 21 00 00 00     	(move)  	movl	$0x21,0x50(%rsp)
  40e4a4:	c7 04 24 00 10 00 00        	(move)  	movl	$0x1000,(%rsp)
  40e4ab:	c7 44 24 04 06 00 00 00     	(move)  	movl	$0x6,0x4(%rsp)
  40e4b3:	48 89 e7                    	(move)  	mov	%rsp,%rdi
  40e4b6:	e8 d5 25 ff ff              	(control)	call	400a90 <_gfortran_st_write@plt>	; ⇄ _gfortran_st_write
877:	
  40e4bb:	ba 04 00 00 00              	(move)  	mov	$0x4,%edx
  40e4c0:	4c 89 ee                    	(move)  	mov	%r13,%rsi
  40e4c3:	48 89 e7                    	(move)  	mov	%rsp,%rdi
  40e4c6:	e8 b5 25 ff ff              	(control)	call	400a80 <_gfortran_transfer_integer_write@plt>	; ⇄ _gfortran_transfer_integer_write
878:	
  40e4cb:	48 89 e7                    	(move)  	mov	%rsp,%rdi
  40e4ce:	e8 0d 25 ff ff              	(control)	call	4009e0 <_gfortran_st_write_done@plt>	; ⇄ _gfortran_st_write_done
879:	
/home/jcsalinas/Documents/pruebas/inst_estimation_module/common/print_results.f:49
  40e4d3:	48 c7 44 24 08 10 f4 40 00  	(move)  	movq	$0x40f410,0x8(%rsp)
  40e4dc:	c7 44 24 10 31 00 00 00     	(move)  	movl	$0x31,0x10(%rsp)
  40e4e4:	48 c7 44 24 48 10 f5 40 00  	(move)  	movq	$0x40f510,0x48(%rsp)
  40e4ed:	c7 44 24 50 22 00 00 00     	(move)  	movl	$0x22,0x50(%rsp)
  40e4f5:	c7 04 24 00 10 00 00        	(move)  	movl	$0x1000,(%rsp)
  40e4fc:	c7 44 24 04 06 00 00 00     	(move)  	movl	$0x6,0x4(%rsp)
  40e504:	48 89 e7                    	(move)  	mov	%rsp,%rdi
  40e507:	e8 84 25 ff ff              	(control)	call	400a90 <_gfortran_st_write@plt>	; ⇄ _gfortran_st_write
880:	
  40e50c:	ba 08 00 00 00              	(move)  	mov	$0x8,%edx
  40e511:	48 8b b4 24 40 02 00 00     	(move)  	mov	0x240(%rsp),%rsi
  40e519:	48 89 e7                    	(move)  	mov	%rsp,%rdi
  40e51c:	e8 4f 25 ff ff              	(control)	call	400a70 <_gfortran_transfer_real_write@plt>	; ⇄ _gfortran_transfer_real_write
881:	
  40e521:	48 89 e7                    	(move)  	mov	%rsp,%rdi
  40e524:	e8 b7 24 ff ff              	(control)	call	4009e0 <_gfortran_st_write_done@plt>	; ⇄ _gfortran_st_write_done
882:	
/home/jcsalinas/Documents/pruebas/inst_estimation_module/common/print_results.f:52
  40e529:	48 c7 44 24 08 10 f4 40 00  	(move)  	movq	$0x40f410,0x8(%rsp)
  40e532:	c7 44 24 10 34 00 00 00     	(move)  	movl	$0x34,0x10(%rsp)
  40e53a:	48 c7 44 24 48 38 f5 40 00  	(move)  	movq	$0x40f538,0x48(%rsp)
  40e543:	c7 44 24 50 22 00 00 00     	(move)  	movl	$0x22,0x50(%rsp)
  40e54b:	c7 04 24 00 10 00 00        	(move)  	movl	$0x1000,(%rsp)
  40e552:	c7 44 24 04 06 00 00 00     	(move)  	movl	$0x6,0x4(%rsp)
  40e55a:	48 89 e7                    	(move)  	mov	%rsp,%rdi
  40e55d:	e8 2e 25 ff ff              	(control)	call	400a90 <_gfortran_st_write@plt>	; ⇄ _gfortran_st_write
883:	
  40e562:	ba 08 00 00 00              	(move)  	mov	$0x8,%edx
  40e567:	48 8b b4 24 48 02 00 00     	(move)  	mov	0x248(%rsp),%rsi
  40e56f:	48 89 e7                    	(move)  	mov	%rsp,%rdi
  40e572:	e8 f9 24 ff ff              	(control)	call	400a70 <_gfortran_transfer_real_write@plt>	; ⇄ _gfortran_transfer_real_write
884:	
  40e577:	48 89 e7                    	(move)  	mov	%rsp,%rdi
  40e57a:	e8 61 24 ff ff              	(control)	call	4009e0 <_gfortran_st_write_done@plt>	; ⇄ _gfortran_st_write_done
885:	
/home/jcsalinas/Documents/pruebas/inst_estimation_module/common/print_results.f:55
  40e57f:	48 c7 44 24 08 10 f4 40 00  	(move)  	movq	$0x40f410,0x8(%rsp)
  40e588:	c7 44 24 10 37 00 00 00     	(move)  	movl	$0x37,0x10(%rsp)
  40e590:	48 c7 44 24 48 5a f5 40 00  	(move)  	movq	$0x40f55a,0x48(%rsp)
  40e599:	c7 44 24 50 1c 00 00 00     	(move)  	movl	$0x1c,0x50(%rsp)
  40e5a1:	c7 04 24 00 10 00 00        	(move)  	movl	$0x1000,(%rsp)
  40e5a8:	c7 44 24 04 06 00 00 00     	(move)  	movl	$0x6,0x4(%rsp)
  40e5b0:	48 89 e7                    	(move)  	mov	%rsp,%rdi
  40e5b3:	e8 d8 24 ff ff              	(control)	call	400a90 <_gfortran_st_write@plt>	; ⇄ _gfortran_st_write
886:	
  40e5b8:	ba 18 00 00 00              	(move)  	mov	$0x18,%edx
  40e5bd:	48 8b b4 24 50 02 00 00     	(move)  	mov	0x250(%rsp),%rsi
  40e5c5:	48 89 e7                    	(move)  	mov	%rsp,%rdi
  40e5c8:	e8 f3 23 ff ff              	(control)	call	4009c0 <_gfortran_transfer_character_write@plt>	; ⇄ _gfortran_transfer_character_write
887:	
  40e5cd:	48 89 e7                    	(move)  	mov	%rsp,%rdi
  40e5d0:	e8 0b 24 ff ff              	(control)	call	4009e0 <_gfortran_st_write_done@plt>	; ⇄ _gfortran_st_write_done
888:	
/home/jcsalinas/Documents/pruebas/inst_estimation_module/common/print_results.f:58
  40e5d5:	48 8b 84 24 58 02 00 00     	(move)  	mov	0x258(%rsp),%rax
  40e5dd:	83 38 00                    	(arith) 	cmpl	$0,(%rax)
  40e5e0:	74 55                       	(control)	je	40e637 <print_results_+0x46e>	; ↲ label 889
890:	
/home/jcsalinas/Documents/pruebas/inst_estimation_module/common/print_results.f:59
  40e5e2:	48 c7 44 24 08 10 f4 40 00  	(move)  	movq	$0x40f410,0x8(%rsp)
  40e5eb:	c7 44 24 10 3b 00 00 00     	(move)  	movl	$0x3b,0x10(%rsp)
  40e5f3:	48 c7 44 24 48 78 f5 40 00  	(move)  	movq	$0x40f578,0x48(%rsp)
  40e5fc:	c7 44 24 50 1f 00 00 00     	(move)  	movl	$0x1f,0x50(%rsp)
  40e604:	c7 04 24 00 10 00 00        	(move)  	movl	$0x1000,(%rsp)
  40e60b:	c7 44 24 04 06 00 00 00     	(move)  	movl	$0x6,0x4(%rsp)
  40e613:	48 89 e7                    	(move)  	mov	%rsp,%rdi
  40e616:	e8 75 24 ff ff              	(control)	call	400a90 <_gfortran_st_write@plt>	; ⇄ _gfortran_st_write
891:	
  40e61b:	ba 0c 00 00 00              	(move)  	mov	$0xc,%edx
  40e620:	be 97 f5 40 00              	(move)  	mov	$0x40f597,%esi
  40e625:	48 89 e7                    	(move)  	mov	%rsp,%rdi
  40e628:	e8 93 23 ff ff              	(control)	call	4009c0 <_gfortran_transfer_character_write@plt>	; ⇄ _gfortran_transfer_character_write
892:	
  40e62d:	48 89 e7                    	(move)  	mov	%rsp,%rdi
  40e630:	e8 ab 23 ff ff              	(control)	call	4009e0 <_gfortran_st_write_done@plt>	; ⇄ _gfortran_st_write_done
893:	
  40e635:	eb 53                       	(control)	jmp	40e68a <print_results_+0x4c1>	; ↲ label 894
889:	
/home/jcsalinas/Documents/pruebas/inst_estimation_module/common/print_results.f:61
  40e637:	48 c7 44 24 08 10 f4 40 00  	(move)  	movq	$0x40f410,0x8(%rsp)
  40e640:	c7 44 24 10 3d 00 00 00     	(move)  	movl	$0x3d,0x10(%rsp)
  40e648:	48 c7 44 24 48 78 f5 40 00  	(move)  	movq	$0x40f578,0x48(%rsp)
  40e651:	c7 44 24 50 1f 00 00 00     	(move)  	movl	$0x1f,0x50(%rsp)
  40e659:	c7 04 24 00 10 00 00        	(move)  	movl	$0x1000,(%rsp)
  40e660:	c7 44 24 04 06 00 00 00     	(move)  	movl	$0x6,0x4(%rsp)
  40e668:	48 89 e7                    	(move)  	mov	%rsp,%rdi
  40e66b:	e8 20 24 ff ff              	(control)	call	400a90 <_gfortran_st_write@plt>	; ⇄ _gfortran_st_write
895:	
  40e670:	ba 0c 00 00 00              	(move)  	mov	$0xc,%edx
  40e675:	be a3 f5 40 00              	(move)  	mov	$0x40f5a3,%esi
  40e67a:	48 89 e7                    	(move)  	mov	%rsp,%rdi
  40e67d:	e8 3e 23 ff ff              	(control)	call	4009c0 <_gfortran_transfer_character_write@plt>	; ⇄ _gfortran_transfer_character_write
896:	
  40e682:	48 89 e7                    	(move)  	mov	%rsp,%rdi
  40e685:	e8 56 23 ff ff              	(control)	call	4009e0 <_gfortran_st_write_done@plt>	; ⇄ _gfortran_st_write_done
894:	
/home/jcsalinas/Documents/pruebas/inst_estimation_module/common/print_results.f:65
  40e68a:	48 c7 44 24 08 10 f4 40 00  	(move)  	movq	$0x40f410,0x8(%rsp)
  40e693:	c7 44 24 10 41 00 00 00     	(move)  	movl	$0x41,0x10(%rsp)
  40e69b:	48 c7 44 24 48 b0 f5 40 00  	(move)  	movq	$0x40f5b0,0x48(%rsp)
  40e6a4:	c7 44 24 50 21 00 00 00     	(move)  	movl	$0x21,0x50(%rsp)
  40e6ac:	c7 04 24 00 10 00 00        	(move)  	movl	$0x1000,(%rsp)
  40e6b3:	c7 44 24 04 06 00 00 00     	(move)  	movl	$0x6,0x4(%rsp)
  40e6bb:	48 89 e7                    	(move)  	mov	%rsp,%rdi
  40e6be:	e8 cd 23 ff ff              	(control)	call	400a90 <_gfortran_st_write@plt>	; ⇄ _gfortran_st_write
897:	
  40e6c3:	8b 94 24 c0 02 00 00        	(move)  	mov	0x2c0(%rsp),%edx
  40e6ca:	48 8b b4 24 60 02 00 00     	(move)  	mov	0x260(%rsp),%rsi
  40e6d2:	48 89 e7                    	(move)  	mov	%rsp,%rdi
  40e6d5:	e8 e6 22 ff ff              	(control)	call	4009c0 <_gfortran_transfer_character_write@plt>	; ⇄ _gfortran_transfer_character_write
898:	
  40e6da:	48 89 e7                    	(move)  	mov	%rsp,%rdi
  40e6dd:	e8 fe 22 ff ff              	(control)	call	4009e0 <_gfortran_st_write_done@plt>	; ⇄ _gfortran_st_write_done
899:	
/home/jcsalinas/Documents/pruebas/inst_estimation_module/common/print_results.f:68
  40e6e2:	48 c7 44 24 08 10 f4 40 00  	(move)  	movq	$0x40f410,0x8(%rsp)
  40e6eb:	c7 44 24 10 44 00 00 00     	(move)  	movl	$0x44,0x10(%rsp)
  40e6f3:	48 c7 44 24 48 d8 f5 40 00  	(move)  	movq	$0x40f5d8,0x48(%rsp)
  40e6fc:	c7 44 24 50 21 00 00 00     	(move)  	movl	$0x21,0x50(%rsp)
  40e704:	c7 04 24 00 10 00 00        	(move)  	movl	$0x1000,(%rsp)
  40e70b:	c7 44 24 04 06 00 00 00     	(move)  	movl	$0x6,0x4(%rsp)
  40e713:	48 89 e7                    	(move)  	mov	%rsp,%rdi
  40e716:	e8 75 23 ff ff              	(control)	call	400a90 <_gfortran_st_write@plt>	; ⇄ _gfortran_st_write
900:	
  40e71b:	8b 94 24 c8 02 00 00        	(move)  	mov	0x2c8(%rsp),%edx
  40e722:	48 8b b4 24 68 02 00 00     	(move)  	mov	0x268(%rsp),%rsi
  40e72a:	48 89 e7                    	(move)  	mov	%rsp,%rdi
  40e72d:	e8 8e 22 ff ff              	(control)	call	4009c0 <_gfortran_transfer_character_write@plt>	; ⇄ _gfortran_transfer_character_write
901:	
  40e732:	48 89 e7                    	(move)  	mov	%rsp,%rdi
  40e735:	e8 a6 22 ff ff              	(control)	call	4009e0 <_gfortran_st_write_done@plt>	; ⇄ _gfortran_st_write_done
902:	
/home/jcsalinas/Documents/pruebas/inst_estimation_module/common/print_results.f:72
  40e73a:	48 c7 44 24 08 10 f4 40 00  	(move)  	movq	$0x40f410,0x8(%rsp)
  40e743:	c7 44 24 10 48 00 00 00     	(move)  	movl	$0x48,0x10(%rsp)
  40e74b:	48 c7 44 24 48 00 f6 40 00  	(move)  	movq	$0x40f600,0x48(%rsp)
  40e754:	c7 44 24 50 5c 00 00 00     	(move)  	movl	$0x5c,0x50(%rsp)
  40e75c:	c7 04 24 00 10 00 00        	(move)  	movl	$0x1000,(%rsp)
  40e763:	c7 44 24 04 06 00 00 00     	(move)  	movl	$0x6,0x4(%rsp)
  40e76b:	48 89 e7                    	(move)  	mov	%rsp,%rdi
  40e76e:	e8 1d 23 ff ff              	(control)	call	400a90 <_gfortran_st_write@plt>	; ⇄ _gfortran_st_write
903:	
  40e773:	8b 94 24 d0 02 00 00        	(move)  	mov	0x2d0(%rsp),%edx
  40e77a:	48 8b b4 24 70 02 00 00     	(move)  	mov	0x270(%rsp),%rsi
  40e782:	48 89 e7                    	(move)  	mov	%rsp,%rdi
  40e785:	e8 36 22 ff ff              	(control)	call	4009c0 <_gfortran_transfer_character_write@plt>	; ⇄ _gfortran_transfer_character_write
904:	
  40e78a:	48 89 e7                    	(move)  	mov	%rsp,%rdi
  40e78d:	e8 4e 22 ff ff              	(control)	call	4009e0 <_gfortran_st_write_done@plt>	; ⇄ _gfortran_st_write_done
905:	
/home/jcsalinas/Documents/pruebas/inst_estimation_module/common/print_results.f:76
  40e792:	48 c7 44 24 08 10 f4 40 00  	(move)  	movq	$0x40f410,0x8(%rsp)
  40e79b:	c7 44 24 10 4c 00 00 00     	(move)  	movl	$0x4c,0x10(%rsp)
  40e7a3:	48 c7 44 24 48 5c f6 40 00  	(move)  	movq	$0x40f65c,0x48(%rsp)
  40e7ac:	c7 44 24 50 1a 00 00 00     	(move)  	movl	$0x1a,0x50(%rsp)
  40e7b4:	c7 04 24 00 10 00 00        	(move)  	movl	$0x1000,(%rsp)
  40e7bb:	c7 44 24 04 06 00 00 00     	(move)  	movl	$0x6,0x4(%rsp)
  40e7c3:	48 89 e7                    	(move)  	mov	%rsp,%rdi
  40e7c6:	e8 c5 22 ff ff              	(control)	call	400a90 <_gfortran_st_write@plt>	; ⇄ _gfortran_st_write
906:	
  40e7cb:	8b 94 24 d8 02 00 00        	(move)  	mov	0x2d8(%rsp),%edx
  40e7d2:	48 8b b4 24 78 02 00 00     	(move)  	mov	0x278(%rsp),%rsi
  40e7da:	48 89 e7                    	(move)  	mov	%rsp,%rdi
  40e7dd:	e8 de 21 ff ff              	(control)	call	4009c0 <_gfortran_transfer_character_write@plt>	; ⇄ _gfortran_transfer_character_write
907:	
  40e7e2:	48 89 e7                    	(move)  	mov	%rsp,%rdi
  40e7e5:	e8 f6 21 ff ff              	(control)	call	4009e0 <_gfortran_st_write_done@plt>	; ⇄ _gfortran_st_write_done
908:	
/home/jcsalinas/Documents/pruebas/inst_estimation_module/common/print_results.f:79
  40e7ea:	48 c7 44 24 08 10 f4 40 00  	(move)  	movq	$0x40f410,0x8(%rsp)
  40e7f3:	c7 44 24 10 4f 00 00 00     	(move)  	movl	$0x4f,0x10(%rsp)
  40e7fb:	48 c7 44 24 48 76 f6 40 00  	(move)  	movq	$0x40f676,0x48(%rsp)
  40e804:	c7 44 24 50 1a 00 00 00     	(move)  	movl	$0x1a,0x50(%rsp)
  40e80c:	c7 04 24 00 10 00 00        	(move)  	movl	$0x1000,(%rsp)
  40e813:	c7 44 24 04 06 00 00 00     	(move)  	movl	$0x6,0x4(%rsp)
  40e81b:	48 89 e7                    	(move)  	mov	%rsp,%rdi
  40e81e:	e8 6d 22 ff ff              	(control)	call	400a90 <_gfortran_st_write@plt>	; ⇄ _gfortran_st_write
909:	
  40e823:	8b 94 24 e0 02 00 00        	(move)  	mov	0x2e0(%rsp),%edx
  40e82a:	48 8b b4 24 80 02 00 00     	(move)  	mov	0x280(%rsp),%rsi
  40e832:	48 89 e7                    	(move)  	mov	%rsp,%rdi
  40e835:	e8 86 21 ff ff              	(control)	call	4009c0 <_gfortran_transfer_character_write@plt>	; ⇄ _gfortran_transfer_character_write
910:	
  40e83a:	48 89 e7                    	(move)  	mov	%rsp,%rdi
  40e83d:	e8 9e 21 ff ff              	(control)	call	4009e0 <_gfortran_st_write_done@plt>	; ⇄ _gfortran_st_write_done
911:	
/home/jcsalinas/Documents/pruebas/inst_estimation_module/common/print_results.f:82
  40e842:	48 c7 44 24 08 10 f4 40 00  	(move)  	movq	$0x40f410,0x8(%rsp)
  40e84b:	c7 44 24 10 52 00 00 00     	(move)  	movl	$0x52,0x10(%rsp)
  40e853:	48 c7 44 24 48 90 f6 40 00  	(move)  	movq	$0x40f690,0x48(%rsp)
  40e85c:	c7 44 24 50 1a 00 00 00     	(move)  	movl	$0x1a,0x50(%rsp)
  40e864:	c7 04 24 00 10 00 00        	(move)  	movl	$0x1000,(%rsp)
  40e86b:	c7 44 24 04 06 00 00 00     	(move)  	movl	$0x6,0x4(%rsp)
  40e873:	48 89 e7                    	(move)  	mov	%rsp,%rdi
  40e876:	e8 15 22 ff ff              	(control)	call	400a90 <_gfortran_st_write@plt>	; ⇄ _gfortran_st_write
912:	
  40e87b:	8b 94 24 e8 02 00 00        	(move)  	mov	0x2e8(%rsp),%edx
  40e882:	48 8b b4 24 88 02 00 00     	(move)  	mov	0x288(%rsp),%rsi
  40e88a:	48 89 e7                    	(move)  	mov	%rsp,%rdi
  40e88d:	e8 2e 21 ff ff              	(control)	call	4009c0 <_gfortran_transfer_character_write@plt>	; ⇄ _gfortran_transfer_character_write
913:	
  40e892:	48 89 e7                    	(move)  	mov	%rsp,%rdi
  40e895:	e8 46 21 ff ff              	(control)	call	4009e0 <_gfortran_st_write_done@plt>	; ⇄ _gfortran_st_write_done
914:	
/home/jcsalinas/Documents/pruebas/inst_estimation_module/common/print_results.f:85
  40e89a:	48 c7 44 24 08 10 f4 40 00  	(move)  	movq	$0x40f410,0x8(%rsp)
  40e8a3:	c7 44 24 10 55 00 00 00     	(move)  	movl	$0x55,0x10(%rsp)
  40e8ab:	48 c7 44 24 48 aa f6 40 00  	(move)  	movq	$0x40f6aa,0x48(%rsp)
  40e8b4:	c7 44 24 50 1a 00 00 00     	(move)  	movl	$0x1a,0x50(%rsp)
  40e8bc:	c7 04 24 00 10 00 00        	(move)  	movl	$0x1000,(%rsp)
  40e8c3:	c7 44 24 04 06 00 00 00     	(move)  	movl	$0x6,0x4(%rsp)
  40e8cb:	48 89 e7                    	(move)  	mov	%rsp,%rdi
  40e8ce:	e8 bd 21 ff ff              	(control)	call	400a90 <_gfortran_st_write@plt>	; ⇄ _gfortran_st_write
915:	
  40e8d3:	8b 94 24 f0 02 00 00        	(move)  	mov	0x2f0(%rsp),%edx
  40e8da:	48 8b b4 24 90 02 00 00     	(move)  	mov	0x290(%rsp),%rsi
  40e8e2:	48 89 e7                    	(move)  	mov	%rsp,%rdi
  40e8e5:	e8 d6 20 ff ff              	(control)	call	4009c0 <_gfortran_transfer_character_write@plt>	; ⇄ _gfortran_transfer_character_write
916:	
  40e8ea:	48 89 e7                    	(move)  	mov	%rsp,%rdi
  40e8ed:	e8 ee 20 ff ff              	(control)	call	4009e0 <_gfortran_st_write_done@plt>	; ⇄ _gfortran_st_write_done
917:	
/home/jcsalinas/Documents/pruebas/inst_estimation_module/common/print_results.f:88
  40e8f2:	48 c7 44 24 08 10 f4 40 00  	(move)  	movq	$0x40f410,0x8(%rsp)
  40e8fb:	c7 44 24 10 58 00 00 00     	(move)  	movl	$0x58,0x10(%rsp)
  40e903:	48 c7 44 24 48 c4 f6 40 00  	(move)  	movq	$0x40f6c4,0x48(%rsp)
  40e90c:	c7 44 24 50 1a 00 00 00     	(move)  	movl	$0x1a,0x50(%rsp)
  40e914:	c7 04 24 00 10 00 00        	(move)  	movl	$0x1000,(%rsp)
  40e91b:	c7 44 24 04 06 00 00 00     	(move)  	movl	$0x6,0x4(%rsp)
  40e923:	48 89 e7                    	(move)  	mov	%rsp,%rdi
  40e926:	e8 65 21 ff ff              	(control)	call	400a90 <_gfortran_st_write@plt>	; ⇄ _gfortran_st_write
918:	
  40e92b:	8b 94 24 f8 02 00 00        	(move)  	mov	0x2f8(%rsp),%edx
  40e932:	48 8b b4 24 98 02 00 00     	(move)  	mov	0x298(%rsp),%rsi
  40e93a:	48 89 e7                    	(move)  	mov	%rsp,%rdi
  40e93d:	e8 7e 20 ff ff              	(control)	call	4009c0 <_gfortran_transfer_character_write@plt>	; ⇄ _gfortran_transfer_character_write
919:	
  40e942:	48 89 e7                    	(move)  	mov	%rsp,%rdi
  40e945:	e8 96 20 ff ff              	(control)	call	4009e0 <_gfortran_st_write_done@plt>	; ⇄ _gfortran_st_write_done
920:	
/home/jcsalinas/Documents/pruebas/inst_estimation_module/common/print_results.f:91
  40e94a:	48 c7 44 24 08 10 f4 40 00  	(move)  	movq	$0x40f410,0x8(%rsp)
  40e953:	c7 44 24 10 5b 00 00 00     	(move)  	movl	$0x5b,0x10(%rsp)
  40e95b:	48 c7 44 24 48 de f6 40 00  	(move)  	movq	$0x40f6de,0x48(%rsp)
  40e964:	c7 44 24 50 1a 00 00 00     	(move)  	movl	$0x1a,0x50(%rsp)
  40e96c:	c7 04 24 00 10 00 00        	(move)  	movl	$0x1000,(%rsp)
  40e973:	c7 44 24 04 06 00 00 00     	(move)  	movl	$0x6,0x4(%rsp)
  40e97b:	48 89 e7                    	(move)  	mov	%rsp,%rdi
  40e97e:	e8 0d 21 ff ff              	(control)	call	400a90 <_gfortran_st_write@plt>	; ⇄ _gfortran_st_write
921:	
  40e983:	8b 94 24 00 03 00 00        	(move)  	mov	0x300(%rsp),%edx
  40e98a:	48 8b b4 24 a0 02 00 00     	(move)  	mov	0x2a0(%rsp),%rsi
  40e992:	48 89 e7                    	(move)  	mov	%rsp,%rdi
  40e995:	e8 26 20 ff ff              	(control)	call	4009c0 <_gfortran_transfer_character_write@plt>	; ⇄ _gfortran_transfer_character_write
922:	
  40e99a:	48 89 e7                    	(move)  	mov	%rsp,%rdi
  40e99d:	e8 3e 20 ff ff              	(control)	call	4009e0 <_gfortran_st_write_done@plt>	; ⇄ _gfortran_st_write_done
923:	
/home/jcsalinas/Documents/pruebas/inst_estimation_module/common/print_results.f:94
  40e9a2:	48 c7 44 24 08 10 f4 40 00  	(move)  	movq	$0x40f410,0x8(%rsp)
  40e9ab:	c7 44 24 10 5e 00 00 00     	(move)  	movl	$0x5e,0x10(%rsp)
  40e9b3:	48 c7 44 24 48 f8 f6 40 00  	(move)  	movq	$0x40f6f8,0x48(%rsp)
  40e9bc:	c7 44 24 50 9d 00 00 00     	(move)  	movl	$0x9d,0x50(%rsp)
  40e9c4:	c7 04 24 00 10 00 00        	(move)  	movl	$0x1000,(%rsp)
  40e9cb:	c7 44 24 04 06 00 00 00     	(move)  	movl	$0x6,0x4(%rsp)
  40e9d3:	48 89 e7                    	(move)  	mov	%rsp,%rdi
  40e9d6:	e8 b5 20 ff ff              	(control)	call	400a90 <_gfortran_st_write@plt>	; ⇄ _gfortran_st_write
924:	
  40e9db:	48 89 e7                    	(move)  	mov	%rsp,%rdi
  40e9de:	e8 fd 1f ff ff              	(control)	call	4009e0 <_gfortran_st_write_done@plt>	; ⇄ _gfortran_st_write_done
925:	
/home/jcsalinas/Documents/pruebas/inst_estimation_module/common/print_results.f:110
  40e9e3:	48 81 c4 08 02 00 00        	(arith) 	add	$0x208,%rsp
  40e9ea:	5b                          	(move)  	pop	%rbx
  40e9eb:	5d                          	(move)  	pop	%rbp
  40e9ec:	41 5c                       	(move)  	pop	%r12
  40e9ee:	41 5d                       	(move)  	pop	%r13
  40e9f0:	41 5e                       	(move)  	pop	%r14
  40e9f2:	41 5f                       	(move)  	pop	%r15
  40e9f4:	c3                          	(control)	ret


000000000040e9f5 <elapsed_time>:
926 (function elapsed_time_):	
/home/jcsalinas/Documents/pruebas/inst_estimation_module/common/timers.f:85
  40e9f5:	48 83 ec 18                 	(arith) 	sub	$0x18,%rsp
/home/jcsalinas/Documents/pruebas/inst_estimation_module/common/timers.f:98
  40e9f9:	48 8d 7c 24 08              	(arith) 	lea	0x8(%rsp),%rdi
  40e9fe:	b8 00 00 00 00              	(move)  	mov	$0,%eax
  40ea03:	e8 6d 00 00 00              	(control)	call	40ea75 <wtime_>	; ⇄ wtime_
928:	
/home/jcsalinas/Documents/pruebas/inst_estimation_module/common/timers.f:107
  40ea08:	f2 0f 10 44 24 08           	(move)  	movsd	0x8(%rsp),%xmm0
  40ea0e:	48 83 c4 18                 	(arith) 	add	$0x18,%rsp
  40ea12:	c3                          	(control)	ret


000000000040ea13 <timer_clear>:
97 (function timer_clear_):	
/home/jcsalinas/Documents/pruebas/inst_estimation_module/common/timers.f:4
  40ea13:	48 63 07                    	(move)  	movsxd	(%rdi),%rax
/home/jcsalinas/Documents/pruebas/inst_estimation_module/common/timers.f:15
  40ea16:	48 c7 04 c5 18 cd 38 0b 00 00 00 00	(move)  	movq	$0,0xb38cd18(,%rax,8)
  40ea22:	c3                          	(control)	ret


000000000040ea23 <timer_start>:
110 (function timer_start_):	
/home/jcsalinas/Documents/pruebas/inst_estimation_module/common/timers.f:23
  40ea23:	53                          	(move)  	push	%rbx
/home/jcsalinas/Documents/pruebas/inst_estimation_module/common/timers.f:35
  40ea24:	48 63 1f                    	(move)  	movsxd	(%rdi),%rbx
  40ea27:	48 83 eb 01                 	(arith) 	sub	$0x1,%rbx
  40ea2b:	e8 c5 ff ff ff              	(control)	call	40e9f5 <elapsed_time_>	; ⇄ elapsed_time
929:	
  40ea30:	f2 0f 11 04 dd 20 cb 38 0b  	(move)  	movsd	%xmm0,0xb38cb20(,%rbx,8)
/home/jcsalinas/Documents/pruebas/inst_estimation_module/common/timers.f:38
  40ea39:	5b                          	(move)  	pop	%rbx
  40ea3a:	c3                          	(control)	ret


000000000040ea3b <timer_stop>:
121 (function timer_stop_):	
/home/jcsalinas/Documents/pruebas/inst_estimation_module/common/timers.f:44
  40ea3b:	53                          	(move)  	push	%rbx
  40ea3c:	48 89 fb                    	(move)  	mov	%rdi,%rbx
/home/jcsalinas/Documents/pruebas/inst_estimation_module/common/timers.f:56
  40ea3f:	e8 b1 ff ff ff              	(control)	call	40e9f5 <elapsed_time_>	; ⇄ elapsed_time
930:	
/home/jcsalinas/Documents/pruebas/inst_estimation_module/common/timers.f:57
  40ea44:	48 63 13                    	(move)  	movsxd	(%rbx),%rdx
/home/jcsalinas/Documents/pruebas/inst_estimation_module/common/timers.f:58
  40ea47:	48 8d 42 3f                 	(arith) 	lea	0x3f(%rdx),%rax
  40ea4b:	f2 0f 5c 04 d5 18 cb 38 0b  	(arith) 	subsd	0xb38cb18(,%rdx,8),%xmm0
  40ea54:	f2 0f 58 04 c5 20 cb 38 0b  	(arith) 	addsd	0xb38cb20(,%rax,8),%xmm0
  40ea5d:	f2 0f 11 04 c5 20 cb 38 0b  	(move)  	movsd	%xmm0,0xb38cb20(,%rax,8)
/home/jcsalinas/Documents/pruebas/inst_estimation_module/common/timers.f:61
  40ea66:	5b                          	(move)  	pop	%rbx
  40ea67:	c3                          	(control)	ret


000000000040ea68 <timer_read>:
123 (function timer_read_):	
/home/jcsalinas/Documents/pruebas/inst_estimation_module/common/timers.f:67
  40ea68:	48 63 07                    	(move)  	movsxd	(%rdi),%rax
/home/jcsalinas/Documents/pruebas/inst_estimation_module/common/timers.f:77
  40ea6b:	f2 0f 10 04 c5 18 cd 38 0b  	(move)  	movsd	0xb38cd18(,%rax,8),%xmm0
/home/jcsalinas/Documents/pruebas/inst_estimation_module/common/timers.f:79
  40ea74:	c3                          	(control)	ret


000000000040ea75 <wtime_>:
927 (function wtime_):	
  40ea75:	53                          	(move)  	push	%rbx
  40ea76:	48 83 ec 20                 	(arith) 	sub	$0x20,%rsp
  40ea7a:	48 89 fb                    	(move)  	mov	%rdi,%rbx
  40ea7d:	64 48 8b 04 25 28 00 00 00  	(move)  	mov	%fs:0x28,%rax
  40ea86:	48 89 44 24 18              	(move)  	mov	%rax,0x18(%rsp)
  40ea8b:	31 c0                       	(logic) 	xor	%eax,%eax
  40ea8d:	be 00 00 00 00              	(move)  	mov	$0,%esi
  40ea92:	48 89 e7                    	(move)  	mov	%rsp,%rdi
  40ea95:	e8 56 1f ff ff              	(control)	call	4009f0 <gettimeofday@plt>	; ⇄ gettimeofday
932:	
  40ea9a:	83 3d 17 26 20 00 00        	(arith) 	cmpl	$0,0x202617(%rip)
  40eaa1:	79 0a                       	(control)	jns	40eaad <wtime_+0x38>	; ↲ label 933
934:	
  40eaa3:	48 8b 04 24                 	(move)  	mov	(%rsp),%rax
  40eaa7:	89 05 0b 26 20 00           	(move)  	mov	%eax,0x20260b(%rip)
933:	
  40eaad:	48 63 05 04 26 20 00        	(move)  	movsxd	0x202604(%rip),%rax
  40eab4:	48 8b 14 24                 	(move)  	mov	(%rsp),%rdx
  40eab8:	48 29 c2                    	(arith) 	sub	%rax,%rdx
  40eabb:	66 0f ef d2                 	(logic) 	pxor	%xmm2,%xmm2
  40eabf:	f2 48 0f 2a d2              	(conv)  	cvtsi2sd	%rdx,%xmm2
  40eac4:	66 0f ef c9                 	(logic) 	pxor	%xmm1,%xmm1
  40eac8:	f2 48 0f 2a 4c 24 08        	(conv)  	cvtsi2sdq	0x8(%rsp),%xmm1
  40eacf:	f2 0f 59 0d c1 0c 00 00     	(arith) 	mulsd	0xcc1(%rip),%xmm1
  40ead7:	66 0f 28 c1                 	(move)  	movapd	%xmm1,%xmm0
  40eadb:	f2 0f 58 c2                 	(arith) 	addsd	%xmm2,%xmm0
  40eadf:	f2 0f 11 03                 	(move)  	movsd	%xmm0,(%rbx)
  40eae3:	48 8b 44 24 18              	(move)  	mov	0x18(%rsp),%rax
  40eae8:	64 48 33 04 25 28 00 00 00  	(logic) 	xor	%fs:0x28,%rax
  40eaf1:	74 05                       	(control)	je	40eaf8 <wtime_+0x83>	; ↲ label 935
936:	
  40eaf3:	e8 a8 1f ff ff              	(control)	call	400aa0 <__stack_chk_fail@plt>	; ⇄ __stack_chk_fail
935:	
  40eaf8:	48 83 c4 20                 	(arith) 	add	$0x20,%rsp
  40eafc:	5b                          	(move)  	pop	%rbx
  40eafd:	c3                          	(control)	ret
938:	
  40eafe:	66 90                       	(move)  	xchg	%ax,%ax


000000000040eb00 <__libc_csu_init>:
939 (function __libc_csu_init):	
  40eb00:	41 57                       	(move)  	push	%r15
  40eb02:	41 56                       	(move)  	push	%r14
  40eb04:	41 89 ff                    	(move)  	mov	%edi,%r15d
  40eb07:	41 55                       	(move)  	push	%r13
  40eb09:	41 54                       	(move)  	push	%r12
  40eb0b:	4c 8d 25 de 22 20 00        	(arith) 	lea	0x2022de(%rip),%r12
  40eb12:	55                          	(move)  	push	%rbp
  40eb13:	48 8d 2d de 22 20 00        	(arith) 	lea	0x2022de(%rip),%rbp
  40eb1a:	53                          	(move)  	push	%rbx
  40eb1b:	49 89 f6                    	(move)  	mov	%rsi,%r14
  40eb1e:	49 89 d5                    	(move)  	mov	%rdx,%r13
  40eb21:	4c 29 e5                    	(arith) 	sub	%r12,%rbp
  40eb24:	48 83 ec 08                 	(arith) 	sub	$0x8,%rsp
  40eb28:	48 c1 fd 03                 	(logic) 	sar	$0x3,%rbp
  40eb2c:	e8 5f 1e ff ff              	(control)	call	400990 <_init>	; ⇄ _init
940:	
  40eb31:	48 85 ed                    	(arith) 	test	%rbp,%rbp
  40eb34:	74 20                       	(control)	je	40eb56 <__libc_csu_init+0x56>	; ↲ label 941
942:	
  40eb36:	31 db                       	(logic) 	xor	%ebx,%ebx
  40eb38:	0f 1f 84 00 00 00 00 00     	(other) 	nopl	(%rax,%rax,1)
; ------- Loop 173 entry
943 (loop 173):	
  40eb40:	4c 89 ea                    	(move)  	mov	%r13,%rdx
  40eb43:	4c 89 f6                    	(move)  	mov	%r14,%rsi
  40eb46:	44 89 ff                    	(move)  	mov	%r15d,%edi
  40eb49:	41 ff 14 dc                 	(control)	callq	(%r12,%rbx,8)
944:	
  40eb4d:	48 83 c3 01                 	(arith) 	add	$0x1,%rbx
  40eb51:	48 39 eb                    	(arith) 	cmp	%rbp,%rbx
  40eb54:	75 ea                       	(control)	jne	40eb40 <__libc_csu_init+0x40>	; ↰ label 943 (loop 173)
; ------- Loop 173 exit
941:	
  40eb56:	48 83 c4 08                 	(arith) 	add	$0x8,%rsp
  40eb5a:	5b                          	(move)  	pop	%rbx
  40eb5b:	5d                          	(move)  	pop	%rbp
  40eb5c:	41 5c                       	(move)  	pop	%r12
  40eb5e:	41 5d                       	(move)  	pop	%r13
  40eb60:	41 5e                       	(move)  	pop	%r14
  40eb62:	41 5f                       	(move)  	pop	%r15
  40eb64:	c3                          	(control)	ret
945:	
  40eb65:	90                          	(other) 	nop
  40eb66:	66 2e 0f 1f 84 00 00 00 00 00	(other) 	nopw	%cs:(%rax,%rax,1)


000000000040eb70 <__libc_csu_fini>:
946 (function __libc_csu_fini):	
  40eb70:	f3 c3                       	(control)	ret


000000000040eb74 <_fini>:
947 (function _fini):	
  40eb74:	48 83 ec 08                 	(arith) 	sub	$0x8,%rsp
  40eb78:	48 83 c4 08                 	(arith) 	add	$0x8,%rsp
  40eb7c:	c3                          	(control)	ret


0000000000400ae0 <.plt.got@start>:
3 (function .plt.got@start):	
  400ae0:	ff 25 12 05 21 00           	(control)	jmp	0x210512(%rip)
